ARM GAS  C:\Users\Nathan\AppData\Local\Temp\cc7cwqzo.s 			page 1


   1              		.cpu cortex-m7
   2              		.arch armv7e-m
   3              		.fpu fpv5-d16
   4              		.eabi_attribute 28, 1
   5              		.eabi_attribute 20, 1
   6              		.eabi_attribute 21, 1
   7              		.eabi_attribute 23, 3
   8              		.eabi_attribute 24, 1
   9              		.eabi_attribute 25, 1
  10              		.eabi_attribute 26, 1
  11              		.eabi_attribute 30, 1
  12              		.eabi_attribute 34, 1
  13              		.eabi_attribute 18, 4
  14              		.file	"stm32h7xx_ll_usb.c"
  15              		.text
  16              	.Ltext0:
  17              		.cfi_sections	.debug_frame
  18              		.file 1 "Drivers/STM32H7xx_HAL_Driver/Src/stm32h7xx_ll_usb.c"
  19              		.section	.text.USB_CoreReset,"ax",%progbits
  20              		.align	1
  21              		.syntax unified
  22              		.thumb
  23              		.thumb_func
  25              	USB_CoreReset:
  26              	.LVL0:
  27              	.LFB178:
   1:Drivers/STM32H7xx_HAL_Driver/Src/stm32h7xx_ll_usb.c **** /**
   2:Drivers/STM32H7xx_HAL_Driver/Src/stm32h7xx_ll_usb.c ****   ******************************************************************************
   3:Drivers/STM32H7xx_HAL_Driver/Src/stm32h7xx_ll_usb.c ****   * @file    stm32h7xx_ll_usb.c
   4:Drivers/STM32H7xx_HAL_Driver/Src/stm32h7xx_ll_usb.c ****   * @author  MCD Application Team
   5:Drivers/STM32H7xx_HAL_Driver/Src/stm32h7xx_ll_usb.c ****   * @brief   USB Low Layer HAL module driver.
   6:Drivers/STM32H7xx_HAL_Driver/Src/stm32h7xx_ll_usb.c ****   *
   7:Drivers/STM32H7xx_HAL_Driver/Src/stm32h7xx_ll_usb.c ****   *          This file provides firmware functions to manage the following
   8:Drivers/STM32H7xx_HAL_Driver/Src/stm32h7xx_ll_usb.c ****   *          functionalities of the USB Peripheral Controller:
   9:Drivers/STM32H7xx_HAL_Driver/Src/stm32h7xx_ll_usb.c ****   *           + Initialization/de-initialization functions
  10:Drivers/STM32H7xx_HAL_Driver/Src/stm32h7xx_ll_usb.c ****   *           + I/O operation functions
  11:Drivers/STM32H7xx_HAL_Driver/Src/stm32h7xx_ll_usb.c ****   *           + Peripheral Control functions
  12:Drivers/STM32H7xx_HAL_Driver/Src/stm32h7xx_ll_usb.c ****   *           + Peripheral State functions
  13:Drivers/STM32H7xx_HAL_Driver/Src/stm32h7xx_ll_usb.c ****   *
  14:Drivers/STM32H7xx_HAL_Driver/Src/stm32h7xx_ll_usb.c ****   ******************************************************************************
  15:Drivers/STM32H7xx_HAL_Driver/Src/stm32h7xx_ll_usb.c ****   * @attention
  16:Drivers/STM32H7xx_HAL_Driver/Src/stm32h7xx_ll_usb.c ****   *
  17:Drivers/STM32H7xx_HAL_Driver/Src/stm32h7xx_ll_usb.c ****   * Copyright (c) 2017 STMicroelectronics.
  18:Drivers/STM32H7xx_HAL_Driver/Src/stm32h7xx_ll_usb.c ****   * All rights reserved.
  19:Drivers/STM32H7xx_HAL_Driver/Src/stm32h7xx_ll_usb.c ****   *
  20:Drivers/STM32H7xx_HAL_Driver/Src/stm32h7xx_ll_usb.c ****   * This software is licensed under terms that can be found in the LICENSE file
  21:Drivers/STM32H7xx_HAL_Driver/Src/stm32h7xx_ll_usb.c ****   * in the root directory of this software component.
  22:Drivers/STM32H7xx_HAL_Driver/Src/stm32h7xx_ll_usb.c ****   * If no LICENSE file comes with this software, it is provided AS-IS.
  23:Drivers/STM32H7xx_HAL_Driver/Src/stm32h7xx_ll_usb.c ****   *
  24:Drivers/STM32H7xx_HAL_Driver/Src/stm32h7xx_ll_usb.c ****   ******************************************************************************
  25:Drivers/STM32H7xx_HAL_Driver/Src/stm32h7xx_ll_usb.c ****   @verbatim
  26:Drivers/STM32H7xx_HAL_Driver/Src/stm32h7xx_ll_usb.c ****   ==============================================================================
  27:Drivers/STM32H7xx_HAL_Driver/Src/stm32h7xx_ll_usb.c ****                     ##### How to use this driver #####
  28:Drivers/STM32H7xx_HAL_Driver/Src/stm32h7xx_ll_usb.c ****   ==============================================================================
  29:Drivers/STM32H7xx_HAL_Driver/Src/stm32h7xx_ll_usb.c ****     [..]
  30:Drivers/STM32H7xx_HAL_Driver/Src/stm32h7xx_ll_usb.c ****       (#) Fill parameters of Init structure in USB_CfgTypeDef structure.
  31:Drivers/STM32H7xx_HAL_Driver/Src/stm32h7xx_ll_usb.c **** 
ARM GAS  C:\Users\Nathan\AppData\Local\Temp\cc7cwqzo.s 			page 2


  32:Drivers/STM32H7xx_HAL_Driver/Src/stm32h7xx_ll_usb.c ****       (#) Call USB_CoreInit() API to initialize the USB Core peripheral.
  33:Drivers/STM32H7xx_HAL_Driver/Src/stm32h7xx_ll_usb.c **** 
  34:Drivers/STM32H7xx_HAL_Driver/Src/stm32h7xx_ll_usb.c ****       (#) The upper HAL HCD/PCD driver will call the right routines for its internal processes.
  35:Drivers/STM32H7xx_HAL_Driver/Src/stm32h7xx_ll_usb.c **** 
  36:Drivers/STM32H7xx_HAL_Driver/Src/stm32h7xx_ll_usb.c ****   @endverbatim
  37:Drivers/STM32H7xx_HAL_Driver/Src/stm32h7xx_ll_usb.c **** 
  38:Drivers/STM32H7xx_HAL_Driver/Src/stm32h7xx_ll_usb.c ****   ******************************************************************************
  39:Drivers/STM32H7xx_HAL_Driver/Src/stm32h7xx_ll_usb.c ****   */
  40:Drivers/STM32H7xx_HAL_Driver/Src/stm32h7xx_ll_usb.c **** 
  41:Drivers/STM32H7xx_HAL_Driver/Src/stm32h7xx_ll_usb.c **** /* Includes ------------------------------------------------------------------*/
  42:Drivers/STM32H7xx_HAL_Driver/Src/stm32h7xx_ll_usb.c **** #include "stm32h7xx_hal.h"
  43:Drivers/STM32H7xx_HAL_Driver/Src/stm32h7xx_ll_usb.c **** 
  44:Drivers/STM32H7xx_HAL_Driver/Src/stm32h7xx_ll_usb.c **** /** @addtogroup STM32H7xx_LL_USB_DRIVER
  45:Drivers/STM32H7xx_HAL_Driver/Src/stm32h7xx_ll_usb.c ****   * @{
  46:Drivers/STM32H7xx_HAL_Driver/Src/stm32h7xx_ll_usb.c ****   */
  47:Drivers/STM32H7xx_HAL_Driver/Src/stm32h7xx_ll_usb.c **** 
  48:Drivers/STM32H7xx_HAL_Driver/Src/stm32h7xx_ll_usb.c **** #if defined (HAL_PCD_MODULE_ENABLED) || defined (HAL_HCD_MODULE_ENABLED)
  49:Drivers/STM32H7xx_HAL_Driver/Src/stm32h7xx_ll_usb.c **** #if defined (USB_OTG_FS) || defined (USB_OTG_HS)
  50:Drivers/STM32H7xx_HAL_Driver/Src/stm32h7xx_ll_usb.c **** /* Private typedef -----------------------------------------------------------*/
  51:Drivers/STM32H7xx_HAL_Driver/Src/stm32h7xx_ll_usb.c **** /* Private define ------------------------------------------------------------*/
  52:Drivers/STM32H7xx_HAL_Driver/Src/stm32h7xx_ll_usb.c **** /* Private macro -------------------------------------------------------------*/
  53:Drivers/STM32H7xx_HAL_Driver/Src/stm32h7xx_ll_usb.c **** /* Private variables ---------------------------------------------------------*/
  54:Drivers/STM32H7xx_HAL_Driver/Src/stm32h7xx_ll_usb.c **** /* Private function prototypes -----------------------------------------------*/
  55:Drivers/STM32H7xx_HAL_Driver/Src/stm32h7xx_ll_usb.c **** /* Private functions ---------------------------------------------------------*/
  56:Drivers/STM32H7xx_HAL_Driver/Src/stm32h7xx_ll_usb.c **** #if defined (USB_OTG_FS) || defined (USB_OTG_HS)
  57:Drivers/STM32H7xx_HAL_Driver/Src/stm32h7xx_ll_usb.c **** static HAL_StatusTypeDef USB_CoreReset(USB_OTG_GlobalTypeDef *USBx);
  58:Drivers/STM32H7xx_HAL_Driver/Src/stm32h7xx_ll_usb.c **** 
  59:Drivers/STM32H7xx_HAL_Driver/Src/stm32h7xx_ll_usb.c **** /* Exported functions --------------------------------------------------------*/
  60:Drivers/STM32H7xx_HAL_Driver/Src/stm32h7xx_ll_usb.c **** /** @defgroup USB_LL_Exported_Functions USB Low Layer Exported Functions
  61:Drivers/STM32H7xx_HAL_Driver/Src/stm32h7xx_ll_usb.c ****   * @{
  62:Drivers/STM32H7xx_HAL_Driver/Src/stm32h7xx_ll_usb.c ****   */
  63:Drivers/STM32H7xx_HAL_Driver/Src/stm32h7xx_ll_usb.c **** 
  64:Drivers/STM32H7xx_HAL_Driver/Src/stm32h7xx_ll_usb.c **** /** @defgroup USB_LL_Exported_Functions_Group1 Initialization/de-initialization functions
  65:Drivers/STM32H7xx_HAL_Driver/Src/stm32h7xx_ll_usb.c ****   *  @brief    Initialization and Configuration functions
  66:Drivers/STM32H7xx_HAL_Driver/Src/stm32h7xx_ll_usb.c ****   *
  67:Drivers/STM32H7xx_HAL_Driver/Src/stm32h7xx_ll_usb.c **** @verbatim
  68:Drivers/STM32H7xx_HAL_Driver/Src/stm32h7xx_ll_usb.c ****  ===============================================================================
  69:Drivers/STM32H7xx_HAL_Driver/Src/stm32h7xx_ll_usb.c ****                       ##### Initialization/de-initialization functions #####
  70:Drivers/STM32H7xx_HAL_Driver/Src/stm32h7xx_ll_usb.c ****  ===============================================================================
  71:Drivers/STM32H7xx_HAL_Driver/Src/stm32h7xx_ll_usb.c **** 
  72:Drivers/STM32H7xx_HAL_Driver/Src/stm32h7xx_ll_usb.c **** @endverbatim
  73:Drivers/STM32H7xx_HAL_Driver/Src/stm32h7xx_ll_usb.c ****   * @{
  74:Drivers/STM32H7xx_HAL_Driver/Src/stm32h7xx_ll_usb.c ****   */
  75:Drivers/STM32H7xx_HAL_Driver/Src/stm32h7xx_ll_usb.c **** 
  76:Drivers/STM32H7xx_HAL_Driver/Src/stm32h7xx_ll_usb.c **** /**
  77:Drivers/STM32H7xx_HAL_Driver/Src/stm32h7xx_ll_usb.c ****   * @brief  Initializes the USB Core
  78:Drivers/STM32H7xx_HAL_Driver/Src/stm32h7xx_ll_usb.c ****   * @param  USBx USB Instance
  79:Drivers/STM32H7xx_HAL_Driver/Src/stm32h7xx_ll_usb.c ****   * @param  cfg pointer to a USB_OTG_CfgTypeDef structure that contains
  80:Drivers/STM32H7xx_HAL_Driver/Src/stm32h7xx_ll_usb.c ****   *         the configuration information for the specified USBx peripheral.
  81:Drivers/STM32H7xx_HAL_Driver/Src/stm32h7xx_ll_usb.c ****   * @retval HAL status
  82:Drivers/STM32H7xx_HAL_Driver/Src/stm32h7xx_ll_usb.c ****   */
  83:Drivers/STM32H7xx_HAL_Driver/Src/stm32h7xx_ll_usb.c **** HAL_StatusTypeDef USB_CoreInit(USB_OTG_GlobalTypeDef *USBx, USB_OTG_CfgTypeDef cfg)
  84:Drivers/STM32H7xx_HAL_Driver/Src/stm32h7xx_ll_usb.c **** {
  85:Drivers/STM32H7xx_HAL_Driver/Src/stm32h7xx_ll_usb.c ****   HAL_StatusTypeDef ret;
  86:Drivers/STM32H7xx_HAL_Driver/Src/stm32h7xx_ll_usb.c ****   if (cfg.phy_itface == USB_OTG_ULPI_PHY)
  87:Drivers/STM32H7xx_HAL_Driver/Src/stm32h7xx_ll_usb.c ****   {
  88:Drivers/STM32H7xx_HAL_Driver/Src/stm32h7xx_ll_usb.c ****     USBx->GCCFG &= ~(USB_OTG_GCCFG_PWRDWN);
ARM GAS  C:\Users\Nathan\AppData\Local\Temp\cc7cwqzo.s 			page 3


  89:Drivers/STM32H7xx_HAL_Driver/Src/stm32h7xx_ll_usb.c **** 
  90:Drivers/STM32H7xx_HAL_Driver/Src/stm32h7xx_ll_usb.c ****     /* Init The ULPI Interface */
  91:Drivers/STM32H7xx_HAL_Driver/Src/stm32h7xx_ll_usb.c ****     USBx->GUSBCFG &= ~(USB_OTG_GUSBCFG_TSDPS | USB_OTG_GUSBCFG_ULPIFSLS | USB_OTG_GUSBCFG_PHYSEL);
  92:Drivers/STM32H7xx_HAL_Driver/Src/stm32h7xx_ll_usb.c **** 
  93:Drivers/STM32H7xx_HAL_Driver/Src/stm32h7xx_ll_usb.c ****     /* Select vbus source */
  94:Drivers/STM32H7xx_HAL_Driver/Src/stm32h7xx_ll_usb.c ****     USBx->GUSBCFG &= ~(USB_OTG_GUSBCFG_ULPIEVBUSD | USB_OTG_GUSBCFG_ULPIEVBUSI);
  95:Drivers/STM32H7xx_HAL_Driver/Src/stm32h7xx_ll_usb.c ****     if (cfg.use_external_vbus == 1U)
  96:Drivers/STM32H7xx_HAL_Driver/Src/stm32h7xx_ll_usb.c ****     {
  97:Drivers/STM32H7xx_HAL_Driver/Src/stm32h7xx_ll_usb.c ****       USBx->GUSBCFG |= USB_OTG_GUSBCFG_ULPIEVBUSD;
  98:Drivers/STM32H7xx_HAL_Driver/Src/stm32h7xx_ll_usb.c ****     }
  99:Drivers/STM32H7xx_HAL_Driver/Src/stm32h7xx_ll_usb.c **** 
 100:Drivers/STM32H7xx_HAL_Driver/Src/stm32h7xx_ll_usb.c ****     /* Reset after a PHY select */
 101:Drivers/STM32H7xx_HAL_Driver/Src/stm32h7xx_ll_usb.c ****     ret = USB_CoreReset(USBx);
 102:Drivers/STM32H7xx_HAL_Driver/Src/stm32h7xx_ll_usb.c ****   }
 103:Drivers/STM32H7xx_HAL_Driver/Src/stm32h7xx_ll_usb.c ****   else /* FS interface (embedded Phy) */
 104:Drivers/STM32H7xx_HAL_Driver/Src/stm32h7xx_ll_usb.c ****   {
 105:Drivers/STM32H7xx_HAL_Driver/Src/stm32h7xx_ll_usb.c ****     /* Select FS Embedded PHY */
 106:Drivers/STM32H7xx_HAL_Driver/Src/stm32h7xx_ll_usb.c ****     USBx->GUSBCFG |= USB_OTG_GUSBCFG_PHYSEL;
 107:Drivers/STM32H7xx_HAL_Driver/Src/stm32h7xx_ll_usb.c **** 
 108:Drivers/STM32H7xx_HAL_Driver/Src/stm32h7xx_ll_usb.c ****     /* Reset after a PHY select */
 109:Drivers/STM32H7xx_HAL_Driver/Src/stm32h7xx_ll_usb.c ****     ret = USB_CoreReset(USBx);
 110:Drivers/STM32H7xx_HAL_Driver/Src/stm32h7xx_ll_usb.c **** 
 111:Drivers/STM32H7xx_HAL_Driver/Src/stm32h7xx_ll_usb.c ****     if (cfg.battery_charging_enable == 0U)
 112:Drivers/STM32H7xx_HAL_Driver/Src/stm32h7xx_ll_usb.c ****     {
 113:Drivers/STM32H7xx_HAL_Driver/Src/stm32h7xx_ll_usb.c ****       /* Activate the USB Transceiver */
 114:Drivers/STM32H7xx_HAL_Driver/Src/stm32h7xx_ll_usb.c ****       USBx->GCCFG |= USB_OTG_GCCFG_PWRDWN;
 115:Drivers/STM32H7xx_HAL_Driver/Src/stm32h7xx_ll_usb.c ****     }
 116:Drivers/STM32H7xx_HAL_Driver/Src/stm32h7xx_ll_usb.c ****     else
 117:Drivers/STM32H7xx_HAL_Driver/Src/stm32h7xx_ll_usb.c ****     {
 118:Drivers/STM32H7xx_HAL_Driver/Src/stm32h7xx_ll_usb.c ****       /* Deactivate the USB Transceiver */
 119:Drivers/STM32H7xx_HAL_Driver/Src/stm32h7xx_ll_usb.c ****       USBx->GCCFG &= ~(USB_OTG_GCCFG_PWRDWN);
 120:Drivers/STM32H7xx_HAL_Driver/Src/stm32h7xx_ll_usb.c ****     }
 121:Drivers/STM32H7xx_HAL_Driver/Src/stm32h7xx_ll_usb.c ****   }
 122:Drivers/STM32H7xx_HAL_Driver/Src/stm32h7xx_ll_usb.c **** 
 123:Drivers/STM32H7xx_HAL_Driver/Src/stm32h7xx_ll_usb.c ****   if (cfg.dma_enable == 1U)
 124:Drivers/STM32H7xx_HAL_Driver/Src/stm32h7xx_ll_usb.c ****   {
 125:Drivers/STM32H7xx_HAL_Driver/Src/stm32h7xx_ll_usb.c ****     /* make sure to reserve 18 fifo Locations for DMA buffers */
 126:Drivers/STM32H7xx_HAL_Driver/Src/stm32h7xx_ll_usb.c ****     USBx->GDFIFOCFG &= ~(0xFFFFU << 16);
 127:Drivers/STM32H7xx_HAL_Driver/Src/stm32h7xx_ll_usb.c ****     USBx->GDFIFOCFG |= 0x3EEU << 16;
 128:Drivers/STM32H7xx_HAL_Driver/Src/stm32h7xx_ll_usb.c **** 
 129:Drivers/STM32H7xx_HAL_Driver/Src/stm32h7xx_ll_usb.c ****     USBx->GAHBCFG |= USB_OTG_GAHBCFG_HBSTLEN_2;
 130:Drivers/STM32H7xx_HAL_Driver/Src/stm32h7xx_ll_usb.c ****     USBx->GAHBCFG |= USB_OTG_GAHBCFG_DMAEN;
 131:Drivers/STM32H7xx_HAL_Driver/Src/stm32h7xx_ll_usb.c ****   }
 132:Drivers/STM32H7xx_HAL_Driver/Src/stm32h7xx_ll_usb.c **** 
 133:Drivers/STM32H7xx_HAL_Driver/Src/stm32h7xx_ll_usb.c ****   return ret;
 134:Drivers/STM32H7xx_HAL_Driver/Src/stm32h7xx_ll_usb.c **** }
 135:Drivers/STM32H7xx_HAL_Driver/Src/stm32h7xx_ll_usb.c **** 
 136:Drivers/STM32H7xx_HAL_Driver/Src/stm32h7xx_ll_usb.c **** 
 137:Drivers/STM32H7xx_HAL_Driver/Src/stm32h7xx_ll_usb.c **** /**
 138:Drivers/STM32H7xx_HAL_Driver/Src/stm32h7xx_ll_usb.c ****   * @brief  Set the USB turnaround time
 139:Drivers/STM32H7xx_HAL_Driver/Src/stm32h7xx_ll_usb.c ****   * @param  USBx USB Instance
 140:Drivers/STM32H7xx_HAL_Driver/Src/stm32h7xx_ll_usb.c ****   * @param  hclk: AHB clock frequency
 141:Drivers/STM32H7xx_HAL_Driver/Src/stm32h7xx_ll_usb.c ****   * @retval USB turnaround time In PHY Clocks number
 142:Drivers/STM32H7xx_HAL_Driver/Src/stm32h7xx_ll_usb.c ****   */
 143:Drivers/STM32H7xx_HAL_Driver/Src/stm32h7xx_ll_usb.c **** HAL_StatusTypeDef USB_SetTurnaroundTime(USB_OTG_GlobalTypeDef *USBx,
 144:Drivers/STM32H7xx_HAL_Driver/Src/stm32h7xx_ll_usb.c ****                                         uint32_t hclk, uint8_t speed)
 145:Drivers/STM32H7xx_HAL_Driver/Src/stm32h7xx_ll_usb.c **** {
ARM GAS  C:\Users\Nathan\AppData\Local\Temp\cc7cwqzo.s 			page 4


 146:Drivers/STM32H7xx_HAL_Driver/Src/stm32h7xx_ll_usb.c ****   uint32_t UsbTrd;
 147:Drivers/STM32H7xx_HAL_Driver/Src/stm32h7xx_ll_usb.c **** 
 148:Drivers/STM32H7xx_HAL_Driver/Src/stm32h7xx_ll_usb.c ****   /* The USBTRD is configured according to the tables below, depending on AHB frequency
 149:Drivers/STM32H7xx_HAL_Driver/Src/stm32h7xx_ll_usb.c ****   used by application. In the low AHB frequency range it is used to stretch enough the USB response
 150:Drivers/STM32H7xx_HAL_Driver/Src/stm32h7xx_ll_usb.c ****   time to IN tokens, the USB turnaround time, so to compensate for the longer AHB read access
 151:Drivers/STM32H7xx_HAL_Driver/Src/stm32h7xx_ll_usb.c ****   latency to the Data FIFO */
 152:Drivers/STM32H7xx_HAL_Driver/Src/stm32h7xx_ll_usb.c ****   if (speed == USBD_FS_SPEED)
 153:Drivers/STM32H7xx_HAL_Driver/Src/stm32h7xx_ll_usb.c ****   {
 154:Drivers/STM32H7xx_HAL_Driver/Src/stm32h7xx_ll_usb.c ****     if ((hclk >= 14200000U) && (hclk < 15000000U))
 155:Drivers/STM32H7xx_HAL_Driver/Src/stm32h7xx_ll_usb.c ****     {
 156:Drivers/STM32H7xx_HAL_Driver/Src/stm32h7xx_ll_usb.c ****       /* hclk Clock Range between 14.2-15 MHz */
 157:Drivers/STM32H7xx_HAL_Driver/Src/stm32h7xx_ll_usb.c ****       UsbTrd = 0xFU;
 158:Drivers/STM32H7xx_HAL_Driver/Src/stm32h7xx_ll_usb.c ****     }
 159:Drivers/STM32H7xx_HAL_Driver/Src/stm32h7xx_ll_usb.c ****     else if ((hclk >= 15000000U) && (hclk < 16000000U))
 160:Drivers/STM32H7xx_HAL_Driver/Src/stm32h7xx_ll_usb.c ****     {
 161:Drivers/STM32H7xx_HAL_Driver/Src/stm32h7xx_ll_usb.c ****       /* hclk Clock Range between 15-16 MHz */
 162:Drivers/STM32H7xx_HAL_Driver/Src/stm32h7xx_ll_usb.c ****       UsbTrd = 0xEU;
 163:Drivers/STM32H7xx_HAL_Driver/Src/stm32h7xx_ll_usb.c ****     }
 164:Drivers/STM32H7xx_HAL_Driver/Src/stm32h7xx_ll_usb.c ****     else if ((hclk >= 16000000U) && (hclk < 17200000U))
 165:Drivers/STM32H7xx_HAL_Driver/Src/stm32h7xx_ll_usb.c ****     {
 166:Drivers/STM32H7xx_HAL_Driver/Src/stm32h7xx_ll_usb.c ****       /* hclk Clock Range between 16-17.2 MHz */
 167:Drivers/STM32H7xx_HAL_Driver/Src/stm32h7xx_ll_usb.c ****       UsbTrd = 0xDU;
 168:Drivers/STM32H7xx_HAL_Driver/Src/stm32h7xx_ll_usb.c ****     }
 169:Drivers/STM32H7xx_HAL_Driver/Src/stm32h7xx_ll_usb.c ****     else if ((hclk >= 17200000U) && (hclk < 18500000U))
 170:Drivers/STM32H7xx_HAL_Driver/Src/stm32h7xx_ll_usb.c ****     {
 171:Drivers/STM32H7xx_HAL_Driver/Src/stm32h7xx_ll_usb.c ****       /* hclk Clock Range between 17.2-18.5 MHz */
 172:Drivers/STM32H7xx_HAL_Driver/Src/stm32h7xx_ll_usb.c ****       UsbTrd = 0xCU;
 173:Drivers/STM32H7xx_HAL_Driver/Src/stm32h7xx_ll_usb.c ****     }
 174:Drivers/STM32H7xx_HAL_Driver/Src/stm32h7xx_ll_usb.c ****     else if ((hclk >= 18500000U) && (hclk < 20000000U))
 175:Drivers/STM32H7xx_HAL_Driver/Src/stm32h7xx_ll_usb.c ****     {
 176:Drivers/STM32H7xx_HAL_Driver/Src/stm32h7xx_ll_usb.c ****       /* hclk Clock Range between 18.5-20 MHz */
 177:Drivers/STM32H7xx_HAL_Driver/Src/stm32h7xx_ll_usb.c ****       UsbTrd = 0xBU;
 178:Drivers/STM32H7xx_HAL_Driver/Src/stm32h7xx_ll_usb.c ****     }
 179:Drivers/STM32H7xx_HAL_Driver/Src/stm32h7xx_ll_usb.c ****     else if ((hclk >= 20000000U) && (hclk < 21800000U))
 180:Drivers/STM32H7xx_HAL_Driver/Src/stm32h7xx_ll_usb.c ****     {
 181:Drivers/STM32H7xx_HAL_Driver/Src/stm32h7xx_ll_usb.c ****       /* hclk Clock Range between 20-21.8 MHz */
 182:Drivers/STM32H7xx_HAL_Driver/Src/stm32h7xx_ll_usb.c ****       UsbTrd = 0xAU;
 183:Drivers/STM32H7xx_HAL_Driver/Src/stm32h7xx_ll_usb.c ****     }
 184:Drivers/STM32H7xx_HAL_Driver/Src/stm32h7xx_ll_usb.c ****     else if ((hclk >= 21800000U) && (hclk < 24000000U))
 185:Drivers/STM32H7xx_HAL_Driver/Src/stm32h7xx_ll_usb.c ****     {
 186:Drivers/STM32H7xx_HAL_Driver/Src/stm32h7xx_ll_usb.c ****       /* hclk Clock Range between 21.8-24 MHz */
 187:Drivers/STM32H7xx_HAL_Driver/Src/stm32h7xx_ll_usb.c ****       UsbTrd = 0x9U;
 188:Drivers/STM32H7xx_HAL_Driver/Src/stm32h7xx_ll_usb.c ****     }
 189:Drivers/STM32H7xx_HAL_Driver/Src/stm32h7xx_ll_usb.c ****     else if ((hclk >= 24000000U) && (hclk < 27700000U))
 190:Drivers/STM32H7xx_HAL_Driver/Src/stm32h7xx_ll_usb.c ****     {
 191:Drivers/STM32H7xx_HAL_Driver/Src/stm32h7xx_ll_usb.c ****       /* hclk Clock Range between 24-27.7 MHz */
 192:Drivers/STM32H7xx_HAL_Driver/Src/stm32h7xx_ll_usb.c ****       UsbTrd = 0x8U;
 193:Drivers/STM32H7xx_HAL_Driver/Src/stm32h7xx_ll_usb.c ****     }
 194:Drivers/STM32H7xx_HAL_Driver/Src/stm32h7xx_ll_usb.c ****     else if ((hclk >= 27700000U) && (hclk < 32000000U))
 195:Drivers/STM32H7xx_HAL_Driver/Src/stm32h7xx_ll_usb.c ****     {
 196:Drivers/STM32H7xx_HAL_Driver/Src/stm32h7xx_ll_usb.c ****       /* hclk Clock Range between 27.7-32 MHz */
 197:Drivers/STM32H7xx_HAL_Driver/Src/stm32h7xx_ll_usb.c ****       UsbTrd = 0x7U;
 198:Drivers/STM32H7xx_HAL_Driver/Src/stm32h7xx_ll_usb.c ****     }
 199:Drivers/STM32H7xx_HAL_Driver/Src/stm32h7xx_ll_usb.c ****     else /* if(hclk >= 32000000) */
 200:Drivers/STM32H7xx_HAL_Driver/Src/stm32h7xx_ll_usb.c ****     {
 201:Drivers/STM32H7xx_HAL_Driver/Src/stm32h7xx_ll_usb.c ****       /* hclk Clock Range between 32-200 MHz */
 202:Drivers/STM32H7xx_HAL_Driver/Src/stm32h7xx_ll_usb.c ****       UsbTrd = 0x6U;
ARM GAS  C:\Users\Nathan\AppData\Local\Temp\cc7cwqzo.s 			page 5


 203:Drivers/STM32H7xx_HAL_Driver/Src/stm32h7xx_ll_usb.c ****     }
 204:Drivers/STM32H7xx_HAL_Driver/Src/stm32h7xx_ll_usb.c ****   }
 205:Drivers/STM32H7xx_HAL_Driver/Src/stm32h7xx_ll_usb.c ****   else if (speed == USBD_HS_SPEED)
 206:Drivers/STM32H7xx_HAL_Driver/Src/stm32h7xx_ll_usb.c ****   {
 207:Drivers/STM32H7xx_HAL_Driver/Src/stm32h7xx_ll_usb.c ****     UsbTrd = USBD_HS_TRDT_VALUE;
 208:Drivers/STM32H7xx_HAL_Driver/Src/stm32h7xx_ll_usb.c ****   }
 209:Drivers/STM32H7xx_HAL_Driver/Src/stm32h7xx_ll_usb.c ****   else
 210:Drivers/STM32H7xx_HAL_Driver/Src/stm32h7xx_ll_usb.c ****   {
 211:Drivers/STM32H7xx_HAL_Driver/Src/stm32h7xx_ll_usb.c ****     UsbTrd = USBD_DEFAULT_TRDT_VALUE;
 212:Drivers/STM32H7xx_HAL_Driver/Src/stm32h7xx_ll_usb.c ****   }
 213:Drivers/STM32H7xx_HAL_Driver/Src/stm32h7xx_ll_usb.c **** 
 214:Drivers/STM32H7xx_HAL_Driver/Src/stm32h7xx_ll_usb.c ****   USBx->GUSBCFG &= ~USB_OTG_GUSBCFG_TRDT;
 215:Drivers/STM32H7xx_HAL_Driver/Src/stm32h7xx_ll_usb.c ****   USBx->GUSBCFG |= (uint32_t)((UsbTrd << 10) & USB_OTG_GUSBCFG_TRDT);
 216:Drivers/STM32H7xx_HAL_Driver/Src/stm32h7xx_ll_usb.c **** 
 217:Drivers/STM32H7xx_HAL_Driver/Src/stm32h7xx_ll_usb.c ****   return HAL_OK;
 218:Drivers/STM32H7xx_HAL_Driver/Src/stm32h7xx_ll_usb.c **** }
 219:Drivers/STM32H7xx_HAL_Driver/Src/stm32h7xx_ll_usb.c **** 
 220:Drivers/STM32H7xx_HAL_Driver/Src/stm32h7xx_ll_usb.c **** /**
 221:Drivers/STM32H7xx_HAL_Driver/Src/stm32h7xx_ll_usb.c ****   * @brief  USB_EnableGlobalInt
 222:Drivers/STM32H7xx_HAL_Driver/Src/stm32h7xx_ll_usb.c ****   *         Enables the controller's Global Int in the AHB Config reg
 223:Drivers/STM32H7xx_HAL_Driver/Src/stm32h7xx_ll_usb.c ****   * @param  USBx  Selected device
 224:Drivers/STM32H7xx_HAL_Driver/Src/stm32h7xx_ll_usb.c ****   * @retval HAL status
 225:Drivers/STM32H7xx_HAL_Driver/Src/stm32h7xx_ll_usb.c ****   */
 226:Drivers/STM32H7xx_HAL_Driver/Src/stm32h7xx_ll_usb.c **** HAL_StatusTypeDef USB_EnableGlobalInt(USB_OTG_GlobalTypeDef *USBx)
 227:Drivers/STM32H7xx_HAL_Driver/Src/stm32h7xx_ll_usb.c **** {
 228:Drivers/STM32H7xx_HAL_Driver/Src/stm32h7xx_ll_usb.c ****   USBx->GAHBCFG |= USB_OTG_GAHBCFG_GINT;
 229:Drivers/STM32H7xx_HAL_Driver/Src/stm32h7xx_ll_usb.c ****   return HAL_OK;
 230:Drivers/STM32H7xx_HAL_Driver/Src/stm32h7xx_ll_usb.c **** }
 231:Drivers/STM32H7xx_HAL_Driver/Src/stm32h7xx_ll_usb.c **** 
 232:Drivers/STM32H7xx_HAL_Driver/Src/stm32h7xx_ll_usb.c **** /**
 233:Drivers/STM32H7xx_HAL_Driver/Src/stm32h7xx_ll_usb.c ****   * @brief  USB_DisableGlobalInt
 234:Drivers/STM32H7xx_HAL_Driver/Src/stm32h7xx_ll_usb.c ****   *         Disable the controller's Global Int in the AHB Config reg
 235:Drivers/STM32H7xx_HAL_Driver/Src/stm32h7xx_ll_usb.c ****   * @param  USBx  Selected device
 236:Drivers/STM32H7xx_HAL_Driver/Src/stm32h7xx_ll_usb.c ****   * @retval HAL status
 237:Drivers/STM32H7xx_HAL_Driver/Src/stm32h7xx_ll_usb.c ****   */
 238:Drivers/STM32H7xx_HAL_Driver/Src/stm32h7xx_ll_usb.c **** HAL_StatusTypeDef USB_DisableGlobalInt(USB_OTG_GlobalTypeDef *USBx)
 239:Drivers/STM32H7xx_HAL_Driver/Src/stm32h7xx_ll_usb.c **** {
 240:Drivers/STM32H7xx_HAL_Driver/Src/stm32h7xx_ll_usb.c ****   USBx->GAHBCFG &= ~USB_OTG_GAHBCFG_GINT;
 241:Drivers/STM32H7xx_HAL_Driver/Src/stm32h7xx_ll_usb.c ****   return HAL_OK;
 242:Drivers/STM32H7xx_HAL_Driver/Src/stm32h7xx_ll_usb.c **** }
 243:Drivers/STM32H7xx_HAL_Driver/Src/stm32h7xx_ll_usb.c **** 
 244:Drivers/STM32H7xx_HAL_Driver/Src/stm32h7xx_ll_usb.c **** /**
 245:Drivers/STM32H7xx_HAL_Driver/Src/stm32h7xx_ll_usb.c ****   * @brief  USB_SetCurrentMode Set functional mode
 246:Drivers/STM32H7xx_HAL_Driver/Src/stm32h7xx_ll_usb.c ****   * @param  USBx  Selected device
 247:Drivers/STM32H7xx_HAL_Driver/Src/stm32h7xx_ll_usb.c ****   * @param  mode  current core mode
 248:Drivers/STM32H7xx_HAL_Driver/Src/stm32h7xx_ll_usb.c ****   *          This parameter can be one of these values:
 249:Drivers/STM32H7xx_HAL_Driver/Src/stm32h7xx_ll_usb.c ****   *            @arg USB_DEVICE_MODE Peripheral mode
 250:Drivers/STM32H7xx_HAL_Driver/Src/stm32h7xx_ll_usb.c ****   *            @arg USB_HOST_MODE Host mode
 251:Drivers/STM32H7xx_HAL_Driver/Src/stm32h7xx_ll_usb.c ****   * @retval HAL status
 252:Drivers/STM32H7xx_HAL_Driver/Src/stm32h7xx_ll_usb.c ****   */
 253:Drivers/STM32H7xx_HAL_Driver/Src/stm32h7xx_ll_usb.c **** HAL_StatusTypeDef USB_SetCurrentMode(USB_OTG_GlobalTypeDef *USBx, USB_OTG_ModeTypeDef mode)
 254:Drivers/STM32H7xx_HAL_Driver/Src/stm32h7xx_ll_usb.c **** {
 255:Drivers/STM32H7xx_HAL_Driver/Src/stm32h7xx_ll_usb.c ****   uint32_t ms = 0U;
 256:Drivers/STM32H7xx_HAL_Driver/Src/stm32h7xx_ll_usb.c **** 
 257:Drivers/STM32H7xx_HAL_Driver/Src/stm32h7xx_ll_usb.c ****   USBx->GUSBCFG &= ~(USB_OTG_GUSBCFG_FHMOD | USB_OTG_GUSBCFG_FDMOD);
 258:Drivers/STM32H7xx_HAL_Driver/Src/stm32h7xx_ll_usb.c **** 
 259:Drivers/STM32H7xx_HAL_Driver/Src/stm32h7xx_ll_usb.c ****   if (mode == USB_HOST_MODE)
ARM GAS  C:\Users\Nathan\AppData\Local\Temp\cc7cwqzo.s 			page 6


 260:Drivers/STM32H7xx_HAL_Driver/Src/stm32h7xx_ll_usb.c ****   {
 261:Drivers/STM32H7xx_HAL_Driver/Src/stm32h7xx_ll_usb.c ****     USBx->GUSBCFG |= USB_OTG_GUSBCFG_FHMOD;
 262:Drivers/STM32H7xx_HAL_Driver/Src/stm32h7xx_ll_usb.c **** 
 263:Drivers/STM32H7xx_HAL_Driver/Src/stm32h7xx_ll_usb.c ****     do
 264:Drivers/STM32H7xx_HAL_Driver/Src/stm32h7xx_ll_usb.c ****     {
 265:Drivers/STM32H7xx_HAL_Driver/Src/stm32h7xx_ll_usb.c ****       HAL_Delay(10U);
 266:Drivers/STM32H7xx_HAL_Driver/Src/stm32h7xx_ll_usb.c ****       ms += 10U;
 267:Drivers/STM32H7xx_HAL_Driver/Src/stm32h7xx_ll_usb.c ****     } while ((USB_GetMode(USBx) != (uint32_t)USB_HOST_MODE) && (ms < HAL_USB_CURRENT_MODE_MAX_DELAY
 268:Drivers/STM32H7xx_HAL_Driver/Src/stm32h7xx_ll_usb.c ****   }
 269:Drivers/STM32H7xx_HAL_Driver/Src/stm32h7xx_ll_usb.c ****   else if (mode == USB_DEVICE_MODE)
 270:Drivers/STM32H7xx_HAL_Driver/Src/stm32h7xx_ll_usb.c ****   {
 271:Drivers/STM32H7xx_HAL_Driver/Src/stm32h7xx_ll_usb.c ****     USBx->GUSBCFG |= USB_OTG_GUSBCFG_FDMOD;
 272:Drivers/STM32H7xx_HAL_Driver/Src/stm32h7xx_ll_usb.c **** 
 273:Drivers/STM32H7xx_HAL_Driver/Src/stm32h7xx_ll_usb.c ****     do
 274:Drivers/STM32H7xx_HAL_Driver/Src/stm32h7xx_ll_usb.c ****     {
 275:Drivers/STM32H7xx_HAL_Driver/Src/stm32h7xx_ll_usb.c ****       HAL_Delay(10U);
 276:Drivers/STM32H7xx_HAL_Driver/Src/stm32h7xx_ll_usb.c ****       ms += 10U;
 277:Drivers/STM32H7xx_HAL_Driver/Src/stm32h7xx_ll_usb.c ****     } while ((USB_GetMode(USBx) != (uint32_t)USB_DEVICE_MODE) && (ms < HAL_USB_CURRENT_MODE_MAX_DEL
 278:Drivers/STM32H7xx_HAL_Driver/Src/stm32h7xx_ll_usb.c ****   }
 279:Drivers/STM32H7xx_HAL_Driver/Src/stm32h7xx_ll_usb.c ****   else
 280:Drivers/STM32H7xx_HAL_Driver/Src/stm32h7xx_ll_usb.c ****   {
 281:Drivers/STM32H7xx_HAL_Driver/Src/stm32h7xx_ll_usb.c ****     return HAL_ERROR;
 282:Drivers/STM32H7xx_HAL_Driver/Src/stm32h7xx_ll_usb.c ****   }
 283:Drivers/STM32H7xx_HAL_Driver/Src/stm32h7xx_ll_usb.c **** 
 284:Drivers/STM32H7xx_HAL_Driver/Src/stm32h7xx_ll_usb.c ****   if (ms == HAL_USB_CURRENT_MODE_MAX_DELAY_MS)
 285:Drivers/STM32H7xx_HAL_Driver/Src/stm32h7xx_ll_usb.c ****   {
 286:Drivers/STM32H7xx_HAL_Driver/Src/stm32h7xx_ll_usb.c ****     return HAL_ERROR;
 287:Drivers/STM32H7xx_HAL_Driver/Src/stm32h7xx_ll_usb.c ****   }
 288:Drivers/STM32H7xx_HAL_Driver/Src/stm32h7xx_ll_usb.c **** 
 289:Drivers/STM32H7xx_HAL_Driver/Src/stm32h7xx_ll_usb.c ****   return HAL_OK;
 290:Drivers/STM32H7xx_HAL_Driver/Src/stm32h7xx_ll_usb.c **** }
 291:Drivers/STM32H7xx_HAL_Driver/Src/stm32h7xx_ll_usb.c **** 
 292:Drivers/STM32H7xx_HAL_Driver/Src/stm32h7xx_ll_usb.c **** /**
 293:Drivers/STM32H7xx_HAL_Driver/Src/stm32h7xx_ll_usb.c ****   * @brief  USB_DevInit Initializes the USB_OTG controller registers
 294:Drivers/STM32H7xx_HAL_Driver/Src/stm32h7xx_ll_usb.c ****   *         for device mode
 295:Drivers/STM32H7xx_HAL_Driver/Src/stm32h7xx_ll_usb.c ****   * @param  USBx  Selected device
 296:Drivers/STM32H7xx_HAL_Driver/Src/stm32h7xx_ll_usb.c ****   * @param  cfg   pointer to a USB_OTG_CfgTypeDef structure that contains
 297:Drivers/STM32H7xx_HAL_Driver/Src/stm32h7xx_ll_usb.c ****   *         the configuration information for the specified USBx peripheral.
 298:Drivers/STM32H7xx_HAL_Driver/Src/stm32h7xx_ll_usb.c ****   * @retval HAL status
 299:Drivers/STM32H7xx_HAL_Driver/Src/stm32h7xx_ll_usb.c ****   */
 300:Drivers/STM32H7xx_HAL_Driver/Src/stm32h7xx_ll_usb.c **** HAL_StatusTypeDef USB_DevInit(USB_OTG_GlobalTypeDef *USBx, USB_OTG_CfgTypeDef cfg)
 301:Drivers/STM32H7xx_HAL_Driver/Src/stm32h7xx_ll_usb.c **** {
 302:Drivers/STM32H7xx_HAL_Driver/Src/stm32h7xx_ll_usb.c ****   HAL_StatusTypeDef ret = HAL_OK;
 303:Drivers/STM32H7xx_HAL_Driver/Src/stm32h7xx_ll_usb.c ****   uint32_t USBx_BASE = (uint32_t)USBx;
 304:Drivers/STM32H7xx_HAL_Driver/Src/stm32h7xx_ll_usb.c ****   uint32_t i;
 305:Drivers/STM32H7xx_HAL_Driver/Src/stm32h7xx_ll_usb.c **** 
 306:Drivers/STM32H7xx_HAL_Driver/Src/stm32h7xx_ll_usb.c ****   for (i = 0U; i < 15U; i++)
 307:Drivers/STM32H7xx_HAL_Driver/Src/stm32h7xx_ll_usb.c ****   {
 308:Drivers/STM32H7xx_HAL_Driver/Src/stm32h7xx_ll_usb.c ****     USBx->DIEPTXF[i] = 0U;
 309:Drivers/STM32H7xx_HAL_Driver/Src/stm32h7xx_ll_usb.c ****   }
 310:Drivers/STM32H7xx_HAL_Driver/Src/stm32h7xx_ll_usb.c **** 
 311:Drivers/STM32H7xx_HAL_Driver/Src/stm32h7xx_ll_usb.c ****   /* VBUS Sensing setup */
 312:Drivers/STM32H7xx_HAL_Driver/Src/stm32h7xx_ll_usb.c ****   if (cfg.vbus_sensing_enable == 0U)
 313:Drivers/STM32H7xx_HAL_Driver/Src/stm32h7xx_ll_usb.c ****   {
 314:Drivers/STM32H7xx_HAL_Driver/Src/stm32h7xx_ll_usb.c ****     USBx_DEVICE->DCTL |= USB_OTG_DCTL_SDIS;
 315:Drivers/STM32H7xx_HAL_Driver/Src/stm32h7xx_ll_usb.c **** 
 316:Drivers/STM32H7xx_HAL_Driver/Src/stm32h7xx_ll_usb.c ****     /* Deactivate VBUS Sensing B */
ARM GAS  C:\Users\Nathan\AppData\Local\Temp\cc7cwqzo.s 			page 7


 317:Drivers/STM32H7xx_HAL_Driver/Src/stm32h7xx_ll_usb.c ****     USBx->GCCFG &= ~USB_OTG_GCCFG_VBDEN;
 318:Drivers/STM32H7xx_HAL_Driver/Src/stm32h7xx_ll_usb.c **** 
 319:Drivers/STM32H7xx_HAL_Driver/Src/stm32h7xx_ll_usb.c ****     /* B-peripheral session valid override enable */
 320:Drivers/STM32H7xx_HAL_Driver/Src/stm32h7xx_ll_usb.c ****     USBx->GOTGCTL |= USB_OTG_GOTGCTL_BVALOEN;
 321:Drivers/STM32H7xx_HAL_Driver/Src/stm32h7xx_ll_usb.c ****     USBx->GOTGCTL |= USB_OTG_GOTGCTL_BVALOVAL;
 322:Drivers/STM32H7xx_HAL_Driver/Src/stm32h7xx_ll_usb.c ****   }
 323:Drivers/STM32H7xx_HAL_Driver/Src/stm32h7xx_ll_usb.c ****   else
 324:Drivers/STM32H7xx_HAL_Driver/Src/stm32h7xx_ll_usb.c ****   {
 325:Drivers/STM32H7xx_HAL_Driver/Src/stm32h7xx_ll_usb.c ****     /* Enable HW VBUS sensing */
 326:Drivers/STM32H7xx_HAL_Driver/Src/stm32h7xx_ll_usb.c ****     USBx->GCCFG |= USB_OTG_GCCFG_VBDEN;
 327:Drivers/STM32H7xx_HAL_Driver/Src/stm32h7xx_ll_usb.c ****   }
 328:Drivers/STM32H7xx_HAL_Driver/Src/stm32h7xx_ll_usb.c **** 
 329:Drivers/STM32H7xx_HAL_Driver/Src/stm32h7xx_ll_usb.c ****   /* Restart the Phy Clock */
 330:Drivers/STM32H7xx_HAL_Driver/Src/stm32h7xx_ll_usb.c ****   USBx_PCGCCTL = 0U;
 331:Drivers/STM32H7xx_HAL_Driver/Src/stm32h7xx_ll_usb.c **** 
 332:Drivers/STM32H7xx_HAL_Driver/Src/stm32h7xx_ll_usb.c ****   if (cfg.phy_itface == USB_OTG_ULPI_PHY)
 333:Drivers/STM32H7xx_HAL_Driver/Src/stm32h7xx_ll_usb.c ****   {
 334:Drivers/STM32H7xx_HAL_Driver/Src/stm32h7xx_ll_usb.c ****     if (cfg.speed == USBD_HS_SPEED)
 335:Drivers/STM32H7xx_HAL_Driver/Src/stm32h7xx_ll_usb.c ****     {
 336:Drivers/STM32H7xx_HAL_Driver/Src/stm32h7xx_ll_usb.c ****       /* Set Core speed to High speed mode */
 337:Drivers/STM32H7xx_HAL_Driver/Src/stm32h7xx_ll_usb.c ****       (void)USB_SetDevSpeed(USBx, USB_OTG_SPEED_HIGH);
 338:Drivers/STM32H7xx_HAL_Driver/Src/stm32h7xx_ll_usb.c ****     }
 339:Drivers/STM32H7xx_HAL_Driver/Src/stm32h7xx_ll_usb.c ****     else
 340:Drivers/STM32H7xx_HAL_Driver/Src/stm32h7xx_ll_usb.c ****     {
 341:Drivers/STM32H7xx_HAL_Driver/Src/stm32h7xx_ll_usb.c ****       /* Set Core speed to Full speed mode */
 342:Drivers/STM32H7xx_HAL_Driver/Src/stm32h7xx_ll_usb.c ****       (void)USB_SetDevSpeed(USBx, USB_OTG_SPEED_HIGH_IN_FULL);
 343:Drivers/STM32H7xx_HAL_Driver/Src/stm32h7xx_ll_usb.c ****     }
 344:Drivers/STM32H7xx_HAL_Driver/Src/stm32h7xx_ll_usb.c ****   }
 345:Drivers/STM32H7xx_HAL_Driver/Src/stm32h7xx_ll_usb.c ****   else
 346:Drivers/STM32H7xx_HAL_Driver/Src/stm32h7xx_ll_usb.c ****   {
 347:Drivers/STM32H7xx_HAL_Driver/Src/stm32h7xx_ll_usb.c ****     /* Set Core speed to Full speed mode */
 348:Drivers/STM32H7xx_HAL_Driver/Src/stm32h7xx_ll_usb.c ****     (void)USB_SetDevSpeed(USBx, USB_OTG_SPEED_FULL);
 349:Drivers/STM32H7xx_HAL_Driver/Src/stm32h7xx_ll_usb.c ****   }
 350:Drivers/STM32H7xx_HAL_Driver/Src/stm32h7xx_ll_usb.c **** 
 351:Drivers/STM32H7xx_HAL_Driver/Src/stm32h7xx_ll_usb.c ****   /* Flush the FIFOs */
 352:Drivers/STM32H7xx_HAL_Driver/Src/stm32h7xx_ll_usb.c ****   if (USB_FlushTxFifo(USBx, 0x10U) != HAL_OK) /* all Tx FIFOs */
 353:Drivers/STM32H7xx_HAL_Driver/Src/stm32h7xx_ll_usb.c ****   {
 354:Drivers/STM32H7xx_HAL_Driver/Src/stm32h7xx_ll_usb.c ****     ret = HAL_ERROR;
 355:Drivers/STM32H7xx_HAL_Driver/Src/stm32h7xx_ll_usb.c ****   }
 356:Drivers/STM32H7xx_HAL_Driver/Src/stm32h7xx_ll_usb.c **** 
 357:Drivers/STM32H7xx_HAL_Driver/Src/stm32h7xx_ll_usb.c ****   if (USB_FlushRxFifo(USBx) != HAL_OK)
 358:Drivers/STM32H7xx_HAL_Driver/Src/stm32h7xx_ll_usb.c ****   {
 359:Drivers/STM32H7xx_HAL_Driver/Src/stm32h7xx_ll_usb.c ****     ret = HAL_ERROR;
 360:Drivers/STM32H7xx_HAL_Driver/Src/stm32h7xx_ll_usb.c ****   }
 361:Drivers/STM32H7xx_HAL_Driver/Src/stm32h7xx_ll_usb.c **** 
 362:Drivers/STM32H7xx_HAL_Driver/Src/stm32h7xx_ll_usb.c ****   /* Clear all pending Device Interrupts */
 363:Drivers/STM32H7xx_HAL_Driver/Src/stm32h7xx_ll_usb.c ****   USBx_DEVICE->DIEPMSK = 0U;
 364:Drivers/STM32H7xx_HAL_Driver/Src/stm32h7xx_ll_usb.c ****   USBx_DEVICE->DOEPMSK = 0U;
 365:Drivers/STM32H7xx_HAL_Driver/Src/stm32h7xx_ll_usb.c ****   USBx_DEVICE->DAINTMSK = 0U;
 366:Drivers/STM32H7xx_HAL_Driver/Src/stm32h7xx_ll_usb.c **** 
 367:Drivers/STM32H7xx_HAL_Driver/Src/stm32h7xx_ll_usb.c ****   for (i = 0U; i < cfg.dev_endpoints; i++)
 368:Drivers/STM32H7xx_HAL_Driver/Src/stm32h7xx_ll_usb.c ****   {
 369:Drivers/STM32H7xx_HAL_Driver/Src/stm32h7xx_ll_usb.c ****     if ((USBx_INEP(i)->DIEPCTL & USB_OTG_DIEPCTL_EPENA) == USB_OTG_DIEPCTL_EPENA)
 370:Drivers/STM32H7xx_HAL_Driver/Src/stm32h7xx_ll_usb.c ****     {
 371:Drivers/STM32H7xx_HAL_Driver/Src/stm32h7xx_ll_usb.c ****       if (i == 0U)
 372:Drivers/STM32H7xx_HAL_Driver/Src/stm32h7xx_ll_usb.c ****       {
 373:Drivers/STM32H7xx_HAL_Driver/Src/stm32h7xx_ll_usb.c ****         USBx_INEP(i)->DIEPCTL = USB_OTG_DIEPCTL_SNAK;
ARM GAS  C:\Users\Nathan\AppData\Local\Temp\cc7cwqzo.s 			page 8


 374:Drivers/STM32H7xx_HAL_Driver/Src/stm32h7xx_ll_usb.c ****       }
 375:Drivers/STM32H7xx_HAL_Driver/Src/stm32h7xx_ll_usb.c ****       else
 376:Drivers/STM32H7xx_HAL_Driver/Src/stm32h7xx_ll_usb.c ****       {
 377:Drivers/STM32H7xx_HAL_Driver/Src/stm32h7xx_ll_usb.c ****         USBx_INEP(i)->DIEPCTL = USB_OTG_DIEPCTL_EPDIS | USB_OTG_DIEPCTL_SNAK;
 378:Drivers/STM32H7xx_HAL_Driver/Src/stm32h7xx_ll_usb.c ****       }
 379:Drivers/STM32H7xx_HAL_Driver/Src/stm32h7xx_ll_usb.c ****     }
 380:Drivers/STM32H7xx_HAL_Driver/Src/stm32h7xx_ll_usb.c ****     else
 381:Drivers/STM32H7xx_HAL_Driver/Src/stm32h7xx_ll_usb.c ****     {
 382:Drivers/STM32H7xx_HAL_Driver/Src/stm32h7xx_ll_usb.c ****       USBx_INEP(i)->DIEPCTL = 0U;
 383:Drivers/STM32H7xx_HAL_Driver/Src/stm32h7xx_ll_usb.c ****     }
 384:Drivers/STM32H7xx_HAL_Driver/Src/stm32h7xx_ll_usb.c **** 
 385:Drivers/STM32H7xx_HAL_Driver/Src/stm32h7xx_ll_usb.c ****     USBx_INEP(i)->DIEPTSIZ = 0U;
 386:Drivers/STM32H7xx_HAL_Driver/Src/stm32h7xx_ll_usb.c ****     USBx_INEP(i)->DIEPINT  = 0xFB7FU;
 387:Drivers/STM32H7xx_HAL_Driver/Src/stm32h7xx_ll_usb.c ****   }
 388:Drivers/STM32H7xx_HAL_Driver/Src/stm32h7xx_ll_usb.c **** 
 389:Drivers/STM32H7xx_HAL_Driver/Src/stm32h7xx_ll_usb.c ****   for (i = 0U; i < cfg.dev_endpoints; i++)
 390:Drivers/STM32H7xx_HAL_Driver/Src/stm32h7xx_ll_usb.c ****   {
 391:Drivers/STM32H7xx_HAL_Driver/Src/stm32h7xx_ll_usb.c ****     if ((USBx_OUTEP(i)->DOEPCTL & USB_OTG_DOEPCTL_EPENA) == USB_OTG_DOEPCTL_EPENA)
 392:Drivers/STM32H7xx_HAL_Driver/Src/stm32h7xx_ll_usb.c ****     {
 393:Drivers/STM32H7xx_HAL_Driver/Src/stm32h7xx_ll_usb.c ****       if (i == 0U)
 394:Drivers/STM32H7xx_HAL_Driver/Src/stm32h7xx_ll_usb.c ****       {
 395:Drivers/STM32H7xx_HAL_Driver/Src/stm32h7xx_ll_usb.c ****         USBx_OUTEP(i)->DOEPCTL = USB_OTG_DOEPCTL_SNAK;
 396:Drivers/STM32H7xx_HAL_Driver/Src/stm32h7xx_ll_usb.c ****       }
 397:Drivers/STM32H7xx_HAL_Driver/Src/stm32h7xx_ll_usb.c ****       else
 398:Drivers/STM32H7xx_HAL_Driver/Src/stm32h7xx_ll_usb.c ****       {
 399:Drivers/STM32H7xx_HAL_Driver/Src/stm32h7xx_ll_usb.c ****         USBx_OUTEP(i)->DOEPCTL = USB_OTG_DOEPCTL_EPDIS | USB_OTG_DOEPCTL_SNAK;
 400:Drivers/STM32H7xx_HAL_Driver/Src/stm32h7xx_ll_usb.c ****       }
 401:Drivers/STM32H7xx_HAL_Driver/Src/stm32h7xx_ll_usb.c ****     }
 402:Drivers/STM32H7xx_HAL_Driver/Src/stm32h7xx_ll_usb.c ****     else
 403:Drivers/STM32H7xx_HAL_Driver/Src/stm32h7xx_ll_usb.c ****     {
 404:Drivers/STM32H7xx_HAL_Driver/Src/stm32h7xx_ll_usb.c ****       USBx_OUTEP(i)->DOEPCTL = 0U;
 405:Drivers/STM32H7xx_HAL_Driver/Src/stm32h7xx_ll_usb.c ****     }
 406:Drivers/STM32H7xx_HAL_Driver/Src/stm32h7xx_ll_usb.c **** 
 407:Drivers/STM32H7xx_HAL_Driver/Src/stm32h7xx_ll_usb.c ****     USBx_OUTEP(i)->DOEPTSIZ = 0U;
 408:Drivers/STM32H7xx_HAL_Driver/Src/stm32h7xx_ll_usb.c ****     USBx_OUTEP(i)->DOEPINT  = 0xFB7FU;
 409:Drivers/STM32H7xx_HAL_Driver/Src/stm32h7xx_ll_usb.c ****   }
 410:Drivers/STM32H7xx_HAL_Driver/Src/stm32h7xx_ll_usb.c **** 
 411:Drivers/STM32H7xx_HAL_Driver/Src/stm32h7xx_ll_usb.c ****   USBx_DEVICE->DIEPMSK &= ~(USB_OTG_DIEPMSK_TXFURM);
 412:Drivers/STM32H7xx_HAL_Driver/Src/stm32h7xx_ll_usb.c **** 
 413:Drivers/STM32H7xx_HAL_Driver/Src/stm32h7xx_ll_usb.c ****   /* Disable all interrupts. */
 414:Drivers/STM32H7xx_HAL_Driver/Src/stm32h7xx_ll_usb.c ****   USBx->GINTMSK = 0U;
 415:Drivers/STM32H7xx_HAL_Driver/Src/stm32h7xx_ll_usb.c **** 
 416:Drivers/STM32H7xx_HAL_Driver/Src/stm32h7xx_ll_usb.c ****   /* Clear any pending interrupts */
 417:Drivers/STM32H7xx_HAL_Driver/Src/stm32h7xx_ll_usb.c ****   USBx->GINTSTS = 0xBFFFFFFFU;
 418:Drivers/STM32H7xx_HAL_Driver/Src/stm32h7xx_ll_usb.c **** 
 419:Drivers/STM32H7xx_HAL_Driver/Src/stm32h7xx_ll_usb.c ****   /* Enable the common interrupts */
 420:Drivers/STM32H7xx_HAL_Driver/Src/stm32h7xx_ll_usb.c ****   if (cfg.dma_enable == 0U)
 421:Drivers/STM32H7xx_HAL_Driver/Src/stm32h7xx_ll_usb.c ****   {
 422:Drivers/STM32H7xx_HAL_Driver/Src/stm32h7xx_ll_usb.c ****     USBx->GINTMSK |= USB_OTG_GINTMSK_RXFLVLM;
 423:Drivers/STM32H7xx_HAL_Driver/Src/stm32h7xx_ll_usb.c ****   }
 424:Drivers/STM32H7xx_HAL_Driver/Src/stm32h7xx_ll_usb.c **** 
 425:Drivers/STM32H7xx_HAL_Driver/Src/stm32h7xx_ll_usb.c ****   /* Enable interrupts matching to the Device mode ONLY */
 426:Drivers/STM32H7xx_HAL_Driver/Src/stm32h7xx_ll_usb.c ****   USBx->GINTMSK |= USB_OTG_GINTMSK_USBSUSPM | USB_OTG_GINTMSK_USBRST |
 427:Drivers/STM32H7xx_HAL_Driver/Src/stm32h7xx_ll_usb.c ****                    USB_OTG_GINTMSK_ENUMDNEM | USB_OTG_GINTMSK_IEPINT |
 428:Drivers/STM32H7xx_HAL_Driver/Src/stm32h7xx_ll_usb.c ****                    USB_OTG_GINTMSK_OEPINT   | USB_OTG_GINTMSK_IISOIXFRM |
 429:Drivers/STM32H7xx_HAL_Driver/Src/stm32h7xx_ll_usb.c ****                    USB_OTG_GINTMSK_PXFRM_IISOOXFRM | USB_OTG_GINTMSK_WUIM;
 430:Drivers/STM32H7xx_HAL_Driver/Src/stm32h7xx_ll_usb.c **** 
ARM GAS  C:\Users\Nathan\AppData\Local\Temp\cc7cwqzo.s 			page 9


 431:Drivers/STM32H7xx_HAL_Driver/Src/stm32h7xx_ll_usb.c ****   if (cfg.Sof_enable != 0U)
 432:Drivers/STM32H7xx_HAL_Driver/Src/stm32h7xx_ll_usb.c ****   {
 433:Drivers/STM32H7xx_HAL_Driver/Src/stm32h7xx_ll_usb.c ****     USBx->GINTMSK |= USB_OTG_GINTMSK_SOFM;
 434:Drivers/STM32H7xx_HAL_Driver/Src/stm32h7xx_ll_usb.c ****   }
 435:Drivers/STM32H7xx_HAL_Driver/Src/stm32h7xx_ll_usb.c **** 
 436:Drivers/STM32H7xx_HAL_Driver/Src/stm32h7xx_ll_usb.c ****   if (cfg.vbus_sensing_enable == 1U)
 437:Drivers/STM32H7xx_HAL_Driver/Src/stm32h7xx_ll_usb.c ****   {
 438:Drivers/STM32H7xx_HAL_Driver/Src/stm32h7xx_ll_usb.c ****     USBx->GINTMSK |= (USB_OTG_GINTMSK_SRQIM | USB_OTG_GINTMSK_OTGINT);
 439:Drivers/STM32H7xx_HAL_Driver/Src/stm32h7xx_ll_usb.c ****   }
 440:Drivers/STM32H7xx_HAL_Driver/Src/stm32h7xx_ll_usb.c **** 
 441:Drivers/STM32H7xx_HAL_Driver/Src/stm32h7xx_ll_usb.c ****   return ret;
 442:Drivers/STM32H7xx_HAL_Driver/Src/stm32h7xx_ll_usb.c **** }
 443:Drivers/STM32H7xx_HAL_Driver/Src/stm32h7xx_ll_usb.c **** 
 444:Drivers/STM32H7xx_HAL_Driver/Src/stm32h7xx_ll_usb.c **** /**
 445:Drivers/STM32H7xx_HAL_Driver/Src/stm32h7xx_ll_usb.c ****   * @brief  USB_FlushTxFifo Flush a Tx FIFO
 446:Drivers/STM32H7xx_HAL_Driver/Src/stm32h7xx_ll_usb.c ****   * @param  USBx  Selected device
 447:Drivers/STM32H7xx_HAL_Driver/Src/stm32h7xx_ll_usb.c ****   * @param  num  FIFO number
 448:Drivers/STM32H7xx_HAL_Driver/Src/stm32h7xx_ll_usb.c ****   *         This parameter can be a value from 1 to 15
 449:Drivers/STM32H7xx_HAL_Driver/Src/stm32h7xx_ll_usb.c ****             15 means Flush all Tx FIFOs
 450:Drivers/STM32H7xx_HAL_Driver/Src/stm32h7xx_ll_usb.c ****   * @retval HAL status
 451:Drivers/STM32H7xx_HAL_Driver/Src/stm32h7xx_ll_usb.c ****   */
 452:Drivers/STM32H7xx_HAL_Driver/Src/stm32h7xx_ll_usb.c **** HAL_StatusTypeDef USB_FlushTxFifo(USB_OTG_GlobalTypeDef *USBx, uint32_t num)
 453:Drivers/STM32H7xx_HAL_Driver/Src/stm32h7xx_ll_usb.c **** {
 454:Drivers/STM32H7xx_HAL_Driver/Src/stm32h7xx_ll_usb.c ****   __IO uint32_t count = 0U;
 455:Drivers/STM32H7xx_HAL_Driver/Src/stm32h7xx_ll_usb.c **** 
 456:Drivers/STM32H7xx_HAL_Driver/Src/stm32h7xx_ll_usb.c ****   /* Wait for AHB master IDLE state. */
 457:Drivers/STM32H7xx_HAL_Driver/Src/stm32h7xx_ll_usb.c ****   do
 458:Drivers/STM32H7xx_HAL_Driver/Src/stm32h7xx_ll_usb.c ****   {
 459:Drivers/STM32H7xx_HAL_Driver/Src/stm32h7xx_ll_usb.c ****     count++;
 460:Drivers/STM32H7xx_HAL_Driver/Src/stm32h7xx_ll_usb.c **** 
 461:Drivers/STM32H7xx_HAL_Driver/Src/stm32h7xx_ll_usb.c ****     if (count > HAL_USB_TIMEOUT)
 462:Drivers/STM32H7xx_HAL_Driver/Src/stm32h7xx_ll_usb.c ****     {
 463:Drivers/STM32H7xx_HAL_Driver/Src/stm32h7xx_ll_usb.c ****       return HAL_TIMEOUT;
 464:Drivers/STM32H7xx_HAL_Driver/Src/stm32h7xx_ll_usb.c ****     }
 465:Drivers/STM32H7xx_HAL_Driver/Src/stm32h7xx_ll_usb.c ****   } while ((USBx->GRSTCTL & USB_OTG_GRSTCTL_AHBIDL) == 0U);
 466:Drivers/STM32H7xx_HAL_Driver/Src/stm32h7xx_ll_usb.c **** 
 467:Drivers/STM32H7xx_HAL_Driver/Src/stm32h7xx_ll_usb.c ****   /* Flush TX Fifo */
 468:Drivers/STM32H7xx_HAL_Driver/Src/stm32h7xx_ll_usb.c ****   count = 0U;
 469:Drivers/STM32H7xx_HAL_Driver/Src/stm32h7xx_ll_usb.c ****   USBx->GRSTCTL = (USB_OTG_GRSTCTL_TXFFLSH | (num << 6));
 470:Drivers/STM32H7xx_HAL_Driver/Src/stm32h7xx_ll_usb.c **** 
 471:Drivers/STM32H7xx_HAL_Driver/Src/stm32h7xx_ll_usb.c ****   do
 472:Drivers/STM32H7xx_HAL_Driver/Src/stm32h7xx_ll_usb.c ****   {
 473:Drivers/STM32H7xx_HAL_Driver/Src/stm32h7xx_ll_usb.c ****     count++;
 474:Drivers/STM32H7xx_HAL_Driver/Src/stm32h7xx_ll_usb.c **** 
 475:Drivers/STM32H7xx_HAL_Driver/Src/stm32h7xx_ll_usb.c ****     if (count > HAL_USB_TIMEOUT)
 476:Drivers/STM32H7xx_HAL_Driver/Src/stm32h7xx_ll_usb.c ****     {
 477:Drivers/STM32H7xx_HAL_Driver/Src/stm32h7xx_ll_usb.c ****       return HAL_TIMEOUT;
 478:Drivers/STM32H7xx_HAL_Driver/Src/stm32h7xx_ll_usb.c ****     }
 479:Drivers/STM32H7xx_HAL_Driver/Src/stm32h7xx_ll_usb.c ****   } while ((USBx->GRSTCTL & USB_OTG_GRSTCTL_TXFFLSH) == USB_OTG_GRSTCTL_TXFFLSH);
 480:Drivers/STM32H7xx_HAL_Driver/Src/stm32h7xx_ll_usb.c **** 
 481:Drivers/STM32H7xx_HAL_Driver/Src/stm32h7xx_ll_usb.c ****   return HAL_OK;
 482:Drivers/STM32H7xx_HAL_Driver/Src/stm32h7xx_ll_usb.c **** }
 483:Drivers/STM32H7xx_HAL_Driver/Src/stm32h7xx_ll_usb.c **** 
 484:Drivers/STM32H7xx_HAL_Driver/Src/stm32h7xx_ll_usb.c **** /**
 485:Drivers/STM32H7xx_HAL_Driver/Src/stm32h7xx_ll_usb.c ****   * @brief  USB_FlushRxFifo  Flush Rx FIFO
 486:Drivers/STM32H7xx_HAL_Driver/Src/stm32h7xx_ll_usb.c ****   * @param  USBx  Selected device
 487:Drivers/STM32H7xx_HAL_Driver/Src/stm32h7xx_ll_usb.c ****   * @retval HAL status
ARM GAS  C:\Users\Nathan\AppData\Local\Temp\cc7cwqzo.s 			page 10


 488:Drivers/STM32H7xx_HAL_Driver/Src/stm32h7xx_ll_usb.c ****   */
 489:Drivers/STM32H7xx_HAL_Driver/Src/stm32h7xx_ll_usb.c **** HAL_StatusTypeDef USB_FlushRxFifo(USB_OTG_GlobalTypeDef *USBx)
 490:Drivers/STM32H7xx_HAL_Driver/Src/stm32h7xx_ll_usb.c **** {
 491:Drivers/STM32H7xx_HAL_Driver/Src/stm32h7xx_ll_usb.c ****   __IO uint32_t count = 0U;
 492:Drivers/STM32H7xx_HAL_Driver/Src/stm32h7xx_ll_usb.c **** 
 493:Drivers/STM32H7xx_HAL_Driver/Src/stm32h7xx_ll_usb.c ****   /* Wait for AHB master IDLE state. */
 494:Drivers/STM32H7xx_HAL_Driver/Src/stm32h7xx_ll_usb.c ****   do
 495:Drivers/STM32H7xx_HAL_Driver/Src/stm32h7xx_ll_usb.c ****   {
 496:Drivers/STM32H7xx_HAL_Driver/Src/stm32h7xx_ll_usb.c ****     count++;
 497:Drivers/STM32H7xx_HAL_Driver/Src/stm32h7xx_ll_usb.c **** 
 498:Drivers/STM32H7xx_HAL_Driver/Src/stm32h7xx_ll_usb.c ****     if (count > HAL_USB_TIMEOUT)
 499:Drivers/STM32H7xx_HAL_Driver/Src/stm32h7xx_ll_usb.c ****     {
 500:Drivers/STM32H7xx_HAL_Driver/Src/stm32h7xx_ll_usb.c ****       return HAL_TIMEOUT;
 501:Drivers/STM32H7xx_HAL_Driver/Src/stm32h7xx_ll_usb.c ****     }
 502:Drivers/STM32H7xx_HAL_Driver/Src/stm32h7xx_ll_usb.c ****   } while ((USBx->GRSTCTL & USB_OTG_GRSTCTL_AHBIDL) == 0U);
 503:Drivers/STM32H7xx_HAL_Driver/Src/stm32h7xx_ll_usb.c **** 
 504:Drivers/STM32H7xx_HAL_Driver/Src/stm32h7xx_ll_usb.c ****   /* Flush RX Fifo */
 505:Drivers/STM32H7xx_HAL_Driver/Src/stm32h7xx_ll_usb.c ****   count = 0U;
 506:Drivers/STM32H7xx_HAL_Driver/Src/stm32h7xx_ll_usb.c ****   USBx->GRSTCTL = USB_OTG_GRSTCTL_RXFFLSH;
 507:Drivers/STM32H7xx_HAL_Driver/Src/stm32h7xx_ll_usb.c **** 
 508:Drivers/STM32H7xx_HAL_Driver/Src/stm32h7xx_ll_usb.c ****   do
 509:Drivers/STM32H7xx_HAL_Driver/Src/stm32h7xx_ll_usb.c ****   {
 510:Drivers/STM32H7xx_HAL_Driver/Src/stm32h7xx_ll_usb.c ****     count++;
 511:Drivers/STM32H7xx_HAL_Driver/Src/stm32h7xx_ll_usb.c **** 
 512:Drivers/STM32H7xx_HAL_Driver/Src/stm32h7xx_ll_usb.c ****     if (count > HAL_USB_TIMEOUT)
 513:Drivers/STM32H7xx_HAL_Driver/Src/stm32h7xx_ll_usb.c ****     {
 514:Drivers/STM32H7xx_HAL_Driver/Src/stm32h7xx_ll_usb.c ****       return HAL_TIMEOUT;
 515:Drivers/STM32H7xx_HAL_Driver/Src/stm32h7xx_ll_usb.c ****     }
 516:Drivers/STM32H7xx_HAL_Driver/Src/stm32h7xx_ll_usb.c ****   } while ((USBx->GRSTCTL & USB_OTG_GRSTCTL_RXFFLSH) == USB_OTG_GRSTCTL_RXFFLSH);
 517:Drivers/STM32H7xx_HAL_Driver/Src/stm32h7xx_ll_usb.c **** 
 518:Drivers/STM32H7xx_HAL_Driver/Src/stm32h7xx_ll_usb.c ****   return HAL_OK;
 519:Drivers/STM32H7xx_HAL_Driver/Src/stm32h7xx_ll_usb.c **** }
 520:Drivers/STM32H7xx_HAL_Driver/Src/stm32h7xx_ll_usb.c **** 
 521:Drivers/STM32H7xx_HAL_Driver/Src/stm32h7xx_ll_usb.c **** /**
 522:Drivers/STM32H7xx_HAL_Driver/Src/stm32h7xx_ll_usb.c ****   * @brief  USB_SetDevSpeed  Initializes the DevSpd field of DCFG register
 523:Drivers/STM32H7xx_HAL_Driver/Src/stm32h7xx_ll_usb.c ****   *         depending the PHY type and the enumeration speed of the device.
 524:Drivers/STM32H7xx_HAL_Driver/Src/stm32h7xx_ll_usb.c ****   * @param  USBx  Selected device
 525:Drivers/STM32H7xx_HAL_Driver/Src/stm32h7xx_ll_usb.c ****   * @param  speed  device speed
 526:Drivers/STM32H7xx_HAL_Driver/Src/stm32h7xx_ll_usb.c ****   *          This parameter can be one of these values:
 527:Drivers/STM32H7xx_HAL_Driver/Src/stm32h7xx_ll_usb.c ****   *            @arg USB_OTG_SPEED_HIGH: High speed mode
 528:Drivers/STM32H7xx_HAL_Driver/Src/stm32h7xx_ll_usb.c ****   *            @arg USB_OTG_SPEED_HIGH_IN_FULL: High speed core in Full Speed mode
 529:Drivers/STM32H7xx_HAL_Driver/Src/stm32h7xx_ll_usb.c ****   *            @arg USB_OTG_SPEED_FULL: Full speed mode
 530:Drivers/STM32H7xx_HAL_Driver/Src/stm32h7xx_ll_usb.c ****   * @retval  Hal status
 531:Drivers/STM32H7xx_HAL_Driver/Src/stm32h7xx_ll_usb.c ****   */
 532:Drivers/STM32H7xx_HAL_Driver/Src/stm32h7xx_ll_usb.c **** HAL_StatusTypeDef USB_SetDevSpeed(const USB_OTG_GlobalTypeDef *USBx, uint8_t speed)
 533:Drivers/STM32H7xx_HAL_Driver/Src/stm32h7xx_ll_usb.c **** {
 534:Drivers/STM32H7xx_HAL_Driver/Src/stm32h7xx_ll_usb.c ****   uint32_t USBx_BASE = (uint32_t)USBx;
 535:Drivers/STM32H7xx_HAL_Driver/Src/stm32h7xx_ll_usb.c **** 
 536:Drivers/STM32H7xx_HAL_Driver/Src/stm32h7xx_ll_usb.c ****   USBx_DEVICE->DCFG |= speed;
 537:Drivers/STM32H7xx_HAL_Driver/Src/stm32h7xx_ll_usb.c ****   return HAL_OK;
 538:Drivers/STM32H7xx_HAL_Driver/Src/stm32h7xx_ll_usb.c **** }
 539:Drivers/STM32H7xx_HAL_Driver/Src/stm32h7xx_ll_usb.c **** 
 540:Drivers/STM32H7xx_HAL_Driver/Src/stm32h7xx_ll_usb.c **** /**
 541:Drivers/STM32H7xx_HAL_Driver/Src/stm32h7xx_ll_usb.c ****   * @brief  USB_GetDevSpeed  Return the Dev Speed
 542:Drivers/STM32H7xx_HAL_Driver/Src/stm32h7xx_ll_usb.c ****   * @param  USBx  Selected device
 543:Drivers/STM32H7xx_HAL_Driver/Src/stm32h7xx_ll_usb.c ****   * @retval speed  device speed
 544:Drivers/STM32H7xx_HAL_Driver/Src/stm32h7xx_ll_usb.c ****   *          This parameter can be one of these values:
ARM GAS  C:\Users\Nathan\AppData\Local\Temp\cc7cwqzo.s 			page 11


 545:Drivers/STM32H7xx_HAL_Driver/Src/stm32h7xx_ll_usb.c ****   *            @arg USBD_HS_SPEED: High speed mode
 546:Drivers/STM32H7xx_HAL_Driver/Src/stm32h7xx_ll_usb.c ****   *            @arg USBD_FS_SPEED: Full speed mode
 547:Drivers/STM32H7xx_HAL_Driver/Src/stm32h7xx_ll_usb.c ****   */
 548:Drivers/STM32H7xx_HAL_Driver/Src/stm32h7xx_ll_usb.c **** uint8_t USB_GetDevSpeed(const USB_OTG_GlobalTypeDef *USBx)
 549:Drivers/STM32H7xx_HAL_Driver/Src/stm32h7xx_ll_usb.c **** {
 550:Drivers/STM32H7xx_HAL_Driver/Src/stm32h7xx_ll_usb.c ****   uint32_t USBx_BASE = (uint32_t)USBx;
 551:Drivers/STM32H7xx_HAL_Driver/Src/stm32h7xx_ll_usb.c ****   uint8_t speed;
 552:Drivers/STM32H7xx_HAL_Driver/Src/stm32h7xx_ll_usb.c ****   uint32_t DevEnumSpeed = USBx_DEVICE->DSTS & USB_OTG_DSTS_ENUMSPD;
 553:Drivers/STM32H7xx_HAL_Driver/Src/stm32h7xx_ll_usb.c **** 
 554:Drivers/STM32H7xx_HAL_Driver/Src/stm32h7xx_ll_usb.c ****   if (DevEnumSpeed == DSTS_ENUMSPD_HS_PHY_30MHZ_OR_60MHZ)
 555:Drivers/STM32H7xx_HAL_Driver/Src/stm32h7xx_ll_usb.c ****   {
 556:Drivers/STM32H7xx_HAL_Driver/Src/stm32h7xx_ll_usb.c ****     speed = USBD_HS_SPEED;
 557:Drivers/STM32H7xx_HAL_Driver/Src/stm32h7xx_ll_usb.c ****   }
 558:Drivers/STM32H7xx_HAL_Driver/Src/stm32h7xx_ll_usb.c ****   else if ((DevEnumSpeed == DSTS_ENUMSPD_FS_PHY_30MHZ_OR_60MHZ) ||
 559:Drivers/STM32H7xx_HAL_Driver/Src/stm32h7xx_ll_usb.c ****            (DevEnumSpeed == DSTS_ENUMSPD_FS_PHY_48MHZ))
 560:Drivers/STM32H7xx_HAL_Driver/Src/stm32h7xx_ll_usb.c ****   {
 561:Drivers/STM32H7xx_HAL_Driver/Src/stm32h7xx_ll_usb.c ****     speed = USBD_FS_SPEED;
 562:Drivers/STM32H7xx_HAL_Driver/Src/stm32h7xx_ll_usb.c ****   }
 563:Drivers/STM32H7xx_HAL_Driver/Src/stm32h7xx_ll_usb.c ****   else
 564:Drivers/STM32H7xx_HAL_Driver/Src/stm32h7xx_ll_usb.c ****   {
 565:Drivers/STM32H7xx_HAL_Driver/Src/stm32h7xx_ll_usb.c ****     speed = 0xFU;
 566:Drivers/STM32H7xx_HAL_Driver/Src/stm32h7xx_ll_usb.c ****   }
 567:Drivers/STM32H7xx_HAL_Driver/Src/stm32h7xx_ll_usb.c **** 
 568:Drivers/STM32H7xx_HAL_Driver/Src/stm32h7xx_ll_usb.c ****   return speed;
 569:Drivers/STM32H7xx_HAL_Driver/Src/stm32h7xx_ll_usb.c **** }
 570:Drivers/STM32H7xx_HAL_Driver/Src/stm32h7xx_ll_usb.c **** 
 571:Drivers/STM32H7xx_HAL_Driver/Src/stm32h7xx_ll_usb.c **** /**
 572:Drivers/STM32H7xx_HAL_Driver/Src/stm32h7xx_ll_usb.c ****   * @brief  Activate and configure an endpoint
 573:Drivers/STM32H7xx_HAL_Driver/Src/stm32h7xx_ll_usb.c ****   * @param  USBx  Selected device
 574:Drivers/STM32H7xx_HAL_Driver/Src/stm32h7xx_ll_usb.c ****   * @param  ep pointer to endpoint structure
 575:Drivers/STM32H7xx_HAL_Driver/Src/stm32h7xx_ll_usb.c ****   * @retval HAL status
 576:Drivers/STM32H7xx_HAL_Driver/Src/stm32h7xx_ll_usb.c ****   */
 577:Drivers/STM32H7xx_HAL_Driver/Src/stm32h7xx_ll_usb.c **** HAL_StatusTypeDef USB_ActivateEndpoint(const USB_OTG_GlobalTypeDef *USBx, const USB_OTG_EPTypeDef *
 578:Drivers/STM32H7xx_HAL_Driver/Src/stm32h7xx_ll_usb.c **** {
 579:Drivers/STM32H7xx_HAL_Driver/Src/stm32h7xx_ll_usb.c ****   uint32_t USBx_BASE = (uint32_t)USBx;
 580:Drivers/STM32H7xx_HAL_Driver/Src/stm32h7xx_ll_usb.c ****   uint32_t epnum = (uint32_t)ep->num;
 581:Drivers/STM32H7xx_HAL_Driver/Src/stm32h7xx_ll_usb.c **** 
 582:Drivers/STM32H7xx_HAL_Driver/Src/stm32h7xx_ll_usb.c ****   if (ep->is_in == 1U)
 583:Drivers/STM32H7xx_HAL_Driver/Src/stm32h7xx_ll_usb.c ****   {
 584:Drivers/STM32H7xx_HAL_Driver/Src/stm32h7xx_ll_usb.c ****     USBx_DEVICE->DAINTMSK |= USB_OTG_DAINTMSK_IEPM & (uint32_t)(1UL << (ep->num & EP_ADDR_MSK));
 585:Drivers/STM32H7xx_HAL_Driver/Src/stm32h7xx_ll_usb.c **** 
 586:Drivers/STM32H7xx_HAL_Driver/Src/stm32h7xx_ll_usb.c ****     if ((USBx_INEP(epnum)->DIEPCTL & USB_OTG_DIEPCTL_USBAEP) == 0U)
 587:Drivers/STM32H7xx_HAL_Driver/Src/stm32h7xx_ll_usb.c ****     {
 588:Drivers/STM32H7xx_HAL_Driver/Src/stm32h7xx_ll_usb.c ****       USBx_INEP(epnum)->DIEPCTL |= (ep->maxpacket & USB_OTG_DIEPCTL_MPSIZ) |
 589:Drivers/STM32H7xx_HAL_Driver/Src/stm32h7xx_ll_usb.c ****                                    ((uint32_t)ep->type << 18) | (epnum << 22) |
 590:Drivers/STM32H7xx_HAL_Driver/Src/stm32h7xx_ll_usb.c ****                                    USB_OTG_DIEPCTL_SD0PID_SEVNFRM |
 591:Drivers/STM32H7xx_HAL_Driver/Src/stm32h7xx_ll_usb.c ****                                    USB_OTG_DIEPCTL_USBAEP;
 592:Drivers/STM32H7xx_HAL_Driver/Src/stm32h7xx_ll_usb.c ****     }
 593:Drivers/STM32H7xx_HAL_Driver/Src/stm32h7xx_ll_usb.c ****   }
 594:Drivers/STM32H7xx_HAL_Driver/Src/stm32h7xx_ll_usb.c ****   else
 595:Drivers/STM32H7xx_HAL_Driver/Src/stm32h7xx_ll_usb.c ****   {
 596:Drivers/STM32H7xx_HAL_Driver/Src/stm32h7xx_ll_usb.c ****     USBx_DEVICE->DAINTMSK |= USB_OTG_DAINTMSK_OEPM & ((uint32_t)(1UL << (ep->num & EP_ADDR_MSK)) <<
 597:Drivers/STM32H7xx_HAL_Driver/Src/stm32h7xx_ll_usb.c **** 
 598:Drivers/STM32H7xx_HAL_Driver/Src/stm32h7xx_ll_usb.c ****     if (((USBx_OUTEP(epnum)->DOEPCTL) & USB_OTG_DOEPCTL_USBAEP) == 0U)
 599:Drivers/STM32H7xx_HAL_Driver/Src/stm32h7xx_ll_usb.c ****     {
 600:Drivers/STM32H7xx_HAL_Driver/Src/stm32h7xx_ll_usb.c ****       USBx_OUTEP(epnum)->DOEPCTL |= (ep->maxpacket & USB_OTG_DOEPCTL_MPSIZ) |
 601:Drivers/STM32H7xx_HAL_Driver/Src/stm32h7xx_ll_usb.c ****                                     ((uint32_t)ep->type << 18) |
ARM GAS  C:\Users\Nathan\AppData\Local\Temp\cc7cwqzo.s 			page 12


 602:Drivers/STM32H7xx_HAL_Driver/Src/stm32h7xx_ll_usb.c ****                                     USB_OTG_DIEPCTL_SD0PID_SEVNFRM |
 603:Drivers/STM32H7xx_HAL_Driver/Src/stm32h7xx_ll_usb.c ****                                     USB_OTG_DOEPCTL_USBAEP;
 604:Drivers/STM32H7xx_HAL_Driver/Src/stm32h7xx_ll_usb.c ****     }
 605:Drivers/STM32H7xx_HAL_Driver/Src/stm32h7xx_ll_usb.c ****   }
 606:Drivers/STM32H7xx_HAL_Driver/Src/stm32h7xx_ll_usb.c ****   return HAL_OK;
 607:Drivers/STM32H7xx_HAL_Driver/Src/stm32h7xx_ll_usb.c **** }
 608:Drivers/STM32H7xx_HAL_Driver/Src/stm32h7xx_ll_usb.c **** 
 609:Drivers/STM32H7xx_HAL_Driver/Src/stm32h7xx_ll_usb.c **** /**
 610:Drivers/STM32H7xx_HAL_Driver/Src/stm32h7xx_ll_usb.c ****   * @brief  Activate and configure a dedicated endpoint
 611:Drivers/STM32H7xx_HAL_Driver/Src/stm32h7xx_ll_usb.c ****   * @param  USBx  Selected device
 612:Drivers/STM32H7xx_HAL_Driver/Src/stm32h7xx_ll_usb.c ****   * @param  ep pointer to endpoint structure
 613:Drivers/STM32H7xx_HAL_Driver/Src/stm32h7xx_ll_usb.c ****   * @retval HAL status
 614:Drivers/STM32H7xx_HAL_Driver/Src/stm32h7xx_ll_usb.c ****   */
 615:Drivers/STM32H7xx_HAL_Driver/Src/stm32h7xx_ll_usb.c **** HAL_StatusTypeDef USB_ActivateDedicatedEndpoint(const USB_OTG_GlobalTypeDef *USBx, const USB_OTG_EP
 616:Drivers/STM32H7xx_HAL_Driver/Src/stm32h7xx_ll_usb.c **** {
 617:Drivers/STM32H7xx_HAL_Driver/Src/stm32h7xx_ll_usb.c ****   uint32_t USBx_BASE = (uint32_t)USBx;
 618:Drivers/STM32H7xx_HAL_Driver/Src/stm32h7xx_ll_usb.c ****   uint32_t epnum = (uint32_t)ep->num;
 619:Drivers/STM32H7xx_HAL_Driver/Src/stm32h7xx_ll_usb.c **** 
 620:Drivers/STM32H7xx_HAL_Driver/Src/stm32h7xx_ll_usb.c ****   /* Read DEPCTLn register */
 621:Drivers/STM32H7xx_HAL_Driver/Src/stm32h7xx_ll_usb.c ****   if (ep->is_in == 1U)
 622:Drivers/STM32H7xx_HAL_Driver/Src/stm32h7xx_ll_usb.c ****   {
 623:Drivers/STM32H7xx_HAL_Driver/Src/stm32h7xx_ll_usb.c ****     if (((USBx_INEP(epnum)->DIEPCTL) & USB_OTG_DIEPCTL_USBAEP) == 0U)
 624:Drivers/STM32H7xx_HAL_Driver/Src/stm32h7xx_ll_usb.c ****     {
 625:Drivers/STM32H7xx_HAL_Driver/Src/stm32h7xx_ll_usb.c ****       USBx_INEP(epnum)->DIEPCTL |= (ep->maxpacket & USB_OTG_DIEPCTL_MPSIZ) |
 626:Drivers/STM32H7xx_HAL_Driver/Src/stm32h7xx_ll_usb.c ****                                    ((uint32_t)ep->type << 18) | (epnum << 22) |
 627:Drivers/STM32H7xx_HAL_Driver/Src/stm32h7xx_ll_usb.c ****                                    USB_OTG_DIEPCTL_SD0PID_SEVNFRM |
 628:Drivers/STM32H7xx_HAL_Driver/Src/stm32h7xx_ll_usb.c ****                                    USB_OTG_DIEPCTL_USBAEP;
 629:Drivers/STM32H7xx_HAL_Driver/Src/stm32h7xx_ll_usb.c ****     }
 630:Drivers/STM32H7xx_HAL_Driver/Src/stm32h7xx_ll_usb.c **** 
 631:Drivers/STM32H7xx_HAL_Driver/Src/stm32h7xx_ll_usb.c ****     USBx_DEVICE->DEACHMSK |= USB_OTG_DAINTMSK_IEPM & (uint32_t)(1UL << (ep->num & EP_ADDR_MSK));
 632:Drivers/STM32H7xx_HAL_Driver/Src/stm32h7xx_ll_usb.c ****   }
 633:Drivers/STM32H7xx_HAL_Driver/Src/stm32h7xx_ll_usb.c ****   else
 634:Drivers/STM32H7xx_HAL_Driver/Src/stm32h7xx_ll_usb.c ****   {
 635:Drivers/STM32H7xx_HAL_Driver/Src/stm32h7xx_ll_usb.c ****     if (((USBx_OUTEP(epnum)->DOEPCTL) & USB_OTG_DOEPCTL_USBAEP) == 0U)
 636:Drivers/STM32H7xx_HAL_Driver/Src/stm32h7xx_ll_usb.c ****     {
 637:Drivers/STM32H7xx_HAL_Driver/Src/stm32h7xx_ll_usb.c ****       USBx_OUTEP(epnum)->DOEPCTL |= (ep->maxpacket & USB_OTG_DOEPCTL_MPSIZ) |
 638:Drivers/STM32H7xx_HAL_Driver/Src/stm32h7xx_ll_usb.c ****                                     ((uint32_t)ep->type << 18) | (epnum << 22) |
 639:Drivers/STM32H7xx_HAL_Driver/Src/stm32h7xx_ll_usb.c ****                                     USB_OTG_DOEPCTL_USBAEP;
 640:Drivers/STM32H7xx_HAL_Driver/Src/stm32h7xx_ll_usb.c ****     }
 641:Drivers/STM32H7xx_HAL_Driver/Src/stm32h7xx_ll_usb.c **** 
 642:Drivers/STM32H7xx_HAL_Driver/Src/stm32h7xx_ll_usb.c ****     USBx_DEVICE->DEACHMSK |= USB_OTG_DAINTMSK_OEPM & ((uint32_t)(1UL << (ep->num & EP_ADDR_MSK)) <<
 643:Drivers/STM32H7xx_HAL_Driver/Src/stm32h7xx_ll_usb.c ****   }
 644:Drivers/STM32H7xx_HAL_Driver/Src/stm32h7xx_ll_usb.c **** 
 645:Drivers/STM32H7xx_HAL_Driver/Src/stm32h7xx_ll_usb.c ****   return HAL_OK;
 646:Drivers/STM32H7xx_HAL_Driver/Src/stm32h7xx_ll_usb.c **** }
 647:Drivers/STM32H7xx_HAL_Driver/Src/stm32h7xx_ll_usb.c **** 
 648:Drivers/STM32H7xx_HAL_Driver/Src/stm32h7xx_ll_usb.c **** /**
 649:Drivers/STM32H7xx_HAL_Driver/Src/stm32h7xx_ll_usb.c ****   * @brief  De-activate and de-initialize an endpoint
 650:Drivers/STM32H7xx_HAL_Driver/Src/stm32h7xx_ll_usb.c ****   * @param  USBx  Selected device
 651:Drivers/STM32H7xx_HAL_Driver/Src/stm32h7xx_ll_usb.c ****   * @param  ep pointer to endpoint structure
 652:Drivers/STM32H7xx_HAL_Driver/Src/stm32h7xx_ll_usb.c ****   * @retval HAL status
 653:Drivers/STM32H7xx_HAL_Driver/Src/stm32h7xx_ll_usb.c ****   */
 654:Drivers/STM32H7xx_HAL_Driver/Src/stm32h7xx_ll_usb.c **** HAL_StatusTypeDef USB_DeactivateEndpoint(const USB_OTG_GlobalTypeDef *USBx, const USB_OTG_EPTypeDef
 655:Drivers/STM32H7xx_HAL_Driver/Src/stm32h7xx_ll_usb.c **** {
 656:Drivers/STM32H7xx_HAL_Driver/Src/stm32h7xx_ll_usb.c ****   uint32_t USBx_BASE = (uint32_t)USBx;
 657:Drivers/STM32H7xx_HAL_Driver/Src/stm32h7xx_ll_usb.c ****   uint32_t epnum = (uint32_t)ep->num;
 658:Drivers/STM32H7xx_HAL_Driver/Src/stm32h7xx_ll_usb.c **** 
ARM GAS  C:\Users\Nathan\AppData\Local\Temp\cc7cwqzo.s 			page 13


 659:Drivers/STM32H7xx_HAL_Driver/Src/stm32h7xx_ll_usb.c ****   /* Read DEPCTLn register */
 660:Drivers/STM32H7xx_HAL_Driver/Src/stm32h7xx_ll_usb.c ****   if (ep->is_in == 1U)
 661:Drivers/STM32H7xx_HAL_Driver/Src/stm32h7xx_ll_usb.c ****   {
 662:Drivers/STM32H7xx_HAL_Driver/Src/stm32h7xx_ll_usb.c ****     if ((USBx_INEP(epnum)->DIEPCTL & USB_OTG_DIEPCTL_EPENA) == USB_OTG_DIEPCTL_EPENA)
 663:Drivers/STM32H7xx_HAL_Driver/Src/stm32h7xx_ll_usb.c ****     {
 664:Drivers/STM32H7xx_HAL_Driver/Src/stm32h7xx_ll_usb.c ****       USBx_INEP(epnum)->DIEPCTL |= USB_OTG_DIEPCTL_SNAK;
 665:Drivers/STM32H7xx_HAL_Driver/Src/stm32h7xx_ll_usb.c ****       USBx_INEP(epnum)->DIEPCTL |= USB_OTG_DIEPCTL_EPDIS;
 666:Drivers/STM32H7xx_HAL_Driver/Src/stm32h7xx_ll_usb.c ****     }
 667:Drivers/STM32H7xx_HAL_Driver/Src/stm32h7xx_ll_usb.c **** 
 668:Drivers/STM32H7xx_HAL_Driver/Src/stm32h7xx_ll_usb.c ****     USBx_DEVICE->DEACHMSK &= ~(USB_OTG_DAINTMSK_IEPM & (uint32_t)(1UL << (ep->num & EP_ADDR_MSK)));
 669:Drivers/STM32H7xx_HAL_Driver/Src/stm32h7xx_ll_usb.c ****     USBx_DEVICE->DAINTMSK &= ~(USB_OTG_DAINTMSK_IEPM & (uint32_t)(1UL << (ep->num & EP_ADDR_MSK)));
 670:Drivers/STM32H7xx_HAL_Driver/Src/stm32h7xx_ll_usb.c ****     USBx_INEP(epnum)->DIEPCTL &= ~(USB_OTG_DIEPCTL_USBAEP |
 671:Drivers/STM32H7xx_HAL_Driver/Src/stm32h7xx_ll_usb.c ****                                    USB_OTG_DIEPCTL_MPSIZ |
 672:Drivers/STM32H7xx_HAL_Driver/Src/stm32h7xx_ll_usb.c ****                                    USB_OTG_DIEPCTL_TXFNUM |
 673:Drivers/STM32H7xx_HAL_Driver/Src/stm32h7xx_ll_usb.c ****                                    USB_OTG_DIEPCTL_SD0PID_SEVNFRM |
 674:Drivers/STM32H7xx_HAL_Driver/Src/stm32h7xx_ll_usb.c ****                                    USB_OTG_DIEPCTL_EPTYP);
 675:Drivers/STM32H7xx_HAL_Driver/Src/stm32h7xx_ll_usb.c ****   }
 676:Drivers/STM32H7xx_HAL_Driver/Src/stm32h7xx_ll_usb.c ****   else
 677:Drivers/STM32H7xx_HAL_Driver/Src/stm32h7xx_ll_usb.c ****   {
 678:Drivers/STM32H7xx_HAL_Driver/Src/stm32h7xx_ll_usb.c ****     if ((USBx_OUTEP(epnum)->DOEPCTL & USB_OTG_DOEPCTL_EPENA) == USB_OTG_DOEPCTL_EPENA)
 679:Drivers/STM32H7xx_HAL_Driver/Src/stm32h7xx_ll_usb.c ****     {
 680:Drivers/STM32H7xx_HAL_Driver/Src/stm32h7xx_ll_usb.c ****       USBx_OUTEP(epnum)->DOEPCTL |= USB_OTG_DOEPCTL_SNAK;
 681:Drivers/STM32H7xx_HAL_Driver/Src/stm32h7xx_ll_usb.c ****       USBx_OUTEP(epnum)->DOEPCTL |= USB_OTG_DOEPCTL_EPDIS;
 682:Drivers/STM32H7xx_HAL_Driver/Src/stm32h7xx_ll_usb.c ****     }
 683:Drivers/STM32H7xx_HAL_Driver/Src/stm32h7xx_ll_usb.c **** 
 684:Drivers/STM32H7xx_HAL_Driver/Src/stm32h7xx_ll_usb.c ****     USBx_DEVICE->DEACHMSK &= ~(USB_OTG_DAINTMSK_OEPM & ((uint32_t)(1UL << (ep->num & EP_ADDR_MSK)) 
 685:Drivers/STM32H7xx_HAL_Driver/Src/stm32h7xx_ll_usb.c ****     USBx_DEVICE->DAINTMSK &= ~(USB_OTG_DAINTMSK_OEPM & ((uint32_t)(1UL << (ep->num & EP_ADDR_MSK)) 
 686:Drivers/STM32H7xx_HAL_Driver/Src/stm32h7xx_ll_usb.c ****     USBx_OUTEP(epnum)->DOEPCTL &= ~(USB_OTG_DOEPCTL_USBAEP |
 687:Drivers/STM32H7xx_HAL_Driver/Src/stm32h7xx_ll_usb.c ****                                     USB_OTG_DOEPCTL_MPSIZ |
 688:Drivers/STM32H7xx_HAL_Driver/Src/stm32h7xx_ll_usb.c ****                                     USB_OTG_DOEPCTL_SD0PID_SEVNFRM |
 689:Drivers/STM32H7xx_HAL_Driver/Src/stm32h7xx_ll_usb.c ****                                     USB_OTG_DOEPCTL_EPTYP);
 690:Drivers/STM32H7xx_HAL_Driver/Src/stm32h7xx_ll_usb.c ****   }
 691:Drivers/STM32H7xx_HAL_Driver/Src/stm32h7xx_ll_usb.c **** 
 692:Drivers/STM32H7xx_HAL_Driver/Src/stm32h7xx_ll_usb.c ****   return HAL_OK;
 693:Drivers/STM32H7xx_HAL_Driver/Src/stm32h7xx_ll_usb.c **** }
 694:Drivers/STM32H7xx_HAL_Driver/Src/stm32h7xx_ll_usb.c **** 
 695:Drivers/STM32H7xx_HAL_Driver/Src/stm32h7xx_ll_usb.c **** /**
 696:Drivers/STM32H7xx_HAL_Driver/Src/stm32h7xx_ll_usb.c ****   * @brief  De-activate and de-initialize a dedicated endpoint
 697:Drivers/STM32H7xx_HAL_Driver/Src/stm32h7xx_ll_usb.c ****   * @param  USBx  Selected device
 698:Drivers/STM32H7xx_HAL_Driver/Src/stm32h7xx_ll_usb.c ****   * @param  ep pointer to endpoint structure
 699:Drivers/STM32H7xx_HAL_Driver/Src/stm32h7xx_ll_usb.c ****   * @retval HAL status
 700:Drivers/STM32H7xx_HAL_Driver/Src/stm32h7xx_ll_usb.c ****   */
 701:Drivers/STM32H7xx_HAL_Driver/Src/stm32h7xx_ll_usb.c **** HAL_StatusTypeDef USB_DeactivateDedicatedEndpoint(const USB_OTG_GlobalTypeDef *USBx, const USB_OTG_
 702:Drivers/STM32H7xx_HAL_Driver/Src/stm32h7xx_ll_usb.c **** {
 703:Drivers/STM32H7xx_HAL_Driver/Src/stm32h7xx_ll_usb.c ****   uint32_t USBx_BASE = (uint32_t)USBx;
 704:Drivers/STM32H7xx_HAL_Driver/Src/stm32h7xx_ll_usb.c ****   uint32_t epnum = (uint32_t)ep->num;
 705:Drivers/STM32H7xx_HAL_Driver/Src/stm32h7xx_ll_usb.c **** 
 706:Drivers/STM32H7xx_HAL_Driver/Src/stm32h7xx_ll_usb.c ****   /* Read DEPCTLn register */
 707:Drivers/STM32H7xx_HAL_Driver/Src/stm32h7xx_ll_usb.c ****   if (ep->is_in == 1U)
 708:Drivers/STM32H7xx_HAL_Driver/Src/stm32h7xx_ll_usb.c ****   {
 709:Drivers/STM32H7xx_HAL_Driver/Src/stm32h7xx_ll_usb.c ****     if ((USBx_INEP(epnum)->DIEPCTL & USB_OTG_DIEPCTL_EPENA) == USB_OTG_DIEPCTL_EPENA)
 710:Drivers/STM32H7xx_HAL_Driver/Src/stm32h7xx_ll_usb.c ****     {
 711:Drivers/STM32H7xx_HAL_Driver/Src/stm32h7xx_ll_usb.c ****       USBx_INEP(epnum)->DIEPCTL  |= USB_OTG_DIEPCTL_SNAK;
 712:Drivers/STM32H7xx_HAL_Driver/Src/stm32h7xx_ll_usb.c ****       USBx_INEP(epnum)->DIEPCTL  |= USB_OTG_DIEPCTL_EPDIS;
 713:Drivers/STM32H7xx_HAL_Driver/Src/stm32h7xx_ll_usb.c ****     }
 714:Drivers/STM32H7xx_HAL_Driver/Src/stm32h7xx_ll_usb.c **** 
 715:Drivers/STM32H7xx_HAL_Driver/Src/stm32h7xx_ll_usb.c ****     USBx_INEP(epnum)->DIEPCTL &= ~ USB_OTG_DIEPCTL_USBAEP;
ARM GAS  C:\Users\Nathan\AppData\Local\Temp\cc7cwqzo.s 			page 14


 716:Drivers/STM32H7xx_HAL_Driver/Src/stm32h7xx_ll_usb.c ****     USBx_DEVICE->DAINTMSK &= ~(USB_OTG_DAINTMSK_IEPM & (uint32_t)(1UL << (ep->num & EP_ADDR_MSK)));
 717:Drivers/STM32H7xx_HAL_Driver/Src/stm32h7xx_ll_usb.c ****   }
 718:Drivers/STM32H7xx_HAL_Driver/Src/stm32h7xx_ll_usb.c ****   else
 719:Drivers/STM32H7xx_HAL_Driver/Src/stm32h7xx_ll_usb.c ****   {
 720:Drivers/STM32H7xx_HAL_Driver/Src/stm32h7xx_ll_usb.c ****     if ((USBx_OUTEP(epnum)->DOEPCTL & USB_OTG_DOEPCTL_EPENA) == USB_OTG_DOEPCTL_EPENA)
 721:Drivers/STM32H7xx_HAL_Driver/Src/stm32h7xx_ll_usb.c ****     {
 722:Drivers/STM32H7xx_HAL_Driver/Src/stm32h7xx_ll_usb.c ****       USBx_OUTEP(epnum)->DOEPCTL  |= USB_OTG_DOEPCTL_SNAK;
 723:Drivers/STM32H7xx_HAL_Driver/Src/stm32h7xx_ll_usb.c ****       USBx_OUTEP(epnum)->DOEPCTL  |= USB_OTG_DOEPCTL_EPDIS;
 724:Drivers/STM32H7xx_HAL_Driver/Src/stm32h7xx_ll_usb.c ****     }
 725:Drivers/STM32H7xx_HAL_Driver/Src/stm32h7xx_ll_usb.c **** 
 726:Drivers/STM32H7xx_HAL_Driver/Src/stm32h7xx_ll_usb.c ****     USBx_OUTEP(epnum)->DOEPCTL &= ~USB_OTG_DOEPCTL_USBAEP;
 727:Drivers/STM32H7xx_HAL_Driver/Src/stm32h7xx_ll_usb.c ****     USBx_DEVICE->DAINTMSK &= ~(USB_OTG_DAINTMSK_OEPM & ((uint32_t)(1UL << (ep->num & EP_ADDR_MSK)) 
 728:Drivers/STM32H7xx_HAL_Driver/Src/stm32h7xx_ll_usb.c ****   }
 729:Drivers/STM32H7xx_HAL_Driver/Src/stm32h7xx_ll_usb.c **** 
 730:Drivers/STM32H7xx_HAL_Driver/Src/stm32h7xx_ll_usb.c ****   return HAL_OK;
 731:Drivers/STM32H7xx_HAL_Driver/Src/stm32h7xx_ll_usb.c **** }
 732:Drivers/STM32H7xx_HAL_Driver/Src/stm32h7xx_ll_usb.c **** 
 733:Drivers/STM32H7xx_HAL_Driver/Src/stm32h7xx_ll_usb.c **** /**
 734:Drivers/STM32H7xx_HAL_Driver/Src/stm32h7xx_ll_usb.c ****   * @brief  USB_EPStartXfer : setup and starts a transfer over an EP
 735:Drivers/STM32H7xx_HAL_Driver/Src/stm32h7xx_ll_usb.c ****   * @param  USBx  Selected device
 736:Drivers/STM32H7xx_HAL_Driver/Src/stm32h7xx_ll_usb.c ****   * @param  ep pointer to endpoint structure
 737:Drivers/STM32H7xx_HAL_Driver/Src/stm32h7xx_ll_usb.c ****   * @param  dma USB dma enabled or disabled
 738:Drivers/STM32H7xx_HAL_Driver/Src/stm32h7xx_ll_usb.c ****   *          This parameter can be one of these values:
 739:Drivers/STM32H7xx_HAL_Driver/Src/stm32h7xx_ll_usb.c ****   *           0 : DMA feature not used
 740:Drivers/STM32H7xx_HAL_Driver/Src/stm32h7xx_ll_usb.c ****   *           1 : DMA feature used
 741:Drivers/STM32H7xx_HAL_Driver/Src/stm32h7xx_ll_usb.c ****   * @retval HAL status
 742:Drivers/STM32H7xx_HAL_Driver/Src/stm32h7xx_ll_usb.c ****   */
 743:Drivers/STM32H7xx_HAL_Driver/Src/stm32h7xx_ll_usb.c **** HAL_StatusTypeDef USB_EPStartXfer(USB_OTG_GlobalTypeDef *USBx, USB_OTG_EPTypeDef *ep, uint8_t dma)
 744:Drivers/STM32H7xx_HAL_Driver/Src/stm32h7xx_ll_usb.c **** {
 745:Drivers/STM32H7xx_HAL_Driver/Src/stm32h7xx_ll_usb.c ****   uint32_t USBx_BASE = (uint32_t)USBx;
 746:Drivers/STM32H7xx_HAL_Driver/Src/stm32h7xx_ll_usb.c ****   uint32_t epnum = (uint32_t)ep->num;
 747:Drivers/STM32H7xx_HAL_Driver/Src/stm32h7xx_ll_usb.c ****   uint16_t pktcnt;
 748:Drivers/STM32H7xx_HAL_Driver/Src/stm32h7xx_ll_usb.c **** 
 749:Drivers/STM32H7xx_HAL_Driver/Src/stm32h7xx_ll_usb.c ****   /* IN endpoint */
 750:Drivers/STM32H7xx_HAL_Driver/Src/stm32h7xx_ll_usb.c ****   if (ep->is_in == 1U)
 751:Drivers/STM32H7xx_HAL_Driver/Src/stm32h7xx_ll_usb.c ****   {
 752:Drivers/STM32H7xx_HAL_Driver/Src/stm32h7xx_ll_usb.c ****     /* Zero Length Packet? */
 753:Drivers/STM32H7xx_HAL_Driver/Src/stm32h7xx_ll_usb.c ****     if (ep->xfer_len == 0U)
 754:Drivers/STM32H7xx_HAL_Driver/Src/stm32h7xx_ll_usb.c ****     {
 755:Drivers/STM32H7xx_HAL_Driver/Src/stm32h7xx_ll_usb.c ****       USBx_INEP(epnum)->DIEPTSIZ &= ~(USB_OTG_DIEPTSIZ_PKTCNT);
 756:Drivers/STM32H7xx_HAL_Driver/Src/stm32h7xx_ll_usb.c ****       USBx_INEP(epnum)->DIEPTSIZ |= (USB_OTG_DIEPTSIZ_PKTCNT & (1U << 19));
 757:Drivers/STM32H7xx_HAL_Driver/Src/stm32h7xx_ll_usb.c ****       USBx_INEP(epnum)->DIEPTSIZ &= ~(USB_OTG_DIEPTSIZ_XFRSIZ);
 758:Drivers/STM32H7xx_HAL_Driver/Src/stm32h7xx_ll_usb.c ****     }
 759:Drivers/STM32H7xx_HAL_Driver/Src/stm32h7xx_ll_usb.c ****     else
 760:Drivers/STM32H7xx_HAL_Driver/Src/stm32h7xx_ll_usb.c ****     {
 761:Drivers/STM32H7xx_HAL_Driver/Src/stm32h7xx_ll_usb.c ****       /* Program the transfer size and packet count
 762:Drivers/STM32H7xx_HAL_Driver/Src/stm32h7xx_ll_usb.c ****       * as follows: xfersize = N * maxpacket +
 763:Drivers/STM32H7xx_HAL_Driver/Src/stm32h7xx_ll_usb.c ****       * short_packet pktcnt = N + (short_packet
 764:Drivers/STM32H7xx_HAL_Driver/Src/stm32h7xx_ll_usb.c ****       * exist ? 1 : 0)
 765:Drivers/STM32H7xx_HAL_Driver/Src/stm32h7xx_ll_usb.c ****       */
 766:Drivers/STM32H7xx_HAL_Driver/Src/stm32h7xx_ll_usb.c ****       USBx_INEP(epnum)->DIEPTSIZ &= ~(USB_OTG_DIEPTSIZ_XFRSIZ);
 767:Drivers/STM32H7xx_HAL_Driver/Src/stm32h7xx_ll_usb.c ****       USBx_INEP(epnum)->DIEPTSIZ &= ~(USB_OTG_DIEPTSIZ_PKTCNT);
 768:Drivers/STM32H7xx_HAL_Driver/Src/stm32h7xx_ll_usb.c **** 
 769:Drivers/STM32H7xx_HAL_Driver/Src/stm32h7xx_ll_usb.c ****       if (epnum == 0U)
 770:Drivers/STM32H7xx_HAL_Driver/Src/stm32h7xx_ll_usb.c ****       {
 771:Drivers/STM32H7xx_HAL_Driver/Src/stm32h7xx_ll_usb.c ****         if (ep->xfer_len > ep->maxpacket)
 772:Drivers/STM32H7xx_HAL_Driver/Src/stm32h7xx_ll_usb.c ****         {
ARM GAS  C:\Users\Nathan\AppData\Local\Temp\cc7cwqzo.s 			page 15


 773:Drivers/STM32H7xx_HAL_Driver/Src/stm32h7xx_ll_usb.c ****           ep->xfer_len = ep->maxpacket;
 774:Drivers/STM32H7xx_HAL_Driver/Src/stm32h7xx_ll_usb.c ****         }
 775:Drivers/STM32H7xx_HAL_Driver/Src/stm32h7xx_ll_usb.c **** 
 776:Drivers/STM32H7xx_HAL_Driver/Src/stm32h7xx_ll_usb.c ****         USBx_INEP(epnum)->DIEPTSIZ |= (USB_OTG_DIEPTSIZ_PKTCNT & (1U << 19));
 777:Drivers/STM32H7xx_HAL_Driver/Src/stm32h7xx_ll_usb.c ****       }
 778:Drivers/STM32H7xx_HAL_Driver/Src/stm32h7xx_ll_usb.c ****       else
 779:Drivers/STM32H7xx_HAL_Driver/Src/stm32h7xx_ll_usb.c ****       {
 780:Drivers/STM32H7xx_HAL_Driver/Src/stm32h7xx_ll_usb.c ****         pktcnt = (uint16_t)((ep->xfer_len + ep->maxpacket - 1U) / ep->maxpacket);
 781:Drivers/STM32H7xx_HAL_Driver/Src/stm32h7xx_ll_usb.c ****         USBx_INEP(epnum)->DIEPTSIZ |= (USB_OTG_DIEPTSIZ_PKTCNT & ((uint32_t)pktcnt << 19));
 782:Drivers/STM32H7xx_HAL_Driver/Src/stm32h7xx_ll_usb.c **** 
 783:Drivers/STM32H7xx_HAL_Driver/Src/stm32h7xx_ll_usb.c ****         if (ep->type == EP_TYPE_ISOC)
 784:Drivers/STM32H7xx_HAL_Driver/Src/stm32h7xx_ll_usb.c ****         {
 785:Drivers/STM32H7xx_HAL_Driver/Src/stm32h7xx_ll_usb.c ****           USBx_INEP(epnum)->DIEPTSIZ &= ~(USB_OTG_DIEPTSIZ_MULCNT);
 786:Drivers/STM32H7xx_HAL_Driver/Src/stm32h7xx_ll_usb.c ****           USBx_INEP(epnum)->DIEPTSIZ |= (USB_OTG_DIEPTSIZ_MULCNT & ((uint32_t)pktcnt << 29));
 787:Drivers/STM32H7xx_HAL_Driver/Src/stm32h7xx_ll_usb.c ****         }
 788:Drivers/STM32H7xx_HAL_Driver/Src/stm32h7xx_ll_usb.c ****       }
 789:Drivers/STM32H7xx_HAL_Driver/Src/stm32h7xx_ll_usb.c **** 
 790:Drivers/STM32H7xx_HAL_Driver/Src/stm32h7xx_ll_usb.c ****       USBx_INEP(epnum)->DIEPTSIZ |= (USB_OTG_DIEPTSIZ_XFRSIZ & ep->xfer_len);
 791:Drivers/STM32H7xx_HAL_Driver/Src/stm32h7xx_ll_usb.c ****     }
 792:Drivers/STM32H7xx_HAL_Driver/Src/stm32h7xx_ll_usb.c **** 
 793:Drivers/STM32H7xx_HAL_Driver/Src/stm32h7xx_ll_usb.c ****     if (dma == 1U)
 794:Drivers/STM32H7xx_HAL_Driver/Src/stm32h7xx_ll_usb.c ****     {
 795:Drivers/STM32H7xx_HAL_Driver/Src/stm32h7xx_ll_usb.c ****       if ((uint32_t)ep->dma_addr != 0U)
 796:Drivers/STM32H7xx_HAL_Driver/Src/stm32h7xx_ll_usb.c ****       {
 797:Drivers/STM32H7xx_HAL_Driver/Src/stm32h7xx_ll_usb.c ****         USBx_INEP(epnum)->DIEPDMA = (uint32_t)(ep->dma_addr);
 798:Drivers/STM32H7xx_HAL_Driver/Src/stm32h7xx_ll_usb.c ****       }
 799:Drivers/STM32H7xx_HAL_Driver/Src/stm32h7xx_ll_usb.c **** 
 800:Drivers/STM32H7xx_HAL_Driver/Src/stm32h7xx_ll_usb.c ****       if (ep->type == EP_TYPE_ISOC)
 801:Drivers/STM32H7xx_HAL_Driver/Src/stm32h7xx_ll_usb.c ****       {
 802:Drivers/STM32H7xx_HAL_Driver/Src/stm32h7xx_ll_usb.c ****         if ((USBx_DEVICE->DSTS & (1U << 8)) == 0U)
 803:Drivers/STM32H7xx_HAL_Driver/Src/stm32h7xx_ll_usb.c ****         {
 804:Drivers/STM32H7xx_HAL_Driver/Src/stm32h7xx_ll_usb.c ****           USBx_INEP(epnum)->DIEPCTL |= USB_OTG_DIEPCTL_SODDFRM;
 805:Drivers/STM32H7xx_HAL_Driver/Src/stm32h7xx_ll_usb.c ****         }
 806:Drivers/STM32H7xx_HAL_Driver/Src/stm32h7xx_ll_usb.c ****         else
 807:Drivers/STM32H7xx_HAL_Driver/Src/stm32h7xx_ll_usb.c ****         {
 808:Drivers/STM32H7xx_HAL_Driver/Src/stm32h7xx_ll_usb.c ****           USBx_INEP(epnum)->DIEPCTL |= USB_OTG_DIEPCTL_SD0PID_SEVNFRM;
 809:Drivers/STM32H7xx_HAL_Driver/Src/stm32h7xx_ll_usb.c ****         }
 810:Drivers/STM32H7xx_HAL_Driver/Src/stm32h7xx_ll_usb.c ****       }
 811:Drivers/STM32H7xx_HAL_Driver/Src/stm32h7xx_ll_usb.c **** 
 812:Drivers/STM32H7xx_HAL_Driver/Src/stm32h7xx_ll_usb.c ****       /* EP enable, IN data in FIFO */
 813:Drivers/STM32H7xx_HAL_Driver/Src/stm32h7xx_ll_usb.c ****       USBx_INEP(epnum)->DIEPCTL |= (USB_OTG_DIEPCTL_CNAK | USB_OTG_DIEPCTL_EPENA);
 814:Drivers/STM32H7xx_HAL_Driver/Src/stm32h7xx_ll_usb.c ****     }
 815:Drivers/STM32H7xx_HAL_Driver/Src/stm32h7xx_ll_usb.c ****     else
 816:Drivers/STM32H7xx_HAL_Driver/Src/stm32h7xx_ll_usb.c ****     {
 817:Drivers/STM32H7xx_HAL_Driver/Src/stm32h7xx_ll_usb.c ****       /* EP enable, IN data in FIFO */
 818:Drivers/STM32H7xx_HAL_Driver/Src/stm32h7xx_ll_usb.c ****       USBx_INEP(epnum)->DIEPCTL |= (USB_OTG_DIEPCTL_CNAK | USB_OTG_DIEPCTL_EPENA);
 819:Drivers/STM32H7xx_HAL_Driver/Src/stm32h7xx_ll_usb.c **** 
 820:Drivers/STM32H7xx_HAL_Driver/Src/stm32h7xx_ll_usb.c ****       if (ep->type != EP_TYPE_ISOC)
 821:Drivers/STM32H7xx_HAL_Driver/Src/stm32h7xx_ll_usb.c ****       {
 822:Drivers/STM32H7xx_HAL_Driver/Src/stm32h7xx_ll_usb.c ****         /* Enable the Tx FIFO Empty Interrupt for this EP */
 823:Drivers/STM32H7xx_HAL_Driver/Src/stm32h7xx_ll_usb.c ****         if (ep->xfer_len > 0U)
 824:Drivers/STM32H7xx_HAL_Driver/Src/stm32h7xx_ll_usb.c ****         {
 825:Drivers/STM32H7xx_HAL_Driver/Src/stm32h7xx_ll_usb.c ****           USBx_DEVICE->DIEPEMPMSK |= 1UL << (ep->num & EP_ADDR_MSK);
 826:Drivers/STM32H7xx_HAL_Driver/Src/stm32h7xx_ll_usb.c ****         }
 827:Drivers/STM32H7xx_HAL_Driver/Src/stm32h7xx_ll_usb.c ****       }
 828:Drivers/STM32H7xx_HAL_Driver/Src/stm32h7xx_ll_usb.c ****       else
 829:Drivers/STM32H7xx_HAL_Driver/Src/stm32h7xx_ll_usb.c ****       {
ARM GAS  C:\Users\Nathan\AppData\Local\Temp\cc7cwqzo.s 			page 16


 830:Drivers/STM32H7xx_HAL_Driver/Src/stm32h7xx_ll_usb.c ****         if ((USBx_DEVICE->DSTS & (1U << 8)) == 0U)
 831:Drivers/STM32H7xx_HAL_Driver/Src/stm32h7xx_ll_usb.c ****         {
 832:Drivers/STM32H7xx_HAL_Driver/Src/stm32h7xx_ll_usb.c ****           USBx_INEP(epnum)->DIEPCTL |= USB_OTG_DIEPCTL_SODDFRM;
 833:Drivers/STM32H7xx_HAL_Driver/Src/stm32h7xx_ll_usb.c ****         }
 834:Drivers/STM32H7xx_HAL_Driver/Src/stm32h7xx_ll_usb.c ****         else
 835:Drivers/STM32H7xx_HAL_Driver/Src/stm32h7xx_ll_usb.c ****         {
 836:Drivers/STM32H7xx_HAL_Driver/Src/stm32h7xx_ll_usb.c ****           USBx_INEP(epnum)->DIEPCTL |= USB_OTG_DIEPCTL_SD0PID_SEVNFRM;
 837:Drivers/STM32H7xx_HAL_Driver/Src/stm32h7xx_ll_usb.c ****         }
 838:Drivers/STM32H7xx_HAL_Driver/Src/stm32h7xx_ll_usb.c **** 
 839:Drivers/STM32H7xx_HAL_Driver/Src/stm32h7xx_ll_usb.c ****         (void)USB_WritePacket(USBx, ep->xfer_buff, ep->num, (uint16_t)ep->xfer_len, dma);
 840:Drivers/STM32H7xx_HAL_Driver/Src/stm32h7xx_ll_usb.c ****       }
 841:Drivers/STM32H7xx_HAL_Driver/Src/stm32h7xx_ll_usb.c ****     }
 842:Drivers/STM32H7xx_HAL_Driver/Src/stm32h7xx_ll_usb.c ****   }
 843:Drivers/STM32H7xx_HAL_Driver/Src/stm32h7xx_ll_usb.c ****   else /* OUT endpoint */
 844:Drivers/STM32H7xx_HAL_Driver/Src/stm32h7xx_ll_usb.c ****   {
 845:Drivers/STM32H7xx_HAL_Driver/Src/stm32h7xx_ll_usb.c ****     /* Program the transfer size and packet count as follows:
 846:Drivers/STM32H7xx_HAL_Driver/Src/stm32h7xx_ll_usb.c ****     * pktcnt = N
 847:Drivers/STM32H7xx_HAL_Driver/Src/stm32h7xx_ll_usb.c ****     * xfersize = N * maxpacket
 848:Drivers/STM32H7xx_HAL_Driver/Src/stm32h7xx_ll_usb.c ****     */
 849:Drivers/STM32H7xx_HAL_Driver/Src/stm32h7xx_ll_usb.c ****     USBx_OUTEP(epnum)->DOEPTSIZ &= ~(USB_OTG_DOEPTSIZ_XFRSIZ);
 850:Drivers/STM32H7xx_HAL_Driver/Src/stm32h7xx_ll_usb.c ****     USBx_OUTEP(epnum)->DOEPTSIZ &= ~(USB_OTG_DOEPTSIZ_PKTCNT);
 851:Drivers/STM32H7xx_HAL_Driver/Src/stm32h7xx_ll_usb.c **** 
 852:Drivers/STM32H7xx_HAL_Driver/Src/stm32h7xx_ll_usb.c ****     if (epnum == 0U)
 853:Drivers/STM32H7xx_HAL_Driver/Src/stm32h7xx_ll_usb.c ****     {
 854:Drivers/STM32H7xx_HAL_Driver/Src/stm32h7xx_ll_usb.c ****       if (ep->xfer_len > 0U)
 855:Drivers/STM32H7xx_HAL_Driver/Src/stm32h7xx_ll_usb.c ****       {
 856:Drivers/STM32H7xx_HAL_Driver/Src/stm32h7xx_ll_usb.c ****         ep->xfer_len = ep->maxpacket;
 857:Drivers/STM32H7xx_HAL_Driver/Src/stm32h7xx_ll_usb.c ****       }
 858:Drivers/STM32H7xx_HAL_Driver/Src/stm32h7xx_ll_usb.c **** 
 859:Drivers/STM32H7xx_HAL_Driver/Src/stm32h7xx_ll_usb.c ****       /* Store transfer size, for EP0 this is equal to endpoint max packet size */
 860:Drivers/STM32H7xx_HAL_Driver/Src/stm32h7xx_ll_usb.c ****       ep->xfer_size = ep->maxpacket;
 861:Drivers/STM32H7xx_HAL_Driver/Src/stm32h7xx_ll_usb.c **** 
 862:Drivers/STM32H7xx_HAL_Driver/Src/stm32h7xx_ll_usb.c ****       USBx_OUTEP(epnum)->DOEPTSIZ |= (USB_OTG_DOEPTSIZ_XFRSIZ & ep->xfer_size);
 863:Drivers/STM32H7xx_HAL_Driver/Src/stm32h7xx_ll_usb.c ****       USBx_OUTEP(epnum)->DOEPTSIZ |= (USB_OTG_DOEPTSIZ_PKTCNT & (1U << 19));
 864:Drivers/STM32H7xx_HAL_Driver/Src/stm32h7xx_ll_usb.c ****     }
 865:Drivers/STM32H7xx_HAL_Driver/Src/stm32h7xx_ll_usb.c ****     else
 866:Drivers/STM32H7xx_HAL_Driver/Src/stm32h7xx_ll_usb.c ****     {
 867:Drivers/STM32H7xx_HAL_Driver/Src/stm32h7xx_ll_usb.c ****       if (ep->xfer_len == 0U)
 868:Drivers/STM32H7xx_HAL_Driver/Src/stm32h7xx_ll_usb.c ****       {
 869:Drivers/STM32H7xx_HAL_Driver/Src/stm32h7xx_ll_usb.c ****         USBx_OUTEP(epnum)->DOEPTSIZ |= (USB_OTG_DOEPTSIZ_XFRSIZ & ep->maxpacket);
 870:Drivers/STM32H7xx_HAL_Driver/Src/stm32h7xx_ll_usb.c ****         USBx_OUTEP(epnum)->DOEPTSIZ |= (USB_OTG_DOEPTSIZ_PKTCNT & (1U << 19));
 871:Drivers/STM32H7xx_HAL_Driver/Src/stm32h7xx_ll_usb.c ****       }
 872:Drivers/STM32H7xx_HAL_Driver/Src/stm32h7xx_ll_usb.c ****       else
 873:Drivers/STM32H7xx_HAL_Driver/Src/stm32h7xx_ll_usb.c ****       {
 874:Drivers/STM32H7xx_HAL_Driver/Src/stm32h7xx_ll_usb.c ****         pktcnt = (uint16_t)((ep->xfer_len + ep->maxpacket - 1U) / ep->maxpacket);
 875:Drivers/STM32H7xx_HAL_Driver/Src/stm32h7xx_ll_usb.c ****         ep->xfer_size = ep->maxpacket * pktcnt;
 876:Drivers/STM32H7xx_HAL_Driver/Src/stm32h7xx_ll_usb.c **** 
 877:Drivers/STM32H7xx_HAL_Driver/Src/stm32h7xx_ll_usb.c ****         USBx_OUTEP(epnum)->DOEPTSIZ |= USB_OTG_DOEPTSIZ_PKTCNT & ((uint32_t)pktcnt << 19);
 878:Drivers/STM32H7xx_HAL_Driver/Src/stm32h7xx_ll_usb.c ****         USBx_OUTEP(epnum)->DOEPTSIZ |= USB_OTG_DOEPTSIZ_XFRSIZ & ep->xfer_size;
 879:Drivers/STM32H7xx_HAL_Driver/Src/stm32h7xx_ll_usb.c ****       }
 880:Drivers/STM32H7xx_HAL_Driver/Src/stm32h7xx_ll_usb.c ****     }
 881:Drivers/STM32H7xx_HAL_Driver/Src/stm32h7xx_ll_usb.c **** 
 882:Drivers/STM32H7xx_HAL_Driver/Src/stm32h7xx_ll_usb.c ****     if (dma == 1U)
 883:Drivers/STM32H7xx_HAL_Driver/Src/stm32h7xx_ll_usb.c ****     {
 884:Drivers/STM32H7xx_HAL_Driver/Src/stm32h7xx_ll_usb.c ****       if ((uint32_t)ep->xfer_buff != 0U)
 885:Drivers/STM32H7xx_HAL_Driver/Src/stm32h7xx_ll_usb.c ****       {
 886:Drivers/STM32H7xx_HAL_Driver/Src/stm32h7xx_ll_usb.c ****         USBx_OUTEP(epnum)->DOEPDMA = (uint32_t)(ep->xfer_buff);
ARM GAS  C:\Users\Nathan\AppData\Local\Temp\cc7cwqzo.s 			page 17


 887:Drivers/STM32H7xx_HAL_Driver/Src/stm32h7xx_ll_usb.c ****       }
 888:Drivers/STM32H7xx_HAL_Driver/Src/stm32h7xx_ll_usb.c ****     }
 889:Drivers/STM32H7xx_HAL_Driver/Src/stm32h7xx_ll_usb.c **** 
 890:Drivers/STM32H7xx_HAL_Driver/Src/stm32h7xx_ll_usb.c ****     if (ep->type == EP_TYPE_ISOC)
 891:Drivers/STM32H7xx_HAL_Driver/Src/stm32h7xx_ll_usb.c ****     {
 892:Drivers/STM32H7xx_HAL_Driver/Src/stm32h7xx_ll_usb.c ****       if ((USBx_DEVICE->DSTS & (1U << 8)) == 0U)
 893:Drivers/STM32H7xx_HAL_Driver/Src/stm32h7xx_ll_usb.c ****       {
 894:Drivers/STM32H7xx_HAL_Driver/Src/stm32h7xx_ll_usb.c ****         USBx_OUTEP(epnum)->DOEPCTL |= USB_OTG_DOEPCTL_SODDFRM;
 895:Drivers/STM32H7xx_HAL_Driver/Src/stm32h7xx_ll_usb.c ****       }
 896:Drivers/STM32H7xx_HAL_Driver/Src/stm32h7xx_ll_usb.c ****       else
 897:Drivers/STM32H7xx_HAL_Driver/Src/stm32h7xx_ll_usb.c ****       {
 898:Drivers/STM32H7xx_HAL_Driver/Src/stm32h7xx_ll_usb.c ****         USBx_OUTEP(epnum)->DOEPCTL |= USB_OTG_DOEPCTL_SD0PID_SEVNFRM;
 899:Drivers/STM32H7xx_HAL_Driver/Src/stm32h7xx_ll_usb.c ****       }
 900:Drivers/STM32H7xx_HAL_Driver/Src/stm32h7xx_ll_usb.c ****     }
 901:Drivers/STM32H7xx_HAL_Driver/Src/stm32h7xx_ll_usb.c ****     /* EP enable */
 902:Drivers/STM32H7xx_HAL_Driver/Src/stm32h7xx_ll_usb.c ****     USBx_OUTEP(epnum)->DOEPCTL |= (USB_OTG_DOEPCTL_CNAK | USB_OTG_DOEPCTL_EPENA);
 903:Drivers/STM32H7xx_HAL_Driver/Src/stm32h7xx_ll_usb.c ****   }
 904:Drivers/STM32H7xx_HAL_Driver/Src/stm32h7xx_ll_usb.c **** 
 905:Drivers/STM32H7xx_HAL_Driver/Src/stm32h7xx_ll_usb.c ****   return HAL_OK;
 906:Drivers/STM32H7xx_HAL_Driver/Src/stm32h7xx_ll_usb.c **** }
 907:Drivers/STM32H7xx_HAL_Driver/Src/stm32h7xx_ll_usb.c **** 
 908:Drivers/STM32H7xx_HAL_Driver/Src/stm32h7xx_ll_usb.c **** 
 909:Drivers/STM32H7xx_HAL_Driver/Src/stm32h7xx_ll_usb.c **** /**
 910:Drivers/STM32H7xx_HAL_Driver/Src/stm32h7xx_ll_usb.c ****    * @brief  USB_EPStoptXfer  Stop transfer on an EP
 911:Drivers/STM32H7xx_HAL_Driver/Src/stm32h7xx_ll_usb.c ****    * @param  USBx  usb device instance
 912:Drivers/STM32H7xx_HAL_Driver/Src/stm32h7xx_ll_usb.c ****    * @param  ep pointer to endpoint structure
 913:Drivers/STM32H7xx_HAL_Driver/Src/stm32h7xx_ll_usb.c ****    * @retval HAL status
 914:Drivers/STM32H7xx_HAL_Driver/Src/stm32h7xx_ll_usb.c ****    */
 915:Drivers/STM32H7xx_HAL_Driver/Src/stm32h7xx_ll_usb.c **** HAL_StatusTypeDef USB_EPStopXfer(const USB_OTG_GlobalTypeDef *USBx, USB_OTG_EPTypeDef *ep)
 916:Drivers/STM32H7xx_HAL_Driver/Src/stm32h7xx_ll_usb.c **** {
 917:Drivers/STM32H7xx_HAL_Driver/Src/stm32h7xx_ll_usb.c ****   __IO uint32_t count = 0U;
 918:Drivers/STM32H7xx_HAL_Driver/Src/stm32h7xx_ll_usb.c ****   HAL_StatusTypeDef ret = HAL_OK;
 919:Drivers/STM32H7xx_HAL_Driver/Src/stm32h7xx_ll_usb.c ****   uint32_t USBx_BASE = (uint32_t)USBx;
 920:Drivers/STM32H7xx_HAL_Driver/Src/stm32h7xx_ll_usb.c **** 
 921:Drivers/STM32H7xx_HAL_Driver/Src/stm32h7xx_ll_usb.c ****   /* IN endpoint */
 922:Drivers/STM32H7xx_HAL_Driver/Src/stm32h7xx_ll_usb.c ****   if (ep->is_in == 1U)
 923:Drivers/STM32H7xx_HAL_Driver/Src/stm32h7xx_ll_usb.c ****   {
 924:Drivers/STM32H7xx_HAL_Driver/Src/stm32h7xx_ll_usb.c ****     /* EP enable, IN data in FIFO */
 925:Drivers/STM32H7xx_HAL_Driver/Src/stm32h7xx_ll_usb.c ****     if (((USBx_INEP(ep->num)->DIEPCTL) & USB_OTG_DIEPCTL_EPENA) == USB_OTG_DIEPCTL_EPENA)
 926:Drivers/STM32H7xx_HAL_Driver/Src/stm32h7xx_ll_usb.c ****     {
 927:Drivers/STM32H7xx_HAL_Driver/Src/stm32h7xx_ll_usb.c ****       USBx_INEP(ep->num)->DIEPCTL |= (USB_OTG_DIEPCTL_SNAK);
 928:Drivers/STM32H7xx_HAL_Driver/Src/stm32h7xx_ll_usb.c ****       USBx_INEP(ep->num)->DIEPCTL |= (USB_OTG_DIEPCTL_EPDIS);
 929:Drivers/STM32H7xx_HAL_Driver/Src/stm32h7xx_ll_usb.c **** 
 930:Drivers/STM32H7xx_HAL_Driver/Src/stm32h7xx_ll_usb.c ****       do
 931:Drivers/STM32H7xx_HAL_Driver/Src/stm32h7xx_ll_usb.c ****       {
 932:Drivers/STM32H7xx_HAL_Driver/Src/stm32h7xx_ll_usb.c ****         count++;
 933:Drivers/STM32H7xx_HAL_Driver/Src/stm32h7xx_ll_usb.c **** 
 934:Drivers/STM32H7xx_HAL_Driver/Src/stm32h7xx_ll_usb.c ****         if (count > 10000U)
 935:Drivers/STM32H7xx_HAL_Driver/Src/stm32h7xx_ll_usb.c ****         {
 936:Drivers/STM32H7xx_HAL_Driver/Src/stm32h7xx_ll_usb.c ****           ret = HAL_ERROR;
 937:Drivers/STM32H7xx_HAL_Driver/Src/stm32h7xx_ll_usb.c ****           break;
 938:Drivers/STM32H7xx_HAL_Driver/Src/stm32h7xx_ll_usb.c ****         }
 939:Drivers/STM32H7xx_HAL_Driver/Src/stm32h7xx_ll_usb.c ****       } while (((USBx_INEP(ep->num)->DIEPCTL) & USB_OTG_DIEPCTL_EPENA) ==  USB_OTG_DIEPCTL_EPENA);
 940:Drivers/STM32H7xx_HAL_Driver/Src/stm32h7xx_ll_usb.c ****     }
 941:Drivers/STM32H7xx_HAL_Driver/Src/stm32h7xx_ll_usb.c ****   }
 942:Drivers/STM32H7xx_HAL_Driver/Src/stm32h7xx_ll_usb.c ****   else /* OUT endpoint */
 943:Drivers/STM32H7xx_HAL_Driver/Src/stm32h7xx_ll_usb.c ****   {
ARM GAS  C:\Users\Nathan\AppData\Local\Temp\cc7cwqzo.s 			page 18


 944:Drivers/STM32H7xx_HAL_Driver/Src/stm32h7xx_ll_usb.c ****     if (((USBx_OUTEP(ep->num)->DOEPCTL) & USB_OTG_DOEPCTL_EPENA) == USB_OTG_DOEPCTL_EPENA)
 945:Drivers/STM32H7xx_HAL_Driver/Src/stm32h7xx_ll_usb.c ****     {
 946:Drivers/STM32H7xx_HAL_Driver/Src/stm32h7xx_ll_usb.c ****       USBx_OUTEP(ep->num)->DOEPCTL |= (USB_OTG_DOEPCTL_SNAK);
 947:Drivers/STM32H7xx_HAL_Driver/Src/stm32h7xx_ll_usb.c ****       USBx_OUTEP(ep->num)->DOEPCTL |= (USB_OTG_DOEPCTL_EPDIS);
 948:Drivers/STM32H7xx_HAL_Driver/Src/stm32h7xx_ll_usb.c **** 
 949:Drivers/STM32H7xx_HAL_Driver/Src/stm32h7xx_ll_usb.c ****       do
 950:Drivers/STM32H7xx_HAL_Driver/Src/stm32h7xx_ll_usb.c ****       {
 951:Drivers/STM32H7xx_HAL_Driver/Src/stm32h7xx_ll_usb.c ****         count++;
 952:Drivers/STM32H7xx_HAL_Driver/Src/stm32h7xx_ll_usb.c **** 
 953:Drivers/STM32H7xx_HAL_Driver/Src/stm32h7xx_ll_usb.c ****         if (count > 10000U)
 954:Drivers/STM32H7xx_HAL_Driver/Src/stm32h7xx_ll_usb.c ****         {
 955:Drivers/STM32H7xx_HAL_Driver/Src/stm32h7xx_ll_usb.c ****           ret = HAL_ERROR;
 956:Drivers/STM32H7xx_HAL_Driver/Src/stm32h7xx_ll_usb.c ****           break;
 957:Drivers/STM32H7xx_HAL_Driver/Src/stm32h7xx_ll_usb.c ****         }
 958:Drivers/STM32H7xx_HAL_Driver/Src/stm32h7xx_ll_usb.c ****       } while (((USBx_OUTEP(ep->num)->DOEPCTL) & USB_OTG_DOEPCTL_EPENA) ==  USB_OTG_DOEPCTL_EPENA);
 959:Drivers/STM32H7xx_HAL_Driver/Src/stm32h7xx_ll_usb.c ****     }
 960:Drivers/STM32H7xx_HAL_Driver/Src/stm32h7xx_ll_usb.c ****   }
 961:Drivers/STM32H7xx_HAL_Driver/Src/stm32h7xx_ll_usb.c **** 
 962:Drivers/STM32H7xx_HAL_Driver/Src/stm32h7xx_ll_usb.c ****   return ret;
 963:Drivers/STM32H7xx_HAL_Driver/Src/stm32h7xx_ll_usb.c **** }
 964:Drivers/STM32H7xx_HAL_Driver/Src/stm32h7xx_ll_usb.c **** 
 965:Drivers/STM32H7xx_HAL_Driver/Src/stm32h7xx_ll_usb.c **** 
 966:Drivers/STM32H7xx_HAL_Driver/Src/stm32h7xx_ll_usb.c **** /**
 967:Drivers/STM32H7xx_HAL_Driver/Src/stm32h7xx_ll_usb.c ****   * @brief  USB_WritePacket : Writes a packet into the Tx FIFO associated
 968:Drivers/STM32H7xx_HAL_Driver/Src/stm32h7xx_ll_usb.c ****   *         with the EP/channel
 969:Drivers/STM32H7xx_HAL_Driver/Src/stm32h7xx_ll_usb.c ****   * @param  USBx  Selected device
 970:Drivers/STM32H7xx_HAL_Driver/Src/stm32h7xx_ll_usb.c ****   * @param  src   pointer to source buffer
 971:Drivers/STM32H7xx_HAL_Driver/Src/stm32h7xx_ll_usb.c ****   * @param  ch_ep_num  endpoint or host channel number
 972:Drivers/STM32H7xx_HAL_Driver/Src/stm32h7xx_ll_usb.c ****   * @param  len  Number of bytes to write
 973:Drivers/STM32H7xx_HAL_Driver/Src/stm32h7xx_ll_usb.c ****   * @param  dma USB dma enabled or disabled
 974:Drivers/STM32H7xx_HAL_Driver/Src/stm32h7xx_ll_usb.c ****   *          This parameter can be one of these values:
 975:Drivers/STM32H7xx_HAL_Driver/Src/stm32h7xx_ll_usb.c ****   *           0 : DMA feature not used
 976:Drivers/STM32H7xx_HAL_Driver/Src/stm32h7xx_ll_usb.c ****   *           1 : DMA feature used
 977:Drivers/STM32H7xx_HAL_Driver/Src/stm32h7xx_ll_usb.c ****   * @retval HAL status
 978:Drivers/STM32H7xx_HAL_Driver/Src/stm32h7xx_ll_usb.c ****   */
 979:Drivers/STM32H7xx_HAL_Driver/Src/stm32h7xx_ll_usb.c **** HAL_StatusTypeDef USB_WritePacket(const USB_OTG_GlobalTypeDef *USBx, uint8_t *src,
 980:Drivers/STM32H7xx_HAL_Driver/Src/stm32h7xx_ll_usb.c ****                                   uint8_t ch_ep_num, uint16_t len, uint8_t dma)
 981:Drivers/STM32H7xx_HAL_Driver/Src/stm32h7xx_ll_usb.c **** {
 982:Drivers/STM32H7xx_HAL_Driver/Src/stm32h7xx_ll_usb.c ****   uint32_t USBx_BASE = (uint32_t)USBx;
 983:Drivers/STM32H7xx_HAL_Driver/Src/stm32h7xx_ll_usb.c ****   uint8_t *pSrc = src;
 984:Drivers/STM32H7xx_HAL_Driver/Src/stm32h7xx_ll_usb.c ****   uint32_t count32b;
 985:Drivers/STM32H7xx_HAL_Driver/Src/stm32h7xx_ll_usb.c ****   uint32_t i;
 986:Drivers/STM32H7xx_HAL_Driver/Src/stm32h7xx_ll_usb.c **** 
 987:Drivers/STM32H7xx_HAL_Driver/Src/stm32h7xx_ll_usb.c ****   if (dma == 0U)
 988:Drivers/STM32H7xx_HAL_Driver/Src/stm32h7xx_ll_usb.c ****   {
 989:Drivers/STM32H7xx_HAL_Driver/Src/stm32h7xx_ll_usb.c ****     count32b = ((uint32_t)len + 3U) / 4U;
 990:Drivers/STM32H7xx_HAL_Driver/Src/stm32h7xx_ll_usb.c ****     for (i = 0U; i < count32b; i++)
 991:Drivers/STM32H7xx_HAL_Driver/Src/stm32h7xx_ll_usb.c ****     {
 992:Drivers/STM32H7xx_HAL_Driver/Src/stm32h7xx_ll_usb.c ****       USBx_DFIFO((uint32_t)ch_ep_num) = __UNALIGNED_UINT32_READ(pSrc);
 993:Drivers/STM32H7xx_HAL_Driver/Src/stm32h7xx_ll_usb.c ****       pSrc++;
 994:Drivers/STM32H7xx_HAL_Driver/Src/stm32h7xx_ll_usb.c ****       pSrc++;
 995:Drivers/STM32H7xx_HAL_Driver/Src/stm32h7xx_ll_usb.c ****       pSrc++;
 996:Drivers/STM32H7xx_HAL_Driver/Src/stm32h7xx_ll_usb.c ****       pSrc++;
 997:Drivers/STM32H7xx_HAL_Driver/Src/stm32h7xx_ll_usb.c ****     }
 998:Drivers/STM32H7xx_HAL_Driver/Src/stm32h7xx_ll_usb.c ****   }
 999:Drivers/STM32H7xx_HAL_Driver/Src/stm32h7xx_ll_usb.c **** 
1000:Drivers/STM32H7xx_HAL_Driver/Src/stm32h7xx_ll_usb.c ****   return HAL_OK;
ARM GAS  C:\Users\Nathan\AppData\Local\Temp\cc7cwqzo.s 			page 19


1001:Drivers/STM32H7xx_HAL_Driver/Src/stm32h7xx_ll_usb.c **** }
1002:Drivers/STM32H7xx_HAL_Driver/Src/stm32h7xx_ll_usb.c **** 
1003:Drivers/STM32H7xx_HAL_Driver/Src/stm32h7xx_ll_usb.c **** /**
1004:Drivers/STM32H7xx_HAL_Driver/Src/stm32h7xx_ll_usb.c ****   * @brief  USB_ReadPacket : read a packet from the RX FIFO
1005:Drivers/STM32H7xx_HAL_Driver/Src/stm32h7xx_ll_usb.c ****   * @param  USBx  Selected device
1006:Drivers/STM32H7xx_HAL_Driver/Src/stm32h7xx_ll_usb.c ****   * @param  dest  source pointer
1007:Drivers/STM32H7xx_HAL_Driver/Src/stm32h7xx_ll_usb.c ****   * @param  len  Number of bytes to read
1008:Drivers/STM32H7xx_HAL_Driver/Src/stm32h7xx_ll_usb.c ****   * @retval pointer to destination buffer
1009:Drivers/STM32H7xx_HAL_Driver/Src/stm32h7xx_ll_usb.c ****   */
1010:Drivers/STM32H7xx_HAL_Driver/Src/stm32h7xx_ll_usb.c **** void *USB_ReadPacket(const USB_OTG_GlobalTypeDef *USBx, uint8_t *dest, uint16_t len)
1011:Drivers/STM32H7xx_HAL_Driver/Src/stm32h7xx_ll_usb.c **** {
1012:Drivers/STM32H7xx_HAL_Driver/Src/stm32h7xx_ll_usb.c ****   uint32_t USBx_BASE = (uint32_t)USBx;
1013:Drivers/STM32H7xx_HAL_Driver/Src/stm32h7xx_ll_usb.c ****   uint8_t *pDest = dest;
1014:Drivers/STM32H7xx_HAL_Driver/Src/stm32h7xx_ll_usb.c ****   uint32_t pData;
1015:Drivers/STM32H7xx_HAL_Driver/Src/stm32h7xx_ll_usb.c ****   uint32_t i;
1016:Drivers/STM32H7xx_HAL_Driver/Src/stm32h7xx_ll_usb.c ****   uint32_t count32b = (uint32_t)len >> 2U;
1017:Drivers/STM32H7xx_HAL_Driver/Src/stm32h7xx_ll_usb.c ****   uint16_t remaining_bytes = len % 4U;
1018:Drivers/STM32H7xx_HAL_Driver/Src/stm32h7xx_ll_usb.c **** 
1019:Drivers/STM32H7xx_HAL_Driver/Src/stm32h7xx_ll_usb.c ****   for (i = 0U; i < count32b; i++)
1020:Drivers/STM32H7xx_HAL_Driver/Src/stm32h7xx_ll_usb.c ****   {
1021:Drivers/STM32H7xx_HAL_Driver/Src/stm32h7xx_ll_usb.c ****     __UNALIGNED_UINT32_WRITE(pDest, USBx_DFIFO(0U));
1022:Drivers/STM32H7xx_HAL_Driver/Src/stm32h7xx_ll_usb.c ****     pDest++;
1023:Drivers/STM32H7xx_HAL_Driver/Src/stm32h7xx_ll_usb.c ****     pDest++;
1024:Drivers/STM32H7xx_HAL_Driver/Src/stm32h7xx_ll_usb.c ****     pDest++;
1025:Drivers/STM32H7xx_HAL_Driver/Src/stm32h7xx_ll_usb.c ****     pDest++;
1026:Drivers/STM32H7xx_HAL_Driver/Src/stm32h7xx_ll_usb.c ****   }
1027:Drivers/STM32H7xx_HAL_Driver/Src/stm32h7xx_ll_usb.c **** 
1028:Drivers/STM32H7xx_HAL_Driver/Src/stm32h7xx_ll_usb.c ****   /* When Number of data is not word aligned, read the remaining byte */
1029:Drivers/STM32H7xx_HAL_Driver/Src/stm32h7xx_ll_usb.c ****   if (remaining_bytes != 0U)
1030:Drivers/STM32H7xx_HAL_Driver/Src/stm32h7xx_ll_usb.c ****   {
1031:Drivers/STM32H7xx_HAL_Driver/Src/stm32h7xx_ll_usb.c ****     i = 0U;
1032:Drivers/STM32H7xx_HAL_Driver/Src/stm32h7xx_ll_usb.c ****     __UNALIGNED_UINT32_WRITE(&pData, USBx_DFIFO(0U));
1033:Drivers/STM32H7xx_HAL_Driver/Src/stm32h7xx_ll_usb.c **** 
1034:Drivers/STM32H7xx_HAL_Driver/Src/stm32h7xx_ll_usb.c ****     do
1035:Drivers/STM32H7xx_HAL_Driver/Src/stm32h7xx_ll_usb.c ****     {
1036:Drivers/STM32H7xx_HAL_Driver/Src/stm32h7xx_ll_usb.c ****       *(uint8_t *)pDest = (uint8_t)(pData >> (8U * (uint8_t)(i)));
1037:Drivers/STM32H7xx_HAL_Driver/Src/stm32h7xx_ll_usb.c ****       i++;
1038:Drivers/STM32H7xx_HAL_Driver/Src/stm32h7xx_ll_usb.c ****       pDest++;
1039:Drivers/STM32H7xx_HAL_Driver/Src/stm32h7xx_ll_usb.c ****       remaining_bytes--;
1040:Drivers/STM32H7xx_HAL_Driver/Src/stm32h7xx_ll_usb.c ****     } while (remaining_bytes != 0U);
1041:Drivers/STM32H7xx_HAL_Driver/Src/stm32h7xx_ll_usb.c ****   }
1042:Drivers/STM32H7xx_HAL_Driver/Src/stm32h7xx_ll_usb.c **** 
1043:Drivers/STM32H7xx_HAL_Driver/Src/stm32h7xx_ll_usb.c ****   return ((void *)pDest);
1044:Drivers/STM32H7xx_HAL_Driver/Src/stm32h7xx_ll_usb.c **** }
1045:Drivers/STM32H7xx_HAL_Driver/Src/stm32h7xx_ll_usb.c **** 
1046:Drivers/STM32H7xx_HAL_Driver/Src/stm32h7xx_ll_usb.c **** /**
1047:Drivers/STM32H7xx_HAL_Driver/Src/stm32h7xx_ll_usb.c ****   * @brief  USB_EPSetStall : set a stall condition over an EP
1048:Drivers/STM32H7xx_HAL_Driver/Src/stm32h7xx_ll_usb.c ****   * @param  USBx  Selected device
1049:Drivers/STM32H7xx_HAL_Driver/Src/stm32h7xx_ll_usb.c ****   * @param  ep pointer to endpoint structure
1050:Drivers/STM32H7xx_HAL_Driver/Src/stm32h7xx_ll_usb.c ****   * @retval HAL status
1051:Drivers/STM32H7xx_HAL_Driver/Src/stm32h7xx_ll_usb.c ****   */
1052:Drivers/STM32H7xx_HAL_Driver/Src/stm32h7xx_ll_usb.c **** HAL_StatusTypeDef USB_EPSetStall(const USB_OTG_GlobalTypeDef *USBx, const USB_OTG_EPTypeDef *ep)
1053:Drivers/STM32H7xx_HAL_Driver/Src/stm32h7xx_ll_usb.c **** {
1054:Drivers/STM32H7xx_HAL_Driver/Src/stm32h7xx_ll_usb.c ****   uint32_t USBx_BASE = (uint32_t)USBx;
1055:Drivers/STM32H7xx_HAL_Driver/Src/stm32h7xx_ll_usb.c ****   uint32_t epnum = (uint32_t)ep->num;
1056:Drivers/STM32H7xx_HAL_Driver/Src/stm32h7xx_ll_usb.c **** 
1057:Drivers/STM32H7xx_HAL_Driver/Src/stm32h7xx_ll_usb.c ****   if (ep->is_in == 1U)
ARM GAS  C:\Users\Nathan\AppData\Local\Temp\cc7cwqzo.s 			page 20


1058:Drivers/STM32H7xx_HAL_Driver/Src/stm32h7xx_ll_usb.c ****   {
1059:Drivers/STM32H7xx_HAL_Driver/Src/stm32h7xx_ll_usb.c ****     if (((USBx_INEP(epnum)->DIEPCTL & USB_OTG_DIEPCTL_EPENA) == 0U) && (epnum != 0U))
1060:Drivers/STM32H7xx_HAL_Driver/Src/stm32h7xx_ll_usb.c ****     {
1061:Drivers/STM32H7xx_HAL_Driver/Src/stm32h7xx_ll_usb.c ****       USBx_INEP(epnum)->DIEPCTL &= ~(USB_OTG_DIEPCTL_EPDIS);
1062:Drivers/STM32H7xx_HAL_Driver/Src/stm32h7xx_ll_usb.c ****     }
1063:Drivers/STM32H7xx_HAL_Driver/Src/stm32h7xx_ll_usb.c ****     USBx_INEP(epnum)->DIEPCTL |= USB_OTG_DIEPCTL_STALL;
1064:Drivers/STM32H7xx_HAL_Driver/Src/stm32h7xx_ll_usb.c ****   }
1065:Drivers/STM32H7xx_HAL_Driver/Src/stm32h7xx_ll_usb.c ****   else
1066:Drivers/STM32H7xx_HAL_Driver/Src/stm32h7xx_ll_usb.c ****   {
1067:Drivers/STM32H7xx_HAL_Driver/Src/stm32h7xx_ll_usb.c ****     if (((USBx_OUTEP(epnum)->DOEPCTL & USB_OTG_DOEPCTL_EPENA) == 0U) && (epnum != 0U))
1068:Drivers/STM32H7xx_HAL_Driver/Src/stm32h7xx_ll_usb.c ****     {
1069:Drivers/STM32H7xx_HAL_Driver/Src/stm32h7xx_ll_usb.c ****       USBx_OUTEP(epnum)->DOEPCTL &= ~(USB_OTG_DOEPCTL_EPDIS);
1070:Drivers/STM32H7xx_HAL_Driver/Src/stm32h7xx_ll_usb.c ****     }
1071:Drivers/STM32H7xx_HAL_Driver/Src/stm32h7xx_ll_usb.c ****     USBx_OUTEP(epnum)->DOEPCTL |= USB_OTG_DOEPCTL_STALL;
1072:Drivers/STM32H7xx_HAL_Driver/Src/stm32h7xx_ll_usb.c ****   }
1073:Drivers/STM32H7xx_HAL_Driver/Src/stm32h7xx_ll_usb.c **** 
1074:Drivers/STM32H7xx_HAL_Driver/Src/stm32h7xx_ll_usb.c ****   return HAL_OK;
1075:Drivers/STM32H7xx_HAL_Driver/Src/stm32h7xx_ll_usb.c **** }
1076:Drivers/STM32H7xx_HAL_Driver/Src/stm32h7xx_ll_usb.c **** 
1077:Drivers/STM32H7xx_HAL_Driver/Src/stm32h7xx_ll_usb.c **** /**
1078:Drivers/STM32H7xx_HAL_Driver/Src/stm32h7xx_ll_usb.c ****   * @brief  USB_EPClearStall : Clear a stall condition over an EP
1079:Drivers/STM32H7xx_HAL_Driver/Src/stm32h7xx_ll_usb.c ****   * @param  USBx  Selected device
1080:Drivers/STM32H7xx_HAL_Driver/Src/stm32h7xx_ll_usb.c ****   * @param  ep pointer to endpoint structure
1081:Drivers/STM32H7xx_HAL_Driver/Src/stm32h7xx_ll_usb.c ****   * @retval HAL status
1082:Drivers/STM32H7xx_HAL_Driver/Src/stm32h7xx_ll_usb.c ****   */
1083:Drivers/STM32H7xx_HAL_Driver/Src/stm32h7xx_ll_usb.c **** HAL_StatusTypeDef USB_EPClearStall(const USB_OTG_GlobalTypeDef *USBx, const USB_OTG_EPTypeDef *ep)
1084:Drivers/STM32H7xx_HAL_Driver/Src/stm32h7xx_ll_usb.c **** {
1085:Drivers/STM32H7xx_HAL_Driver/Src/stm32h7xx_ll_usb.c ****   uint32_t USBx_BASE = (uint32_t)USBx;
1086:Drivers/STM32H7xx_HAL_Driver/Src/stm32h7xx_ll_usb.c ****   uint32_t epnum = (uint32_t)ep->num;
1087:Drivers/STM32H7xx_HAL_Driver/Src/stm32h7xx_ll_usb.c **** 
1088:Drivers/STM32H7xx_HAL_Driver/Src/stm32h7xx_ll_usb.c ****   if (ep->is_in == 1U)
1089:Drivers/STM32H7xx_HAL_Driver/Src/stm32h7xx_ll_usb.c ****   {
1090:Drivers/STM32H7xx_HAL_Driver/Src/stm32h7xx_ll_usb.c ****     USBx_INEP(epnum)->DIEPCTL &= ~USB_OTG_DIEPCTL_STALL;
1091:Drivers/STM32H7xx_HAL_Driver/Src/stm32h7xx_ll_usb.c ****     if ((ep->type == EP_TYPE_INTR) || (ep->type == EP_TYPE_BULK))
1092:Drivers/STM32H7xx_HAL_Driver/Src/stm32h7xx_ll_usb.c ****     {
1093:Drivers/STM32H7xx_HAL_Driver/Src/stm32h7xx_ll_usb.c ****       USBx_INEP(epnum)->DIEPCTL |= USB_OTG_DIEPCTL_SD0PID_SEVNFRM; /* DATA0 */
1094:Drivers/STM32H7xx_HAL_Driver/Src/stm32h7xx_ll_usb.c ****     }
1095:Drivers/STM32H7xx_HAL_Driver/Src/stm32h7xx_ll_usb.c ****   }
1096:Drivers/STM32H7xx_HAL_Driver/Src/stm32h7xx_ll_usb.c ****   else
1097:Drivers/STM32H7xx_HAL_Driver/Src/stm32h7xx_ll_usb.c ****   {
1098:Drivers/STM32H7xx_HAL_Driver/Src/stm32h7xx_ll_usb.c ****     USBx_OUTEP(epnum)->DOEPCTL &= ~USB_OTG_DOEPCTL_STALL;
1099:Drivers/STM32H7xx_HAL_Driver/Src/stm32h7xx_ll_usb.c ****     if ((ep->type == EP_TYPE_INTR) || (ep->type == EP_TYPE_BULK))
1100:Drivers/STM32H7xx_HAL_Driver/Src/stm32h7xx_ll_usb.c ****     {
1101:Drivers/STM32H7xx_HAL_Driver/Src/stm32h7xx_ll_usb.c ****       USBx_OUTEP(epnum)->DOEPCTL |= USB_OTG_DOEPCTL_SD0PID_SEVNFRM; /* DATA0 */
1102:Drivers/STM32H7xx_HAL_Driver/Src/stm32h7xx_ll_usb.c ****     }
1103:Drivers/STM32H7xx_HAL_Driver/Src/stm32h7xx_ll_usb.c ****   }
1104:Drivers/STM32H7xx_HAL_Driver/Src/stm32h7xx_ll_usb.c ****   return HAL_OK;
1105:Drivers/STM32H7xx_HAL_Driver/Src/stm32h7xx_ll_usb.c **** }
1106:Drivers/STM32H7xx_HAL_Driver/Src/stm32h7xx_ll_usb.c **** 
1107:Drivers/STM32H7xx_HAL_Driver/Src/stm32h7xx_ll_usb.c **** /**
1108:Drivers/STM32H7xx_HAL_Driver/Src/stm32h7xx_ll_usb.c ****   * @brief  USB_StopDevice : Stop the usb device mode
1109:Drivers/STM32H7xx_HAL_Driver/Src/stm32h7xx_ll_usb.c ****   * @param  USBx  Selected device
1110:Drivers/STM32H7xx_HAL_Driver/Src/stm32h7xx_ll_usb.c ****   * @retval HAL status
1111:Drivers/STM32H7xx_HAL_Driver/Src/stm32h7xx_ll_usb.c ****   */
1112:Drivers/STM32H7xx_HAL_Driver/Src/stm32h7xx_ll_usb.c **** HAL_StatusTypeDef USB_StopDevice(USB_OTG_GlobalTypeDef *USBx)
1113:Drivers/STM32H7xx_HAL_Driver/Src/stm32h7xx_ll_usb.c **** {
1114:Drivers/STM32H7xx_HAL_Driver/Src/stm32h7xx_ll_usb.c ****   HAL_StatusTypeDef ret;
ARM GAS  C:\Users\Nathan\AppData\Local\Temp\cc7cwqzo.s 			page 21


1115:Drivers/STM32H7xx_HAL_Driver/Src/stm32h7xx_ll_usb.c ****   uint32_t USBx_BASE = (uint32_t)USBx;
1116:Drivers/STM32H7xx_HAL_Driver/Src/stm32h7xx_ll_usb.c ****   uint32_t i;
1117:Drivers/STM32H7xx_HAL_Driver/Src/stm32h7xx_ll_usb.c **** 
1118:Drivers/STM32H7xx_HAL_Driver/Src/stm32h7xx_ll_usb.c ****   /* Clear Pending interrupt */
1119:Drivers/STM32H7xx_HAL_Driver/Src/stm32h7xx_ll_usb.c ****   for (i = 0U; i < 15U; i++)
1120:Drivers/STM32H7xx_HAL_Driver/Src/stm32h7xx_ll_usb.c ****   {
1121:Drivers/STM32H7xx_HAL_Driver/Src/stm32h7xx_ll_usb.c ****     USBx_INEP(i)->DIEPINT = 0xFB7FU;
1122:Drivers/STM32H7xx_HAL_Driver/Src/stm32h7xx_ll_usb.c ****     USBx_OUTEP(i)->DOEPINT = 0xFB7FU;
1123:Drivers/STM32H7xx_HAL_Driver/Src/stm32h7xx_ll_usb.c ****   }
1124:Drivers/STM32H7xx_HAL_Driver/Src/stm32h7xx_ll_usb.c **** 
1125:Drivers/STM32H7xx_HAL_Driver/Src/stm32h7xx_ll_usb.c ****   /* Clear interrupt masks */
1126:Drivers/STM32H7xx_HAL_Driver/Src/stm32h7xx_ll_usb.c ****   USBx_DEVICE->DIEPMSK  = 0U;
1127:Drivers/STM32H7xx_HAL_Driver/Src/stm32h7xx_ll_usb.c ****   USBx_DEVICE->DOEPMSK  = 0U;
1128:Drivers/STM32H7xx_HAL_Driver/Src/stm32h7xx_ll_usb.c ****   USBx_DEVICE->DAINTMSK = 0U;
1129:Drivers/STM32H7xx_HAL_Driver/Src/stm32h7xx_ll_usb.c **** 
1130:Drivers/STM32H7xx_HAL_Driver/Src/stm32h7xx_ll_usb.c ****   /* Flush the FIFO */
1131:Drivers/STM32H7xx_HAL_Driver/Src/stm32h7xx_ll_usb.c ****   ret = USB_FlushRxFifo(USBx);
1132:Drivers/STM32H7xx_HAL_Driver/Src/stm32h7xx_ll_usb.c ****   if (ret != HAL_OK)
1133:Drivers/STM32H7xx_HAL_Driver/Src/stm32h7xx_ll_usb.c ****   {
1134:Drivers/STM32H7xx_HAL_Driver/Src/stm32h7xx_ll_usb.c ****     return ret;
1135:Drivers/STM32H7xx_HAL_Driver/Src/stm32h7xx_ll_usb.c ****   }
1136:Drivers/STM32H7xx_HAL_Driver/Src/stm32h7xx_ll_usb.c **** 
1137:Drivers/STM32H7xx_HAL_Driver/Src/stm32h7xx_ll_usb.c ****   ret = USB_FlushTxFifo(USBx,  0x10U);
1138:Drivers/STM32H7xx_HAL_Driver/Src/stm32h7xx_ll_usb.c ****   if (ret != HAL_OK)
1139:Drivers/STM32H7xx_HAL_Driver/Src/stm32h7xx_ll_usb.c ****   {
1140:Drivers/STM32H7xx_HAL_Driver/Src/stm32h7xx_ll_usb.c ****     return ret;
1141:Drivers/STM32H7xx_HAL_Driver/Src/stm32h7xx_ll_usb.c ****   }
1142:Drivers/STM32H7xx_HAL_Driver/Src/stm32h7xx_ll_usb.c **** 
1143:Drivers/STM32H7xx_HAL_Driver/Src/stm32h7xx_ll_usb.c ****   return ret;
1144:Drivers/STM32H7xx_HAL_Driver/Src/stm32h7xx_ll_usb.c **** }
1145:Drivers/STM32H7xx_HAL_Driver/Src/stm32h7xx_ll_usb.c **** 
1146:Drivers/STM32H7xx_HAL_Driver/Src/stm32h7xx_ll_usb.c **** /**
1147:Drivers/STM32H7xx_HAL_Driver/Src/stm32h7xx_ll_usb.c ****   * @brief  USB_SetDevAddress : Stop the usb device mode
1148:Drivers/STM32H7xx_HAL_Driver/Src/stm32h7xx_ll_usb.c ****   * @param  USBx  Selected device
1149:Drivers/STM32H7xx_HAL_Driver/Src/stm32h7xx_ll_usb.c ****   * @param  address  new device address to be assigned
1150:Drivers/STM32H7xx_HAL_Driver/Src/stm32h7xx_ll_usb.c ****   *          This parameter can be a value from 0 to 255
1151:Drivers/STM32H7xx_HAL_Driver/Src/stm32h7xx_ll_usb.c ****   * @retval HAL status
1152:Drivers/STM32H7xx_HAL_Driver/Src/stm32h7xx_ll_usb.c ****   */
1153:Drivers/STM32H7xx_HAL_Driver/Src/stm32h7xx_ll_usb.c **** HAL_StatusTypeDef USB_SetDevAddress(const USB_OTG_GlobalTypeDef *USBx, uint8_t address)
1154:Drivers/STM32H7xx_HAL_Driver/Src/stm32h7xx_ll_usb.c **** {
1155:Drivers/STM32H7xx_HAL_Driver/Src/stm32h7xx_ll_usb.c ****   uint32_t USBx_BASE = (uint32_t)USBx;
1156:Drivers/STM32H7xx_HAL_Driver/Src/stm32h7xx_ll_usb.c **** 
1157:Drivers/STM32H7xx_HAL_Driver/Src/stm32h7xx_ll_usb.c ****   USBx_DEVICE->DCFG &= ~(USB_OTG_DCFG_DAD);
1158:Drivers/STM32H7xx_HAL_Driver/Src/stm32h7xx_ll_usb.c ****   USBx_DEVICE->DCFG |= ((uint32_t)address << 4) & USB_OTG_DCFG_DAD;
1159:Drivers/STM32H7xx_HAL_Driver/Src/stm32h7xx_ll_usb.c **** 
1160:Drivers/STM32H7xx_HAL_Driver/Src/stm32h7xx_ll_usb.c ****   return HAL_OK;
1161:Drivers/STM32H7xx_HAL_Driver/Src/stm32h7xx_ll_usb.c **** }
1162:Drivers/STM32H7xx_HAL_Driver/Src/stm32h7xx_ll_usb.c **** 
1163:Drivers/STM32H7xx_HAL_Driver/Src/stm32h7xx_ll_usb.c **** /**
1164:Drivers/STM32H7xx_HAL_Driver/Src/stm32h7xx_ll_usb.c ****   * @brief  USB_DevConnect : Connect the USB device by enabling Rpu
1165:Drivers/STM32H7xx_HAL_Driver/Src/stm32h7xx_ll_usb.c ****   * @param  USBx  Selected device
1166:Drivers/STM32H7xx_HAL_Driver/Src/stm32h7xx_ll_usb.c ****   * @retval HAL status
1167:Drivers/STM32H7xx_HAL_Driver/Src/stm32h7xx_ll_usb.c ****   */
1168:Drivers/STM32H7xx_HAL_Driver/Src/stm32h7xx_ll_usb.c **** HAL_StatusTypeDef USB_DevConnect(const USB_OTG_GlobalTypeDef *USBx)
1169:Drivers/STM32H7xx_HAL_Driver/Src/stm32h7xx_ll_usb.c **** {
1170:Drivers/STM32H7xx_HAL_Driver/Src/stm32h7xx_ll_usb.c ****   uint32_t USBx_BASE = (uint32_t)USBx;
1171:Drivers/STM32H7xx_HAL_Driver/Src/stm32h7xx_ll_usb.c **** 
ARM GAS  C:\Users\Nathan\AppData\Local\Temp\cc7cwqzo.s 			page 22


1172:Drivers/STM32H7xx_HAL_Driver/Src/stm32h7xx_ll_usb.c ****   /* In case phy is stopped, ensure to ungate and restore the phy CLK */
1173:Drivers/STM32H7xx_HAL_Driver/Src/stm32h7xx_ll_usb.c ****   USBx_PCGCCTL &= ~(USB_OTG_PCGCCTL_STOPCLK | USB_OTG_PCGCCTL_GATECLK);
1174:Drivers/STM32H7xx_HAL_Driver/Src/stm32h7xx_ll_usb.c **** 
1175:Drivers/STM32H7xx_HAL_Driver/Src/stm32h7xx_ll_usb.c ****   USBx_DEVICE->DCTL &= ~USB_OTG_DCTL_SDIS;
1176:Drivers/STM32H7xx_HAL_Driver/Src/stm32h7xx_ll_usb.c **** 
1177:Drivers/STM32H7xx_HAL_Driver/Src/stm32h7xx_ll_usb.c ****   return HAL_OK;
1178:Drivers/STM32H7xx_HAL_Driver/Src/stm32h7xx_ll_usb.c **** }
1179:Drivers/STM32H7xx_HAL_Driver/Src/stm32h7xx_ll_usb.c **** 
1180:Drivers/STM32H7xx_HAL_Driver/Src/stm32h7xx_ll_usb.c **** /**
1181:Drivers/STM32H7xx_HAL_Driver/Src/stm32h7xx_ll_usb.c ****   * @brief  USB_DevDisconnect : Disconnect the USB device by disabling Rpu
1182:Drivers/STM32H7xx_HAL_Driver/Src/stm32h7xx_ll_usb.c ****   * @param  USBx  Selected device
1183:Drivers/STM32H7xx_HAL_Driver/Src/stm32h7xx_ll_usb.c ****   * @retval HAL status
1184:Drivers/STM32H7xx_HAL_Driver/Src/stm32h7xx_ll_usb.c ****   */
1185:Drivers/STM32H7xx_HAL_Driver/Src/stm32h7xx_ll_usb.c **** HAL_StatusTypeDef USB_DevDisconnect(const USB_OTG_GlobalTypeDef *USBx)
1186:Drivers/STM32H7xx_HAL_Driver/Src/stm32h7xx_ll_usb.c **** {
1187:Drivers/STM32H7xx_HAL_Driver/Src/stm32h7xx_ll_usb.c ****   uint32_t USBx_BASE = (uint32_t)USBx;
1188:Drivers/STM32H7xx_HAL_Driver/Src/stm32h7xx_ll_usb.c **** 
1189:Drivers/STM32H7xx_HAL_Driver/Src/stm32h7xx_ll_usb.c ****   /* In case phy is stopped, ensure to ungate and restore the phy CLK */
1190:Drivers/STM32H7xx_HAL_Driver/Src/stm32h7xx_ll_usb.c ****   USBx_PCGCCTL &= ~(USB_OTG_PCGCCTL_STOPCLK | USB_OTG_PCGCCTL_GATECLK);
1191:Drivers/STM32H7xx_HAL_Driver/Src/stm32h7xx_ll_usb.c **** 
1192:Drivers/STM32H7xx_HAL_Driver/Src/stm32h7xx_ll_usb.c ****   USBx_DEVICE->DCTL |= USB_OTG_DCTL_SDIS;
1193:Drivers/STM32H7xx_HAL_Driver/Src/stm32h7xx_ll_usb.c **** 
1194:Drivers/STM32H7xx_HAL_Driver/Src/stm32h7xx_ll_usb.c ****   return HAL_OK;
1195:Drivers/STM32H7xx_HAL_Driver/Src/stm32h7xx_ll_usb.c **** }
1196:Drivers/STM32H7xx_HAL_Driver/Src/stm32h7xx_ll_usb.c **** 
1197:Drivers/STM32H7xx_HAL_Driver/Src/stm32h7xx_ll_usb.c **** /**
1198:Drivers/STM32H7xx_HAL_Driver/Src/stm32h7xx_ll_usb.c ****   * @brief  USB_ReadInterrupts: return the global USB interrupt status
1199:Drivers/STM32H7xx_HAL_Driver/Src/stm32h7xx_ll_usb.c ****   * @param  USBx  Selected device
1200:Drivers/STM32H7xx_HAL_Driver/Src/stm32h7xx_ll_usb.c ****   * @retval USB Global Interrupt status
1201:Drivers/STM32H7xx_HAL_Driver/Src/stm32h7xx_ll_usb.c ****   */
1202:Drivers/STM32H7xx_HAL_Driver/Src/stm32h7xx_ll_usb.c **** uint32_t USB_ReadInterrupts(USB_OTG_GlobalTypeDef const *USBx)
1203:Drivers/STM32H7xx_HAL_Driver/Src/stm32h7xx_ll_usb.c **** {
1204:Drivers/STM32H7xx_HAL_Driver/Src/stm32h7xx_ll_usb.c ****   uint32_t tmpreg;
1205:Drivers/STM32H7xx_HAL_Driver/Src/stm32h7xx_ll_usb.c **** 
1206:Drivers/STM32H7xx_HAL_Driver/Src/stm32h7xx_ll_usb.c ****   tmpreg = USBx->GINTSTS;
1207:Drivers/STM32H7xx_HAL_Driver/Src/stm32h7xx_ll_usb.c ****   tmpreg &= USBx->GINTMSK;
1208:Drivers/STM32H7xx_HAL_Driver/Src/stm32h7xx_ll_usb.c **** 
1209:Drivers/STM32H7xx_HAL_Driver/Src/stm32h7xx_ll_usb.c ****   return tmpreg;
1210:Drivers/STM32H7xx_HAL_Driver/Src/stm32h7xx_ll_usb.c **** }
1211:Drivers/STM32H7xx_HAL_Driver/Src/stm32h7xx_ll_usb.c **** 
1212:Drivers/STM32H7xx_HAL_Driver/Src/stm32h7xx_ll_usb.c **** /**
1213:Drivers/STM32H7xx_HAL_Driver/Src/stm32h7xx_ll_usb.c ****   * @brief  USB_ReadChInterrupts: return USB channel interrupt status
1214:Drivers/STM32H7xx_HAL_Driver/Src/stm32h7xx_ll_usb.c ****   * @param  USBx  Selected device
1215:Drivers/STM32H7xx_HAL_Driver/Src/stm32h7xx_ll_usb.c ****   * @param  chnum Channel number
1216:Drivers/STM32H7xx_HAL_Driver/Src/stm32h7xx_ll_usb.c ****   * @retval USB Channel Interrupt status
1217:Drivers/STM32H7xx_HAL_Driver/Src/stm32h7xx_ll_usb.c ****   */
1218:Drivers/STM32H7xx_HAL_Driver/Src/stm32h7xx_ll_usb.c **** uint32_t USB_ReadChInterrupts(const USB_OTG_GlobalTypeDef *USBx, uint8_t chnum)
1219:Drivers/STM32H7xx_HAL_Driver/Src/stm32h7xx_ll_usb.c **** {
1220:Drivers/STM32H7xx_HAL_Driver/Src/stm32h7xx_ll_usb.c ****   uint32_t USBx_BASE = (uint32_t)USBx;
1221:Drivers/STM32H7xx_HAL_Driver/Src/stm32h7xx_ll_usb.c ****   uint32_t tmpreg;
1222:Drivers/STM32H7xx_HAL_Driver/Src/stm32h7xx_ll_usb.c **** 
1223:Drivers/STM32H7xx_HAL_Driver/Src/stm32h7xx_ll_usb.c ****   tmpreg = USBx_HC(chnum)->HCINT;
1224:Drivers/STM32H7xx_HAL_Driver/Src/stm32h7xx_ll_usb.c ****   tmpreg &= USBx_HC(chnum)->HCINTMSK;
1225:Drivers/STM32H7xx_HAL_Driver/Src/stm32h7xx_ll_usb.c **** 
1226:Drivers/STM32H7xx_HAL_Driver/Src/stm32h7xx_ll_usb.c ****   return tmpreg;
1227:Drivers/STM32H7xx_HAL_Driver/Src/stm32h7xx_ll_usb.c **** }
1228:Drivers/STM32H7xx_HAL_Driver/Src/stm32h7xx_ll_usb.c **** 
ARM GAS  C:\Users\Nathan\AppData\Local\Temp\cc7cwqzo.s 			page 23


1229:Drivers/STM32H7xx_HAL_Driver/Src/stm32h7xx_ll_usb.c **** /**
1230:Drivers/STM32H7xx_HAL_Driver/Src/stm32h7xx_ll_usb.c ****   * @brief  USB_ReadDevAllOutEpInterrupt: return the USB device OUT endpoints interrupt status
1231:Drivers/STM32H7xx_HAL_Driver/Src/stm32h7xx_ll_usb.c ****   * @param  USBx  Selected device
1232:Drivers/STM32H7xx_HAL_Driver/Src/stm32h7xx_ll_usb.c ****   * @retval USB Device OUT EP interrupt status
1233:Drivers/STM32H7xx_HAL_Driver/Src/stm32h7xx_ll_usb.c ****   */
1234:Drivers/STM32H7xx_HAL_Driver/Src/stm32h7xx_ll_usb.c **** uint32_t USB_ReadDevAllOutEpInterrupt(const USB_OTG_GlobalTypeDef *USBx)
1235:Drivers/STM32H7xx_HAL_Driver/Src/stm32h7xx_ll_usb.c **** {
1236:Drivers/STM32H7xx_HAL_Driver/Src/stm32h7xx_ll_usb.c ****   uint32_t USBx_BASE = (uint32_t)USBx;
1237:Drivers/STM32H7xx_HAL_Driver/Src/stm32h7xx_ll_usb.c ****   uint32_t tmpreg;
1238:Drivers/STM32H7xx_HAL_Driver/Src/stm32h7xx_ll_usb.c **** 
1239:Drivers/STM32H7xx_HAL_Driver/Src/stm32h7xx_ll_usb.c ****   tmpreg  = USBx_DEVICE->DAINT;
1240:Drivers/STM32H7xx_HAL_Driver/Src/stm32h7xx_ll_usb.c ****   tmpreg &= USBx_DEVICE->DAINTMSK;
1241:Drivers/STM32H7xx_HAL_Driver/Src/stm32h7xx_ll_usb.c **** 
1242:Drivers/STM32H7xx_HAL_Driver/Src/stm32h7xx_ll_usb.c ****   return ((tmpreg & 0xffff0000U) >> 16);
1243:Drivers/STM32H7xx_HAL_Driver/Src/stm32h7xx_ll_usb.c **** }
1244:Drivers/STM32H7xx_HAL_Driver/Src/stm32h7xx_ll_usb.c **** 
1245:Drivers/STM32H7xx_HAL_Driver/Src/stm32h7xx_ll_usb.c **** /**
1246:Drivers/STM32H7xx_HAL_Driver/Src/stm32h7xx_ll_usb.c ****   * @brief  USB_ReadDevAllInEpInterrupt: return the USB device IN endpoints interrupt status
1247:Drivers/STM32H7xx_HAL_Driver/Src/stm32h7xx_ll_usb.c ****   * @param  USBx  Selected device
1248:Drivers/STM32H7xx_HAL_Driver/Src/stm32h7xx_ll_usb.c ****   * @retval USB Device IN EP interrupt status
1249:Drivers/STM32H7xx_HAL_Driver/Src/stm32h7xx_ll_usb.c ****   */
1250:Drivers/STM32H7xx_HAL_Driver/Src/stm32h7xx_ll_usb.c **** uint32_t USB_ReadDevAllInEpInterrupt(const USB_OTG_GlobalTypeDef *USBx)
1251:Drivers/STM32H7xx_HAL_Driver/Src/stm32h7xx_ll_usb.c **** {
1252:Drivers/STM32H7xx_HAL_Driver/Src/stm32h7xx_ll_usb.c ****   uint32_t USBx_BASE = (uint32_t)USBx;
1253:Drivers/STM32H7xx_HAL_Driver/Src/stm32h7xx_ll_usb.c ****   uint32_t tmpreg;
1254:Drivers/STM32H7xx_HAL_Driver/Src/stm32h7xx_ll_usb.c **** 
1255:Drivers/STM32H7xx_HAL_Driver/Src/stm32h7xx_ll_usb.c ****   tmpreg  = USBx_DEVICE->DAINT;
1256:Drivers/STM32H7xx_HAL_Driver/Src/stm32h7xx_ll_usb.c ****   tmpreg &= USBx_DEVICE->DAINTMSK;
1257:Drivers/STM32H7xx_HAL_Driver/Src/stm32h7xx_ll_usb.c **** 
1258:Drivers/STM32H7xx_HAL_Driver/Src/stm32h7xx_ll_usb.c ****   return ((tmpreg & 0xFFFFU));
1259:Drivers/STM32H7xx_HAL_Driver/Src/stm32h7xx_ll_usb.c **** }
1260:Drivers/STM32H7xx_HAL_Driver/Src/stm32h7xx_ll_usb.c **** 
1261:Drivers/STM32H7xx_HAL_Driver/Src/stm32h7xx_ll_usb.c **** /**
1262:Drivers/STM32H7xx_HAL_Driver/Src/stm32h7xx_ll_usb.c ****   * @brief  Returns Device OUT EP Interrupt register
1263:Drivers/STM32H7xx_HAL_Driver/Src/stm32h7xx_ll_usb.c ****   * @param  USBx  Selected device
1264:Drivers/STM32H7xx_HAL_Driver/Src/stm32h7xx_ll_usb.c ****   * @param  epnum  endpoint number
1265:Drivers/STM32H7xx_HAL_Driver/Src/stm32h7xx_ll_usb.c ****   *          This parameter can be a value from 0 to 15
1266:Drivers/STM32H7xx_HAL_Driver/Src/stm32h7xx_ll_usb.c ****   * @retval Device OUT EP Interrupt register
1267:Drivers/STM32H7xx_HAL_Driver/Src/stm32h7xx_ll_usb.c ****   */
1268:Drivers/STM32H7xx_HAL_Driver/Src/stm32h7xx_ll_usb.c **** uint32_t USB_ReadDevOutEPInterrupt(const USB_OTG_GlobalTypeDef *USBx, uint8_t epnum)
1269:Drivers/STM32H7xx_HAL_Driver/Src/stm32h7xx_ll_usb.c **** {
1270:Drivers/STM32H7xx_HAL_Driver/Src/stm32h7xx_ll_usb.c ****   uint32_t USBx_BASE = (uint32_t)USBx;
1271:Drivers/STM32H7xx_HAL_Driver/Src/stm32h7xx_ll_usb.c ****   uint32_t tmpreg;
1272:Drivers/STM32H7xx_HAL_Driver/Src/stm32h7xx_ll_usb.c **** 
1273:Drivers/STM32H7xx_HAL_Driver/Src/stm32h7xx_ll_usb.c ****   tmpreg  = USBx_OUTEP((uint32_t)epnum)->DOEPINT;
1274:Drivers/STM32H7xx_HAL_Driver/Src/stm32h7xx_ll_usb.c ****   tmpreg &= USBx_DEVICE->DOEPMSK;
1275:Drivers/STM32H7xx_HAL_Driver/Src/stm32h7xx_ll_usb.c **** 
1276:Drivers/STM32H7xx_HAL_Driver/Src/stm32h7xx_ll_usb.c ****   return tmpreg;
1277:Drivers/STM32H7xx_HAL_Driver/Src/stm32h7xx_ll_usb.c **** }
1278:Drivers/STM32H7xx_HAL_Driver/Src/stm32h7xx_ll_usb.c **** 
1279:Drivers/STM32H7xx_HAL_Driver/Src/stm32h7xx_ll_usb.c **** /**
1280:Drivers/STM32H7xx_HAL_Driver/Src/stm32h7xx_ll_usb.c ****   * @brief  Returns Device IN EP Interrupt register
1281:Drivers/STM32H7xx_HAL_Driver/Src/stm32h7xx_ll_usb.c ****   * @param  USBx  Selected device
1282:Drivers/STM32H7xx_HAL_Driver/Src/stm32h7xx_ll_usb.c ****   * @param  epnum  endpoint number
1283:Drivers/STM32H7xx_HAL_Driver/Src/stm32h7xx_ll_usb.c ****   *          This parameter can be a value from 0 to 15
1284:Drivers/STM32H7xx_HAL_Driver/Src/stm32h7xx_ll_usb.c ****   * @retval Device IN EP Interrupt register
1285:Drivers/STM32H7xx_HAL_Driver/Src/stm32h7xx_ll_usb.c ****   */
ARM GAS  C:\Users\Nathan\AppData\Local\Temp\cc7cwqzo.s 			page 24


1286:Drivers/STM32H7xx_HAL_Driver/Src/stm32h7xx_ll_usb.c **** uint32_t USB_ReadDevInEPInterrupt(const USB_OTG_GlobalTypeDef *USBx, uint8_t epnum)
1287:Drivers/STM32H7xx_HAL_Driver/Src/stm32h7xx_ll_usb.c **** {
1288:Drivers/STM32H7xx_HAL_Driver/Src/stm32h7xx_ll_usb.c ****   uint32_t USBx_BASE = (uint32_t)USBx;
1289:Drivers/STM32H7xx_HAL_Driver/Src/stm32h7xx_ll_usb.c ****   uint32_t tmpreg;
1290:Drivers/STM32H7xx_HAL_Driver/Src/stm32h7xx_ll_usb.c ****   uint32_t msk;
1291:Drivers/STM32H7xx_HAL_Driver/Src/stm32h7xx_ll_usb.c ****   uint32_t emp;
1292:Drivers/STM32H7xx_HAL_Driver/Src/stm32h7xx_ll_usb.c **** 
1293:Drivers/STM32H7xx_HAL_Driver/Src/stm32h7xx_ll_usb.c ****   msk = USBx_DEVICE->DIEPMSK;
1294:Drivers/STM32H7xx_HAL_Driver/Src/stm32h7xx_ll_usb.c ****   emp = USBx_DEVICE->DIEPEMPMSK;
1295:Drivers/STM32H7xx_HAL_Driver/Src/stm32h7xx_ll_usb.c ****   msk |= ((emp >> (epnum & EP_ADDR_MSK)) & 0x1U) << 7;
1296:Drivers/STM32H7xx_HAL_Driver/Src/stm32h7xx_ll_usb.c ****   tmpreg = USBx_INEP((uint32_t)epnum)->DIEPINT & msk;
1297:Drivers/STM32H7xx_HAL_Driver/Src/stm32h7xx_ll_usb.c **** 
1298:Drivers/STM32H7xx_HAL_Driver/Src/stm32h7xx_ll_usb.c ****   return tmpreg;
1299:Drivers/STM32H7xx_HAL_Driver/Src/stm32h7xx_ll_usb.c **** }
1300:Drivers/STM32H7xx_HAL_Driver/Src/stm32h7xx_ll_usb.c **** 
1301:Drivers/STM32H7xx_HAL_Driver/Src/stm32h7xx_ll_usb.c **** /**
1302:Drivers/STM32H7xx_HAL_Driver/Src/stm32h7xx_ll_usb.c ****   * @brief  USB_ClearInterrupts: clear a USB interrupt
1303:Drivers/STM32H7xx_HAL_Driver/Src/stm32h7xx_ll_usb.c ****   * @param  USBx  Selected device
1304:Drivers/STM32H7xx_HAL_Driver/Src/stm32h7xx_ll_usb.c ****   * @param  interrupt  flag
1305:Drivers/STM32H7xx_HAL_Driver/Src/stm32h7xx_ll_usb.c ****   * @retval None
1306:Drivers/STM32H7xx_HAL_Driver/Src/stm32h7xx_ll_usb.c ****   */
1307:Drivers/STM32H7xx_HAL_Driver/Src/stm32h7xx_ll_usb.c **** void  USB_ClearInterrupts(USB_OTG_GlobalTypeDef *USBx, uint32_t interrupt)
1308:Drivers/STM32H7xx_HAL_Driver/Src/stm32h7xx_ll_usb.c **** {
1309:Drivers/STM32H7xx_HAL_Driver/Src/stm32h7xx_ll_usb.c ****   USBx->GINTSTS &= interrupt;
1310:Drivers/STM32H7xx_HAL_Driver/Src/stm32h7xx_ll_usb.c **** }
1311:Drivers/STM32H7xx_HAL_Driver/Src/stm32h7xx_ll_usb.c **** 
1312:Drivers/STM32H7xx_HAL_Driver/Src/stm32h7xx_ll_usb.c **** /**
1313:Drivers/STM32H7xx_HAL_Driver/Src/stm32h7xx_ll_usb.c ****   * @brief  Returns USB core mode
1314:Drivers/STM32H7xx_HAL_Driver/Src/stm32h7xx_ll_usb.c ****   * @param  USBx  Selected device
1315:Drivers/STM32H7xx_HAL_Driver/Src/stm32h7xx_ll_usb.c ****   * @retval return core mode : Host or Device
1316:Drivers/STM32H7xx_HAL_Driver/Src/stm32h7xx_ll_usb.c ****   *          This parameter can be one of these values:
1317:Drivers/STM32H7xx_HAL_Driver/Src/stm32h7xx_ll_usb.c ****   *           1 : Host
1318:Drivers/STM32H7xx_HAL_Driver/Src/stm32h7xx_ll_usb.c ****   *           0 : Device
1319:Drivers/STM32H7xx_HAL_Driver/Src/stm32h7xx_ll_usb.c ****   */
1320:Drivers/STM32H7xx_HAL_Driver/Src/stm32h7xx_ll_usb.c **** uint32_t USB_GetMode(const USB_OTG_GlobalTypeDef *USBx)
1321:Drivers/STM32H7xx_HAL_Driver/Src/stm32h7xx_ll_usb.c **** {
1322:Drivers/STM32H7xx_HAL_Driver/Src/stm32h7xx_ll_usb.c ****   return ((USBx->GINTSTS) & 0x1U);
1323:Drivers/STM32H7xx_HAL_Driver/Src/stm32h7xx_ll_usb.c **** }
1324:Drivers/STM32H7xx_HAL_Driver/Src/stm32h7xx_ll_usb.c **** 
1325:Drivers/STM32H7xx_HAL_Driver/Src/stm32h7xx_ll_usb.c **** /**
1326:Drivers/STM32H7xx_HAL_Driver/Src/stm32h7xx_ll_usb.c ****   * @brief  Activate EP0 for Setup transactions
1327:Drivers/STM32H7xx_HAL_Driver/Src/stm32h7xx_ll_usb.c ****   * @param  USBx  Selected device
1328:Drivers/STM32H7xx_HAL_Driver/Src/stm32h7xx_ll_usb.c ****   * @retval HAL status
1329:Drivers/STM32H7xx_HAL_Driver/Src/stm32h7xx_ll_usb.c ****   */
1330:Drivers/STM32H7xx_HAL_Driver/Src/stm32h7xx_ll_usb.c **** HAL_StatusTypeDef USB_ActivateSetup(const USB_OTG_GlobalTypeDef *USBx)
1331:Drivers/STM32H7xx_HAL_Driver/Src/stm32h7xx_ll_usb.c **** {
1332:Drivers/STM32H7xx_HAL_Driver/Src/stm32h7xx_ll_usb.c ****   uint32_t USBx_BASE = (uint32_t)USBx;
1333:Drivers/STM32H7xx_HAL_Driver/Src/stm32h7xx_ll_usb.c **** 
1334:Drivers/STM32H7xx_HAL_Driver/Src/stm32h7xx_ll_usb.c ****   /* Set the MPS of the IN EP0 to 64 bytes */
1335:Drivers/STM32H7xx_HAL_Driver/Src/stm32h7xx_ll_usb.c ****   USBx_INEP(0U)->DIEPCTL &= ~USB_OTG_DIEPCTL_MPSIZ;
1336:Drivers/STM32H7xx_HAL_Driver/Src/stm32h7xx_ll_usb.c **** 
1337:Drivers/STM32H7xx_HAL_Driver/Src/stm32h7xx_ll_usb.c ****   USBx_DEVICE->DCTL |= USB_OTG_DCTL_CGINAK;
1338:Drivers/STM32H7xx_HAL_Driver/Src/stm32h7xx_ll_usb.c **** 
1339:Drivers/STM32H7xx_HAL_Driver/Src/stm32h7xx_ll_usb.c ****   return HAL_OK;
1340:Drivers/STM32H7xx_HAL_Driver/Src/stm32h7xx_ll_usb.c **** }
1341:Drivers/STM32H7xx_HAL_Driver/Src/stm32h7xx_ll_usb.c **** 
1342:Drivers/STM32H7xx_HAL_Driver/Src/stm32h7xx_ll_usb.c **** /**
ARM GAS  C:\Users\Nathan\AppData\Local\Temp\cc7cwqzo.s 			page 25


1343:Drivers/STM32H7xx_HAL_Driver/Src/stm32h7xx_ll_usb.c ****   * @brief  Prepare the EP0 to start the first control setup
1344:Drivers/STM32H7xx_HAL_Driver/Src/stm32h7xx_ll_usb.c ****   * @param  USBx  Selected device
1345:Drivers/STM32H7xx_HAL_Driver/Src/stm32h7xx_ll_usb.c ****   * @param  dma USB dma enabled or disabled
1346:Drivers/STM32H7xx_HAL_Driver/Src/stm32h7xx_ll_usb.c ****   *          This parameter can be one of these values:
1347:Drivers/STM32H7xx_HAL_Driver/Src/stm32h7xx_ll_usb.c ****   *           0 : DMA feature not used
1348:Drivers/STM32H7xx_HAL_Driver/Src/stm32h7xx_ll_usb.c ****   *           1 : DMA feature used
1349:Drivers/STM32H7xx_HAL_Driver/Src/stm32h7xx_ll_usb.c ****   * @param  psetup  pointer to setup packet
1350:Drivers/STM32H7xx_HAL_Driver/Src/stm32h7xx_ll_usb.c ****   * @retval HAL status
1351:Drivers/STM32H7xx_HAL_Driver/Src/stm32h7xx_ll_usb.c ****   */
1352:Drivers/STM32H7xx_HAL_Driver/Src/stm32h7xx_ll_usb.c **** HAL_StatusTypeDef USB_EP0_OutStart(const USB_OTG_GlobalTypeDef *USBx, uint8_t dma, const uint8_t *p
1353:Drivers/STM32H7xx_HAL_Driver/Src/stm32h7xx_ll_usb.c **** {
1354:Drivers/STM32H7xx_HAL_Driver/Src/stm32h7xx_ll_usb.c ****   uint32_t USBx_BASE = (uint32_t)USBx;
1355:Drivers/STM32H7xx_HAL_Driver/Src/stm32h7xx_ll_usb.c ****   uint32_t gSNPSiD = *(__IO const uint32_t *)(&USBx->CID + 0x1U);
1356:Drivers/STM32H7xx_HAL_Driver/Src/stm32h7xx_ll_usb.c **** 
1357:Drivers/STM32H7xx_HAL_Driver/Src/stm32h7xx_ll_usb.c ****   if (gSNPSiD > USB_OTG_CORE_ID_300A)
1358:Drivers/STM32H7xx_HAL_Driver/Src/stm32h7xx_ll_usb.c ****   {
1359:Drivers/STM32H7xx_HAL_Driver/Src/stm32h7xx_ll_usb.c ****     if ((USBx_OUTEP(0U)->DOEPCTL & USB_OTG_DOEPCTL_EPENA) == USB_OTG_DOEPCTL_EPENA)
1360:Drivers/STM32H7xx_HAL_Driver/Src/stm32h7xx_ll_usb.c ****     {
1361:Drivers/STM32H7xx_HAL_Driver/Src/stm32h7xx_ll_usb.c ****       return HAL_OK;
1362:Drivers/STM32H7xx_HAL_Driver/Src/stm32h7xx_ll_usb.c ****     }
1363:Drivers/STM32H7xx_HAL_Driver/Src/stm32h7xx_ll_usb.c ****   }
1364:Drivers/STM32H7xx_HAL_Driver/Src/stm32h7xx_ll_usb.c **** 
1365:Drivers/STM32H7xx_HAL_Driver/Src/stm32h7xx_ll_usb.c ****   USBx_OUTEP(0U)->DOEPTSIZ = 0U;
1366:Drivers/STM32H7xx_HAL_Driver/Src/stm32h7xx_ll_usb.c ****   USBx_OUTEP(0U)->DOEPTSIZ |= (USB_OTG_DOEPTSIZ_PKTCNT & (1U << 19));
1367:Drivers/STM32H7xx_HAL_Driver/Src/stm32h7xx_ll_usb.c ****   USBx_OUTEP(0U)->DOEPTSIZ |= (3U * 8U);
1368:Drivers/STM32H7xx_HAL_Driver/Src/stm32h7xx_ll_usb.c ****   USBx_OUTEP(0U)->DOEPTSIZ |=  USB_OTG_DOEPTSIZ_STUPCNT;
1369:Drivers/STM32H7xx_HAL_Driver/Src/stm32h7xx_ll_usb.c **** 
1370:Drivers/STM32H7xx_HAL_Driver/Src/stm32h7xx_ll_usb.c ****   if (dma == 1U)
1371:Drivers/STM32H7xx_HAL_Driver/Src/stm32h7xx_ll_usb.c ****   {
1372:Drivers/STM32H7xx_HAL_Driver/Src/stm32h7xx_ll_usb.c ****     USBx_OUTEP(0U)->DOEPDMA = (uint32_t)psetup;
1373:Drivers/STM32H7xx_HAL_Driver/Src/stm32h7xx_ll_usb.c ****     /* EP enable */
1374:Drivers/STM32H7xx_HAL_Driver/Src/stm32h7xx_ll_usb.c ****     USBx_OUTEP(0U)->DOEPCTL |= USB_OTG_DOEPCTL_EPENA | USB_OTG_DOEPCTL_USBAEP;
1375:Drivers/STM32H7xx_HAL_Driver/Src/stm32h7xx_ll_usb.c ****   }
1376:Drivers/STM32H7xx_HAL_Driver/Src/stm32h7xx_ll_usb.c **** 
1377:Drivers/STM32H7xx_HAL_Driver/Src/stm32h7xx_ll_usb.c ****   return HAL_OK;
1378:Drivers/STM32H7xx_HAL_Driver/Src/stm32h7xx_ll_usb.c **** }
1379:Drivers/STM32H7xx_HAL_Driver/Src/stm32h7xx_ll_usb.c **** 
1380:Drivers/STM32H7xx_HAL_Driver/Src/stm32h7xx_ll_usb.c **** /**
1381:Drivers/STM32H7xx_HAL_Driver/Src/stm32h7xx_ll_usb.c ****   * @brief  Reset the USB Core (needed after USB clock settings change)
1382:Drivers/STM32H7xx_HAL_Driver/Src/stm32h7xx_ll_usb.c ****   * @param  USBx  Selected device
1383:Drivers/STM32H7xx_HAL_Driver/Src/stm32h7xx_ll_usb.c ****   * @retval HAL status
1384:Drivers/STM32H7xx_HAL_Driver/Src/stm32h7xx_ll_usb.c ****   */
1385:Drivers/STM32H7xx_HAL_Driver/Src/stm32h7xx_ll_usb.c **** static HAL_StatusTypeDef USB_CoreReset(USB_OTG_GlobalTypeDef *USBx)
1386:Drivers/STM32H7xx_HAL_Driver/Src/stm32h7xx_ll_usb.c **** {
  28              		.loc 1 1386 1 view -0
  29              		.cfi_startproc
  30              		@ args = 0, pretend = 0, frame = 8
  31              		@ frame_needed = 0, uses_anonymous_args = 0
  32              		@ link register save eliminated.
  33              		.loc 1 1386 1 is_stmt 0 view .LVU1
  34 0000 82B0     		sub	sp, sp, #8
  35              		.cfi_def_cfa_offset 8
1387:Drivers/STM32H7xx_HAL_Driver/Src/stm32h7xx_ll_usb.c ****   __IO uint32_t count = 0U;
  36              		.loc 1 1387 3 is_stmt 1 view .LVU2
  37              		.loc 1 1387 17 is_stmt 0 view .LVU3
  38 0002 0023     		movs	r3, #0
  39 0004 0193     		str	r3, [sp, #4]
ARM GAS  C:\Users\Nathan\AppData\Local\Temp\cc7cwqzo.s 			page 26


  40              	.L3:
1388:Drivers/STM32H7xx_HAL_Driver/Src/stm32h7xx_ll_usb.c **** 
1389:Drivers/STM32H7xx_HAL_Driver/Src/stm32h7xx_ll_usb.c ****   /* Wait for AHB master IDLE state. */
1390:Drivers/STM32H7xx_HAL_Driver/Src/stm32h7xx_ll_usb.c ****   do
  41              		.loc 1 1390 3 is_stmt 1 view .LVU4
1391:Drivers/STM32H7xx_HAL_Driver/Src/stm32h7xx_ll_usb.c ****   {
1392:Drivers/STM32H7xx_HAL_Driver/Src/stm32h7xx_ll_usb.c ****     count++;
  42              		.loc 1 1392 5 view .LVU5
  43              		.loc 1 1392 10 is_stmt 0 view .LVU6
  44 0006 019B     		ldr	r3, [sp, #4]
  45 0008 0133     		adds	r3, r3, #1
  46 000a 0193     		str	r3, [sp, #4]
1393:Drivers/STM32H7xx_HAL_Driver/Src/stm32h7xx_ll_usb.c **** 
1394:Drivers/STM32H7xx_HAL_Driver/Src/stm32h7xx_ll_usb.c ****     if (count > HAL_USB_TIMEOUT)
  47              		.loc 1 1394 5 is_stmt 1 view .LVU7
  48              		.loc 1 1394 15 is_stmt 0 view .LVU8
  49 000c 019B     		ldr	r3, [sp, #4]
  50              		.loc 1 1394 8 view .LVU9
  51 000e B3F1706F 		cmp	r3, #251658240
  52 0012 15D8     		bhi	.L5
1395:Drivers/STM32H7xx_HAL_Driver/Src/stm32h7xx_ll_usb.c ****     {
1396:Drivers/STM32H7xx_HAL_Driver/Src/stm32h7xx_ll_usb.c ****       return HAL_TIMEOUT;
1397:Drivers/STM32H7xx_HAL_Driver/Src/stm32h7xx_ll_usb.c ****     }
1398:Drivers/STM32H7xx_HAL_Driver/Src/stm32h7xx_ll_usb.c ****   } while ((USBx->GRSTCTL & USB_OTG_GRSTCTL_AHBIDL) == 0U);
  53              		.loc 1 1398 53 is_stmt 1 view .LVU10
  54              		.loc 1 1398 17 is_stmt 0 view .LVU11
  55 0014 0369     		ldr	r3, [r0, #16]
  56              		.loc 1 1398 53 view .LVU12
  57 0016 002B     		cmp	r3, #0
  58 0018 F5DA     		bge	.L3
1399:Drivers/STM32H7xx_HAL_Driver/Src/stm32h7xx_ll_usb.c **** 
1400:Drivers/STM32H7xx_HAL_Driver/Src/stm32h7xx_ll_usb.c ****   /* Core Soft Reset */
1401:Drivers/STM32H7xx_HAL_Driver/Src/stm32h7xx_ll_usb.c ****   count = 0U;
  59              		.loc 1 1401 3 is_stmt 1 view .LVU13
  60              		.loc 1 1401 9 is_stmt 0 view .LVU14
  61 001a 0023     		movs	r3, #0
  62 001c 0193     		str	r3, [sp, #4]
1402:Drivers/STM32H7xx_HAL_Driver/Src/stm32h7xx_ll_usb.c ****   USBx->GRSTCTL |= USB_OTG_GRSTCTL_CSRST;
  63              		.loc 1 1402 3 is_stmt 1 view .LVU15
  64              		.loc 1 1402 7 is_stmt 0 view .LVU16
  65 001e 0369     		ldr	r3, [r0, #16]
  66              		.loc 1 1402 17 view .LVU17
  67 0020 43F00103 		orr	r3, r3, #1
  68 0024 0361     		str	r3, [r0, #16]
  69              	.L4:
1403:Drivers/STM32H7xx_HAL_Driver/Src/stm32h7xx_ll_usb.c **** 
1404:Drivers/STM32H7xx_HAL_Driver/Src/stm32h7xx_ll_usb.c ****   do
  70              		.loc 1 1404 3 is_stmt 1 view .LVU18
1405:Drivers/STM32H7xx_HAL_Driver/Src/stm32h7xx_ll_usb.c ****   {
1406:Drivers/STM32H7xx_HAL_Driver/Src/stm32h7xx_ll_usb.c ****     count++;
  71              		.loc 1 1406 5 view .LVU19
  72              		.loc 1 1406 10 is_stmt 0 view .LVU20
  73 0026 019B     		ldr	r3, [sp, #4]
  74 0028 0133     		adds	r3, r3, #1
  75 002a 0193     		str	r3, [sp, #4]
1407:Drivers/STM32H7xx_HAL_Driver/Src/stm32h7xx_ll_usb.c **** 
1408:Drivers/STM32H7xx_HAL_Driver/Src/stm32h7xx_ll_usb.c ****     if (count > HAL_USB_TIMEOUT)
ARM GAS  C:\Users\Nathan\AppData\Local\Temp\cc7cwqzo.s 			page 27


  76              		.loc 1 1408 5 is_stmt 1 view .LVU21
  77              		.loc 1 1408 15 is_stmt 0 view .LVU22
  78 002c 019B     		ldr	r3, [sp, #4]
  79              		.loc 1 1408 8 view .LVU23
  80 002e B3F1706F 		cmp	r3, #251658240
  81 0032 08D8     		bhi	.L6
1409:Drivers/STM32H7xx_HAL_Driver/Src/stm32h7xx_ll_usb.c ****     {
1410:Drivers/STM32H7xx_HAL_Driver/Src/stm32h7xx_ll_usb.c ****       return HAL_TIMEOUT;
1411:Drivers/STM32H7xx_HAL_Driver/Src/stm32h7xx_ll_usb.c ****     }
1412:Drivers/STM32H7xx_HAL_Driver/Src/stm32h7xx_ll_usb.c ****   } while ((USBx->GRSTCTL & USB_OTG_GRSTCTL_CSRST) == USB_OTG_GRSTCTL_CSRST);
  82              		.loc 1 1412 52 is_stmt 1 view .LVU24
  83              		.loc 1 1412 17 is_stmt 0 view .LVU25
  84 0034 0369     		ldr	r3, [r0, #16]
  85              		.loc 1 1412 52 view .LVU26
  86 0036 13F0010F 		tst	r3, #1
  87 003a F4D1     		bne	.L4
1413:Drivers/STM32H7xx_HAL_Driver/Src/stm32h7xx_ll_usb.c **** 
1414:Drivers/STM32H7xx_HAL_Driver/Src/stm32h7xx_ll_usb.c ****   return HAL_OK;
  88              		.loc 1 1414 10 view .LVU27
  89 003c 0020     		movs	r0, #0
  90              	.LVL1:
  91              		.loc 1 1414 10 view .LVU28
  92 003e 00E0     		b	.L2
  93              	.LVL2:
  94              	.L5:
1396:Drivers/STM32H7xx_HAL_Driver/Src/stm32h7xx_ll_usb.c ****     }
  95              		.loc 1 1396 14 view .LVU29
  96 0040 0320     		movs	r0, #3
  97              	.LVL3:
  98              	.L2:
1415:Drivers/STM32H7xx_HAL_Driver/Src/stm32h7xx_ll_usb.c **** }
  99              		.loc 1 1415 1 view .LVU30
 100 0042 02B0     		add	sp, sp, #8
 101              		.cfi_remember_state
 102              		.cfi_def_cfa_offset 0
 103              		@ sp needed
 104 0044 7047     		bx	lr
 105              	.LVL4:
 106              	.L6:
 107              		.cfi_restore_state
1410:Drivers/STM32H7xx_HAL_Driver/Src/stm32h7xx_ll_usb.c ****     }
 108              		.loc 1 1410 14 view .LVU31
 109 0046 0320     		movs	r0, #3
 110              	.LVL5:
1410:Drivers/STM32H7xx_HAL_Driver/Src/stm32h7xx_ll_usb.c ****     }
 111              		.loc 1 1410 14 view .LVU32
 112 0048 FBE7     		b	.L2
 113              		.cfi_endproc
 114              	.LFE178:
 116              		.section	.text.USB_CoreInit,"ax",%progbits
 117              		.align	1
 118              		.global	USB_CoreInit
 119              		.syntax unified
 120              		.thumb
 121              		.thumb_func
 123              	USB_CoreInit:
 124              	.LVL6:
ARM GAS  C:\Users\Nathan\AppData\Local\Temp\cc7cwqzo.s 			page 28


 125              	.LFB144:
  84:Drivers/STM32H7xx_HAL_Driver/Src/stm32h7xx_ll_usb.c ****   HAL_StatusTypeDef ret;
 126              		.loc 1 84 1 is_stmt 1 view -0
 127              		.cfi_startproc
 128              		@ args = 20, pretend = 16, frame = 0
 129              		@ frame_needed = 0, uses_anonymous_args = 0
  84:Drivers/STM32H7xx_HAL_Driver/Src/stm32h7xx_ll_usb.c ****   HAL_StatusTypeDef ret;
 130              		.loc 1 84 1 is_stmt 0 view .LVU34
 131 0000 84B0     		sub	sp, sp, #16
 132              		.cfi_def_cfa_offset 16
 133 0002 10B5     		push	{r4, lr}
 134              		.cfi_def_cfa_offset 24
 135              		.cfi_offset 4, -24
 136              		.cfi_offset 14, -20
 137 0004 0446     		mov	r4, r0
 138 0006 03A8     		add	r0, sp, #12
 139              	.LVL7:
  84:Drivers/STM32H7xx_HAL_Driver/Src/stm32h7xx_ll_usb.c ****   HAL_StatusTypeDef ret;
 140              		.loc 1 84 1 view .LVU35
 141 0008 80E80E00 		stm	r0, {r1, r2, r3}
  85:Drivers/STM32H7xx_HAL_Driver/Src/stm32h7xx_ll_usb.c ****   if (cfg.phy_itface == USB_OTG_ULPI_PHY)
 142              		.loc 1 85 3 is_stmt 1 view .LVU36
  86:Drivers/STM32H7xx_HAL_Driver/Src/stm32h7xx_ll_usb.c ****   {
 143              		.loc 1 86 3 view .LVU37
  86:Drivers/STM32H7xx_HAL_Driver/Src/stm32h7xx_ll_usb.c ****   {
 144              		.loc 1 86 10 is_stmt 0 view .LVU38
 145 000c 9DF81130 		ldrb	r3, [sp, #17]	@ zero_extendqisi2
  86:Drivers/STM32H7xx_HAL_Driver/Src/stm32h7xx_ll_usb.c ****   {
 146              		.loc 1 86 6 view .LVU39
 147 0010 012B     		cmp	r3, #1
 148 0012 1FD1     		bne	.L9
  88:Drivers/STM32H7xx_HAL_Driver/Src/stm32h7xx_ll_usb.c **** 
 149              		.loc 1 88 5 is_stmt 1 view .LVU40
  88:Drivers/STM32H7xx_HAL_Driver/Src/stm32h7xx_ll_usb.c **** 
 150              		.loc 1 88 9 is_stmt 0 view .LVU41
 151 0014 A36B     		ldr	r3, [r4, #56]
  88:Drivers/STM32H7xx_HAL_Driver/Src/stm32h7xx_ll_usb.c **** 
 152              		.loc 1 88 17 view .LVU42
 153 0016 23F48033 		bic	r3, r3, #65536
 154 001a A363     		str	r3, [r4, #56]
  91:Drivers/STM32H7xx_HAL_Driver/Src/stm32h7xx_ll_usb.c **** 
 155              		.loc 1 91 5 is_stmt 1 view .LVU43
  91:Drivers/STM32H7xx_HAL_Driver/Src/stm32h7xx_ll_usb.c **** 
 156              		.loc 1 91 9 is_stmt 0 view .LVU44
 157 001c E268     		ldr	r2, [r4, #12]
  91:Drivers/STM32H7xx_HAL_Driver/Src/stm32h7xx_ll_usb.c **** 
 158              		.loc 1 91 19 view .LVU45
 159 001e 1F4B     		ldr	r3, .L17
 160 0020 1340     		ands	r3, r3, r2
 161 0022 E360     		str	r3, [r4, #12]
  94:Drivers/STM32H7xx_HAL_Driver/Src/stm32h7xx_ll_usb.c ****     if (cfg.use_external_vbus == 1U)
 162              		.loc 1 94 5 is_stmt 1 view .LVU46
  94:Drivers/STM32H7xx_HAL_Driver/Src/stm32h7xx_ll_usb.c ****     if (cfg.use_external_vbus == 1U)
 163              		.loc 1 94 9 is_stmt 0 view .LVU47
 164 0024 E368     		ldr	r3, [r4, #12]
  94:Drivers/STM32H7xx_HAL_Driver/Src/stm32h7xx_ll_usb.c ****     if (cfg.use_external_vbus == 1U)
 165              		.loc 1 94 19 view .LVU48
ARM GAS  C:\Users\Nathan\AppData\Local\Temp\cc7cwqzo.s 			page 29


 166 0026 23F44013 		bic	r3, r3, #3145728
 167 002a E360     		str	r3, [r4, #12]
  95:Drivers/STM32H7xx_HAL_Driver/Src/stm32h7xx_ll_usb.c ****     {
 168              		.loc 1 95 5 is_stmt 1 view .LVU49
  95:Drivers/STM32H7xx_HAL_Driver/Src/stm32h7xx_ll_usb.c ****     {
 169              		.loc 1 95 12 is_stmt 0 view .LVU50
 170 002c 9DF81830 		ldrb	r3, [sp, #24]	@ zero_extendqisi2
  95:Drivers/STM32H7xx_HAL_Driver/Src/stm32h7xx_ll_usb.c ****     {
 171              		.loc 1 95 8 view .LVU51
 172 0030 012B     		cmp	r3, #1
 173 0032 0AD0     		beq	.L15
 174              	.L10:
 101:Drivers/STM32H7xx_HAL_Driver/Src/stm32h7xx_ll_usb.c ****   }
 175              		.loc 1 101 5 is_stmt 1 view .LVU52
 101:Drivers/STM32H7xx_HAL_Driver/Src/stm32h7xx_ll_usb.c ****   }
 176              		.loc 1 101 11 is_stmt 0 view .LVU53
 177 0034 2046     		mov	r0, r4
 178 0036 FFF7FEFF 		bl	USB_CoreReset
 179              	.LVL8:
 180              	.L11:
 123:Drivers/STM32H7xx_HAL_Driver/Src/stm32h7xx_ll_usb.c ****   {
 181              		.loc 1 123 3 is_stmt 1 view .LVU54
 123:Drivers/STM32H7xx_HAL_Driver/Src/stm32h7xx_ll_usb.c ****   {
 182              		.loc 1 123 10 is_stmt 0 view .LVU55
 183 003a 9DF80E30 		ldrb	r3, [sp, #14]	@ zero_extendqisi2
 123:Drivers/STM32H7xx_HAL_Driver/Src/stm32h7xx_ll_usb.c ****   {
 184              		.loc 1 123 6 view .LVU56
 185 003e 012B     		cmp	r3, #1
 186 0040 1CD0     		beq	.L16
 187              	.L13:
 133:Drivers/STM32H7xx_HAL_Driver/Src/stm32h7xx_ll_usb.c **** }
 188              		.loc 1 133 3 is_stmt 1 view .LVU57
 134:Drivers/STM32H7xx_HAL_Driver/Src/stm32h7xx_ll_usb.c **** 
 189              		.loc 1 134 1 is_stmt 0 view .LVU58
 190 0042 BDE81040 		pop	{r4, lr}
 191              		.cfi_remember_state
 192              		.cfi_restore 14
 193              		.cfi_restore 4
 194              		.cfi_def_cfa_offset 16
 195              	.LVL9:
 134:Drivers/STM32H7xx_HAL_Driver/Src/stm32h7xx_ll_usb.c **** 
 196              		.loc 1 134 1 view .LVU59
 197 0046 04B0     		add	sp, sp, #16
 198              		.cfi_def_cfa_offset 0
 199 0048 7047     		bx	lr
 200              	.LVL10:
 201              	.L15:
 202              		.cfi_restore_state
  97:Drivers/STM32H7xx_HAL_Driver/Src/stm32h7xx_ll_usb.c ****     }
 203              		.loc 1 97 7 is_stmt 1 view .LVU60
  97:Drivers/STM32H7xx_HAL_Driver/Src/stm32h7xx_ll_usb.c ****     }
 204              		.loc 1 97 11 is_stmt 0 view .LVU61
 205 004a E368     		ldr	r3, [r4, #12]
  97:Drivers/STM32H7xx_HAL_Driver/Src/stm32h7xx_ll_usb.c ****     }
 206              		.loc 1 97 21 view .LVU62
 207 004c 43F48013 		orr	r3, r3, #1048576
 208 0050 E360     		str	r3, [r4, #12]
ARM GAS  C:\Users\Nathan\AppData\Local\Temp\cc7cwqzo.s 			page 30


 209 0052 EFE7     		b	.L10
 210              	.L9:
 106:Drivers/STM32H7xx_HAL_Driver/Src/stm32h7xx_ll_usb.c **** 
 211              		.loc 1 106 5 is_stmt 1 view .LVU63
 106:Drivers/STM32H7xx_HAL_Driver/Src/stm32h7xx_ll_usb.c **** 
 212              		.loc 1 106 9 is_stmt 0 view .LVU64
 213 0054 E368     		ldr	r3, [r4, #12]
 106:Drivers/STM32H7xx_HAL_Driver/Src/stm32h7xx_ll_usb.c **** 
 214              		.loc 1 106 19 view .LVU65
 215 0056 43F04003 		orr	r3, r3, #64
 216 005a E360     		str	r3, [r4, #12]
 109:Drivers/STM32H7xx_HAL_Driver/Src/stm32h7xx_ll_usb.c **** 
 217              		.loc 1 109 5 is_stmt 1 view .LVU66
 109:Drivers/STM32H7xx_HAL_Driver/Src/stm32h7xx_ll_usb.c **** 
 218              		.loc 1 109 11 is_stmt 0 view .LVU67
 219 005c 2046     		mov	r0, r4
 220 005e FFF7FEFF 		bl	USB_CoreReset
 221              	.LVL11:
 111:Drivers/STM32H7xx_HAL_Driver/Src/stm32h7xx_ll_usb.c ****     {
 222              		.loc 1 111 5 is_stmt 1 view .LVU68
 111:Drivers/STM32H7xx_HAL_Driver/Src/stm32h7xx_ll_usb.c ****     {
 223              		.loc 1 111 12 is_stmt 0 view .LVU69
 224 0062 9DF81530 		ldrb	r3, [sp, #21]	@ zero_extendqisi2
 111:Drivers/STM32H7xx_HAL_Driver/Src/stm32h7xx_ll_usb.c ****     {
 225              		.loc 1 111 8 view .LVU70
 226 0066 23B9     		cbnz	r3, .L12
 114:Drivers/STM32H7xx_HAL_Driver/Src/stm32h7xx_ll_usb.c ****     }
 227              		.loc 1 114 7 is_stmt 1 view .LVU71
 114:Drivers/STM32H7xx_HAL_Driver/Src/stm32h7xx_ll_usb.c ****     }
 228              		.loc 1 114 11 is_stmt 0 view .LVU72
 229 0068 A36B     		ldr	r3, [r4, #56]
 114:Drivers/STM32H7xx_HAL_Driver/Src/stm32h7xx_ll_usb.c ****     }
 230              		.loc 1 114 19 view .LVU73
 231 006a 43F48033 		orr	r3, r3, #65536
 232 006e A363     		str	r3, [r4, #56]
 233 0070 E3E7     		b	.L11
 234              	.L12:
 119:Drivers/STM32H7xx_HAL_Driver/Src/stm32h7xx_ll_usb.c ****     }
 235              		.loc 1 119 7 is_stmt 1 view .LVU74
 119:Drivers/STM32H7xx_HAL_Driver/Src/stm32h7xx_ll_usb.c ****     }
 236              		.loc 1 119 11 is_stmt 0 view .LVU75
 237 0072 A36B     		ldr	r3, [r4, #56]
 119:Drivers/STM32H7xx_HAL_Driver/Src/stm32h7xx_ll_usb.c ****     }
 238              		.loc 1 119 19 view .LVU76
 239 0074 23F48033 		bic	r3, r3, #65536
 240 0078 A363     		str	r3, [r4, #56]
 241 007a DEE7     		b	.L11
 242              	.L16:
 126:Drivers/STM32H7xx_HAL_Driver/Src/stm32h7xx_ll_usb.c ****     USBx->GDFIFOCFG |= 0x3EEU << 16;
 243              		.loc 1 126 5 is_stmt 1 view .LVU77
 126:Drivers/STM32H7xx_HAL_Driver/Src/stm32h7xx_ll_usb.c ****     USBx->GDFIFOCFG |= 0x3EEU << 16;
 244              		.loc 1 126 9 is_stmt 0 view .LVU78
 245 007c E36D     		ldr	r3, [r4, #92]
 126:Drivers/STM32H7xx_HAL_Driver/Src/stm32h7xx_ll_usb.c ****     USBx->GDFIFOCFG |= 0x3EEU << 16;
 246              		.loc 1 126 21 view .LVU79
 247 007e 9BB2     		uxth	r3, r3
 248 0080 E365     		str	r3, [r4, #92]
ARM GAS  C:\Users\Nathan\AppData\Local\Temp\cc7cwqzo.s 			page 31


 127:Drivers/STM32H7xx_HAL_Driver/Src/stm32h7xx_ll_usb.c **** 
 249              		.loc 1 127 5 is_stmt 1 view .LVU80
 127:Drivers/STM32H7xx_HAL_Driver/Src/stm32h7xx_ll_usb.c **** 
 250              		.loc 1 127 9 is_stmt 0 view .LVU81
 251 0082 E26D     		ldr	r2, [r4, #92]
 127:Drivers/STM32H7xx_HAL_Driver/Src/stm32h7xx_ll_usb.c **** 
 252              		.loc 1 127 21 view .LVU82
 253 0084 064B     		ldr	r3, .L17+4
 254 0086 1343     		orrs	r3, r3, r2
 255 0088 E365     		str	r3, [r4, #92]
 129:Drivers/STM32H7xx_HAL_Driver/Src/stm32h7xx_ll_usb.c ****     USBx->GAHBCFG |= USB_OTG_GAHBCFG_DMAEN;
 256              		.loc 1 129 5 is_stmt 1 view .LVU83
 129:Drivers/STM32H7xx_HAL_Driver/Src/stm32h7xx_ll_usb.c ****     USBx->GAHBCFG |= USB_OTG_GAHBCFG_DMAEN;
 257              		.loc 1 129 9 is_stmt 0 view .LVU84
 258 008a A368     		ldr	r3, [r4, #8]
 129:Drivers/STM32H7xx_HAL_Driver/Src/stm32h7xx_ll_usb.c ****     USBx->GAHBCFG |= USB_OTG_GAHBCFG_DMAEN;
 259              		.loc 1 129 19 view .LVU85
 260 008c 43F00603 		orr	r3, r3, #6
 261 0090 A360     		str	r3, [r4, #8]
 130:Drivers/STM32H7xx_HAL_Driver/Src/stm32h7xx_ll_usb.c ****   }
 262              		.loc 1 130 5 is_stmt 1 view .LVU86
 130:Drivers/STM32H7xx_HAL_Driver/Src/stm32h7xx_ll_usb.c ****   }
 263              		.loc 1 130 9 is_stmt 0 view .LVU87
 264 0092 A368     		ldr	r3, [r4, #8]
 130:Drivers/STM32H7xx_HAL_Driver/Src/stm32h7xx_ll_usb.c ****   }
 265              		.loc 1 130 19 view .LVU88
 266 0094 43F02003 		orr	r3, r3, #32
 267 0098 A360     		str	r3, [r4, #8]
 268 009a D2E7     		b	.L13
 269              	.L18:
 270              		.align	2
 271              	.L17:
 272 009c BFFFBDFF 		.word	-4325441
 273 00a0 0000EE03 		.word	65929216
 274              		.cfi_endproc
 275              	.LFE144:
 277              		.section	.text.USB_SetTurnaroundTime,"ax",%progbits
 278              		.align	1
 279              		.global	USB_SetTurnaroundTime
 280              		.syntax unified
 281              		.thumb
 282              		.thumb_func
 284              	USB_SetTurnaroundTime:
 285              	.LVL12:
 286              	.LFB145:
 145:Drivers/STM32H7xx_HAL_Driver/Src/stm32h7xx_ll_usb.c ****   uint32_t UsbTrd;
 287              		.loc 1 145 1 is_stmt 1 view -0
 288              		.cfi_startproc
 289              		@ args = 0, pretend = 0, frame = 0
 290              		@ frame_needed = 0, uses_anonymous_args = 0
 291              		@ link register save eliminated.
 146:Drivers/STM32H7xx_HAL_Driver/Src/stm32h7xx_ll_usb.c **** 
 292              		.loc 1 146 3 view .LVU90
 152:Drivers/STM32H7xx_HAL_Driver/Src/stm32h7xx_ll_usb.c ****   {
 293              		.loc 1 152 3 view .LVU91
 152:Drivers/STM32H7xx_HAL_Driver/Src/stm32h7xx_ll_usb.c ****   {
 294              		.loc 1 152 6 is_stmt 0 view .LVU92
ARM GAS  C:\Users\Nathan\AppData\Local\Temp\cc7cwqzo.s 			page 32


 295 0000 022A     		cmp	r2, #2
 296 0002 0AD0     		beq	.L31
 207:Drivers/STM32H7xx_HAL_Driver/Src/stm32h7xx_ll_usb.c ****   }
 297              		.loc 1 207 12 view .LVU93
 298 0004 0922     		movs	r2, #9
 299              	.LVL13:
 300              	.L20:
 214:Drivers/STM32H7xx_HAL_Driver/Src/stm32h7xx_ll_usb.c ****   USBx->GUSBCFG |= (uint32_t)((UsbTrd << 10) & USB_OTG_GUSBCFG_TRDT);
 301              		.loc 1 214 3 is_stmt 1 view .LVU94
 214:Drivers/STM32H7xx_HAL_Driver/Src/stm32h7xx_ll_usb.c ****   USBx->GUSBCFG |= (uint32_t)((UsbTrd << 10) & USB_OTG_GUSBCFG_TRDT);
 302              		.loc 1 214 7 is_stmt 0 view .LVU95
 303 0006 C368     		ldr	r3, [r0, #12]
 214:Drivers/STM32H7xx_HAL_Driver/Src/stm32h7xx_ll_usb.c ****   USBx->GUSBCFG |= (uint32_t)((UsbTrd << 10) & USB_OTG_GUSBCFG_TRDT);
 304              		.loc 1 214 17 view .LVU96
 305 0008 23F47053 		bic	r3, r3, #15360
 306 000c C360     		str	r3, [r0, #12]
 215:Drivers/STM32H7xx_HAL_Driver/Src/stm32h7xx_ll_usb.c **** 
 307              		.loc 1 215 3 is_stmt 1 view .LVU97
 215:Drivers/STM32H7xx_HAL_Driver/Src/stm32h7xx_ll_usb.c **** 
 308              		.loc 1 215 7 is_stmt 0 view .LVU98
 309 000e C368     		ldr	r3, [r0, #12]
 215:Drivers/STM32H7xx_HAL_Driver/Src/stm32h7xx_ll_usb.c **** 
 310              		.loc 1 215 17 view .LVU99
 311 0010 43EA8223 		orr	r3, r3, r2, lsl #10
 312 0014 C360     		str	r3, [r0, #12]
 217:Drivers/STM32H7xx_HAL_Driver/Src/stm32h7xx_ll_usb.c **** }
 313              		.loc 1 217 3 is_stmt 1 view .LVU100
 218:Drivers/STM32H7xx_HAL_Driver/Src/stm32h7xx_ll_usb.c **** 
 314              		.loc 1 218 1 is_stmt 0 view .LVU101
 315 0016 0020     		movs	r0, #0
 316              	.LVL14:
 218:Drivers/STM32H7xx_HAL_Driver/Src/stm32h7xx_ll_usb.c **** 
 317              		.loc 1 218 1 view .LVU102
 318 0018 7047     		bx	lr
 319              	.LVL15:
 320              	.L31:
 154:Drivers/STM32H7xx_HAL_Driver/Src/stm32h7xx_ll_usb.c ****     {
 321              		.loc 1 154 5 is_stmt 1 view .LVU103
 154:Drivers/STM32H7xx_HAL_Driver/Src/stm32h7xx_ll_usb.c ****     {
 322              		.loc 1 154 29 is_stmt 0 view .LVU104
 323 001a 204B     		ldr	r3, .L32
 324 001c 0B44     		add	r3, r3, r1
 154:Drivers/STM32H7xx_HAL_Driver/Src/stm32h7xx_ll_usb.c ****     {
 325              		.loc 1 154 8 view .LVU105
 326 001e 204A     		ldr	r2, .L32+4
 327              	.LVL16:
 154:Drivers/STM32H7xx_HAL_Driver/Src/stm32h7xx_ll_usb.c ****     {
 328              		.loc 1 154 8 view .LVU106
 329 0020 9342     		cmp	r3, r2
 330 0022 29D9     		bls	.L22
 159:Drivers/STM32H7xx_HAL_Driver/Src/stm32h7xx_ll_usb.c ****     {
 331              		.loc 1 159 10 is_stmt 1 view .LVU107
 159:Drivers/STM32H7xx_HAL_Driver/Src/stm32h7xx_ll_usb.c ****     {
 332              		.loc 1 159 34 is_stmt 0 view .LVU108
 333 0024 1F4B     		ldr	r3, .L32+8
 334 0026 0B44     		add	r3, r3, r1
 159:Drivers/STM32H7xx_HAL_Driver/Src/stm32h7xx_ll_usb.c ****     {
ARM GAS  C:\Users\Nathan\AppData\Local\Temp\cc7cwqzo.s 			page 33


 335              		.loc 1 159 13 view .LVU109
 336 0028 1F4A     		ldr	r2, .L32+12
 337 002a 9342     		cmp	r3, r2
 338 002c 26D9     		bls	.L23
 164:Drivers/STM32H7xx_HAL_Driver/Src/stm32h7xx_ll_usb.c ****     {
 339              		.loc 1 164 10 is_stmt 1 view .LVU110
 164:Drivers/STM32H7xx_HAL_Driver/Src/stm32h7xx_ll_usb.c ****     {
 340              		.loc 1 164 34 is_stmt 0 view .LVU111
 341 002e 1F4B     		ldr	r3, .L32+16
 342 0030 0B44     		add	r3, r3, r1
 164:Drivers/STM32H7xx_HAL_Driver/Src/stm32h7xx_ll_usb.c ****     {
 343              		.loc 1 164 13 view .LVU112
 344 0032 1F4A     		ldr	r2, .L32+20
 345 0034 9342     		cmp	r3, r2
 346 0036 23D9     		bls	.L24
 169:Drivers/STM32H7xx_HAL_Driver/Src/stm32h7xx_ll_usb.c ****     {
 347              		.loc 1 169 10 is_stmt 1 view .LVU113
 169:Drivers/STM32H7xx_HAL_Driver/Src/stm32h7xx_ll_usb.c ****     {
 348              		.loc 1 169 34 is_stmt 0 view .LVU114
 349 0038 1E4B     		ldr	r3, .L32+24
 350 003a 0B44     		add	r3, r3, r1
 169:Drivers/STM32H7xx_HAL_Driver/Src/stm32h7xx_ll_usb.c ****     {
 351              		.loc 1 169 13 view .LVU115
 352 003c 1E4A     		ldr	r2, .L32+28
 353 003e 9342     		cmp	r3, r2
 354 0040 20D3     		bcc	.L25
 174:Drivers/STM32H7xx_HAL_Driver/Src/stm32h7xx_ll_usb.c ****     {
 355              		.loc 1 174 10 is_stmt 1 view .LVU116
 174:Drivers/STM32H7xx_HAL_Driver/Src/stm32h7xx_ll_usb.c ****     {
 356              		.loc 1 174 34 is_stmt 0 view .LVU117
 357 0042 1E4B     		ldr	r3, .L32+32
 358 0044 0B44     		add	r3, r3, r1
 174:Drivers/STM32H7xx_HAL_Driver/Src/stm32h7xx_ll_usb.c ****     {
 359              		.loc 1 174 13 view .LVU118
 360 0046 1E4A     		ldr	r2, .L32+36
 361 0048 9342     		cmp	r3, r2
 362 004a 1DD9     		bls	.L26
 179:Drivers/STM32H7xx_HAL_Driver/Src/stm32h7xx_ll_usb.c ****     {
 363              		.loc 1 179 10 is_stmt 1 view .LVU119
 179:Drivers/STM32H7xx_HAL_Driver/Src/stm32h7xx_ll_usb.c ****     {
 364              		.loc 1 179 34 is_stmt 0 view .LVU120
 365 004c 1D4B     		ldr	r3, .L32+40
 366 004e 0B44     		add	r3, r3, r1
 179:Drivers/STM32H7xx_HAL_Driver/Src/stm32h7xx_ll_usb.c ****     {
 367              		.loc 1 179 13 view .LVU121
 368 0050 1D4A     		ldr	r2, .L32+44
 369 0052 9342     		cmp	r3, r2
 370 0054 1AD3     		bcc	.L27
 184:Drivers/STM32H7xx_HAL_Driver/Src/stm32h7xx_ll_usb.c ****     {
 371              		.loc 1 184 10 is_stmt 1 view .LVU122
 184:Drivers/STM32H7xx_HAL_Driver/Src/stm32h7xx_ll_usb.c ****     {
 372              		.loc 1 184 34 is_stmt 0 view .LVU123
 373 0056 1D4B     		ldr	r3, .L32+48
 374 0058 0B44     		add	r3, r3, r1
 184:Drivers/STM32H7xx_HAL_Driver/Src/stm32h7xx_ll_usb.c ****     {
 375              		.loc 1 184 13 view .LVU124
 376 005a 1D4A     		ldr	r2, .L32+52
ARM GAS  C:\Users\Nathan\AppData\Local\Temp\cc7cwqzo.s 			page 34


 377 005c 9342     		cmp	r3, r2
 378 005e 17D3     		bcc	.L28
 189:Drivers/STM32H7xx_HAL_Driver/Src/stm32h7xx_ll_usb.c ****     {
 379              		.loc 1 189 10 is_stmt 1 view .LVU125
 189:Drivers/STM32H7xx_HAL_Driver/Src/stm32h7xx_ll_usb.c ****     {
 380              		.loc 1 189 34 is_stmt 0 view .LVU126
 381 0060 1C4B     		ldr	r3, .L32+56
 382 0062 0B44     		add	r3, r3, r1
 189:Drivers/STM32H7xx_HAL_Driver/Src/stm32h7xx_ll_usb.c ****     {
 383              		.loc 1 189 13 view .LVU127
 384 0064 1C4A     		ldr	r2, .L32+60
 385 0066 9342     		cmp	r3, r2
 386 0068 14D3     		bcc	.L29
 194:Drivers/STM32H7xx_HAL_Driver/Src/stm32h7xx_ll_usb.c ****     {
 387              		.loc 1 194 10 is_stmt 1 view .LVU128
 194:Drivers/STM32H7xx_HAL_Driver/Src/stm32h7xx_ll_usb.c ****     {
 388              		.loc 1 194 34 is_stmt 0 view .LVU129
 389 006a 1C4B     		ldr	r3, .L32+64
 390 006c 0B44     		add	r3, r3, r1
 194:Drivers/STM32H7xx_HAL_Driver/Src/stm32h7xx_ll_usb.c ****     {
 391              		.loc 1 194 13 view .LVU130
 392 006e 1C4A     		ldr	r2, .L32+68
 393 0070 9342     		cmp	r3, r2
 394 0072 11D2     		bcs	.L30
 197:Drivers/STM32H7xx_HAL_Driver/Src/stm32h7xx_ll_usb.c ****     }
 395              		.loc 1 197 14 view .LVU131
 396 0074 0722     		movs	r2, #7
 397 0076 C6E7     		b	.L20
 398              	.L22:
 157:Drivers/STM32H7xx_HAL_Driver/Src/stm32h7xx_ll_usb.c ****     }
 399              		.loc 1 157 14 view .LVU132
 400 0078 0F22     		movs	r2, #15
 401 007a C4E7     		b	.L20
 402              	.L23:
 162:Drivers/STM32H7xx_HAL_Driver/Src/stm32h7xx_ll_usb.c ****     }
 403              		.loc 1 162 14 view .LVU133
 404 007c 0E22     		movs	r2, #14
 405 007e C2E7     		b	.L20
 406              	.L24:
 167:Drivers/STM32H7xx_HAL_Driver/Src/stm32h7xx_ll_usb.c ****     }
 407              		.loc 1 167 14 view .LVU134
 408 0080 0D22     		movs	r2, #13
 409 0082 C0E7     		b	.L20
 410              	.L25:
 172:Drivers/STM32H7xx_HAL_Driver/Src/stm32h7xx_ll_usb.c ****     }
 411              		.loc 1 172 14 view .LVU135
 412 0084 0C22     		movs	r2, #12
 413 0086 BEE7     		b	.L20
 414              	.L26:
 177:Drivers/STM32H7xx_HAL_Driver/Src/stm32h7xx_ll_usb.c ****     }
 415              		.loc 1 177 14 view .LVU136
 416 0088 0B22     		movs	r2, #11
 417 008a BCE7     		b	.L20
 418              	.L27:
 182:Drivers/STM32H7xx_HAL_Driver/Src/stm32h7xx_ll_usb.c ****     }
 419              		.loc 1 182 14 view .LVU137
 420 008c 0A22     		movs	r2, #10
ARM GAS  C:\Users\Nathan\AppData\Local\Temp\cc7cwqzo.s 			page 35


 421 008e BAE7     		b	.L20
 422              	.L28:
 187:Drivers/STM32H7xx_HAL_Driver/Src/stm32h7xx_ll_usb.c ****     }
 423              		.loc 1 187 14 view .LVU138
 424 0090 0922     		movs	r2, #9
 425 0092 B8E7     		b	.L20
 426              	.L29:
 192:Drivers/STM32H7xx_HAL_Driver/Src/stm32h7xx_ll_usb.c ****     }
 427              		.loc 1 192 14 view .LVU139
 428 0094 0822     		movs	r2, #8
 429 0096 B6E7     		b	.L20
 430              	.L30:
 202:Drivers/STM32H7xx_HAL_Driver/Src/stm32h7xx_ll_usb.c ****     }
 431              		.loc 1 202 14 view .LVU140
 432 0098 0622     		movs	r2, #6
 433 009a B4E7     		b	.L20
 434              	.L33:
 435              		.align	2
 436              	.L32:
 437 009c 405327FF 		.word	-14200000
 438 00a0 FF340C00 		.word	799999
 439 00a4 401E1BFF 		.word	-15000000
 440 00a8 3F420F00 		.word	999999
 441 00ac 00DC0BFF 		.word	-16000000
 442 00b0 7F4F1200 		.word	1199999
 443 00b4 808CF9FE 		.word	-17200000
 444 00b8 20D61300 		.word	1300000
 445 00bc 60B6E5FE 		.word	-18500000
 446 00c0 5FE31600 		.word	1499999
 447 00c4 00D3CEFE 		.word	-20000000
 448 00c8 40771B00 		.word	1800000
 449 00cc C05BB3FE 		.word	-21800000
 450 00d0 C0912100 		.word	2200000
 451 00d4 00CA91FE 		.word	-24000000
 452 00d8 20753800 		.word	3700000
 453 00dc E05459FE 		.word	-27700000
 454 00e0 E09C4100 		.word	4300000
 455              		.cfi_endproc
 456              	.LFE145:
 458              		.section	.text.USB_EnableGlobalInt,"ax",%progbits
 459              		.align	1
 460              		.global	USB_EnableGlobalInt
 461              		.syntax unified
 462              		.thumb
 463              		.thumb_func
 465              	USB_EnableGlobalInt:
 466              	.LVL17:
 467              	.LFB146:
 227:Drivers/STM32H7xx_HAL_Driver/Src/stm32h7xx_ll_usb.c ****   USBx->GAHBCFG |= USB_OTG_GAHBCFG_GINT;
 468              		.loc 1 227 1 is_stmt 1 view -0
 469              		.cfi_startproc
 470              		@ args = 0, pretend = 0, frame = 0
 471              		@ frame_needed = 0, uses_anonymous_args = 0
 472              		@ link register save eliminated.
 228:Drivers/STM32H7xx_HAL_Driver/Src/stm32h7xx_ll_usb.c ****   return HAL_OK;
 473              		.loc 1 228 3 view .LVU142
 228:Drivers/STM32H7xx_HAL_Driver/Src/stm32h7xx_ll_usb.c ****   return HAL_OK;
ARM GAS  C:\Users\Nathan\AppData\Local\Temp\cc7cwqzo.s 			page 36


 474              		.loc 1 228 7 is_stmt 0 view .LVU143
 475 0000 8368     		ldr	r3, [r0, #8]
 228:Drivers/STM32H7xx_HAL_Driver/Src/stm32h7xx_ll_usb.c ****   return HAL_OK;
 476              		.loc 1 228 17 view .LVU144
 477 0002 43F00103 		orr	r3, r3, #1
 478 0006 8360     		str	r3, [r0, #8]
 229:Drivers/STM32H7xx_HAL_Driver/Src/stm32h7xx_ll_usb.c **** }
 479              		.loc 1 229 3 is_stmt 1 view .LVU145
 230:Drivers/STM32H7xx_HAL_Driver/Src/stm32h7xx_ll_usb.c **** 
 480              		.loc 1 230 1 is_stmt 0 view .LVU146
 481 0008 0020     		movs	r0, #0
 482              	.LVL18:
 230:Drivers/STM32H7xx_HAL_Driver/Src/stm32h7xx_ll_usb.c **** 
 483              		.loc 1 230 1 view .LVU147
 484 000a 7047     		bx	lr
 485              		.cfi_endproc
 486              	.LFE146:
 488              		.section	.text.USB_DisableGlobalInt,"ax",%progbits
 489              		.align	1
 490              		.global	USB_DisableGlobalInt
 491              		.syntax unified
 492              		.thumb
 493              		.thumb_func
 495              	USB_DisableGlobalInt:
 496              	.LVL19:
 497              	.LFB147:
 239:Drivers/STM32H7xx_HAL_Driver/Src/stm32h7xx_ll_usb.c ****   USBx->GAHBCFG &= ~USB_OTG_GAHBCFG_GINT;
 498              		.loc 1 239 1 is_stmt 1 view -0
 499              		.cfi_startproc
 500              		@ args = 0, pretend = 0, frame = 0
 501              		@ frame_needed = 0, uses_anonymous_args = 0
 502              		@ link register save eliminated.
 240:Drivers/STM32H7xx_HAL_Driver/Src/stm32h7xx_ll_usb.c ****   return HAL_OK;
 503              		.loc 1 240 3 view .LVU149
 240:Drivers/STM32H7xx_HAL_Driver/Src/stm32h7xx_ll_usb.c ****   return HAL_OK;
 504              		.loc 1 240 7 is_stmt 0 view .LVU150
 505 0000 8368     		ldr	r3, [r0, #8]
 240:Drivers/STM32H7xx_HAL_Driver/Src/stm32h7xx_ll_usb.c ****   return HAL_OK;
 506              		.loc 1 240 17 view .LVU151
 507 0002 23F00103 		bic	r3, r3, #1
 508 0006 8360     		str	r3, [r0, #8]
 241:Drivers/STM32H7xx_HAL_Driver/Src/stm32h7xx_ll_usb.c **** }
 509              		.loc 1 241 3 is_stmt 1 view .LVU152
 242:Drivers/STM32H7xx_HAL_Driver/Src/stm32h7xx_ll_usb.c **** 
 510              		.loc 1 242 1 is_stmt 0 view .LVU153
 511 0008 0020     		movs	r0, #0
 512              	.LVL20:
 242:Drivers/STM32H7xx_HAL_Driver/Src/stm32h7xx_ll_usb.c **** 
 513              		.loc 1 242 1 view .LVU154
 514 000a 7047     		bx	lr
 515              		.cfi_endproc
 516              	.LFE147:
 518              		.section	.text.USB_FlushTxFifo,"ax",%progbits
 519              		.align	1
 520              		.global	USB_FlushTxFifo
 521              		.syntax unified
 522              		.thumb
ARM GAS  C:\Users\Nathan\AppData\Local\Temp\cc7cwqzo.s 			page 37


 523              		.thumb_func
 525              	USB_FlushTxFifo:
 526              	.LVL21:
 527              	.LFB150:
 453:Drivers/STM32H7xx_HAL_Driver/Src/stm32h7xx_ll_usb.c ****   __IO uint32_t count = 0U;
 528              		.loc 1 453 1 is_stmt 1 view -0
 529              		.cfi_startproc
 530              		@ args = 0, pretend = 0, frame = 8
 531              		@ frame_needed = 0, uses_anonymous_args = 0
 532              		@ link register save eliminated.
 453:Drivers/STM32H7xx_HAL_Driver/Src/stm32h7xx_ll_usb.c ****   __IO uint32_t count = 0U;
 533              		.loc 1 453 1 is_stmt 0 view .LVU156
 534 0000 82B0     		sub	sp, sp, #8
 535              		.cfi_def_cfa_offset 8
 454:Drivers/STM32H7xx_HAL_Driver/Src/stm32h7xx_ll_usb.c **** 
 536              		.loc 1 454 3 is_stmt 1 view .LVU157
 454:Drivers/STM32H7xx_HAL_Driver/Src/stm32h7xx_ll_usb.c **** 
 537              		.loc 1 454 17 is_stmt 0 view .LVU158
 538 0002 0023     		movs	r3, #0
 539 0004 0193     		str	r3, [sp, #4]
 540              	.L38:
 457:Drivers/STM32H7xx_HAL_Driver/Src/stm32h7xx_ll_usb.c ****   {
 541              		.loc 1 457 3 is_stmt 1 view .LVU159
 459:Drivers/STM32H7xx_HAL_Driver/Src/stm32h7xx_ll_usb.c **** 
 542              		.loc 1 459 5 view .LVU160
 459:Drivers/STM32H7xx_HAL_Driver/Src/stm32h7xx_ll_usb.c **** 
 543              		.loc 1 459 10 is_stmt 0 view .LVU161
 544 0006 019B     		ldr	r3, [sp, #4]
 545 0008 0133     		adds	r3, r3, #1
 546 000a 0193     		str	r3, [sp, #4]
 461:Drivers/STM32H7xx_HAL_Driver/Src/stm32h7xx_ll_usb.c ****     {
 547              		.loc 1 461 5 is_stmt 1 view .LVU162
 461:Drivers/STM32H7xx_HAL_Driver/Src/stm32h7xx_ll_usb.c ****     {
 548              		.loc 1 461 15 is_stmt 0 view .LVU163
 549 000c 019B     		ldr	r3, [sp, #4]
 461:Drivers/STM32H7xx_HAL_Driver/Src/stm32h7xx_ll_usb.c ****     {
 550              		.loc 1 461 8 view .LVU164
 551 000e B3F1706F 		cmp	r3, #251658240
 552 0012 15D8     		bhi	.L40
 465:Drivers/STM32H7xx_HAL_Driver/Src/stm32h7xx_ll_usb.c **** 
 553              		.loc 1 465 53 is_stmt 1 view .LVU165
 465:Drivers/STM32H7xx_HAL_Driver/Src/stm32h7xx_ll_usb.c **** 
 554              		.loc 1 465 17 is_stmt 0 view .LVU166
 555 0014 0369     		ldr	r3, [r0, #16]
 465:Drivers/STM32H7xx_HAL_Driver/Src/stm32h7xx_ll_usb.c **** 
 556              		.loc 1 465 53 view .LVU167
 557 0016 002B     		cmp	r3, #0
 558 0018 F5DA     		bge	.L38
 468:Drivers/STM32H7xx_HAL_Driver/Src/stm32h7xx_ll_usb.c ****   USBx->GRSTCTL = (USB_OTG_GRSTCTL_TXFFLSH | (num << 6));
 559              		.loc 1 468 3 is_stmt 1 view .LVU168
 468:Drivers/STM32H7xx_HAL_Driver/Src/stm32h7xx_ll_usb.c ****   USBx->GRSTCTL = (USB_OTG_GRSTCTL_TXFFLSH | (num << 6));
 560              		.loc 1 468 9 is_stmt 0 view .LVU169
 561 001a 0023     		movs	r3, #0
 562 001c 0193     		str	r3, [sp, #4]
 469:Drivers/STM32H7xx_HAL_Driver/Src/stm32h7xx_ll_usb.c **** 
 563              		.loc 1 469 3 is_stmt 1 view .LVU170
 469:Drivers/STM32H7xx_HAL_Driver/Src/stm32h7xx_ll_usb.c **** 
ARM GAS  C:\Users\Nathan\AppData\Local\Temp\cc7cwqzo.s 			page 38


 564              		.loc 1 469 51 is_stmt 0 view .LVU171
 565 001e 8901     		lsls	r1, r1, #6
 566              	.LVL22:
 469:Drivers/STM32H7xx_HAL_Driver/Src/stm32h7xx_ll_usb.c **** 
 567              		.loc 1 469 44 view .LVU172
 568 0020 41F02001 		orr	r1, r1, #32
 469:Drivers/STM32H7xx_HAL_Driver/Src/stm32h7xx_ll_usb.c **** 
 569              		.loc 1 469 17 view .LVU173
 570 0024 0161     		str	r1, [r0, #16]
 571              	.L39:
 471:Drivers/STM32H7xx_HAL_Driver/Src/stm32h7xx_ll_usb.c ****   {
 572              		.loc 1 471 3 is_stmt 1 view .LVU174
 473:Drivers/STM32H7xx_HAL_Driver/Src/stm32h7xx_ll_usb.c **** 
 573              		.loc 1 473 5 view .LVU175
 473:Drivers/STM32H7xx_HAL_Driver/Src/stm32h7xx_ll_usb.c **** 
 574              		.loc 1 473 10 is_stmt 0 view .LVU176
 575 0026 019B     		ldr	r3, [sp, #4]
 576 0028 0133     		adds	r3, r3, #1
 577 002a 0193     		str	r3, [sp, #4]
 475:Drivers/STM32H7xx_HAL_Driver/Src/stm32h7xx_ll_usb.c ****     {
 578              		.loc 1 475 5 is_stmt 1 view .LVU177
 475:Drivers/STM32H7xx_HAL_Driver/Src/stm32h7xx_ll_usb.c ****     {
 579              		.loc 1 475 15 is_stmt 0 view .LVU178
 580 002c 019B     		ldr	r3, [sp, #4]
 475:Drivers/STM32H7xx_HAL_Driver/Src/stm32h7xx_ll_usb.c ****     {
 581              		.loc 1 475 8 view .LVU179
 582 002e B3F1706F 		cmp	r3, #251658240
 583 0032 08D8     		bhi	.L41
 479:Drivers/STM32H7xx_HAL_Driver/Src/stm32h7xx_ll_usb.c **** 
 584              		.loc 1 479 54 is_stmt 1 view .LVU180
 479:Drivers/STM32H7xx_HAL_Driver/Src/stm32h7xx_ll_usb.c **** 
 585              		.loc 1 479 17 is_stmt 0 view .LVU181
 586 0034 0369     		ldr	r3, [r0, #16]
 479:Drivers/STM32H7xx_HAL_Driver/Src/stm32h7xx_ll_usb.c **** 
 587              		.loc 1 479 54 view .LVU182
 588 0036 13F0200F 		tst	r3, #32
 589 003a F4D1     		bne	.L39
 481:Drivers/STM32H7xx_HAL_Driver/Src/stm32h7xx_ll_usb.c **** }
 590              		.loc 1 481 10 view .LVU183
 591 003c 0020     		movs	r0, #0
 592              	.LVL23:
 481:Drivers/STM32H7xx_HAL_Driver/Src/stm32h7xx_ll_usb.c **** }
 593              		.loc 1 481 10 view .LVU184
 594 003e 00E0     		b	.L37
 595              	.LVL24:
 596              	.L40:
 463:Drivers/STM32H7xx_HAL_Driver/Src/stm32h7xx_ll_usb.c ****     }
 597              		.loc 1 463 14 view .LVU185
 598 0040 0320     		movs	r0, #3
 599              	.LVL25:
 600              	.L37:
 482:Drivers/STM32H7xx_HAL_Driver/Src/stm32h7xx_ll_usb.c **** 
 601              		.loc 1 482 1 view .LVU186
 602 0042 02B0     		add	sp, sp, #8
 603              		.cfi_remember_state
 604              		.cfi_def_cfa_offset 0
 605              		@ sp needed
ARM GAS  C:\Users\Nathan\AppData\Local\Temp\cc7cwqzo.s 			page 39


 606 0044 7047     		bx	lr
 607              	.LVL26:
 608              	.L41:
 609              		.cfi_restore_state
 477:Drivers/STM32H7xx_HAL_Driver/Src/stm32h7xx_ll_usb.c ****     }
 610              		.loc 1 477 14 view .LVU187
 611 0046 0320     		movs	r0, #3
 612              	.LVL27:
 477:Drivers/STM32H7xx_HAL_Driver/Src/stm32h7xx_ll_usb.c ****     }
 613              		.loc 1 477 14 view .LVU188
 614 0048 FBE7     		b	.L37
 615              		.cfi_endproc
 616              	.LFE150:
 618              		.section	.text.USB_FlushRxFifo,"ax",%progbits
 619              		.align	1
 620              		.global	USB_FlushRxFifo
 621              		.syntax unified
 622              		.thumb
 623              		.thumb_func
 625              	USB_FlushRxFifo:
 626              	.LVL28:
 627              	.LFB151:
 490:Drivers/STM32H7xx_HAL_Driver/Src/stm32h7xx_ll_usb.c ****   __IO uint32_t count = 0U;
 628              		.loc 1 490 1 is_stmt 1 view -0
 629              		.cfi_startproc
 630              		@ args = 0, pretend = 0, frame = 8
 631              		@ frame_needed = 0, uses_anonymous_args = 0
 632              		@ link register save eliminated.
 490:Drivers/STM32H7xx_HAL_Driver/Src/stm32h7xx_ll_usb.c ****   __IO uint32_t count = 0U;
 633              		.loc 1 490 1 is_stmt 0 view .LVU190
 634 0000 82B0     		sub	sp, sp, #8
 635              		.cfi_def_cfa_offset 8
 491:Drivers/STM32H7xx_HAL_Driver/Src/stm32h7xx_ll_usb.c **** 
 636              		.loc 1 491 3 is_stmt 1 view .LVU191
 491:Drivers/STM32H7xx_HAL_Driver/Src/stm32h7xx_ll_usb.c **** 
 637              		.loc 1 491 17 is_stmt 0 view .LVU192
 638 0002 0023     		movs	r3, #0
 639 0004 0193     		str	r3, [sp, #4]
 640              	.L45:
 494:Drivers/STM32H7xx_HAL_Driver/Src/stm32h7xx_ll_usb.c ****   {
 641              		.loc 1 494 3 is_stmt 1 view .LVU193
 496:Drivers/STM32H7xx_HAL_Driver/Src/stm32h7xx_ll_usb.c **** 
 642              		.loc 1 496 5 view .LVU194
 496:Drivers/STM32H7xx_HAL_Driver/Src/stm32h7xx_ll_usb.c **** 
 643              		.loc 1 496 10 is_stmt 0 view .LVU195
 644 0006 019B     		ldr	r3, [sp, #4]
 645 0008 0133     		adds	r3, r3, #1
 646 000a 0193     		str	r3, [sp, #4]
 498:Drivers/STM32H7xx_HAL_Driver/Src/stm32h7xx_ll_usb.c ****     {
 647              		.loc 1 498 5 is_stmt 1 view .LVU196
 498:Drivers/STM32H7xx_HAL_Driver/Src/stm32h7xx_ll_usb.c ****     {
 648              		.loc 1 498 15 is_stmt 0 view .LVU197
 649 000c 019B     		ldr	r3, [sp, #4]
 498:Drivers/STM32H7xx_HAL_Driver/Src/stm32h7xx_ll_usb.c ****     {
 650              		.loc 1 498 8 view .LVU198
 651 000e B3F1706F 		cmp	r3, #251658240
 652 0012 13D8     		bhi	.L47
ARM GAS  C:\Users\Nathan\AppData\Local\Temp\cc7cwqzo.s 			page 40


 502:Drivers/STM32H7xx_HAL_Driver/Src/stm32h7xx_ll_usb.c **** 
 653              		.loc 1 502 53 is_stmt 1 view .LVU199
 502:Drivers/STM32H7xx_HAL_Driver/Src/stm32h7xx_ll_usb.c **** 
 654              		.loc 1 502 17 is_stmt 0 view .LVU200
 655 0014 0369     		ldr	r3, [r0, #16]
 502:Drivers/STM32H7xx_HAL_Driver/Src/stm32h7xx_ll_usb.c **** 
 656              		.loc 1 502 53 view .LVU201
 657 0016 002B     		cmp	r3, #0
 658 0018 F5DA     		bge	.L45
 505:Drivers/STM32H7xx_HAL_Driver/Src/stm32h7xx_ll_usb.c ****   USBx->GRSTCTL = USB_OTG_GRSTCTL_RXFFLSH;
 659              		.loc 1 505 3 is_stmt 1 view .LVU202
 505:Drivers/STM32H7xx_HAL_Driver/Src/stm32h7xx_ll_usb.c ****   USBx->GRSTCTL = USB_OTG_GRSTCTL_RXFFLSH;
 660              		.loc 1 505 9 is_stmt 0 view .LVU203
 661 001a 0023     		movs	r3, #0
 662 001c 0193     		str	r3, [sp, #4]
 506:Drivers/STM32H7xx_HAL_Driver/Src/stm32h7xx_ll_usb.c **** 
 663              		.loc 1 506 3 is_stmt 1 view .LVU204
 506:Drivers/STM32H7xx_HAL_Driver/Src/stm32h7xx_ll_usb.c **** 
 664              		.loc 1 506 17 is_stmt 0 view .LVU205
 665 001e 1023     		movs	r3, #16
 666 0020 0361     		str	r3, [r0, #16]
 667              	.L46:
 508:Drivers/STM32H7xx_HAL_Driver/Src/stm32h7xx_ll_usb.c ****   {
 668              		.loc 1 508 3 is_stmt 1 view .LVU206
 510:Drivers/STM32H7xx_HAL_Driver/Src/stm32h7xx_ll_usb.c **** 
 669              		.loc 1 510 5 view .LVU207
 510:Drivers/STM32H7xx_HAL_Driver/Src/stm32h7xx_ll_usb.c **** 
 670              		.loc 1 510 10 is_stmt 0 view .LVU208
 671 0022 019B     		ldr	r3, [sp, #4]
 672 0024 0133     		adds	r3, r3, #1
 673 0026 0193     		str	r3, [sp, #4]
 512:Drivers/STM32H7xx_HAL_Driver/Src/stm32h7xx_ll_usb.c ****     {
 674              		.loc 1 512 5 is_stmt 1 view .LVU209
 512:Drivers/STM32H7xx_HAL_Driver/Src/stm32h7xx_ll_usb.c ****     {
 675              		.loc 1 512 15 is_stmt 0 view .LVU210
 676 0028 019B     		ldr	r3, [sp, #4]
 512:Drivers/STM32H7xx_HAL_Driver/Src/stm32h7xx_ll_usb.c ****     {
 677              		.loc 1 512 8 view .LVU211
 678 002a B3F1706F 		cmp	r3, #251658240
 679 002e 08D8     		bhi	.L48
 516:Drivers/STM32H7xx_HAL_Driver/Src/stm32h7xx_ll_usb.c **** 
 680              		.loc 1 516 54 is_stmt 1 view .LVU212
 516:Drivers/STM32H7xx_HAL_Driver/Src/stm32h7xx_ll_usb.c **** 
 681              		.loc 1 516 17 is_stmt 0 view .LVU213
 682 0030 0369     		ldr	r3, [r0, #16]
 516:Drivers/STM32H7xx_HAL_Driver/Src/stm32h7xx_ll_usb.c **** 
 683              		.loc 1 516 54 view .LVU214
 684 0032 13F0100F 		tst	r3, #16
 685 0036 F4D1     		bne	.L46
 518:Drivers/STM32H7xx_HAL_Driver/Src/stm32h7xx_ll_usb.c **** }
 686              		.loc 1 518 10 view .LVU215
 687 0038 0020     		movs	r0, #0
 688              	.LVL29:
 518:Drivers/STM32H7xx_HAL_Driver/Src/stm32h7xx_ll_usb.c **** }
 689              		.loc 1 518 10 view .LVU216
 690 003a 00E0     		b	.L44
 691              	.LVL30:
ARM GAS  C:\Users\Nathan\AppData\Local\Temp\cc7cwqzo.s 			page 41


 692              	.L47:
 500:Drivers/STM32H7xx_HAL_Driver/Src/stm32h7xx_ll_usb.c ****     }
 693              		.loc 1 500 14 view .LVU217
 694 003c 0320     		movs	r0, #3
 695              	.LVL31:
 696              	.L44:
 519:Drivers/STM32H7xx_HAL_Driver/Src/stm32h7xx_ll_usb.c **** 
 697              		.loc 1 519 1 view .LVU218
 698 003e 02B0     		add	sp, sp, #8
 699              		.cfi_remember_state
 700              		.cfi_def_cfa_offset 0
 701              		@ sp needed
 702 0040 7047     		bx	lr
 703              	.LVL32:
 704              	.L48:
 705              		.cfi_restore_state
 514:Drivers/STM32H7xx_HAL_Driver/Src/stm32h7xx_ll_usb.c ****     }
 706              		.loc 1 514 14 view .LVU219
 707 0042 0320     		movs	r0, #3
 708              	.LVL33:
 514:Drivers/STM32H7xx_HAL_Driver/Src/stm32h7xx_ll_usb.c ****     }
 709              		.loc 1 514 14 view .LVU220
 710 0044 FBE7     		b	.L44
 711              		.cfi_endproc
 712              	.LFE151:
 714              		.section	.text.USB_SetDevSpeed,"ax",%progbits
 715              		.align	1
 716              		.global	USB_SetDevSpeed
 717              		.syntax unified
 718              		.thumb
 719              		.thumb_func
 721              	USB_SetDevSpeed:
 722              	.LVL34:
 723              	.LFB152:
 533:Drivers/STM32H7xx_HAL_Driver/Src/stm32h7xx_ll_usb.c ****   uint32_t USBx_BASE = (uint32_t)USBx;
 724              		.loc 1 533 1 is_stmt 1 view -0
 725              		.cfi_startproc
 726              		@ args = 0, pretend = 0, frame = 0
 727              		@ frame_needed = 0, uses_anonymous_args = 0
 728              		@ link register save eliminated.
 534:Drivers/STM32H7xx_HAL_Driver/Src/stm32h7xx_ll_usb.c **** 
 729              		.loc 1 534 3 view .LVU222
 536:Drivers/STM32H7xx_HAL_Driver/Src/stm32h7xx_ll_usb.c ****   return HAL_OK;
 730              		.loc 1 536 3 view .LVU223
 536:Drivers/STM32H7xx_HAL_Driver/Src/stm32h7xx_ll_usb.c ****   return HAL_OK;
 731              		.loc 1 536 14 is_stmt 0 view .LVU224
 732 0000 D0F80038 		ldr	r3, [r0, #2048]
 536:Drivers/STM32H7xx_HAL_Driver/Src/stm32h7xx_ll_usb.c ****   return HAL_OK;
 733              		.loc 1 536 21 view .LVU225
 734 0004 1943     		orrs	r1, r1, r3
 735              	.LVL35:
 536:Drivers/STM32H7xx_HAL_Driver/Src/stm32h7xx_ll_usb.c ****   return HAL_OK;
 736              		.loc 1 536 21 view .LVU226
 737 0006 C0F80018 		str	r1, [r0, #2048]
 537:Drivers/STM32H7xx_HAL_Driver/Src/stm32h7xx_ll_usb.c **** }
 738              		.loc 1 537 3 is_stmt 1 view .LVU227
 538:Drivers/STM32H7xx_HAL_Driver/Src/stm32h7xx_ll_usb.c **** 
ARM GAS  C:\Users\Nathan\AppData\Local\Temp\cc7cwqzo.s 			page 42


 739              		.loc 1 538 1 is_stmt 0 view .LVU228
 740 000a 0020     		movs	r0, #0
 741              	.LVL36:
 538:Drivers/STM32H7xx_HAL_Driver/Src/stm32h7xx_ll_usb.c **** 
 742              		.loc 1 538 1 view .LVU229
 743 000c 7047     		bx	lr
 744              		.cfi_endproc
 745              	.LFE152:
 747              		.section	.text.USB_DevInit,"ax",%progbits
 748              		.align	1
 749              		.global	USB_DevInit
 750              		.syntax unified
 751              		.thumb
 752              		.thumb_func
 754              	USB_DevInit:
 755              	.LVL37:
 756              	.LFB149:
 301:Drivers/STM32H7xx_HAL_Driver/Src/stm32h7xx_ll_usb.c ****   HAL_StatusTypeDef ret = HAL_OK;
 757              		.loc 1 301 1 is_stmt 1 view -0
 758              		.cfi_startproc
 759              		@ args = 20, pretend = 16, frame = 0
 760              		@ frame_needed = 0, uses_anonymous_args = 0
 301:Drivers/STM32H7xx_HAL_Driver/Src/stm32h7xx_ll_usb.c ****   HAL_StatusTypeDef ret = HAL_OK;
 761              		.loc 1 301 1 is_stmt 0 view .LVU231
 762 0000 84B0     		sub	sp, sp, #16
 763              		.cfi_def_cfa_offset 16
 764 0002 F8B5     		push	{r3, r4, r5, r6, r7, lr}
 765              		.cfi_def_cfa_offset 40
 766              		.cfi_offset 3, -40
 767              		.cfi_offset 4, -36
 768              		.cfi_offset 5, -32
 769              		.cfi_offset 6, -28
 770              		.cfi_offset 7, -24
 771              		.cfi_offset 14, -20
 772 0004 0446     		mov	r4, r0
 773 0006 07A8     		add	r0, sp, #28
 774              	.LVL38:
 301:Drivers/STM32H7xx_HAL_Driver/Src/stm32h7xx_ll_usb.c ****   HAL_StatusTypeDef ret = HAL_OK;
 775              		.loc 1 301 1 view .LVU232
 776 0008 80E80E00 		stm	r0, {r1, r2, r3}
 302:Drivers/STM32H7xx_HAL_Driver/Src/stm32h7xx_ll_usb.c ****   uint32_t USBx_BASE = (uint32_t)USBx;
 777              		.loc 1 302 3 is_stmt 1 view .LVU233
 778              	.LVL39:
 303:Drivers/STM32H7xx_HAL_Driver/Src/stm32h7xx_ll_usb.c ****   uint32_t i;
 779              		.loc 1 303 3 view .LVU234
 304:Drivers/STM32H7xx_HAL_Driver/Src/stm32h7xx_ll_usb.c **** 
 780              		.loc 1 304 3 view .LVU235
 306:Drivers/STM32H7xx_HAL_Driver/Src/stm32h7xx_ll_usb.c ****   {
 781              		.loc 1 306 3 view .LVU236
 306:Drivers/STM32H7xx_HAL_Driver/Src/stm32h7xx_ll_usb.c ****   {
 782              		.loc 1 306 10 is_stmt 0 view .LVU237
 783 000c 0023     		movs	r3, #0
 306:Drivers/STM32H7xx_HAL_Driver/Src/stm32h7xx_ll_usb.c ****   {
 784              		.loc 1 306 3 view .LVU238
 785 000e 06E0     		b	.L52
 786              	.LVL40:
 787              	.L53:
ARM GAS  C:\Users\Nathan\AppData\Local\Temp\cc7cwqzo.s 			page 43


 308:Drivers/STM32H7xx_HAL_Driver/Src/stm32h7xx_ll_usb.c ****   }
 788              		.loc 1 308 5 is_stmt 1 view .LVU239
 308:Drivers/STM32H7xx_HAL_Driver/Src/stm32h7xx_ll_usb.c ****   }
 789              		.loc 1 308 22 is_stmt 0 view .LVU240
 790 0010 03F14002 		add	r2, r3, #64
 791 0014 04EB8202 		add	r2, r4, r2, lsl #2
 792 0018 0021     		movs	r1, #0
 793 001a 5160     		str	r1, [r2, #4]
 306:Drivers/STM32H7xx_HAL_Driver/Src/stm32h7xx_ll_usb.c ****   {
 794              		.loc 1 306 26 is_stmt 1 discriminator 3 view .LVU241
 795 001c 0133     		adds	r3, r3, #1
 796              	.LVL41:
 797              	.L52:
 306:Drivers/STM32H7xx_HAL_Driver/Src/stm32h7xx_ll_usb.c ****   {
 798              		.loc 1 306 18 discriminator 1 view .LVU242
 799 001e 0E2B     		cmp	r3, #14
 800 0020 F6D9     		bls	.L53
 312:Drivers/STM32H7xx_HAL_Driver/Src/stm32h7xx_ll_usb.c ****   {
 801              		.loc 1 312 3 view .LVU243
 312:Drivers/STM32H7xx_HAL_Driver/Src/stm32h7xx_ll_usb.c ****   {
 802              		.loc 1 312 10 is_stmt 0 view .LVU244
 803 0022 9DF82660 		ldrb	r6, [sp, #38]	@ zero_extendqisi2
 312:Drivers/STM32H7xx_HAL_Driver/Src/stm32h7xx_ll_usb.c ****   {
 804              		.loc 1 312 6 view .LVU245
 805 0026 06BB     		cbnz	r6, .L54
 314:Drivers/STM32H7xx_HAL_Driver/Src/stm32h7xx_ll_usb.c **** 
 806              		.loc 1 314 5 is_stmt 1 view .LVU246
 314:Drivers/STM32H7xx_HAL_Driver/Src/stm32h7xx_ll_usb.c **** 
 807              		.loc 1 314 16 is_stmt 0 view .LVU247
 808 0028 D4F80438 		ldr	r3, [r4, #2052]
 809              	.LVL42:
 314:Drivers/STM32H7xx_HAL_Driver/Src/stm32h7xx_ll_usb.c **** 
 810              		.loc 1 314 23 view .LVU248
 811 002c 43F00203 		orr	r3, r3, #2
 812 0030 C4F80438 		str	r3, [r4, #2052]
 317:Drivers/STM32H7xx_HAL_Driver/Src/stm32h7xx_ll_usb.c **** 
 813              		.loc 1 317 5 is_stmt 1 view .LVU249
 317:Drivers/STM32H7xx_HAL_Driver/Src/stm32h7xx_ll_usb.c **** 
 814              		.loc 1 317 9 is_stmt 0 view .LVU250
 815 0034 A36B     		ldr	r3, [r4, #56]
 317:Drivers/STM32H7xx_HAL_Driver/Src/stm32h7xx_ll_usb.c **** 
 816              		.loc 1 317 17 view .LVU251
 817 0036 23F40013 		bic	r3, r3, #2097152
 818 003a A363     		str	r3, [r4, #56]
 320:Drivers/STM32H7xx_HAL_Driver/Src/stm32h7xx_ll_usb.c ****     USBx->GOTGCTL |= USB_OTG_GOTGCTL_BVALOVAL;
 819              		.loc 1 320 5 is_stmt 1 view .LVU252
 320:Drivers/STM32H7xx_HAL_Driver/Src/stm32h7xx_ll_usb.c ****     USBx->GOTGCTL |= USB_OTG_GOTGCTL_BVALOVAL;
 820              		.loc 1 320 9 is_stmt 0 view .LVU253
 821 003c 2368     		ldr	r3, [r4]
 320:Drivers/STM32H7xx_HAL_Driver/Src/stm32h7xx_ll_usb.c ****     USBx->GOTGCTL |= USB_OTG_GOTGCTL_BVALOVAL;
 822              		.loc 1 320 19 view .LVU254
 823 003e 43F04003 		orr	r3, r3, #64
 824 0042 2360     		str	r3, [r4]
 321:Drivers/STM32H7xx_HAL_Driver/Src/stm32h7xx_ll_usb.c ****   }
 825              		.loc 1 321 5 is_stmt 1 view .LVU255
 321:Drivers/STM32H7xx_HAL_Driver/Src/stm32h7xx_ll_usb.c ****   }
 826              		.loc 1 321 9 is_stmt 0 view .LVU256
ARM GAS  C:\Users\Nathan\AppData\Local\Temp\cc7cwqzo.s 			page 44


 827 0044 2368     		ldr	r3, [r4]
 321:Drivers/STM32H7xx_HAL_Driver/Src/stm32h7xx_ll_usb.c ****   }
 828              		.loc 1 321 19 view .LVU257
 829 0046 43F08003 		orr	r3, r3, #128
 830 004a 2360     		str	r3, [r4]
 831              	.L55:
 330:Drivers/STM32H7xx_HAL_Driver/Src/stm32h7xx_ll_usb.c **** 
 832              		.loc 1 330 3 is_stmt 1 view .LVU258
 330:Drivers/STM32H7xx_HAL_Driver/Src/stm32h7xx_ll_usb.c **** 
 833              		.loc 1 330 16 is_stmt 0 view .LVU259
 834 004c 0023     		movs	r3, #0
 835 004e C4F8003E 		str	r3, [r4, #3584]
 332:Drivers/STM32H7xx_HAL_Driver/Src/stm32h7xx_ll_usb.c ****   {
 836              		.loc 1 332 3 is_stmt 1 view .LVU260
 332:Drivers/STM32H7xx_HAL_Driver/Src/stm32h7xx_ll_usb.c ****   {
 837              		.loc 1 332 10 is_stmt 0 view .LVU261
 838 0052 9DF82130 		ldrb	r3, [sp, #33]	@ zero_extendqisi2
 332:Drivers/STM32H7xx_HAL_Driver/Src/stm32h7xx_ll_usb.c ****   {
 839              		.loc 1 332 6 view .LVU262
 840 0056 012B     		cmp	r3, #1
 841 0058 11D1     		bne	.L56
 334:Drivers/STM32H7xx_HAL_Driver/Src/stm32h7xx_ll_usb.c ****     {
 842              		.loc 1 334 5 is_stmt 1 view .LVU263
 334:Drivers/STM32H7xx_HAL_Driver/Src/stm32h7xx_ll_usb.c ****     {
 843              		.loc 1 334 12 is_stmt 0 view .LVU264
 844 005a 9DF81F30 		ldrb	r3, [sp, #31]	@ zero_extendqisi2
 334:Drivers/STM32H7xx_HAL_Driver/Src/stm32h7xx_ll_usb.c ****     {
 845              		.loc 1 334 8 view .LVU265
 846 005e 4BB9     		cbnz	r3, .L57
 337:Drivers/STM32H7xx_HAL_Driver/Src/stm32h7xx_ll_usb.c ****     }
 847              		.loc 1 337 7 is_stmt 1 view .LVU266
 337:Drivers/STM32H7xx_HAL_Driver/Src/stm32h7xx_ll_usb.c ****     }
 848              		.loc 1 337 13 is_stmt 0 view .LVU267
 849 0060 0021     		movs	r1, #0
 850 0062 2046     		mov	r0, r4
 851 0064 FFF7FEFF 		bl	USB_SetDevSpeed
 852              	.LVL43:
 853 0068 0DE0     		b	.L58
 854              	.LVL44:
 855              	.L54:
 326:Drivers/STM32H7xx_HAL_Driver/Src/stm32h7xx_ll_usb.c ****   }
 856              		.loc 1 326 5 is_stmt 1 view .LVU268
 326:Drivers/STM32H7xx_HAL_Driver/Src/stm32h7xx_ll_usb.c ****   }
 857              		.loc 1 326 9 is_stmt 0 view .LVU269
 858 006a A36B     		ldr	r3, [r4, #56]
 859              	.LVL45:
 326:Drivers/STM32H7xx_HAL_Driver/Src/stm32h7xx_ll_usb.c ****   }
 860              		.loc 1 326 17 view .LVU270
 861 006c 43F40013 		orr	r3, r3, #2097152
 862 0070 A363     		str	r3, [r4, #56]
 863 0072 EBE7     		b	.L55
 864              	.L57:
 342:Drivers/STM32H7xx_HAL_Driver/Src/stm32h7xx_ll_usb.c ****     }
 865              		.loc 1 342 7 is_stmt 1 view .LVU271
 342:Drivers/STM32H7xx_HAL_Driver/Src/stm32h7xx_ll_usb.c ****     }
 866              		.loc 1 342 13 is_stmt 0 view .LVU272
 867 0074 0121     		movs	r1, #1
ARM GAS  C:\Users\Nathan\AppData\Local\Temp\cc7cwqzo.s 			page 45


 868 0076 2046     		mov	r0, r4
 869 0078 FFF7FEFF 		bl	USB_SetDevSpeed
 870              	.LVL46:
 871 007c 03E0     		b	.L58
 872              	.L56:
 348:Drivers/STM32H7xx_HAL_Driver/Src/stm32h7xx_ll_usb.c ****   }
 873              		.loc 1 348 5 is_stmt 1 view .LVU273
 348:Drivers/STM32H7xx_HAL_Driver/Src/stm32h7xx_ll_usb.c ****   }
 874              		.loc 1 348 11 is_stmt 0 view .LVU274
 875 007e 0321     		movs	r1, #3
 876 0080 2046     		mov	r0, r4
 877 0082 FFF7FEFF 		bl	USB_SetDevSpeed
 878              	.LVL47:
 879              	.L58:
 352:Drivers/STM32H7xx_HAL_Driver/Src/stm32h7xx_ll_usb.c ****   {
 880              		.loc 1 352 3 is_stmt 1 view .LVU275
 352:Drivers/STM32H7xx_HAL_Driver/Src/stm32h7xx_ll_usb.c ****   {
 881              		.loc 1 352 7 is_stmt 0 view .LVU276
 882 0086 1021     		movs	r1, #16
 883 0088 2046     		mov	r0, r4
 884 008a FFF7FEFF 		bl	USB_FlushTxFifo
 885              	.LVL48:
 352:Drivers/STM32H7xx_HAL_Driver/Src/stm32h7xx_ll_usb.c ****   {
 886              		.loc 1 352 6 discriminator 1 view .LVU277
 887 008e 0546     		mov	r5, r0
 888 0090 00B1     		cbz	r0, .L59
 354:Drivers/STM32H7xx_HAL_Driver/Src/stm32h7xx_ll_usb.c ****   }
 889              		.loc 1 354 9 view .LVU278
 890 0092 0125     		movs	r5, #1
 891              	.L59:
 892              	.LVL49:
 357:Drivers/STM32H7xx_HAL_Driver/Src/stm32h7xx_ll_usb.c ****   {
 893              		.loc 1 357 3 is_stmt 1 view .LVU279
 357:Drivers/STM32H7xx_HAL_Driver/Src/stm32h7xx_ll_usb.c ****   {
 894              		.loc 1 357 7 is_stmt 0 view .LVU280
 895 0094 2046     		mov	r0, r4
 896 0096 FFF7FEFF 		bl	USB_FlushRxFifo
 897              	.LVL50:
 357:Drivers/STM32H7xx_HAL_Driver/Src/stm32h7xx_ll_usb.c ****   {
 898              		.loc 1 357 6 discriminator 1 view .LVU281
 899 009a 00B1     		cbz	r0, .L60
 359:Drivers/STM32H7xx_HAL_Driver/Src/stm32h7xx_ll_usb.c ****   }
 900              		.loc 1 359 9 view .LVU282
 901 009c 0125     		movs	r5, #1
 902              	.LVL51:
 903              	.L60:
 363:Drivers/STM32H7xx_HAL_Driver/Src/stm32h7xx_ll_usb.c ****   USBx_DEVICE->DOEPMSK = 0U;
 904              		.loc 1 363 3 is_stmt 1 view .LVU283
 905 009e 04F5006C 		add	ip, r4, #2048
 363:Drivers/STM32H7xx_HAL_Driver/Src/stm32h7xx_ll_usb.c ****   USBx_DEVICE->DOEPMSK = 0U;
 906              		.loc 1 363 24 is_stmt 0 view .LVU284
 907 00a2 0023     		movs	r3, #0
 908 00a4 CCF81030 		str	r3, [ip, #16]
 364:Drivers/STM32H7xx_HAL_Driver/Src/stm32h7xx_ll_usb.c ****   USBx_DEVICE->DAINTMSK = 0U;
 909              		.loc 1 364 3 is_stmt 1 view .LVU285
 364:Drivers/STM32H7xx_HAL_Driver/Src/stm32h7xx_ll_usb.c ****   USBx_DEVICE->DAINTMSK = 0U;
 910              		.loc 1 364 24 is_stmt 0 view .LVU286
ARM GAS  C:\Users\Nathan\AppData\Local\Temp\cc7cwqzo.s 			page 46


 911 00a8 CCF81430 		str	r3, [ip, #20]
 365:Drivers/STM32H7xx_HAL_Driver/Src/stm32h7xx_ll_usb.c **** 
 912              		.loc 1 365 3 is_stmt 1 view .LVU287
 365:Drivers/STM32H7xx_HAL_Driver/Src/stm32h7xx_ll_usb.c **** 
 913              		.loc 1 365 25 is_stmt 0 view .LVU288
 914 00ac CCF81C30 		str	r3, [ip, #28]
 367:Drivers/STM32H7xx_HAL_Driver/Src/stm32h7xx_ll_usb.c ****   {
 915              		.loc 1 367 3 is_stmt 1 view .LVU289
 916              	.LVL52:
 367:Drivers/STM32H7xx_HAL_Driver/Src/stm32h7xx_ll_usb.c ****   {
 917              		.loc 1 367 3 is_stmt 0 view .LVU290
 918 00b0 0DE0     		b	.L61
 919              	.LVL53:
 920              	.L63:
 377:Drivers/STM32H7xx_HAL_Driver/Src/stm32h7xx_ll_usb.c ****       }
 921              		.loc 1 377 9 is_stmt 1 view .LVU291
 377:Drivers/STM32H7xx_HAL_Driver/Src/stm32h7xx_ll_usb.c ****       }
 922              		.loc 1 377 31 is_stmt 0 view .LVU292
 923 00b2 4FF09040 		mov	r0, #1207959552
 924 00b6 C2F80009 		str	r0, [r2, #2304]
 925 00ba 02E0     		b	.L64
 926              	.L62:
 382:Drivers/STM32H7xx_HAL_Driver/Src/stm32h7xx_ll_usb.c ****     }
 927              		.loc 1 382 7 is_stmt 1 view .LVU293
 382:Drivers/STM32H7xx_HAL_Driver/Src/stm32h7xx_ll_usb.c ****     }
 928              		.loc 1 382 29 is_stmt 0 view .LVU294
 929 00bc 0020     		movs	r0, #0
 930 00be C2F80009 		str	r0, [r2, #2304]
 931              	.L64:
 385:Drivers/STM32H7xx_HAL_Driver/Src/stm32h7xx_ll_usb.c ****     USBx_INEP(i)->DIEPINT  = 0xFB7FU;
 932              		.loc 1 385 5 is_stmt 1 view .LVU295
 385:Drivers/STM32H7xx_HAL_Driver/Src/stm32h7xx_ll_usb.c ****     USBx_INEP(i)->DIEPINT  = 0xFB7FU;
 933              		.loc 1 385 28 is_stmt 0 view .LVU296
 934 00c2 0022     		movs	r2, #0
 935 00c4 0A61     		str	r2, [r1, #16]
 386:Drivers/STM32H7xx_HAL_Driver/Src/stm32h7xx_ll_usb.c ****   }
 936              		.loc 1 386 5 is_stmt 1 view .LVU297
 386:Drivers/STM32H7xx_HAL_Driver/Src/stm32h7xx_ll_usb.c ****   }
 937              		.loc 1 386 28 is_stmt 0 view .LVU298
 938 00c6 4FF67F32 		movw	r2, #64383
 939 00ca 8A60     		str	r2, [r1, #8]
 367:Drivers/STM32H7xx_HAL_Driver/Src/stm32h7xx_ll_usb.c ****   {
 940              		.loc 1 367 40 is_stmt 1 discriminator 2 view .LVU299
 941 00cc 0133     		adds	r3, r3, #1
 942              	.LVL54:
 943              	.L61:
 367:Drivers/STM32H7xx_HAL_Driver/Src/stm32h7xx_ll_usb.c ****   {
 944              		.loc 1 367 18 discriminator 1 view .LVU300
 367:Drivers/STM32H7xx_HAL_Driver/Src/stm32h7xx_ll_usb.c ****   {
 945              		.loc 1 367 23 is_stmt 0 discriminator 1 view .LVU301
 946 00ce 9DF81C10 		ldrb	r1, [sp, #28]	@ zero_extendqisi2
 367:Drivers/STM32H7xx_HAL_Driver/Src/stm32h7xx_ll_usb.c ****   {
 947              		.loc 1 367 18 discriminator 1 view .LVU302
 948 00d2 9942     		cmp	r1, r3
 949 00d4 0ED9     		bls	.L77
 369:Drivers/STM32H7xx_HAL_Driver/Src/stm32h7xx_ll_usb.c ****     {
 950              		.loc 1 369 5 is_stmt 1 view .LVU303
ARM GAS  C:\Users\Nathan\AppData\Local\Temp\cc7cwqzo.s 			page 47


 369:Drivers/STM32H7xx_HAL_Driver/Src/stm32h7xx_ll_usb.c ****     {
 951              		.loc 1 369 10 is_stmt 0 view .LVU304
 952 00d6 04EB4312 		add	r2, r4, r3, lsl #5
 953 00da 02F51061 		add	r1, r2, #2304
 369:Drivers/STM32H7xx_HAL_Driver/Src/stm32h7xx_ll_usb.c ****     {
 954              		.loc 1 369 22 view .LVU305
 955 00de D2F80009 		ldr	r0, [r2, #2304]
 369:Drivers/STM32H7xx_HAL_Driver/Src/stm32h7xx_ll_usb.c ****     {
 956              		.loc 1 369 8 view .LVU306
 957 00e2 0028     		cmp	r0, #0
 958 00e4 EADA     		bge	.L62
 371:Drivers/STM32H7xx_HAL_Driver/Src/stm32h7xx_ll_usb.c ****       {
 959              		.loc 1 371 7 is_stmt 1 view .LVU307
 371:Drivers/STM32H7xx_HAL_Driver/Src/stm32h7xx_ll_usb.c ****       {
 960              		.loc 1 371 10 is_stmt 0 view .LVU308
 961 00e6 002B     		cmp	r3, #0
 962 00e8 E3D1     		bne	.L63
 373:Drivers/STM32H7xx_HAL_Driver/Src/stm32h7xx_ll_usb.c ****       }
 963              		.loc 1 373 9 is_stmt 1 view .LVU309
 373:Drivers/STM32H7xx_HAL_Driver/Src/stm32h7xx_ll_usb.c ****       }
 964              		.loc 1 373 31 is_stmt 0 view .LVU310
 965 00ea 4FF00060 		mov	r0, #134217728
 966 00ee C2F80009 		str	r0, [r2, #2304]
 967 00f2 E6E7     		b	.L64
 968              	.L77:
 389:Drivers/STM32H7xx_HAL_Driver/Src/stm32h7xx_ll_usb.c ****   {
 969              		.loc 1 389 10 view .LVU311
 970 00f4 0023     		movs	r3, #0
 971              	.LVL55:
 389:Drivers/STM32H7xx_HAL_Driver/Src/stm32h7xx_ll_usb.c ****   {
 972              		.loc 1 389 10 view .LVU312
 973 00f6 0AE0     		b	.L66
 974              	.LVL56:
 975              	.L80:
 393:Drivers/STM32H7xx_HAL_Driver/Src/stm32h7xx_ll_usb.c ****       {
 976              		.loc 1 393 7 is_stmt 1 view .LVU313
 393:Drivers/STM32H7xx_HAL_Driver/Src/stm32h7xx_ll_usb.c ****       {
 977              		.loc 1 393 10 is_stmt 0 view .LVU314
 978 00f8 BBB1     		cbz	r3, .L78
 399:Drivers/STM32H7xx_HAL_Driver/Src/stm32h7xx_ll_usb.c ****       }
 979              		.loc 1 399 9 is_stmt 1 view .LVU315
 399:Drivers/STM32H7xx_HAL_Driver/Src/stm32h7xx_ll_usb.c ****       }
 980              		.loc 1 399 32 is_stmt 0 view .LVU316
 981 00fa 4FF09047 		mov	r7, #1207959552
 982 00fe C2F8007B 		str	r7, [r2, #2816]
 983              	.L69:
 407:Drivers/STM32H7xx_HAL_Driver/Src/stm32h7xx_ll_usb.c ****     USBx_OUTEP(i)->DOEPINT  = 0xFB7FU;
 984              		.loc 1 407 5 is_stmt 1 view .LVU317
 407:Drivers/STM32H7xx_HAL_Driver/Src/stm32h7xx_ll_usb.c ****     USBx_OUTEP(i)->DOEPINT  = 0xFB7FU;
 985              		.loc 1 407 29 is_stmt 0 view .LVU318
 986 0102 0022     		movs	r2, #0
 987 0104 0261     		str	r2, [r0, #16]
 408:Drivers/STM32H7xx_HAL_Driver/Src/stm32h7xx_ll_usb.c ****   }
 988              		.loc 1 408 5 is_stmt 1 view .LVU319
 408:Drivers/STM32H7xx_HAL_Driver/Src/stm32h7xx_ll_usb.c ****   }
 989              		.loc 1 408 29 is_stmt 0 view .LVU320
 990 0106 4FF67F32 		movw	r2, #64383
ARM GAS  C:\Users\Nathan\AppData\Local\Temp\cc7cwqzo.s 			page 48


 991 010a 8260     		str	r2, [r0, #8]
 389:Drivers/STM32H7xx_HAL_Driver/Src/stm32h7xx_ll_usb.c ****   {
 992              		.loc 1 389 40 is_stmt 1 discriminator 2 view .LVU321
 993 010c 0133     		adds	r3, r3, #1
 994              	.LVL57:
 995              	.L66:
 389:Drivers/STM32H7xx_HAL_Driver/Src/stm32h7xx_ll_usb.c ****   {
 996              		.loc 1 389 18 discriminator 1 view .LVU322
 997 010e 9942     		cmp	r1, r3
 998 0110 10D9     		bls	.L79
 391:Drivers/STM32H7xx_HAL_Driver/Src/stm32h7xx_ll_usb.c ****     {
 999              		.loc 1 391 5 view .LVU323
 391:Drivers/STM32H7xx_HAL_Driver/Src/stm32h7xx_ll_usb.c ****     {
 1000              		.loc 1 391 10 is_stmt 0 view .LVU324
 1001 0112 04EB4312 		add	r2, r4, r3, lsl #5
 1002 0116 02F53060 		add	r0, r2, #2816
 391:Drivers/STM32H7xx_HAL_Driver/Src/stm32h7xx_ll_usb.c ****     {
 1003              		.loc 1 391 23 view .LVU325
 1004 011a D2F8007B 		ldr	r7, [r2, #2816]
 391:Drivers/STM32H7xx_HAL_Driver/Src/stm32h7xx_ll_usb.c ****     {
 1005              		.loc 1 391 8 view .LVU326
 1006 011e 002F     		cmp	r7, #0
 1007 0120 EADB     		blt	.L80
 404:Drivers/STM32H7xx_HAL_Driver/Src/stm32h7xx_ll_usb.c ****     }
 1008              		.loc 1 404 7 is_stmt 1 view .LVU327
 404:Drivers/STM32H7xx_HAL_Driver/Src/stm32h7xx_ll_usb.c ****     }
 1009              		.loc 1 404 30 is_stmt 0 view .LVU328
 1010 0122 0027     		movs	r7, #0
 1011 0124 C2F8007B 		str	r7, [r2, #2816]
 1012 0128 EBE7     		b	.L69
 1013              	.L78:
 395:Drivers/STM32H7xx_HAL_Driver/Src/stm32h7xx_ll_usb.c ****       }
 1014              		.loc 1 395 9 is_stmt 1 view .LVU329
 395:Drivers/STM32H7xx_HAL_Driver/Src/stm32h7xx_ll_usb.c ****       }
 1015              		.loc 1 395 32 is_stmt 0 view .LVU330
 1016 012a 4FF00067 		mov	r7, #134217728
 1017 012e C2F8007B 		str	r7, [r2, #2816]
 1018 0132 E6E7     		b	.L69
 1019              	.L79:
 411:Drivers/STM32H7xx_HAL_Driver/Src/stm32h7xx_ll_usb.c **** 
 1020              		.loc 1 411 3 is_stmt 1 view .LVU331
 411:Drivers/STM32H7xx_HAL_Driver/Src/stm32h7xx_ll_usb.c **** 
 1021              		.loc 1 411 14 is_stmt 0 view .LVU332
 1022 0134 DCF81030 		ldr	r3, [ip, #16]
 1023              	.LVL58:
 411:Drivers/STM32H7xx_HAL_Driver/Src/stm32h7xx_ll_usb.c **** 
 1024              		.loc 1 411 24 view .LVU333
 1025 0138 23F48073 		bic	r3, r3, #256
 1026 013c CCF81030 		str	r3, [ip, #16]
 414:Drivers/STM32H7xx_HAL_Driver/Src/stm32h7xx_ll_usb.c **** 
 1027              		.loc 1 414 3 is_stmt 1 view .LVU334
 414:Drivers/STM32H7xx_HAL_Driver/Src/stm32h7xx_ll_usb.c **** 
 1028              		.loc 1 414 17 is_stmt 0 view .LVU335
 1029 0140 0023     		movs	r3, #0
 1030 0142 A361     		str	r3, [r4, #24]
 417:Drivers/STM32H7xx_HAL_Driver/Src/stm32h7xx_ll_usb.c **** 
 1031              		.loc 1 417 3 is_stmt 1 view .LVU336
ARM GAS  C:\Users\Nathan\AppData\Local\Temp\cc7cwqzo.s 			page 49


 417:Drivers/STM32H7xx_HAL_Driver/Src/stm32h7xx_ll_usb.c **** 
 1032              		.loc 1 417 17 is_stmt 0 view .LVU337
 1033 0144 6FF08043 		mvn	r3, #1073741824
 1034 0148 6361     		str	r3, [r4, #20]
 420:Drivers/STM32H7xx_HAL_Driver/Src/stm32h7xx_ll_usb.c ****   {
 1035              		.loc 1 420 3 is_stmt 1 view .LVU338
 420:Drivers/STM32H7xx_HAL_Driver/Src/stm32h7xx_ll_usb.c ****   {
 1036              		.loc 1 420 10 is_stmt 0 view .LVU339
 1037 014a 9DF81E30 		ldrb	r3, [sp, #30]	@ zero_extendqisi2
 420:Drivers/STM32H7xx_HAL_Driver/Src/stm32h7xx_ll_usb.c ****   {
 1038              		.loc 1 420 6 view .LVU340
 1039 014e 1BB9     		cbnz	r3, .L71
 422:Drivers/STM32H7xx_HAL_Driver/Src/stm32h7xx_ll_usb.c ****   }
 1040              		.loc 1 422 5 is_stmt 1 view .LVU341
 422:Drivers/STM32H7xx_HAL_Driver/Src/stm32h7xx_ll_usb.c ****   }
 1041              		.loc 1 422 9 is_stmt 0 view .LVU342
 1042 0150 A369     		ldr	r3, [r4, #24]
 422:Drivers/STM32H7xx_HAL_Driver/Src/stm32h7xx_ll_usb.c ****   }
 1043              		.loc 1 422 19 view .LVU343
 1044 0152 43F01003 		orr	r3, r3, #16
 1045 0156 A361     		str	r3, [r4, #24]
 1046              	.L71:
 426:Drivers/STM32H7xx_HAL_Driver/Src/stm32h7xx_ll_usb.c ****                    USB_OTG_GINTMSK_ENUMDNEM | USB_OTG_GINTMSK_IEPINT |
 1047              		.loc 1 426 3 is_stmt 1 view .LVU344
 426:Drivers/STM32H7xx_HAL_Driver/Src/stm32h7xx_ll_usb.c ****                    USB_OTG_GINTMSK_ENUMDNEM | USB_OTG_GINTMSK_IEPINT |
 1048              		.loc 1 426 7 is_stmt 0 view .LVU345
 1049 0158 A269     		ldr	r2, [r4, #24]
 426:Drivers/STM32H7xx_HAL_Driver/Src/stm32h7xx_ll_usb.c ****                    USB_OTG_GINTMSK_ENUMDNEM | USB_OTG_GINTMSK_IEPINT |
 1050              		.loc 1 426 17 view .LVU346
 1051 015a 0B4B     		ldr	r3, .L82
 1052 015c 1343     		orrs	r3, r3, r2
 1053 015e A361     		str	r3, [r4, #24]
 431:Drivers/STM32H7xx_HAL_Driver/Src/stm32h7xx_ll_usb.c ****   {
 1054              		.loc 1 431 3 is_stmt 1 view .LVU347
 431:Drivers/STM32H7xx_HAL_Driver/Src/stm32h7xx_ll_usb.c ****   {
 1055              		.loc 1 431 10 is_stmt 0 view .LVU348
 1056 0160 9DF82230 		ldrb	r3, [sp, #34]	@ zero_extendqisi2
 431:Drivers/STM32H7xx_HAL_Driver/Src/stm32h7xx_ll_usb.c ****   {
 1057              		.loc 1 431 6 view .LVU349
 1058 0164 1BB1     		cbz	r3, .L72
 433:Drivers/STM32H7xx_HAL_Driver/Src/stm32h7xx_ll_usb.c ****   }
 1059              		.loc 1 433 5 is_stmt 1 view .LVU350
 433:Drivers/STM32H7xx_HAL_Driver/Src/stm32h7xx_ll_usb.c ****   }
 1060              		.loc 1 433 9 is_stmt 0 view .LVU351
 1061 0166 A369     		ldr	r3, [r4, #24]
 433:Drivers/STM32H7xx_HAL_Driver/Src/stm32h7xx_ll_usb.c ****   }
 1062              		.loc 1 433 19 view .LVU352
 1063 0168 43F00803 		orr	r3, r3, #8
 1064 016c A361     		str	r3, [r4, #24]
 1065              	.L72:
 436:Drivers/STM32H7xx_HAL_Driver/Src/stm32h7xx_ll_usb.c ****   {
 1066              		.loc 1 436 3 is_stmt 1 view .LVU353
 436:Drivers/STM32H7xx_HAL_Driver/Src/stm32h7xx_ll_usb.c ****   {
 1067              		.loc 1 436 6 is_stmt 0 view .LVU354
 1068 016e 012E     		cmp	r6, #1
 1069 0170 04D0     		beq	.L81
 1070              	.L73:
ARM GAS  C:\Users\Nathan\AppData\Local\Temp\cc7cwqzo.s 			page 50


 441:Drivers/STM32H7xx_HAL_Driver/Src/stm32h7xx_ll_usb.c **** }
 1071              		.loc 1 441 3 is_stmt 1 view .LVU355
 442:Drivers/STM32H7xx_HAL_Driver/Src/stm32h7xx_ll_usb.c **** 
 1072              		.loc 1 442 1 is_stmt 0 view .LVU356
 1073 0172 2846     		mov	r0, r5
 1074 0174 BDE8F840 		pop	{r3, r4, r5, r6, r7, lr}
 1075              		.cfi_remember_state
 1076              		.cfi_restore 14
 1077              		.cfi_restore 7
 1078              		.cfi_restore 6
 1079              		.cfi_restore 5
 1080              		.cfi_restore 4
 1081              		.cfi_restore 3
 1082              		.cfi_def_cfa_offset 16
 1083              	.LVL59:
 442:Drivers/STM32H7xx_HAL_Driver/Src/stm32h7xx_ll_usb.c **** 
 1084              		.loc 1 442 1 view .LVU357
 1085 0178 04B0     		add	sp, sp, #16
 1086              		.cfi_def_cfa_offset 0
 1087 017a 7047     		bx	lr
 1088              	.LVL60:
 1089              	.L81:
 1090              		.cfi_restore_state
 438:Drivers/STM32H7xx_HAL_Driver/Src/stm32h7xx_ll_usb.c ****   }
 1091              		.loc 1 438 5 is_stmt 1 view .LVU358
 438:Drivers/STM32H7xx_HAL_Driver/Src/stm32h7xx_ll_usb.c ****   }
 1092              		.loc 1 438 9 is_stmt 0 view .LVU359
 1093 017c A269     		ldr	r2, [r4, #24]
 438:Drivers/STM32H7xx_HAL_Driver/Src/stm32h7xx_ll_usb.c ****   }
 1094              		.loc 1 438 19 view .LVU360
 1095 017e 034B     		ldr	r3, .L82+4
 1096 0180 1343     		orrs	r3, r3, r2
 1097 0182 A361     		str	r3, [r4, #24]
 1098 0184 F5E7     		b	.L73
 1099              	.L83:
 1100 0186 00BF     		.align	2
 1101              	.L82:
 1102 0188 00383C80 		.word	-2143537152
 1103 018c 04000040 		.word	1073741828
 1104              		.cfi_endproc
 1105              	.LFE149:
 1107              		.section	.text.USB_GetDevSpeed,"ax",%progbits
 1108              		.align	1
 1109              		.global	USB_GetDevSpeed
 1110              		.syntax unified
 1111              		.thumb
 1112              		.thumb_func
 1114              	USB_GetDevSpeed:
 1115              	.LVL61:
 1116              	.LFB153:
 549:Drivers/STM32H7xx_HAL_Driver/Src/stm32h7xx_ll_usb.c ****   uint32_t USBx_BASE = (uint32_t)USBx;
 1117              		.loc 1 549 1 is_stmt 1 view -0
 1118              		.cfi_startproc
 1119              		@ args = 0, pretend = 0, frame = 0
 1120              		@ frame_needed = 0, uses_anonymous_args = 0
 1121              		@ link register save eliminated.
 550:Drivers/STM32H7xx_HAL_Driver/Src/stm32h7xx_ll_usb.c ****   uint8_t speed;
ARM GAS  C:\Users\Nathan\AppData\Local\Temp\cc7cwqzo.s 			page 51


 1122              		.loc 1 550 3 view .LVU362
 551:Drivers/STM32H7xx_HAL_Driver/Src/stm32h7xx_ll_usb.c ****   uint32_t DevEnumSpeed = USBx_DEVICE->DSTS & USB_OTG_DSTS_ENUMSPD;
 1123              		.loc 1 551 3 view .LVU363
 552:Drivers/STM32H7xx_HAL_Driver/Src/stm32h7xx_ll_usb.c **** 
 1124              		.loc 1 552 3 view .LVU364
 552:Drivers/STM32H7xx_HAL_Driver/Src/stm32h7xx_ll_usb.c **** 
 1125              		.loc 1 552 38 is_stmt 0 view .LVU365
 1126 0000 D0F80838 		ldr	r3, [r0, #2056]
 552:Drivers/STM32H7xx_HAL_Driver/Src/stm32h7xx_ll_usb.c **** 
 1127              		.loc 1 552 12 view .LVU366
 1128 0004 03F00603 		and	r3, r3, #6
 1129              	.LVL62:
 554:Drivers/STM32H7xx_HAL_Driver/Src/stm32h7xx_ll_usb.c ****   {
 1130              		.loc 1 554 3 is_stmt 1 view .LVU367
 1131 0008 022B     		cmp	r3, #2
 1132 000a 04D0     		beq	.L86
 1133 000c 062B     		cmp	r3, #6
 1134 000e 04D0     		beq	.L87
 1135 0010 2BB9     		cbnz	r3, .L88
 552:Drivers/STM32H7xx_HAL_Driver/Src/stm32h7xx_ll_usb.c **** 
 1136              		.loc 1 552 12 is_stmt 0 view .LVU368
 1137 0012 0020     		movs	r0, #0
 1138              	.LVL63:
 552:Drivers/STM32H7xx_HAL_Driver/Src/stm32h7xx_ll_usb.c **** 
 1139              		.loc 1 552 12 view .LVU369
 1140 0014 7047     		bx	lr
 1141              	.LVL64:
 1142              	.L86:
 552:Drivers/STM32H7xx_HAL_Driver/Src/stm32h7xx_ll_usb.c **** 
 1143              		.loc 1 552 12 view .LVU370
 1144 0016 0220     		movs	r0, #2
 1145              	.LVL65:
 552:Drivers/STM32H7xx_HAL_Driver/Src/stm32h7xx_ll_usb.c **** 
 1146              		.loc 1 552 12 view .LVU371
 1147 0018 7047     		bx	lr
 1148              	.LVL66:
 1149              	.L87:
 552:Drivers/STM32H7xx_HAL_Driver/Src/stm32h7xx_ll_usb.c **** 
 1150              		.loc 1 552 12 view .LVU372
 1151 001a 0220     		movs	r0, #2
 1152              	.LVL67:
 552:Drivers/STM32H7xx_HAL_Driver/Src/stm32h7xx_ll_usb.c **** 
 1153              		.loc 1 552 12 view .LVU373
 1154 001c 7047     		bx	lr
 1155              	.LVL68:
 1156              	.L88:
 552:Drivers/STM32H7xx_HAL_Driver/Src/stm32h7xx_ll_usb.c **** 
 1157              		.loc 1 552 12 view .LVU374
 1158 001e 0F20     		movs	r0, #15
 1159              	.LVL69:
 568:Drivers/STM32H7xx_HAL_Driver/Src/stm32h7xx_ll_usb.c **** }
 1160              		.loc 1 568 3 is_stmt 1 view .LVU375
 569:Drivers/STM32H7xx_HAL_Driver/Src/stm32h7xx_ll_usb.c **** 
 1161              		.loc 1 569 1 is_stmt 0 view .LVU376
 1162 0020 7047     		bx	lr
 1163              		.cfi_endproc
 1164              	.LFE153:
ARM GAS  C:\Users\Nathan\AppData\Local\Temp\cc7cwqzo.s 			page 52


 1166              		.section	.text.USB_ActivateEndpoint,"ax",%progbits
 1167              		.align	1
 1168              		.global	USB_ActivateEndpoint
 1169              		.syntax unified
 1170              		.thumb
 1171              		.thumb_func
 1173              	USB_ActivateEndpoint:
 1174              	.LVL70:
 1175              	.LFB154:
 578:Drivers/STM32H7xx_HAL_Driver/Src/stm32h7xx_ll_usb.c ****   uint32_t USBx_BASE = (uint32_t)USBx;
 1176              		.loc 1 578 1 is_stmt 1 view -0
 1177              		.cfi_startproc
 1178              		@ args = 0, pretend = 0, frame = 0
 1179              		@ frame_needed = 0, uses_anonymous_args = 0
 578:Drivers/STM32H7xx_HAL_Driver/Src/stm32h7xx_ll_usb.c ****   uint32_t USBx_BASE = (uint32_t)USBx;
 1180              		.loc 1 578 1 is_stmt 0 view .LVU378
 1181 0000 10B5     		push	{r4, lr}
 1182              		.cfi_def_cfa_offset 8
 1183              		.cfi_offset 4, -8
 1184              		.cfi_offset 14, -4
 579:Drivers/STM32H7xx_HAL_Driver/Src/stm32h7xx_ll_usb.c ****   uint32_t epnum = (uint32_t)ep->num;
 1185              		.loc 1 579 3 is_stmt 1 view .LVU379
 1186              	.LVL71:
 580:Drivers/STM32H7xx_HAL_Driver/Src/stm32h7xx_ll_usb.c **** 
 1187              		.loc 1 580 3 view .LVU380
 580:Drivers/STM32H7xx_HAL_Driver/Src/stm32h7xx_ll_usb.c **** 
 1188              		.loc 1 580 32 is_stmt 0 view .LVU381
 1189 0002 91F800C0 		ldrb	ip, [r1]	@ zero_extendqisi2
 1190              	.LVL72:
 582:Drivers/STM32H7xx_HAL_Driver/Src/stm32h7xx_ll_usb.c ****   {
 1191              		.loc 1 582 3 is_stmt 1 view .LVU382
 582:Drivers/STM32H7xx_HAL_Driver/Src/stm32h7xx_ll_usb.c ****   {
 1192              		.loc 1 582 9 is_stmt 0 view .LVU383
 1193 0006 4B78     		ldrb	r3, [r1, #1]	@ zero_extendqisi2
 582:Drivers/STM32H7xx_HAL_Driver/Src/stm32h7xx_ll_usb.c ****   {
 1194              		.loc 1 582 6 view .LVU384
 1195 0008 012B     		cmp	r3, #1
 1196 000a 21D0     		beq	.L93
 596:Drivers/STM32H7xx_HAL_Driver/Src/stm32h7xx_ll_usb.c **** 
 1197              		.loc 1 596 5 is_stmt 1 view .LVU385
 596:Drivers/STM32H7xx_HAL_Driver/Src/stm32h7xx_ll_usb.c **** 
 1198              		.loc 1 596 16 is_stmt 0 view .LVU386
 1199 000c 00F5006E 		add	lr, r0, #2048
 1200 0010 D0F81C38 		ldr	r3, [r0, #2076]
 596:Drivers/STM32H7xx_HAL_Driver/Src/stm32h7xx_ll_usb.c **** 
 1201              		.loc 1 596 82 view .LVU387
 1202 0014 0CF00F04 		and	r4, ip, #15
 596:Drivers/STM32H7xx_HAL_Driver/Src/stm32h7xx_ll_usb.c **** 
 1203              		.loc 1 596 55 view .LVU388
 1204 0018 0122     		movs	r2, #1
 1205 001a A240     		lsls	r2, r2, r4
 596:Drivers/STM32H7xx_HAL_Driver/Src/stm32h7xx_ll_usb.c **** 
 1206              		.loc 1 596 27 view .LVU389
 1207 001c 43EA0243 		orr	r3, r3, r2, lsl #16
 1208 0020 C0F81C38 		str	r3, [r0, #2076]
 598:Drivers/STM32H7xx_HAL_Driver/Src/stm32h7xx_ll_usb.c ****     {
 1209              		.loc 1 598 5 is_stmt 1 view .LVU390
ARM GAS  C:\Users\Nathan\AppData\Local\Temp\cc7cwqzo.s 			page 53


 598:Drivers/STM32H7xx_HAL_Driver/Src/stm32h7xx_ll_usb.c ****     {
 1210              		.loc 1 598 11 is_stmt 0 view .LVU391
 1211 0024 00EB4C10 		add	r0, r0, ip, lsl #5
 1212              	.LVL73:
 598:Drivers/STM32H7xx_HAL_Driver/Src/stm32h7xx_ll_usb.c ****     {
 1213              		.loc 1 598 28 view .LVU392
 1214 0028 D0F8003B 		ldr	r3, [r0, #2816]
 598:Drivers/STM32H7xx_HAL_Driver/Src/stm32h7xx_ll_usb.c ****     {
 1215              		.loc 1 598 8 view .LVU393
 1216 002c 13F4004F 		tst	r3, #32768
 1217 0030 0CD1     		bne	.L91
 600:Drivers/STM32H7xx_HAL_Driver/Src/stm32h7xx_ll_usb.c ****                                     ((uint32_t)ep->type << 18) |
 1218              		.loc 1 600 7 is_stmt 1 view .LVU394
 600:Drivers/STM32H7xx_HAL_Driver/Src/stm32h7xx_ll_usb.c ****                                     ((uint32_t)ep->type << 18) |
 1219              		.loc 1 600 24 is_stmt 0 view .LVU395
 1220 0032 D0F8002B 		ldr	r2, [r0, #2816]
 600:Drivers/STM32H7xx_HAL_Driver/Src/stm32h7xx_ll_usb.c ****                                     ((uint32_t)ep->type << 18) |
 1221              		.loc 1 600 40 view .LVU396
 1222 0036 8B68     		ldr	r3, [r1, #8]
 600:Drivers/STM32H7xx_HAL_Driver/Src/stm32h7xx_ll_usb.c ****                                     ((uint32_t)ep->type << 18) |
 1223              		.loc 1 600 52 view .LVU397
 1224 0038 C3F30A03 		ubfx	r3, r3, #0, #11
 601:Drivers/STM32H7xx_HAL_Driver/Src/stm32h7xx_ll_usb.c ****                                     USB_OTG_DIEPCTL_SD0PID_SEVNFRM |
 1225              		.loc 1 601 50 view .LVU398
 1226 003c 0979     		ldrb	r1, [r1, #4]	@ zero_extendqisi2
 1227              	.LVL74:
 600:Drivers/STM32H7xx_HAL_Driver/Src/stm32h7xx_ll_usb.c ****                                     ((uint32_t)ep->type << 18) |
 1228              		.loc 1 600 77 view .LVU399
 1229 003e 43EA8143 		orr	r3, r3, r1, lsl #18
 600:Drivers/STM32H7xx_HAL_Driver/Src/stm32h7xx_ll_usb.c ****                                     ((uint32_t)ep->type << 18) |
 1230              		.loc 1 600 34 view .LVU400
 1231 0042 1A43     		orrs	r2, r2, r3
 1232 0044 134B     		ldr	r3, .L94
 1233 0046 1343     		orrs	r3, r3, r2
 1234 0048 C0F8003B 		str	r3, [r0, #2816]
 1235              	.LVL75:
 1236              	.L91:
 606:Drivers/STM32H7xx_HAL_Driver/Src/stm32h7xx_ll_usb.c **** }
 1237              		.loc 1 606 3 is_stmt 1 view .LVU401
 607:Drivers/STM32H7xx_HAL_Driver/Src/stm32h7xx_ll_usb.c **** 
 1238              		.loc 1 607 1 is_stmt 0 view .LVU402
 1239 004c 0020     		movs	r0, #0
 1240 004e 10BD     		pop	{r4, pc}
 1241              	.LVL76:
 1242              	.L93:
 584:Drivers/STM32H7xx_HAL_Driver/Src/stm32h7xx_ll_usb.c **** 
 1243              		.loc 1 584 5 is_stmt 1 view .LVU403
 584:Drivers/STM32H7xx_HAL_Driver/Src/stm32h7xx_ll_usb.c **** 
 1244              		.loc 1 584 16 is_stmt 0 view .LVU404
 1245 0050 D0F81C28 		ldr	r2, [r0, #2076]
 584:Drivers/STM32H7xx_HAL_Driver/Src/stm32h7xx_ll_usb.c **** 
 1246              		.loc 1 584 81 view .LVU405
 1247 0054 0CF00F0E 		and	lr, ip, #15
 584:Drivers/STM32H7xx_HAL_Driver/Src/stm32h7xx_ll_usb.c **** 
 1248              		.loc 1 584 54 view .LVU406
 1249 0058 03FA0EF3 		lsl	r3, r3, lr
 584:Drivers/STM32H7xx_HAL_Driver/Src/stm32h7xx_ll_usb.c **** 
ARM GAS  C:\Users\Nathan\AppData\Local\Temp\cc7cwqzo.s 			page 54


 1250              		.loc 1 584 52 view .LVU407
 1251 005c 9BB2     		uxth	r3, r3
 584:Drivers/STM32H7xx_HAL_Driver/Src/stm32h7xx_ll_usb.c **** 
 1252              		.loc 1 584 27 view .LVU408
 1253 005e 1343     		orrs	r3, r3, r2
 1254 0060 C0F81C38 		str	r3, [r0, #2076]
 586:Drivers/STM32H7xx_HAL_Driver/Src/stm32h7xx_ll_usb.c ****     {
 1255              		.loc 1 586 5 is_stmt 1 view .LVU409
 586:Drivers/STM32H7xx_HAL_Driver/Src/stm32h7xx_ll_usb.c ****     {
 1256              		.loc 1 586 10 is_stmt 0 view .LVU410
 1257 0064 00EB4C10 		add	r0, r0, ip, lsl #5
 1258              	.LVL77:
 586:Drivers/STM32H7xx_HAL_Driver/Src/stm32h7xx_ll_usb.c ****     {
 1259              		.loc 1 586 26 view .LVU411
 1260 0068 D0F80039 		ldr	r3, [r0, #2304]
 586:Drivers/STM32H7xx_HAL_Driver/Src/stm32h7xx_ll_usb.c ****     {
 1261              		.loc 1 586 8 view .LVU412
 1262 006c 13F4004F 		tst	r3, #32768
 1263 0070 ECD1     		bne	.L91
 588:Drivers/STM32H7xx_HAL_Driver/Src/stm32h7xx_ll_usb.c ****                                    ((uint32_t)ep->type << 18) | (epnum << 22) |
 1264              		.loc 1 588 7 is_stmt 1 view .LVU413
 588:Drivers/STM32H7xx_HAL_Driver/Src/stm32h7xx_ll_usb.c ****                                    ((uint32_t)ep->type << 18) | (epnum << 22) |
 1265              		.loc 1 588 23 is_stmt 0 view .LVU414
 1266 0072 D0F80029 		ldr	r2, [r0, #2304]
 588:Drivers/STM32H7xx_HAL_Driver/Src/stm32h7xx_ll_usb.c ****                                    ((uint32_t)ep->type << 18) | (epnum << 22) |
 1267              		.loc 1 588 39 view .LVU415
 1268 0076 8B68     		ldr	r3, [r1, #8]
 588:Drivers/STM32H7xx_HAL_Driver/Src/stm32h7xx_ll_usb.c ****                                    ((uint32_t)ep->type << 18) | (epnum << 22) |
 1269              		.loc 1 588 51 view .LVU416
 1270 0078 C3F30A03 		ubfx	r3, r3, #0, #11
 589:Drivers/STM32H7xx_HAL_Driver/Src/stm32h7xx_ll_usb.c ****                                    USB_OTG_DIEPCTL_SD0PID_SEVNFRM |
 1271              		.loc 1 589 49 view .LVU417
 1272 007c 0979     		ldrb	r1, [r1, #4]	@ zero_extendqisi2
 1273              	.LVL78:
 588:Drivers/STM32H7xx_HAL_Driver/Src/stm32h7xx_ll_usb.c ****                                    ((uint32_t)ep->type << 18) | (epnum << 22) |
 1274              		.loc 1 588 76 view .LVU418
 1275 007e 43EA8143 		orr	r3, r3, r1, lsl #18
 589:Drivers/STM32H7xx_HAL_Driver/Src/stm32h7xx_ll_usb.c ****                                    USB_OTG_DIEPCTL_SD0PID_SEVNFRM |
 1276              		.loc 1 589 63 view .LVU419
 1277 0082 43EA8C53 		orr	r3, r3, ip, lsl #22
 588:Drivers/STM32H7xx_HAL_Driver/Src/stm32h7xx_ll_usb.c ****                                    ((uint32_t)ep->type << 18) | (epnum << 22) |
 1278              		.loc 1 588 33 view .LVU420
 1279 0086 1A43     		orrs	r2, r2, r3
 1280 0088 024B     		ldr	r3, .L94
 1281 008a 1343     		orrs	r3, r3, r2
 1282 008c C0F80039 		str	r3, [r0, #2304]
 1283 0090 DCE7     		b	.L91
 1284              	.L95:
 1285 0092 00BF     		.align	2
 1286              	.L94:
 1287 0094 00800010 		.word	268468224
 1288              		.cfi_endproc
 1289              	.LFE154:
 1291              		.section	.text.USB_ActivateDedicatedEndpoint,"ax",%progbits
 1292              		.align	1
 1293              		.global	USB_ActivateDedicatedEndpoint
 1294              		.syntax unified
ARM GAS  C:\Users\Nathan\AppData\Local\Temp\cc7cwqzo.s 			page 55


 1295              		.thumb
 1296              		.thumb_func
 1298              	USB_ActivateDedicatedEndpoint:
 1299              	.LVL79:
 1300              	.LFB155:
 616:Drivers/STM32H7xx_HAL_Driver/Src/stm32h7xx_ll_usb.c ****   uint32_t USBx_BASE = (uint32_t)USBx;
 1301              		.loc 1 616 1 is_stmt 1 view -0
 1302              		.cfi_startproc
 1303              		@ args = 0, pretend = 0, frame = 0
 1304              		@ frame_needed = 0, uses_anonymous_args = 0
 1305              		@ link register save eliminated.
 616:Drivers/STM32H7xx_HAL_Driver/Src/stm32h7xx_ll_usb.c ****   uint32_t USBx_BASE = (uint32_t)USBx;
 1306              		.loc 1 616 1 is_stmt 0 view .LVU422
 1307 0000 30B4     		push	{r4, r5}
 1308              		.cfi_def_cfa_offset 8
 1309              		.cfi_offset 4, -8
 1310              		.cfi_offset 5, -4
 617:Drivers/STM32H7xx_HAL_Driver/Src/stm32h7xx_ll_usb.c ****   uint32_t epnum = (uint32_t)ep->num;
 1311              		.loc 1 617 3 is_stmt 1 view .LVU423
 1312              	.LVL80:
 618:Drivers/STM32H7xx_HAL_Driver/Src/stm32h7xx_ll_usb.c **** 
 1313              		.loc 1 618 3 view .LVU424
 618:Drivers/STM32H7xx_HAL_Driver/Src/stm32h7xx_ll_usb.c **** 
 1314              		.loc 1 618 32 is_stmt 0 view .LVU425
 1315 0002 0A78     		ldrb	r2, [r1]	@ zero_extendqisi2
 1316              	.LVL81:
 621:Drivers/STM32H7xx_HAL_Driver/Src/stm32h7xx_ll_usb.c ****   {
 1317              		.loc 1 621 3 is_stmt 1 view .LVU426
 621:Drivers/STM32H7xx_HAL_Driver/Src/stm32h7xx_ll_usb.c ****   {
 1318              		.loc 1 621 9 is_stmt 0 view .LVU427
 1319 0004 4B78     		ldrb	r3, [r1, #1]	@ zero_extendqisi2
 621:Drivers/STM32H7xx_HAL_Driver/Src/stm32h7xx_ll_usb.c ****   {
 1320              		.loc 1 621 6 view .LVU428
 1321 0006 012B     		cmp	r3, #1
 1322 0008 23D0     		beq	.L102
 635:Drivers/STM32H7xx_HAL_Driver/Src/stm32h7xx_ll_usb.c ****     {
 1323              		.loc 1 635 5 is_stmt 1 view .LVU429
 635:Drivers/STM32H7xx_HAL_Driver/Src/stm32h7xx_ll_usb.c ****     {
 1324              		.loc 1 635 11 is_stmt 0 view .LVU430
 1325 000a 00EB421C 		add	ip, r0, r2, lsl #5
 635:Drivers/STM32H7xx_HAL_Driver/Src/stm32h7xx_ll_usb.c ****     {
 1326              		.loc 1 635 28 view .LVU431
 1327 000e DCF8003B 		ldr	r3, [ip, #2816]
 635:Drivers/STM32H7xx_HAL_Driver/Src/stm32h7xx_ll_usb.c ****     {
 1328              		.loc 1 635 8 view .LVU432
 1329 0012 13F4004F 		tst	r3, #32768
 1330 0016 0ED1     		bne	.L100
 637:Drivers/STM32H7xx_HAL_Driver/Src/stm32h7xx_ll_usb.c ****                                     ((uint32_t)ep->type << 18) | (epnum << 22) |
 1331              		.loc 1 637 7 is_stmt 1 view .LVU433
 637:Drivers/STM32H7xx_HAL_Driver/Src/stm32h7xx_ll_usb.c ****                                     ((uint32_t)ep->type << 18) | (epnum << 22) |
 1332              		.loc 1 637 24 is_stmt 0 view .LVU434
 1333 0018 DCF8004B 		ldr	r4, [ip, #2816]
 637:Drivers/STM32H7xx_HAL_Driver/Src/stm32h7xx_ll_usb.c ****                                     ((uint32_t)ep->type << 18) | (epnum << 22) |
 1334              		.loc 1 637 40 view .LVU435
 1335 001c 8B68     		ldr	r3, [r1, #8]
 637:Drivers/STM32H7xx_HAL_Driver/Src/stm32h7xx_ll_usb.c ****                                     ((uint32_t)ep->type << 18) | (epnum << 22) |
 1336              		.loc 1 637 52 view .LVU436
ARM GAS  C:\Users\Nathan\AppData\Local\Temp\cc7cwqzo.s 			page 56


 1337 001e C3F30A03 		ubfx	r3, r3, #0, #11
 638:Drivers/STM32H7xx_HAL_Driver/Src/stm32h7xx_ll_usb.c ****                                     USB_OTG_DOEPCTL_USBAEP;
 1338              		.loc 1 638 50 view .LVU437
 1339 0022 0D79     		ldrb	r5, [r1, #4]	@ zero_extendqisi2
 637:Drivers/STM32H7xx_HAL_Driver/Src/stm32h7xx_ll_usb.c ****                                     ((uint32_t)ep->type << 18) | (epnum << 22) |
 1340              		.loc 1 637 77 view .LVU438
 1341 0024 43EA8543 		orr	r3, r3, r5, lsl #18
 638:Drivers/STM32H7xx_HAL_Driver/Src/stm32h7xx_ll_usb.c ****                                     USB_OTG_DOEPCTL_USBAEP;
 1342              		.loc 1 638 64 view .LVU439
 1343 0028 43EA8253 		orr	r3, r3, r2, lsl #22
 637:Drivers/STM32H7xx_HAL_Driver/Src/stm32h7xx_ll_usb.c ****                                     ((uint32_t)ep->type << 18) | (epnum << 22) |
 1344              		.loc 1 637 34 view .LVU440
 1345 002c 2343     		orrs	r3, r3, r4
 1346 002e 43F40043 		orr	r3, r3, #32768
 1347 0032 CCF8003B 		str	r3, [ip, #2816]
 1348              	.L100:
 642:Drivers/STM32H7xx_HAL_Driver/Src/stm32h7xx_ll_usb.c ****   }
 1349              		.loc 1 642 5 is_stmt 1 view .LVU441
 642:Drivers/STM32H7xx_HAL_Driver/Src/stm32h7xx_ll_usb.c ****   }
 1350              		.loc 1 642 16 is_stmt 0 view .LVU442
 1351 0036 D0F83C38 		ldr	r3, [r0, #2108]
 642:Drivers/STM32H7xx_HAL_Driver/Src/stm32h7xx_ll_usb.c ****   }
 1352              		.loc 1 642 76 view .LVU443
 1353 003a 0978     		ldrb	r1, [r1]	@ zero_extendqisi2
 1354              	.LVL82:
 642:Drivers/STM32H7xx_HAL_Driver/Src/stm32h7xx_ll_usb.c ****   }
 1355              		.loc 1 642 82 view .LVU444
 1356 003c 01F00F01 		and	r1, r1, #15
 642:Drivers/STM32H7xx_HAL_Driver/Src/stm32h7xx_ll_usb.c ****   }
 1357              		.loc 1 642 55 view .LVU445
 1358 0040 0122     		movs	r2, #1
 1359              	.LVL83:
 642:Drivers/STM32H7xx_HAL_Driver/Src/stm32h7xx_ll_usb.c ****   }
 1360              		.loc 1 642 55 view .LVU446
 1361 0042 8A40     		lsls	r2, r2, r1
 642:Drivers/STM32H7xx_HAL_Driver/Src/stm32h7xx_ll_usb.c ****   }
 1362              		.loc 1 642 27 view .LVU447
 1363 0044 43EA0243 		orr	r3, r3, r2, lsl #16
 1364 0048 C0F83C38 		str	r3, [r0, #2108]
 1365              	.L99:
 645:Drivers/STM32H7xx_HAL_Driver/Src/stm32h7xx_ll_usb.c **** }
 1366              		.loc 1 645 3 is_stmt 1 view .LVU448
 646:Drivers/STM32H7xx_HAL_Driver/Src/stm32h7xx_ll_usb.c **** 
 1367              		.loc 1 646 1 is_stmt 0 view .LVU449
 1368 004c 0020     		movs	r0, #0
 1369              	.LVL84:
 646:Drivers/STM32H7xx_HAL_Driver/Src/stm32h7xx_ll_usb.c **** 
 1370              		.loc 1 646 1 view .LVU450
 1371 004e 30BC     		pop	{r4, r5}
 1372              		.cfi_remember_state
 1373              		.cfi_restore 5
 1374              		.cfi_restore 4
 1375              		.cfi_def_cfa_offset 0
 1376 0050 7047     		bx	lr
 1377              	.LVL85:
 1378              	.L102:
 1379              		.cfi_restore_state
ARM GAS  C:\Users\Nathan\AppData\Local\Temp\cc7cwqzo.s 			page 57


 623:Drivers/STM32H7xx_HAL_Driver/Src/stm32h7xx_ll_usb.c ****     {
 1380              		.loc 1 623 5 is_stmt 1 view .LVU451
 623:Drivers/STM32H7xx_HAL_Driver/Src/stm32h7xx_ll_usb.c ****     {
 1381              		.loc 1 623 11 is_stmt 0 view .LVU452
 1382 0052 00EB4214 		add	r4, r0, r2, lsl #5
 623:Drivers/STM32H7xx_HAL_Driver/Src/stm32h7xx_ll_usb.c ****     {
 1383              		.loc 1 623 27 view .LVU453
 1384 0056 D4F80039 		ldr	r3, [r4, #2304]
 623:Drivers/STM32H7xx_HAL_Driver/Src/stm32h7xx_ll_usb.c ****     {
 1385              		.loc 1 623 8 view .LVU454
 1386 005a 13F4004F 		tst	r3, #32768
 1387 005e 10D1     		bne	.L98
 625:Drivers/STM32H7xx_HAL_Driver/Src/stm32h7xx_ll_usb.c ****                                    ((uint32_t)ep->type << 18) | (epnum << 22) |
 1388              		.loc 1 625 7 is_stmt 1 view .LVU455
 625:Drivers/STM32H7xx_HAL_Driver/Src/stm32h7xx_ll_usb.c ****                                    ((uint32_t)ep->type << 18) | (epnum << 22) |
 1389              		.loc 1 625 23 is_stmt 0 view .LVU456
 1390 0060 D4F80059 		ldr	r5, [r4, #2304]
 625:Drivers/STM32H7xx_HAL_Driver/Src/stm32h7xx_ll_usb.c ****                                    ((uint32_t)ep->type << 18) | (epnum << 22) |
 1391              		.loc 1 625 39 view .LVU457
 1392 0064 8B68     		ldr	r3, [r1, #8]
 625:Drivers/STM32H7xx_HAL_Driver/Src/stm32h7xx_ll_usb.c ****                                    ((uint32_t)ep->type << 18) | (epnum << 22) |
 1393              		.loc 1 625 51 view .LVU458
 1394 0066 C3F30A03 		ubfx	r3, r3, #0, #11
 626:Drivers/STM32H7xx_HAL_Driver/Src/stm32h7xx_ll_usb.c ****                                    USB_OTG_DIEPCTL_SD0PID_SEVNFRM |
 1395              		.loc 1 626 49 view .LVU459
 1396 006a 91F804C0 		ldrb	ip, [r1, #4]	@ zero_extendqisi2
 625:Drivers/STM32H7xx_HAL_Driver/Src/stm32h7xx_ll_usb.c ****                                    ((uint32_t)ep->type << 18) | (epnum << 22) |
 1397              		.loc 1 625 76 view .LVU460
 1398 006e 43EA8C43 		orr	r3, r3, ip, lsl #18
 626:Drivers/STM32H7xx_HAL_Driver/Src/stm32h7xx_ll_usb.c ****                                    USB_OTG_DIEPCTL_SD0PID_SEVNFRM |
 1399              		.loc 1 626 63 view .LVU461
 1400 0072 43EA8253 		orr	r3, r3, r2, lsl #22
 625:Drivers/STM32H7xx_HAL_Driver/Src/stm32h7xx_ll_usb.c ****                                    ((uint32_t)ep->type << 18) | (epnum << 22) |
 1401              		.loc 1 625 33 view .LVU462
 1402 0076 45EA0302 		orr	r2, r5, r3
 1403              	.LVL86:
 625:Drivers/STM32H7xx_HAL_Driver/Src/stm32h7xx_ll_usb.c ****                                    ((uint32_t)ep->type << 18) | (epnum << 22) |
 1404              		.loc 1 625 33 view .LVU463
 1405 007a 084B     		ldr	r3, .L103
 1406 007c 1343     		orrs	r3, r3, r2
 1407 007e C4F80039 		str	r3, [r4, #2304]
 1408              	.LVL87:
 1409              	.L98:
 631:Drivers/STM32H7xx_HAL_Driver/Src/stm32h7xx_ll_usb.c ****   }
 1410              		.loc 1 631 5 is_stmt 1 view .LVU464
 631:Drivers/STM32H7xx_HAL_Driver/Src/stm32h7xx_ll_usb.c ****   }
 1411              		.loc 1 631 16 is_stmt 0 view .LVU465
 1412 0082 D0F83C28 		ldr	r2, [r0, #2108]
 631:Drivers/STM32H7xx_HAL_Driver/Src/stm32h7xx_ll_usb.c ****   }
 1413              		.loc 1 631 75 view .LVU466
 1414 0086 0978     		ldrb	r1, [r1]	@ zero_extendqisi2
 1415              	.LVL88:
 631:Drivers/STM32H7xx_HAL_Driver/Src/stm32h7xx_ll_usb.c ****   }
 1416              		.loc 1 631 81 view .LVU467
 1417 0088 01F00F01 		and	r1, r1, #15
 631:Drivers/STM32H7xx_HAL_Driver/Src/stm32h7xx_ll_usb.c ****   }
 1418              		.loc 1 631 54 view .LVU468
ARM GAS  C:\Users\Nathan\AppData\Local\Temp\cc7cwqzo.s 			page 58


 1419 008c 0123     		movs	r3, #1
 1420 008e 8B40     		lsls	r3, r3, r1
 631:Drivers/STM32H7xx_HAL_Driver/Src/stm32h7xx_ll_usb.c ****   }
 1421              		.loc 1 631 52 view .LVU469
 1422 0090 9BB2     		uxth	r3, r3
 631:Drivers/STM32H7xx_HAL_Driver/Src/stm32h7xx_ll_usb.c ****   }
 1423              		.loc 1 631 27 view .LVU470
 1424 0092 1343     		orrs	r3, r3, r2
 1425 0094 C0F83C38 		str	r3, [r0, #2108]
 1426 0098 D8E7     		b	.L99
 1427              	.L104:
 1428 009a 00BF     		.align	2
 1429              	.L103:
 1430 009c 00800010 		.word	268468224
 1431              		.cfi_endproc
 1432              	.LFE155:
 1434              		.section	.text.USB_DeactivateEndpoint,"ax",%progbits
 1435              		.align	1
 1436              		.global	USB_DeactivateEndpoint
 1437              		.syntax unified
 1438              		.thumb
 1439              		.thumb_func
 1441              	USB_DeactivateEndpoint:
 1442              	.LVL89:
 1443              	.LFB156:
 655:Drivers/STM32H7xx_HAL_Driver/Src/stm32h7xx_ll_usb.c ****   uint32_t USBx_BASE = (uint32_t)USBx;
 1444              		.loc 1 655 1 is_stmt 1 view -0
 1445              		.cfi_startproc
 1446              		@ args = 0, pretend = 0, frame = 0
 1447              		@ frame_needed = 0, uses_anonymous_args = 0
 1448              		@ link register save eliminated.
 655:Drivers/STM32H7xx_HAL_Driver/Src/stm32h7xx_ll_usb.c ****   uint32_t USBx_BASE = (uint32_t)USBx;
 1449              		.loc 1 655 1 is_stmt 0 view .LVU472
 1450 0000 30B4     		push	{r4, r5}
 1451              		.cfi_def_cfa_offset 8
 1452              		.cfi_offset 4, -8
 1453              		.cfi_offset 5, -4
 656:Drivers/STM32H7xx_HAL_Driver/Src/stm32h7xx_ll_usb.c ****   uint32_t epnum = (uint32_t)ep->num;
 1454              		.loc 1 656 3 is_stmt 1 view .LVU473
 1455              	.LVL90:
 657:Drivers/STM32H7xx_HAL_Driver/Src/stm32h7xx_ll_usb.c **** 
 1456              		.loc 1 657 3 view .LVU474
 657:Drivers/STM32H7xx_HAL_Driver/Src/stm32h7xx_ll_usb.c **** 
 1457              		.loc 1 657 32 is_stmt 0 view .LVU475
 1458 0002 0B78     		ldrb	r3, [r1]	@ zero_extendqisi2
 1459              	.LVL91:
 660:Drivers/STM32H7xx_HAL_Driver/Src/stm32h7xx_ll_usb.c ****   {
 1460              		.loc 1 660 3 is_stmt 1 view .LVU476
 660:Drivers/STM32H7xx_HAL_Driver/Src/stm32h7xx_ll_usb.c ****   {
 1461              		.loc 1 660 9 is_stmt 0 view .LVU477
 1462 0004 4A78     		ldrb	r2, [r1, #1]	@ zero_extendqisi2
 660:Drivers/STM32H7xx_HAL_Driver/Src/stm32h7xx_ll_usb.c ****   {
 1463              		.loc 1 660 6 view .LVU478
 1464 0006 012A     		cmp	r2, #1
 1465 0008 26D0     		beq	.L111
 678:Drivers/STM32H7xx_HAL_Driver/Src/stm32h7xx_ll_usb.c ****     {
 1466              		.loc 1 678 5 is_stmt 1 view .LVU479
ARM GAS  C:\Users\Nathan\AppData\Local\Temp\cc7cwqzo.s 			page 59


 678:Drivers/STM32H7xx_HAL_Driver/Src/stm32h7xx_ll_usb.c ****     {
 1467              		.loc 1 678 10 is_stmt 0 view .LVU480
 1468 000a 00EB4313 		add	r3, r0, r3, lsl #5
 1469              	.LVL92:
 678:Drivers/STM32H7xx_HAL_Driver/Src/stm32h7xx_ll_usb.c ****     {
 1470              		.loc 1 678 27 view .LVU481
 1471 000e D3F8002B 		ldr	r2, [r3, #2816]
 678:Drivers/STM32H7xx_HAL_Driver/Src/stm32h7xx_ll_usb.c ****     {
 1472              		.loc 1 678 8 view .LVU482
 1473 0012 002A     		cmp	r2, #0
 1474 0014 52DB     		blt	.L112
 1475              	.LVL93:
 1476              	.L109:
 684:Drivers/STM32H7xx_HAL_Driver/Src/stm32h7xx_ll_usb.c ****     USBx_DEVICE->DAINTMSK &= ~(USB_OTG_DAINTMSK_OEPM & ((uint32_t)(1UL << (ep->num & EP_ADDR_MSK)) 
 1477              		.loc 1 684 5 is_stmt 1 view .LVU483
 684:Drivers/STM32H7xx_HAL_Driver/Src/stm32h7xx_ll_usb.c ****     USBx_DEVICE->DAINTMSK &= ~(USB_OTG_DAINTMSK_OEPM & ((uint32_t)(1UL << (ep->num & EP_ADDR_MSK)) 
 1478              		.loc 1 684 16 is_stmt 0 view .LVU484
 1479 0016 D0F83C48 		ldr	r4, [r0, #2108]
 684:Drivers/STM32H7xx_HAL_Driver/Src/stm32h7xx_ll_usb.c ****     USBx_DEVICE->DAINTMSK &= ~(USB_OTG_DAINTMSK_OEPM & ((uint32_t)(1UL << (ep->num & EP_ADDR_MSK)) 
 1480              		.loc 1 684 78 view .LVU485
 1481 001a 0A78     		ldrb	r2, [r1]	@ zero_extendqisi2
 684:Drivers/STM32H7xx_HAL_Driver/Src/stm32h7xx_ll_usb.c ****     USBx_DEVICE->DAINTMSK &= ~(USB_OTG_DAINTMSK_OEPM & ((uint32_t)(1UL << (ep->num & EP_ADDR_MSK)) 
 1482              		.loc 1 684 84 view .LVU486
 1483 001c 02F00F02 		and	r2, r2, #15
 684:Drivers/STM32H7xx_HAL_Driver/Src/stm32h7xx_ll_usb.c ****     USBx_DEVICE->DAINTMSK &= ~(USB_OTG_DAINTMSK_OEPM & ((uint32_t)(1UL << (ep->num & EP_ADDR_MSK)) 
 1484              		.loc 1 684 57 view .LVU487
 1485 0020 4FF0010C 		mov	ip, #1
 1486 0024 0CFA02F2 		lsl	r2, ip, r2
 684:Drivers/STM32H7xx_HAL_Driver/Src/stm32h7xx_ll_usb.c ****     USBx_DEVICE->DAINTMSK &= ~(USB_OTG_DAINTMSK_OEPM & ((uint32_t)(1UL << (ep->num & EP_ADDR_MSK)) 
 1487              		.loc 1 684 27 view .LVU488
 1488 0028 24EA0242 		bic	r2, r4, r2, lsl #16
 1489 002c C0F83C28 		str	r2, [r0, #2108]
 685:Drivers/STM32H7xx_HAL_Driver/Src/stm32h7xx_ll_usb.c ****     USBx_OUTEP(epnum)->DOEPCTL &= ~(USB_OTG_DOEPCTL_USBAEP |
 1490              		.loc 1 685 5 is_stmt 1 view .LVU489
 685:Drivers/STM32H7xx_HAL_Driver/Src/stm32h7xx_ll_usb.c ****     USBx_OUTEP(epnum)->DOEPCTL &= ~(USB_OTG_DOEPCTL_USBAEP |
 1491              		.loc 1 685 16 is_stmt 0 view .LVU490
 1492 0030 D0F81C28 		ldr	r2, [r0, #2076]
 685:Drivers/STM32H7xx_HAL_Driver/Src/stm32h7xx_ll_usb.c ****     USBx_OUTEP(epnum)->DOEPCTL &= ~(USB_OTG_DOEPCTL_USBAEP |
 1493              		.loc 1 685 78 view .LVU491
 1494 0034 0978     		ldrb	r1, [r1]	@ zero_extendqisi2
 1495              	.LVL94:
 685:Drivers/STM32H7xx_HAL_Driver/Src/stm32h7xx_ll_usb.c ****     USBx_OUTEP(epnum)->DOEPCTL &= ~(USB_OTG_DOEPCTL_USBAEP |
 1496              		.loc 1 685 84 view .LVU492
 1497 0036 01F00F01 		and	r1, r1, #15
 685:Drivers/STM32H7xx_HAL_Driver/Src/stm32h7xx_ll_usb.c ****     USBx_OUTEP(epnum)->DOEPCTL &= ~(USB_OTG_DOEPCTL_USBAEP |
 1498              		.loc 1 685 57 view .LVU493
 1499 003a 0CFA01FC 		lsl	ip, ip, r1
 685:Drivers/STM32H7xx_HAL_Driver/Src/stm32h7xx_ll_usb.c ****     USBx_OUTEP(epnum)->DOEPCTL &= ~(USB_OTG_DOEPCTL_USBAEP |
 1500              		.loc 1 685 27 view .LVU494
 1501 003e 22EA0C42 		bic	r2, r2, ip, lsl #16
 1502 0042 C0F81C28 		str	r2, [r0, #2076]
 686:Drivers/STM32H7xx_HAL_Driver/Src/stm32h7xx_ll_usb.c ****                                     USB_OTG_DOEPCTL_MPSIZ |
 1503              		.loc 1 686 5 is_stmt 1 view .LVU495
 686:Drivers/STM32H7xx_HAL_Driver/Src/stm32h7xx_ll_usb.c ****                                     USB_OTG_DOEPCTL_MPSIZ |
 1504              		.loc 1 686 22 is_stmt 0 view .LVU496
 1505 0046 D3F8001B 		ldr	r1, [r3, #2816]
 686:Drivers/STM32H7xx_HAL_Driver/Src/stm32h7xx_ll_usb.c ****                                     USB_OTG_DOEPCTL_MPSIZ |
ARM GAS  C:\Users\Nathan\AppData\Local\Temp\cc7cwqzo.s 			page 60


 1506              		.loc 1 686 32 view .LVU497
 1507 004a 234A     		ldr	r2, .L114
 1508 004c 0A40     		ands	r2, r2, r1
 1509 004e C3F8002B 		str	r2, [r3, #2816]
 1510              	.L108:
 692:Drivers/STM32H7xx_HAL_Driver/Src/stm32h7xx_ll_usb.c **** }
 1511              		.loc 1 692 3 is_stmt 1 view .LVU498
 693:Drivers/STM32H7xx_HAL_Driver/Src/stm32h7xx_ll_usb.c **** 
 1512              		.loc 1 693 1 is_stmt 0 view .LVU499
 1513 0052 0020     		movs	r0, #0
 1514              	.LVL95:
 693:Drivers/STM32H7xx_HAL_Driver/Src/stm32h7xx_ll_usb.c **** 
 1515              		.loc 1 693 1 view .LVU500
 1516 0054 30BC     		pop	{r4, r5}
 1517              		.cfi_remember_state
 1518              		.cfi_restore 5
 1519              		.cfi_restore 4
 1520              		.cfi_def_cfa_offset 0
 1521 0056 7047     		bx	lr
 1522              	.LVL96:
 1523              	.L111:
 1524              		.cfi_restore_state
 662:Drivers/STM32H7xx_HAL_Driver/Src/stm32h7xx_ll_usb.c ****     {
 1525              		.loc 1 662 5 is_stmt 1 view .LVU501
 662:Drivers/STM32H7xx_HAL_Driver/Src/stm32h7xx_ll_usb.c ****     {
 1526              		.loc 1 662 10 is_stmt 0 view .LVU502
 1527 0058 00EB4313 		add	r3, r0, r3, lsl #5
 1528              	.LVL97:
 662:Drivers/STM32H7xx_HAL_Driver/Src/stm32h7xx_ll_usb.c ****     {
 1529              		.loc 1 662 26 view .LVU503
 1530 005c D3F80029 		ldr	r2, [r3, #2304]
 662:Drivers/STM32H7xx_HAL_Driver/Src/stm32h7xx_ll_usb.c ****     {
 1531              		.loc 1 662 8 view .LVU504
 1532 0060 002A     		cmp	r2, #0
 1533 0062 1EDB     		blt	.L113
 1534              	.LVL98:
 1535              	.L107:
 668:Drivers/STM32H7xx_HAL_Driver/Src/stm32h7xx_ll_usb.c ****     USBx_DEVICE->DAINTMSK &= ~(USB_OTG_DAINTMSK_IEPM & (uint32_t)(1UL << (ep->num & EP_ADDR_MSK)));
 1536              		.loc 1 668 5 is_stmt 1 view .LVU505
 668:Drivers/STM32H7xx_HAL_Driver/Src/stm32h7xx_ll_usb.c ****     USBx_DEVICE->DAINTMSK &= ~(USB_OTG_DAINTMSK_IEPM & (uint32_t)(1UL << (ep->num & EP_ADDR_MSK)));
 1537              		.loc 1 668 16 is_stmt 0 view .LVU506
 1538 0064 D0F83C58 		ldr	r5, [r0, #2108]
 668:Drivers/STM32H7xx_HAL_Driver/Src/stm32h7xx_ll_usb.c ****     USBx_DEVICE->DAINTMSK &= ~(USB_OTG_DAINTMSK_IEPM & (uint32_t)(1UL << (ep->num & EP_ADDR_MSK)));
 1539              		.loc 1 668 77 view .LVU507
 1540 0068 0A78     		ldrb	r2, [r1]	@ zero_extendqisi2
 668:Drivers/STM32H7xx_HAL_Driver/Src/stm32h7xx_ll_usb.c ****     USBx_DEVICE->DAINTMSK &= ~(USB_OTG_DAINTMSK_IEPM & (uint32_t)(1UL << (ep->num & EP_ADDR_MSK)));
 1541              		.loc 1 668 83 view .LVU508
 1542 006a 02F00F02 		and	r2, r2, #15
 668:Drivers/STM32H7xx_HAL_Driver/Src/stm32h7xx_ll_usb.c ****     USBx_DEVICE->DAINTMSK &= ~(USB_OTG_DAINTMSK_IEPM & (uint32_t)(1UL << (ep->num & EP_ADDR_MSK)));
 1543              		.loc 1 668 56 view .LVU509
 1544 006e 0124     		movs	r4, #1
 1545 0070 04FA02F2 		lsl	r2, r4, r2
 668:Drivers/STM32H7xx_HAL_Driver/Src/stm32h7xx_ll_usb.c ****     USBx_DEVICE->DAINTMSK &= ~(USB_OTG_DAINTMSK_IEPM & (uint32_t)(1UL << (ep->num & EP_ADDR_MSK)));
 1546              		.loc 1 668 54 view .LVU510
 1547 0074 92B2     		uxth	r2, r2
 668:Drivers/STM32H7xx_HAL_Driver/Src/stm32h7xx_ll_usb.c ****     USBx_DEVICE->DAINTMSK &= ~(USB_OTG_DAINTMSK_IEPM & (uint32_t)(1UL << (ep->num & EP_ADDR_MSK)));
 1548              		.loc 1 668 27 view .LVU511
ARM GAS  C:\Users\Nathan\AppData\Local\Temp\cc7cwqzo.s 			page 61


 1549 0076 25EA0202 		bic	r2, r5, r2
 1550 007a C0F83C28 		str	r2, [r0, #2108]
 669:Drivers/STM32H7xx_HAL_Driver/Src/stm32h7xx_ll_usb.c ****     USBx_INEP(epnum)->DIEPCTL &= ~(USB_OTG_DIEPCTL_USBAEP |
 1551              		.loc 1 669 5 is_stmt 1 view .LVU512
 669:Drivers/STM32H7xx_HAL_Driver/Src/stm32h7xx_ll_usb.c ****     USBx_INEP(epnum)->DIEPCTL &= ~(USB_OTG_DIEPCTL_USBAEP |
 1552              		.loc 1 669 16 is_stmt 0 view .LVU513
 1553 007e D0F81C28 		ldr	r2, [r0, #2076]
 669:Drivers/STM32H7xx_HAL_Driver/Src/stm32h7xx_ll_usb.c ****     USBx_INEP(epnum)->DIEPCTL &= ~(USB_OTG_DIEPCTL_USBAEP |
 1554              		.loc 1 669 77 view .LVU514
 1555 0082 0978     		ldrb	r1, [r1]	@ zero_extendqisi2
 1556              	.LVL99:
 669:Drivers/STM32H7xx_HAL_Driver/Src/stm32h7xx_ll_usb.c ****     USBx_INEP(epnum)->DIEPCTL &= ~(USB_OTG_DIEPCTL_USBAEP |
 1557              		.loc 1 669 83 view .LVU515
 1558 0084 01F00F01 		and	r1, r1, #15
 669:Drivers/STM32H7xx_HAL_Driver/Src/stm32h7xx_ll_usb.c ****     USBx_INEP(epnum)->DIEPCTL &= ~(USB_OTG_DIEPCTL_USBAEP |
 1559              		.loc 1 669 56 view .LVU516
 1560 0088 8C40     		lsls	r4, r4, r1
 669:Drivers/STM32H7xx_HAL_Driver/Src/stm32h7xx_ll_usb.c ****     USBx_INEP(epnum)->DIEPCTL &= ~(USB_OTG_DIEPCTL_USBAEP |
 1561              		.loc 1 669 54 view .LVU517
 1562 008a A4B2     		uxth	r4, r4
 669:Drivers/STM32H7xx_HAL_Driver/Src/stm32h7xx_ll_usb.c ****     USBx_INEP(epnum)->DIEPCTL &= ~(USB_OTG_DIEPCTL_USBAEP |
 1563              		.loc 1 669 27 view .LVU518
 1564 008c 22EA0402 		bic	r2, r2, r4
 1565 0090 C0F81C28 		str	r2, [r0, #2076]
 670:Drivers/STM32H7xx_HAL_Driver/Src/stm32h7xx_ll_usb.c ****                                    USB_OTG_DIEPCTL_MPSIZ |
 1566              		.loc 1 670 5 is_stmt 1 view .LVU519
 670:Drivers/STM32H7xx_HAL_Driver/Src/stm32h7xx_ll_usb.c ****                                    USB_OTG_DIEPCTL_MPSIZ |
 1567              		.loc 1 670 21 is_stmt 0 view .LVU520
 1568 0094 D3F80019 		ldr	r1, [r3, #2304]
 670:Drivers/STM32H7xx_HAL_Driver/Src/stm32h7xx_ll_usb.c ****                                    USB_OTG_DIEPCTL_MPSIZ |
 1569              		.loc 1 670 31 view .LVU521
 1570 0098 104A     		ldr	r2, .L114+4
 1571 009a 0A40     		ands	r2, r2, r1
 1572 009c C3F80029 		str	r2, [r3, #2304]
 1573 00a0 D7E7     		b	.L108
 1574              	.LVL100:
 1575              	.L113:
 664:Drivers/STM32H7xx_HAL_Driver/Src/stm32h7xx_ll_usb.c ****       USBx_INEP(epnum)->DIEPCTL |= USB_OTG_DIEPCTL_EPDIS;
 1576              		.loc 1 664 7 is_stmt 1 view .LVU522
 664:Drivers/STM32H7xx_HAL_Driver/Src/stm32h7xx_ll_usb.c ****       USBx_INEP(epnum)->DIEPCTL |= USB_OTG_DIEPCTL_EPDIS;
 1577              		.loc 1 664 23 is_stmt 0 view .LVU523
 1578 00a2 D3F80029 		ldr	r2, [r3, #2304]
 664:Drivers/STM32H7xx_HAL_Driver/Src/stm32h7xx_ll_usb.c ****       USBx_INEP(epnum)->DIEPCTL |= USB_OTG_DIEPCTL_EPDIS;
 1579              		.loc 1 664 33 view .LVU524
 1580 00a6 42F00062 		orr	r2, r2, #134217728
 1581 00aa C3F80029 		str	r2, [r3, #2304]
 1582              	.LVL101:
 665:Drivers/STM32H7xx_HAL_Driver/Src/stm32h7xx_ll_usb.c ****     }
 1583              		.loc 1 665 7 is_stmt 1 view .LVU525
 665:Drivers/STM32H7xx_HAL_Driver/Src/stm32h7xx_ll_usb.c ****     }
 1584              		.loc 1 665 23 is_stmt 0 view .LVU526
 1585 00ae D3F80029 		ldr	r2, [r3, #2304]
 665:Drivers/STM32H7xx_HAL_Driver/Src/stm32h7xx_ll_usb.c ****     }
 1586              		.loc 1 665 33 view .LVU527
 1587 00b2 42F08042 		orr	r2, r2, #1073741824
 1588 00b6 C3F80029 		str	r2, [r3, #2304]
 1589 00ba D3E7     		b	.L107
ARM GAS  C:\Users\Nathan\AppData\Local\Temp\cc7cwqzo.s 			page 62


 1590              	.LVL102:
 1591              	.L112:
 680:Drivers/STM32H7xx_HAL_Driver/Src/stm32h7xx_ll_usb.c ****       USBx_OUTEP(epnum)->DOEPCTL |= USB_OTG_DOEPCTL_EPDIS;
 1592              		.loc 1 680 7 is_stmt 1 view .LVU528
 680:Drivers/STM32H7xx_HAL_Driver/Src/stm32h7xx_ll_usb.c ****       USBx_OUTEP(epnum)->DOEPCTL |= USB_OTG_DOEPCTL_EPDIS;
 1593              		.loc 1 680 24 is_stmt 0 view .LVU529
 1594 00bc D3F8002B 		ldr	r2, [r3, #2816]
 680:Drivers/STM32H7xx_HAL_Driver/Src/stm32h7xx_ll_usb.c ****       USBx_OUTEP(epnum)->DOEPCTL |= USB_OTG_DOEPCTL_EPDIS;
 1595              		.loc 1 680 34 view .LVU530
 1596 00c0 42F00062 		orr	r2, r2, #134217728
 1597 00c4 C3F8002B 		str	r2, [r3, #2816]
 1598              	.LVL103:
 681:Drivers/STM32H7xx_HAL_Driver/Src/stm32h7xx_ll_usb.c ****     }
 1599              		.loc 1 681 7 is_stmt 1 view .LVU531
 681:Drivers/STM32H7xx_HAL_Driver/Src/stm32h7xx_ll_usb.c ****     }
 1600              		.loc 1 681 24 is_stmt 0 view .LVU532
 1601 00c8 D3F8002B 		ldr	r2, [r3, #2816]
 681:Drivers/STM32H7xx_HAL_Driver/Src/stm32h7xx_ll_usb.c ****     }
 1602              		.loc 1 681 34 view .LVU533
 1603 00cc 42F08042 		orr	r2, r2, #1073741824
 1604 00d0 C3F8002B 		str	r2, [r3, #2816]
 1605 00d4 9FE7     		b	.L109
 1606              	.L115:
 1607 00d6 00BF     		.align	2
 1608              	.L114:
 1609 00d8 0078F3EF 		.word	-269256704
 1610 00dc 007833EC 		.word	-332171264
 1611              		.cfi_endproc
 1612              	.LFE156:
 1614              		.section	.text.USB_DeactivateDedicatedEndpoint,"ax",%progbits
 1615              		.align	1
 1616              		.global	USB_DeactivateDedicatedEndpoint
 1617              		.syntax unified
 1618              		.thumb
 1619              		.thumb_func
 1621              	USB_DeactivateDedicatedEndpoint:
 1622              	.LVL104:
 1623              	.LFB157:
 702:Drivers/STM32H7xx_HAL_Driver/Src/stm32h7xx_ll_usb.c ****   uint32_t USBx_BASE = (uint32_t)USBx;
 1624              		.loc 1 702 1 is_stmt 1 view -0
 1625              		.cfi_startproc
 1626              		@ args = 0, pretend = 0, frame = 0
 1627              		@ frame_needed = 0, uses_anonymous_args = 0
 1628              		@ link register save eliminated.
 703:Drivers/STM32H7xx_HAL_Driver/Src/stm32h7xx_ll_usb.c ****   uint32_t epnum = (uint32_t)ep->num;
 1629              		.loc 1 703 3 view .LVU535
 704:Drivers/STM32H7xx_HAL_Driver/Src/stm32h7xx_ll_usb.c **** 
 1630              		.loc 1 704 3 view .LVU536
 704:Drivers/STM32H7xx_HAL_Driver/Src/stm32h7xx_ll_usb.c **** 
 1631              		.loc 1 704 32 is_stmt 0 view .LVU537
 1632 0000 0B78     		ldrb	r3, [r1]	@ zero_extendqisi2
 1633              	.LVL105:
 707:Drivers/STM32H7xx_HAL_Driver/Src/stm32h7xx_ll_usb.c ****   {
 1634              		.loc 1 707 3 is_stmt 1 view .LVU538
 707:Drivers/STM32H7xx_HAL_Driver/Src/stm32h7xx_ll_usb.c ****   {
 1635              		.loc 1 707 9 is_stmt 0 view .LVU539
 1636 0002 4A78     		ldrb	r2, [r1, #1]	@ zero_extendqisi2
ARM GAS  C:\Users\Nathan\AppData\Local\Temp\cc7cwqzo.s 			page 63


 707:Drivers/STM32H7xx_HAL_Driver/Src/stm32h7xx_ll_usb.c ****   {
 1637              		.loc 1 707 6 view .LVU540
 1638 0004 012A     		cmp	r2, #1
 1639 0006 18D0     		beq	.L121
 720:Drivers/STM32H7xx_HAL_Driver/Src/stm32h7xx_ll_usb.c ****     {
 1640              		.loc 1 720 5 is_stmt 1 view .LVU541
 720:Drivers/STM32H7xx_HAL_Driver/Src/stm32h7xx_ll_usb.c ****     {
 1641              		.loc 1 720 10 is_stmt 0 view .LVU542
 1642 0008 00EB4313 		add	r3, r0, r3, lsl #5
 1643              	.LVL106:
 720:Drivers/STM32H7xx_HAL_Driver/Src/stm32h7xx_ll_usb.c ****     {
 1644              		.loc 1 720 27 view .LVU543
 1645 000c D3F8002B 		ldr	r2, [r3, #2816]
 720:Drivers/STM32H7xx_HAL_Driver/Src/stm32h7xx_ll_usb.c ****     {
 1646              		.loc 1 720 8 view .LVU544
 1647 0010 002A     		cmp	r2, #0
 1648 0012 38DB     		blt	.L122
 1649              	.LVL107:
 1650              	.L120:
 726:Drivers/STM32H7xx_HAL_Driver/Src/stm32h7xx_ll_usb.c ****     USBx_DEVICE->DAINTMSK &= ~(USB_OTG_DAINTMSK_OEPM & ((uint32_t)(1UL << (ep->num & EP_ADDR_MSK)) 
 1651              		.loc 1 726 5 is_stmt 1 view .LVU545
 726:Drivers/STM32H7xx_HAL_Driver/Src/stm32h7xx_ll_usb.c ****     USBx_DEVICE->DAINTMSK &= ~(USB_OTG_DAINTMSK_OEPM & ((uint32_t)(1UL << (ep->num & EP_ADDR_MSK)) 
 1652              		.loc 1 726 22 is_stmt 0 view .LVU546
 1653 0014 D3F8002B 		ldr	r2, [r3, #2816]
 726:Drivers/STM32H7xx_HAL_Driver/Src/stm32h7xx_ll_usb.c ****     USBx_DEVICE->DAINTMSK &= ~(USB_OTG_DAINTMSK_OEPM & ((uint32_t)(1UL << (ep->num & EP_ADDR_MSK)) 
 1654              		.loc 1 726 32 view .LVU547
 1655 0018 22F40042 		bic	r2, r2, #32768
 1656 001c C3F8002B 		str	r2, [r3, #2816]
 727:Drivers/STM32H7xx_HAL_Driver/Src/stm32h7xx_ll_usb.c ****   }
 1657              		.loc 1 727 5 is_stmt 1 view .LVU548
 727:Drivers/STM32H7xx_HAL_Driver/Src/stm32h7xx_ll_usb.c ****   }
 1658              		.loc 1 727 16 is_stmt 0 view .LVU549
 1659 0020 D0F81C38 		ldr	r3, [r0, #2076]
 727:Drivers/STM32H7xx_HAL_Driver/Src/stm32h7xx_ll_usb.c ****   }
 1660              		.loc 1 727 78 view .LVU550
 1661 0024 0978     		ldrb	r1, [r1]	@ zero_extendqisi2
 1662              	.LVL108:
 727:Drivers/STM32H7xx_HAL_Driver/Src/stm32h7xx_ll_usb.c ****   }
 1663              		.loc 1 727 84 view .LVU551
 1664 0026 01F00F01 		and	r1, r1, #15
 727:Drivers/STM32H7xx_HAL_Driver/Src/stm32h7xx_ll_usb.c ****   }
 1665              		.loc 1 727 57 view .LVU552
 1666 002a 0122     		movs	r2, #1
 1667 002c 8A40     		lsls	r2, r2, r1
 727:Drivers/STM32H7xx_HAL_Driver/Src/stm32h7xx_ll_usb.c ****   }
 1668              		.loc 1 727 27 view .LVU553
 1669 002e 23EA0243 		bic	r3, r3, r2, lsl #16
 1670 0032 C0F81C38 		str	r3, [r0, #2076]
 1671              	.L119:
 730:Drivers/STM32H7xx_HAL_Driver/Src/stm32h7xx_ll_usb.c **** }
 1672              		.loc 1 730 3 is_stmt 1 view .LVU554
 731:Drivers/STM32H7xx_HAL_Driver/Src/stm32h7xx_ll_usb.c **** 
 1673              		.loc 1 731 1 is_stmt 0 view .LVU555
 1674 0036 0020     		movs	r0, #0
 1675              	.LVL109:
 731:Drivers/STM32H7xx_HAL_Driver/Src/stm32h7xx_ll_usb.c **** 
 1676              		.loc 1 731 1 view .LVU556
ARM GAS  C:\Users\Nathan\AppData\Local\Temp\cc7cwqzo.s 			page 64


 1677 0038 7047     		bx	lr
 1678              	.LVL110:
 1679              	.L121:
 709:Drivers/STM32H7xx_HAL_Driver/Src/stm32h7xx_ll_usb.c ****     {
 1680              		.loc 1 709 5 is_stmt 1 view .LVU557
 709:Drivers/STM32H7xx_HAL_Driver/Src/stm32h7xx_ll_usb.c ****     {
 1681              		.loc 1 709 10 is_stmt 0 view .LVU558
 1682 003a 00EB4313 		add	r3, r0, r3, lsl #5
 1683              	.LVL111:
 709:Drivers/STM32H7xx_HAL_Driver/Src/stm32h7xx_ll_usb.c ****     {
 1684              		.loc 1 709 26 view .LVU559
 1685 003e D3F80029 		ldr	r2, [r3, #2304]
 709:Drivers/STM32H7xx_HAL_Driver/Src/stm32h7xx_ll_usb.c ****     {
 1686              		.loc 1 709 8 view .LVU560
 1687 0042 002A     		cmp	r2, #0
 1688 0044 12DB     		blt	.L123
 1689              	.LVL112:
 1690              	.L118:
 715:Drivers/STM32H7xx_HAL_Driver/Src/stm32h7xx_ll_usb.c ****     USBx_DEVICE->DAINTMSK &= ~(USB_OTG_DAINTMSK_IEPM & (uint32_t)(1UL << (ep->num & EP_ADDR_MSK)));
 1691              		.loc 1 715 5 is_stmt 1 view .LVU561
 715:Drivers/STM32H7xx_HAL_Driver/Src/stm32h7xx_ll_usb.c ****     USBx_DEVICE->DAINTMSK &= ~(USB_OTG_DAINTMSK_IEPM & (uint32_t)(1UL << (ep->num & EP_ADDR_MSK)));
 1692              		.loc 1 715 21 is_stmt 0 view .LVU562
 1693 0046 D3F80029 		ldr	r2, [r3, #2304]
 715:Drivers/STM32H7xx_HAL_Driver/Src/stm32h7xx_ll_usb.c ****     USBx_DEVICE->DAINTMSK &= ~(USB_OTG_DAINTMSK_IEPM & (uint32_t)(1UL << (ep->num & EP_ADDR_MSK)));
 1694              		.loc 1 715 31 view .LVU563
 1695 004a 22F40042 		bic	r2, r2, #32768
 1696 004e C3F80029 		str	r2, [r3, #2304]
 716:Drivers/STM32H7xx_HAL_Driver/Src/stm32h7xx_ll_usb.c ****   }
 1697              		.loc 1 716 5 is_stmt 1 view .LVU564
 716:Drivers/STM32H7xx_HAL_Driver/Src/stm32h7xx_ll_usb.c ****   }
 1698              		.loc 1 716 16 is_stmt 0 view .LVU565
 1699 0052 D0F81C28 		ldr	r2, [r0, #2076]
 716:Drivers/STM32H7xx_HAL_Driver/Src/stm32h7xx_ll_usb.c ****   }
 1700              		.loc 1 716 77 view .LVU566
 1701 0056 0978     		ldrb	r1, [r1]	@ zero_extendqisi2
 1702              	.LVL113:
 716:Drivers/STM32H7xx_HAL_Driver/Src/stm32h7xx_ll_usb.c ****   }
 1703              		.loc 1 716 83 view .LVU567
 1704 0058 01F00F01 		and	r1, r1, #15
 716:Drivers/STM32H7xx_HAL_Driver/Src/stm32h7xx_ll_usb.c ****   }
 1705              		.loc 1 716 56 view .LVU568
 1706 005c 0123     		movs	r3, #1
 1707 005e 8B40     		lsls	r3, r3, r1
 716:Drivers/STM32H7xx_HAL_Driver/Src/stm32h7xx_ll_usb.c ****   }
 1708              		.loc 1 716 54 view .LVU569
 1709 0060 9BB2     		uxth	r3, r3
 716:Drivers/STM32H7xx_HAL_Driver/Src/stm32h7xx_ll_usb.c ****   }
 1710              		.loc 1 716 27 view .LVU570
 1711 0062 22EA0303 		bic	r3, r2, r3
 1712 0066 C0F81C38 		str	r3, [r0, #2076]
 1713 006a E4E7     		b	.L119
 1714              	.LVL114:
 1715              	.L123:
 711:Drivers/STM32H7xx_HAL_Driver/Src/stm32h7xx_ll_usb.c ****       USBx_INEP(epnum)->DIEPCTL  |= USB_OTG_DIEPCTL_EPDIS;
 1716              		.loc 1 711 7 is_stmt 1 view .LVU571
 711:Drivers/STM32H7xx_HAL_Driver/Src/stm32h7xx_ll_usb.c ****       USBx_INEP(epnum)->DIEPCTL  |= USB_OTG_DIEPCTL_EPDIS;
 1717              		.loc 1 711 23 is_stmt 0 view .LVU572
ARM GAS  C:\Users\Nathan\AppData\Local\Temp\cc7cwqzo.s 			page 65


 1718 006c D3F80029 		ldr	r2, [r3, #2304]
 711:Drivers/STM32H7xx_HAL_Driver/Src/stm32h7xx_ll_usb.c ****       USBx_INEP(epnum)->DIEPCTL  |= USB_OTG_DIEPCTL_EPDIS;
 1719              		.loc 1 711 34 view .LVU573
 1720 0070 42F00062 		orr	r2, r2, #134217728
 1721 0074 C3F80029 		str	r2, [r3, #2304]
 1722              	.LVL115:
 712:Drivers/STM32H7xx_HAL_Driver/Src/stm32h7xx_ll_usb.c ****     }
 1723              		.loc 1 712 7 is_stmt 1 view .LVU574
 712:Drivers/STM32H7xx_HAL_Driver/Src/stm32h7xx_ll_usb.c ****     }
 1724              		.loc 1 712 23 is_stmt 0 view .LVU575
 1725 0078 D3F80029 		ldr	r2, [r3, #2304]
 712:Drivers/STM32H7xx_HAL_Driver/Src/stm32h7xx_ll_usb.c ****     }
 1726              		.loc 1 712 34 view .LVU576
 1727 007c 42F08042 		orr	r2, r2, #1073741824
 1728 0080 C3F80029 		str	r2, [r3, #2304]
 1729 0084 DFE7     		b	.L118
 1730              	.LVL116:
 1731              	.L122:
 722:Drivers/STM32H7xx_HAL_Driver/Src/stm32h7xx_ll_usb.c ****       USBx_OUTEP(epnum)->DOEPCTL  |= USB_OTG_DOEPCTL_EPDIS;
 1732              		.loc 1 722 7 is_stmt 1 view .LVU577
 722:Drivers/STM32H7xx_HAL_Driver/Src/stm32h7xx_ll_usb.c ****       USBx_OUTEP(epnum)->DOEPCTL  |= USB_OTG_DOEPCTL_EPDIS;
 1733              		.loc 1 722 24 is_stmt 0 view .LVU578
 1734 0086 D3F8002B 		ldr	r2, [r3, #2816]
 722:Drivers/STM32H7xx_HAL_Driver/Src/stm32h7xx_ll_usb.c ****       USBx_OUTEP(epnum)->DOEPCTL  |= USB_OTG_DOEPCTL_EPDIS;
 1735              		.loc 1 722 35 view .LVU579
 1736 008a 42F00062 		orr	r2, r2, #134217728
 1737 008e C3F8002B 		str	r2, [r3, #2816]
 1738              	.LVL117:
 723:Drivers/STM32H7xx_HAL_Driver/Src/stm32h7xx_ll_usb.c ****     }
 1739              		.loc 1 723 7 is_stmt 1 view .LVU580
 723:Drivers/STM32H7xx_HAL_Driver/Src/stm32h7xx_ll_usb.c ****     }
 1740              		.loc 1 723 24 is_stmt 0 view .LVU581
 1741 0092 D3F8002B 		ldr	r2, [r3, #2816]
 723:Drivers/STM32H7xx_HAL_Driver/Src/stm32h7xx_ll_usb.c ****     }
 1742              		.loc 1 723 35 view .LVU582
 1743 0096 42F08042 		orr	r2, r2, #1073741824
 1744 009a C3F8002B 		str	r2, [r3, #2816]
 1745 009e B9E7     		b	.L120
 1746              		.cfi_endproc
 1747              	.LFE157:
 1749              		.section	.text.USB_EPStopXfer,"ax",%progbits
 1750              		.align	1
 1751              		.global	USB_EPStopXfer
 1752              		.syntax unified
 1753              		.thumb
 1754              		.thumb_func
 1756              	USB_EPStopXfer:
 1757              	.LVL118:
 1758              	.LFB159:
 916:Drivers/STM32H7xx_HAL_Driver/Src/stm32h7xx_ll_usb.c ****   __IO uint32_t count = 0U;
 1759              		.loc 1 916 1 is_stmt 1 view -0
 1760              		.cfi_startproc
 1761              		@ args = 0, pretend = 0, frame = 8
 1762              		@ frame_needed = 0, uses_anonymous_args = 0
 1763              		@ link register save eliminated.
 916:Drivers/STM32H7xx_HAL_Driver/Src/stm32h7xx_ll_usb.c ****   __IO uint32_t count = 0U;
 1764              		.loc 1 916 1 is_stmt 0 view .LVU584
ARM GAS  C:\Users\Nathan\AppData\Local\Temp\cc7cwqzo.s 			page 66


 1765 0000 10B4     		push	{r4}
 1766              		.cfi_def_cfa_offset 4
 1767              		.cfi_offset 4, -4
 1768 0002 83B0     		sub	sp, sp, #12
 1769              		.cfi_def_cfa_offset 16
 1770 0004 0246     		mov	r2, r0
 917:Drivers/STM32H7xx_HAL_Driver/Src/stm32h7xx_ll_usb.c ****   HAL_StatusTypeDef ret = HAL_OK;
 1771              		.loc 1 917 3 is_stmt 1 view .LVU585
 917:Drivers/STM32H7xx_HAL_Driver/Src/stm32h7xx_ll_usb.c ****   HAL_StatusTypeDef ret = HAL_OK;
 1772              		.loc 1 917 17 is_stmt 0 view .LVU586
 1773 0006 0023     		movs	r3, #0
 1774 0008 0193     		str	r3, [sp, #4]
 918:Drivers/STM32H7xx_HAL_Driver/Src/stm32h7xx_ll_usb.c ****   uint32_t USBx_BASE = (uint32_t)USBx;
 1775              		.loc 1 918 3 is_stmt 1 view .LVU587
 1776              	.LVL119:
 919:Drivers/STM32H7xx_HAL_Driver/Src/stm32h7xx_ll_usb.c **** 
 1777              		.loc 1 919 3 view .LVU588
 922:Drivers/STM32H7xx_HAL_Driver/Src/stm32h7xx_ll_usb.c ****   {
 1778              		.loc 1 922 3 view .LVU589
 922:Drivers/STM32H7xx_HAL_Driver/Src/stm32h7xx_ll_usb.c ****   {
 1779              		.loc 1 922 9 is_stmt 0 view .LVU590
 1780 000a 4878     		ldrb	r0, [r1, #1]	@ zero_extendqisi2
 1781              	.LVL120:
 922:Drivers/STM32H7xx_HAL_Driver/Src/stm32h7xx_ll_usb.c ****   {
 1782              		.loc 1 922 6 view .LVU591
 1783 000c 0128     		cmp	r0, #1
 1784 000e 0BD0     		beq	.L133
 944:Drivers/STM32H7xx_HAL_Driver/Src/stm32h7xx_ll_usb.c ****     {
 1785              		.loc 1 944 5 is_stmt 1 view .LVU592
 944:Drivers/STM32H7xx_HAL_Driver/Src/stm32h7xx_ll_usb.c ****     {
 1786              		.loc 1 944 11 is_stmt 0 view .LVU593
 1787 0010 0B78     		ldrb	r3, [r1]	@ zero_extendqisi2
 1788 0012 02EB4313 		add	r3, r2, r3, lsl #5
 944:Drivers/STM32H7xx_HAL_Driver/Src/stm32h7xx_ll_usb.c ****     {
 1789              		.loc 1 944 30 view .LVU594
 1790 0016 D3F8000B 		ldr	r0, [r3, #2816]
 944:Drivers/STM32H7xx_HAL_Driver/Src/stm32h7xx_ll_usb.c ****     {
 1791              		.loc 1 944 8 view .LVU595
 1792 001a 0028     		cmp	r0, #0
 1793 001c 2DDB     		blt	.L134
 918:Drivers/STM32H7xx_HAL_Driver/Src/stm32h7xx_ll_usb.c ****   uint32_t USBx_BASE = (uint32_t)USBx;
 1794              		.loc 1 918 21 view .LVU596
 1795 001e 0020     		movs	r0, #0
 1796              	.L126:
 1797              	.LVL121:
 962:Drivers/STM32H7xx_HAL_Driver/Src/stm32h7xx_ll_usb.c **** }
 1798              		.loc 1 962 3 is_stmt 1 view .LVU597
 963:Drivers/STM32H7xx_HAL_Driver/Src/stm32h7xx_ll_usb.c **** 
 1799              		.loc 1 963 1 is_stmt 0 view .LVU598
 1800 0020 03B0     		add	sp, sp, #12
 1801              		.cfi_remember_state
 1802              		.cfi_def_cfa_offset 4
 1803              		@ sp needed
 1804 0022 5DF8044B 		ldr	r4, [sp], #4
 1805              		.cfi_restore 4
 1806              		.cfi_def_cfa_offset 0
 1807 0026 7047     		bx	lr
ARM GAS  C:\Users\Nathan\AppData\Local\Temp\cc7cwqzo.s 			page 67


 1808              	.LVL122:
 1809              	.L133:
 1810              		.cfi_restore_state
 925:Drivers/STM32H7xx_HAL_Driver/Src/stm32h7xx_ll_usb.c ****     {
 1811              		.loc 1 925 5 is_stmt 1 view .LVU599
 925:Drivers/STM32H7xx_HAL_Driver/Src/stm32h7xx_ll_usb.c ****     {
 1812              		.loc 1 925 11 is_stmt 0 view .LVU600
 1813 0028 0B78     		ldrb	r3, [r1]	@ zero_extendqisi2
 1814 002a 02EB4313 		add	r3, r2, r3, lsl #5
 925:Drivers/STM32H7xx_HAL_Driver/Src/stm32h7xx_ll_usb.c ****     {
 1815              		.loc 1 925 29 view .LVU601
 1816 002e D3F80049 		ldr	r4, [r3, #2304]
 925:Drivers/STM32H7xx_HAL_Driver/Src/stm32h7xx_ll_usb.c ****     {
 1817              		.loc 1 925 8 view .LVU602
 1818 0032 002C     		cmp	r4, #0
 1819 0034 01DB     		blt	.L135
 918:Drivers/STM32H7xx_HAL_Driver/Src/stm32h7xx_ll_usb.c ****   uint32_t USBx_BASE = (uint32_t)USBx;
 1820              		.loc 1 918 21 view .LVU603
 1821 0036 0020     		movs	r0, #0
 1822 0038 F2E7     		b	.L126
 1823              	.L135:
 927:Drivers/STM32H7xx_HAL_Driver/Src/stm32h7xx_ll_usb.c ****       USBx_INEP(ep->num)->DIEPCTL |= (USB_OTG_DIEPCTL_EPDIS);
 1824              		.loc 1 927 7 is_stmt 1 view .LVU604
 927:Drivers/STM32H7xx_HAL_Driver/Src/stm32h7xx_ll_usb.c ****       USBx_INEP(ep->num)->DIEPCTL |= (USB_OTG_DIEPCTL_EPDIS);
 1825              		.loc 1 927 25 is_stmt 0 view .LVU605
 1826 003a D3F80049 		ldr	r4, [r3, #2304]
 927:Drivers/STM32H7xx_HAL_Driver/Src/stm32h7xx_ll_usb.c ****       USBx_INEP(ep->num)->DIEPCTL |= (USB_OTG_DIEPCTL_EPDIS);
 1827              		.loc 1 927 35 view .LVU606
 1828 003e 44F00064 		orr	r4, r4, #134217728
 1829 0042 C3F80049 		str	r4, [r3, #2304]
 928:Drivers/STM32H7xx_HAL_Driver/Src/stm32h7xx_ll_usb.c **** 
 1830              		.loc 1 928 7 is_stmt 1 view .LVU607
 1831 0046 0B78     		ldrb	r3, [r1]	@ zero_extendqisi2
 928:Drivers/STM32H7xx_HAL_Driver/Src/stm32h7xx_ll_usb.c **** 
 1832              		.loc 1 928 25 is_stmt 0 view .LVU608
 1833 0048 02EB4313 		add	r3, r2, r3, lsl #5
 1834 004c D3F80049 		ldr	r4, [r3, #2304]
 928:Drivers/STM32H7xx_HAL_Driver/Src/stm32h7xx_ll_usb.c **** 
 1835              		.loc 1 928 35 view .LVU609
 1836 0050 44F08044 		orr	r4, r4, #1073741824
 1837 0054 C3F80049 		str	r4, [r3, #2304]
 1838              	.L127:
 930:Drivers/STM32H7xx_HAL_Driver/Src/stm32h7xx_ll_usb.c ****       {
 1839              		.loc 1 930 7 is_stmt 1 view .LVU610
 932:Drivers/STM32H7xx_HAL_Driver/Src/stm32h7xx_ll_usb.c **** 
 1840              		.loc 1 932 9 view .LVU611
 932:Drivers/STM32H7xx_HAL_Driver/Src/stm32h7xx_ll_usb.c **** 
 1841              		.loc 1 932 14 is_stmt 0 view .LVU612
 1842 0058 019B     		ldr	r3, [sp, #4]
 1843 005a 0133     		adds	r3, r3, #1
 1844 005c 0193     		str	r3, [sp, #4]
 934:Drivers/STM32H7xx_HAL_Driver/Src/stm32h7xx_ll_usb.c ****         {
 1845              		.loc 1 934 9 is_stmt 1 view .LVU613
 934:Drivers/STM32H7xx_HAL_Driver/Src/stm32h7xx_ll_usb.c ****         {
 1846              		.loc 1 934 19 is_stmt 0 view .LVU614
 1847 005e 019C     		ldr	r4, [sp, #4]
 934:Drivers/STM32H7xx_HAL_Driver/Src/stm32h7xx_ll_usb.c ****         {
ARM GAS  C:\Users\Nathan\AppData\Local\Temp\cc7cwqzo.s 			page 68


 1848              		.loc 1 934 12 view .LVU615
 1849 0060 42F21073 		movw	r3, #10000
 1850 0064 9C42     		cmp	r4, r3
 1851 0066 DBD8     		bhi	.L126
 939:Drivers/STM32H7xx_HAL_Driver/Src/stm32h7xx_ll_usb.c ****     }
 1852              		.loc 1 939 72 is_stmt 1 view .LVU616
 939:Drivers/STM32H7xx_HAL_Driver/Src/stm32h7xx_ll_usb.c ****     }
 1853              		.loc 1 939 18 is_stmt 0 view .LVU617
 1854 0068 0B78     		ldrb	r3, [r1]	@ zero_extendqisi2
 1855 006a 02EB4313 		add	r3, r2, r3, lsl #5
 939:Drivers/STM32H7xx_HAL_Driver/Src/stm32h7xx_ll_usb.c ****     }
 1856              		.loc 1 939 36 view .LVU618
 1857 006e D3F80039 		ldr	r3, [r3, #2304]
 939:Drivers/STM32H7xx_HAL_Driver/Src/stm32h7xx_ll_usb.c ****     }
 1858              		.loc 1 939 72 view .LVU619
 1859 0072 002B     		cmp	r3, #0
 1860 0074 F0DB     		blt	.L127
 918:Drivers/STM32H7xx_HAL_Driver/Src/stm32h7xx_ll_usb.c ****   uint32_t USBx_BASE = (uint32_t)USBx;
 1861              		.loc 1 918 21 view .LVU620
 1862 0076 0020     		movs	r0, #0
 1863 0078 D2E7     		b	.L126
 1864              	.L134:
 946:Drivers/STM32H7xx_HAL_Driver/Src/stm32h7xx_ll_usb.c ****       USBx_OUTEP(ep->num)->DOEPCTL |= (USB_OTG_DOEPCTL_EPDIS);
 1865              		.loc 1 946 7 is_stmt 1 view .LVU621
 946:Drivers/STM32H7xx_HAL_Driver/Src/stm32h7xx_ll_usb.c ****       USBx_OUTEP(ep->num)->DOEPCTL |= (USB_OTG_DOEPCTL_EPDIS);
 1866              		.loc 1 946 26 is_stmt 0 view .LVU622
 1867 007a D3F8000B 		ldr	r0, [r3, #2816]
 946:Drivers/STM32H7xx_HAL_Driver/Src/stm32h7xx_ll_usb.c ****       USBx_OUTEP(ep->num)->DOEPCTL |= (USB_OTG_DOEPCTL_EPDIS);
 1868              		.loc 1 946 36 view .LVU623
 1869 007e 40F00060 		orr	r0, r0, #134217728
 1870 0082 C3F8000B 		str	r0, [r3, #2816]
 947:Drivers/STM32H7xx_HAL_Driver/Src/stm32h7xx_ll_usb.c **** 
 1871              		.loc 1 947 7 is_stmt 1 view .LVU624
 1872 0086 0B78     		ldrb	r3, [r1]	@ zero_extendqisi2
 947:Drivers/STM32H7xx_HAL_Driver/Src/stm32h7xx_ll_usb.c **** 
 1873              		.loc 1 947 26 is_stmt 0 view .LVU625
 1874 0088 02EB4313 		add	r3, r2, r3, lsl #5
 1875 008c D3F8000B 		ldr	r0, [r3, #2816]
 947:Drivers/STM32H7xx_HAL_Driver/Src/stm32h7xx_ll_usb.c **** 
 1876              		.loc 1 947 36 view .LVU626
 1877 0090 40F08040 		orr	r0, r0, #1073741824
 1878 0094 C3F8000B 		str	r0, [r3, #2816]
 1879              	.L128:
 949:Drivers/STM32H7xx_HAL_Driver/Src/stm32h7xx_ll_usb.c ****       {
 1880              		.loc 1 949 7 is_stmt 1 view .LVU627
 951:Drivers/STM32H7xx_HAL_Driver/Src/stm32h7xx_ll_usb.c **** 
 1881              		.loc 1 951 9 view .LVU628
 951:Drivers/STM32H7xx_HAL_Driver/Src/stm32h7xx_ll_usb.c **** 
 1882              		.loc 1 951 14 is_stmt 0 view .LVU629
 1883 0098 019B     		ldr	r3, [sp, #4]
 1884 009a 0133     		adds	r3, r3, #1
 1885 009c 0193     		str	r3, [sp, #4]
 953:Drivers/STM32H7xx_HAL_Driver/Src/stm32h7xx_ll_usb.c ****         {
 1886              		.loc 1 953 9 is_stmt 1 view .LVU630
 953:Drivers/STM32H7xx_HAL_Driver/Src/stm32h7xx_ll_usb.c ****         {
 1887              		.loc 1 953 19 is_stmt 0 view .LVU631
 1888 009e 0198     		ldr	r0, [sp, #4]
ARM GAS  C:\Users\Nathan\AppData\Local\Temp\cc7cwqzo.s 			page 69


 953:Drivers/STM32H7xx_HAL_Driver/Src/stm32h7xx_ll_usb.c ****         {
 1889              		.loc 1 953 12 view .LVU632
 1890 00a0 42F21073 		movw	r3, #10000
 1891 00a4 9842     		cmp	r0, r3
 1892 00a6 08D8     		bhi	.L131
 958:Drivers/STM32H7xx_HAL_Driver/Src/stm32h7xx_ll_usb.c ****     }
 1893              		.loc 1 958 73 is_stmt 1 view .LVU633
 958:Drivers/STM32H7xx_HAL_Driver/Src/stm32h7xx_ll_usb.c ****     }
 1894              		.loc 1 958 18 is_stmt 0 view .LVU634
 1895 00a8 0B78     		ldrb	r3, [r1]	@ zero_extendqisi2
 1896 00aa 02EB4313 		add	r3, r2, r3, lsl #5
 958:Drivers/STM32H7xx_HAL_Driver/Src/stm32h7xx_ll_usb.c ****     }
 1897              		.loc 1 958 37 view .LVU635
 1898 00ae D3F8003B 		ldr	r3, [r3, #2816]
 958:Drivers/STM32H7xx_HAL_Driver/Src/stm32h7xx_ll_usb.c ****     }
 1899              		.loc 1 958 73 view .LVU636
 1900 00b2 002B     		cmp	r3, #0
 1901 00b4 F0DB     		blt	.L128
 918:Drivers/STM32H7xx_HAL_Driver/Src/stm32h7xx_ll_usb.c ****   uint32_t USBx_BASE = (uint32_t)USBx;
 1902              		.loc 1 918 21 view .LVU637
 1903 00b6 0020     		movs	r0, #0
 1904 00b8 B2E7     		b	.L126
 1905              	.L131:
 955:Drivers/STM32H7xx_HAL_Driver/Src/stm32h7xx_ll_usb.c ****           break;
 1906              		.loc 1 955 15 view .LVU638
 1907 00ba 0120     		movs	r0, #1
 1908 00bc B0E7     		b	.L126
 1909              		.cfi_endproc
 1910              	.LFE159:
 1912              		.section	.text.USB_WritePacket,"ax",%progbits
 1913              		.align	1
 1914              		.global	USB_WritePacket
 1915              		.syntax unified
 1916              		.thumb
 1917              		.thumb_func
 1919              	USB_WritePacket:
 1920              	.LVL123:
 1921              	.LFB160:
 981:Drivers/STM32H7xx_HAL_Driver/Src/stm32h7xx_ll_usb.c ****   uint32_t USBx_BASE = (uint32_t)USBx;
 1922              		.loc 1 981 1 is_stmt 1 view -0
 1923              		.cfi_startproc
 1924              		@ args = 4, pretend = 0, frame = 0
 1925              		@ frame_needed = 0, uses_anonymous_args = 0
 981:Drivers/STM32H7xx_HAL_Driver/Src/stm32h7xx_ll_usb.c ****   uint32_t USBx_BASE = (uint32_t)USBx;
 1926              		.loc 1 981 1 is_stmt 0 view .LVU640
 1927 0000 10B5     		push	{r4, lr}
 1928              		.cfi_def_cfa_offset 8
 1929              		.cfi_offset 4, -8
 1930              		.cfi_offset 14, -4
 1931 0002 9DF80840 		ldrb	r4, [sp, #8]	@ zero_extendqisi2
 982:Drivers/STM32H7xx_HAL_Driver/Src/stm32h7xx_ll_usb.c ****   uint8_t *pSrc = src;
 1932              		.loc 1 982 3 is_stmt 1 view .LVU641
 1933              	.LVL124:
 983:Drivers/STM32H7xx_HAL_Driver/Src/stm32h7xx_ll_usb.c ****   uint32_t count32b;
 1934              		.loc 1 983 3 view .LVU642
 984:Drivers/STM32H7xx_HAL_Driver/Src/stm32h7xx_ll_usb.c ****   uint32_t i;
 1935              		.loc 1 984 3 view .LVU643
ARM GAS  C:\Users\Nathan\AppData\Local\Temp\cc7cwqzo.s 			page 70


 985:Drivers/STM32H7xx_HAL_Driver/Src/stm32h7xx_ll_usb.c **** 
 1936              		.loc 1 985 3 view .LVU644
 987:Drivers/STM32H7xx_HAL_Driver/Src/stm32h7xx_ll_usb.c ****   {
 1937              		.loc 1 987 3 view .LVU645
 987:Drivers/STM32H7xx_HAL_Driver/Src/stm32h7xx_ll_usb.c ****   {
 1938              		.loc 1 987 6 is_stmt 0 view .LVU646
 1939 0006 84B9     		cbnz	r4, .L137
 989:Drivers/STM32H7xx_HAL_Driver/Src/stm32h7xx_ll_usb.c ****     for (i = 0U; i < count32b; i++)
 1940              		.loc 1 989 5 is_stmt 1 view .LVU647
 989:Drivers/STM32H7xx_HAL_Driver/Src/stm32h7xx_ll_usb.c ****     for (i = 0U; i < count32b; i++)
 1941              		.loc 1 989 31 is_stmt 0 view .LVU648
 1942 0008 0333     		adds	r3, r3, #3
 1943              	.LVL125:
 989:Drivers/STM32H7xx_HAL_Driver/Src/stm32h7xx_ll_usb.c ****     for (i = 0U; i < count32b; i++)
 1944              		.loc 1 989 14 view .LVU649
 1945 000a 4FEA930E 		lsr	lr, r3, #2
 1946              	.LVL126:
 990:Drivers/STM32H7xx_HAL_Driver/Src/stm32h7xx_ll_usb.c ****     {
 1947              		.loc 1 990 5 is_stmt 1 view .LVU650
 990:Drivers/STM32H7xx_HAL_Driver/Src/stm32h7xx_ll_usb.c ****     {
 1948              		.loc 1 990 12 is_stmt 0 view .LVU651
 1949 000e 4FF0000C 		mov	ip, #0
 990:Drivers/STM32H7xx_HAL_Driver/Src/stm32h7xx_ll_usb.c ****     {
 1950              		.loc 1 990 5 view .LVU652
 1951 0012 08E0     		b	.L138
 1952              	.LVL127:
 1953              	.L139:
 992:Drivers/STM32H7xx_HAL_Driver/Src/stm32h7xx_ll_usb.c ****       pSrc++;
 1954              		.loc 1 992 7 is_stmt 1 view .LVU653
 1955 0014 00EB0233 		add	r3, r0, r2, lsl #12
 1956 0018 03F58053 		add	r3, r3, #4096
 992:Drivers/STM32H7xx_HAL_Driver/Src/stm32h7xx_ll_usb.c ****       pSrc++;
 1957              		.loc 1 992 41 is_stmt 0 view .LVU654
 1958 001c 51F8044B 		ldr	r4, [r1], #4	@ unaligned
 1959              	.LVL128:
 992:Drivers/STM32H7xx_HAL_Driver/Src/stm32h7xx_ll_usb.c ****       pSrc++;
 1960              		.loc 1 992 39 view .LVU655
 1961 0020 1C60     		str	r4, [r3]
 993:Drivers/STM32H7xx_HAL_Driver/Src/stm32h7xx_ll_usb.c ****       pSrc++;
 1962              		.loc 1 993 7 is_stmt 1 view .LVU656
 1963              	.LVL129:
 994:Drivers/STM32H7xx_HAL_Driver/Src/stm32h7xx_ll_usb.c ****       pSrc++;
 1964              		.loc 1 994 7 view .LVU657
 995:Drivers/STM32H7xx_HAL_Driver/Src/stm32h7xx_ll_usb.c ****       pSrc++;
 1965              		.loc 1 995 7 view .LVU658
 996:Drivers/STM32H7xx_HAL_Driver/Src/stm32h7xx_ll_usb.c ****     }
 1966              		.loc 1 996 7 view .LVU659
 990:Drivers/STM32H7xx_HAL_Driver/Src/stm32h7xx_ll_usb.c ****     {
 1967              		.loc 1 990 33 discriminator 3 view .LVU660
 1968 0022 0CF1010C 		add	ip, ip, #1
 1969              	.LVL130:
 1970              	.L138:
 990:Drivers/STM32H7xx_HAL_Driver/Src/stm32h7xx_ll_usb.c ****     {
 1971              		.loc 1 990 20 discriminator 1 view .LVU661
 1972 0026 F445     		cmp	ip, lr
 1973 0028 F4D3     		bcc	.L139
 1974              	.LVL131:
ARM GAS  C:\Users\Nathan\AppData\Local\Temp\cc7cwqzo.s 			page 71


 1975              	.L137:
1000:Drivers/STM32H7xx_HAL_Driver/Src/stm32h7xx_ll_usb.c **** }
 1976              		.loc 1 1000 3 view .LVU662
1001:Drivers/STM32H7xx_HAL_Driver/Src/stm32h7xx_ll_usb.c **** 
 1977              		.loc 1 1001 1 is_stmt 0 view .LVU663
 1978 002a 0020     		movs	r0, #0
 1979              	.LVL132:
1001:Drivers/STM32H7xx_HAL_Driver/Src/stm32h7xx_ll_usb.c **** 
 1980              		.loc 1 1001 1 view .LVU664
 1981 002c 10BD     		pop	{r4, pc}
1001:Drivers/STM32H7xx_HAL_Driver/Src/stm32h7xx_ll_usb.c **** 
 1982              		.loc 1 1001 1 view .LVU665
 1983              		.cfi_endproc
 1984              	.LFE160:
 1986              		.section	.text.USB_EPStartXfer,"ax",%progbits
 1987              		.align	1
 1988              		.global	USB_EPStartXfer
 1989              		.syntax unified
 1990              		.thumb
 1991              		.thumb_func
 1993              	USB_EPStartXfer:
 1994              	.LVL133:
 1995              	.LFB158:
 744:Drivers/STM32H7xx_HAL_Driver/Src/stm32h7xx_ll_usb.c ****   uint32_t USBx_BASE = (uint32_t)USBx;
 1996              		.loc 1 744 1 is_stmt 1 view -0
 1997              		.cfi_startproc
 1998              		@ args = 0, pretend = 0, frame = 0
 1999              		@ frame_needed = 0, uses_anonymous_args = 0
 744:Drivers/STM32H7xx_HAL_Driver/Src/stm32h7xx_ll_usb.c ****   uint32_t USBx_BASE = (uint32_t)USBx;
 2000              		.loc 1 744 1 is_stmt 0 view .LVU667
 2001 0000 F0B5     		push	{r4, r5, r6, r7, lr}
 2002              		.cfi_def_cfa_offset 20
 2003              		.cfi_offset 4, -20
 2004              		.cfi_offset 5, -16
 2005              		.cfi_offset 6, -12
 2006              		.cfi_offset 7, -8
 2007              		.cfi_offset 14, -4
 2008 0002 83B0     		sub	sp, sp, #12
 2009              		.cfi_def_cfa_offset 32
 745:Drivers/STM32H7xx_HAL_Driver/Src/stm32h7xx_ll_usb.c ****   uint32_t epnum = (uint32_t)ep->num;
 2010              		.loc 1 745 3 is_stmt 1 view .LVU668
 2011              	.LVL134:
 746:Drivers/STM32H7xx_HAL_Driver/Src/stm32h7xx_ll_usb.c ****   uint16_t pktcnt;
 2012              		.loc 1 746 3 view .LVU669
 746:Drivers/STM32H7xx_HAL_Driver/Src/stm32h7xx_ll_usb.c ****   uint16_t pktcnt;
 2013              		.loc 1 746 32 is_stmt 0 view .LVU670
 2014 0004 0C78     		ldrb	r4, [r1]	@ zero_extendqisi2
 2015              	.LVL135:
 747:Drivers/STM32H7xx_HAL_Driver/Src/stm32h7xx_ll_usb.c **** 
 2016              		.loc 1 747 3 is_stmt 1 view .LVU671
 750:Drivers/STM32H7xx_HAL_Driver/Src/stm32h7xx_ll_usb.c ****   {
 2017              		.loc 1 750 3 view .LVU672
 750:Drivers/STM32H7xx_HAL_Driver/Src/stm32h7xx_ll_usb.c ****   {
 2018              		.loc 1 750 9 is_stmt 0 view .LVU673
 2019 0006 4B78     		ldrb	r3, [r1, #1]	@ zero_extendqisi2
 750:Drivers/STM32H7xx_HAL_Driver/Src/stm32h7xx_ll_usb.c ****   {
 2020              		.loc 1 750 6 view .LVU674
ARM GAS  C:\Users\Nathan\AppData\Local\Temp\cc7cwqzo.s 			page 72


 2021 0008 012B     		cmp	r3, #1
 2022 000a 2DD0     		beq	.L164
 849:Drivers/STM32H7xx_HAL_Driver/Src/stm32h7xx_ll_usb.c ****     USBx_OUTEP(epnum)->DOEPTSIZ &= ~(USB_OTG_DOEPTSIZ_PKTCNT);
 2023              		.loc 1 849 5 is_stmt 1 view .LVU675
 849:Drivers/STM32H7xx_HAL_Driver/Src/stm32h7xx_ll_usb.c ****     USBx_OUTEP(epnum)->DOEPTSIZ &= ~(USB_OTG_DOEPTSIZ_PKTCNT);
 2024              		.loc 1 849 22 is_stmt 0 view .LVU676
 2025 000c 00EB441C 		add	ip, r0, r4, lsl #5
 2026 0010 0CF53063 		add	r3, ip, #2816
 2027 0014 1D69     		ldr	r5, [r3, #16]
 849:Drivers/STM32H7xx_HAL_Driver/Src/stm32h7xx_ll_usb.c ****     USBx_OUTEP(epnum)->DOEPTSIZ &= ~(USB_OTG_DOEPTSIZ_PKTCNT);
 2028              		.loc 1 849 33 view .LVU677
 2029 0016 6FF31205 		bfc	r5, #0, #19
 2030 001a 1D61     		str	r5, [r3, #16]
 850:Drivers/STM32H7xx_HAL_Driver/Src/stm32h7xx_ll_usb.c **** 
 2031              		.loc 1 850 5 is_stmt 1 view .LVU678
 850:Drivers/STM32H7xx_HAL_Driver/Src/stm32h7xx_ll_usb.c **** 
 2032              		.loc 1 850 22 is_stmt 0 view .LVU679
 2033 001c 1D69     		ldr	r5, [r3, #16]
 850:Drivers/STM32H7xx_HAL_Driver/Src/stm32h7xx_ll_usb.c **** 
 2034              		.loc 1 850 33 view .LVU680
 2035 001e 6FF3DC45 		bfc	r5, #19, #10
 2036 0022 1D61     		str	r5, [r3, #16]
 852:Drivers/STM32H7xx_HAL_Driver/Src/stm32h7xx_ll_usb.c ****     {
 2037              		.loc 1 852 5 is_stmt 1 view .LVU681
 852:Drivers/STM32H7xx_HAL_Driver/Src/stm32h7xx_ll_usb.c ****     {
 2038              		.loc 1 852 8 is_stmt 0 view .LVU682
 2039 0024 002C     		cmp	r4, #0
 2040 0026 40F0CE80 		bne	.L156
 854:Drivers/STM32H7xx_HAL_Driver/Src/stm32h7xx_ll_usb.c ****       {
 2041              		.loc 1 854 7 is_stmt 1 view .LVU683
 854:Drivers/STM32H7xx_HAL_Driver/Src/stm32h7xx_ll_usb.c ****       {
 2042              		.loc 1 854 13 is_stmt 0 view .LVU684
 2043 002a 0C69     		ldr	r4, [r1, #16]
 2044              	.LVL136:
 854:Drivers/STM32H7xx_HAL_Driver/Src/stm32h7xx_ll_usb.c ****       {
 2045              		.loc 1 854 10 view .LVU685
 2046 002c 0CB1     		cbz	r4, .L157
 856:Drivers/STM32H7xx_HAL_Driver/Src/stm32h7xx_ll_usb.c ****       }
 2047              		.loc 1 856 9 is_stmt 1 view .LVU686
 856:Drivers/STM32H7xx_HAL_Driver/Src/stm32h7xx_ll_usb.c ****       }
 2048              		.loc 1 856 26 is_stmt 0 view .LVU687
 2049 002e 8C68     		ldr	r4, [r1, #8]
 856:Drivers/STM32H7xx_HAL_Driver/Src/stm32h7xx_ll_usb.c ****       }
 2050              		.loc 1 856 22 view .LVU688
 2051 0030 0C61     		str	r4, [r1, #16]
 2052              	.L157:
 860:Drivers/STM32H7xx_HAL_Driver/Src/stm32h7xx_ll_usb.c **** 
 2053              		.loc 1 860 7 is_stmt 1 view .LVU689
 860:Drivers/STM32H7xx_HAL_Driver/Src/stm32h7xx_ll_usb.c **** 
 2054              		.loc 1 860 25 is_stmt 0 view .LVU690
 2055 0032 8C68     		ldr	r4, [r1, #8]
 860:Drivers/STM32H7xx_HAL_Driver/Src/stm32h7xx_ll_usb.c **** 
 2056              		.loc 1 860 21 view .LVU691
 2057 0034 0C62     		str	r4, [r1, #32]
 862:Drivers/STM32H7xx_HAL_Driver/Src/stm32h7xx_ll_usb.c ****       USBx_OUTEP(epnum)->DOEPTSIZ |= (USB_OTG_DOEPTSIZ_PKTCNT & (1U << 19));
 2058              		.loc 1 862 7 is_stmt 1 view .LVU692
 862:Drivers/STM32H7xx_HAL_Driver/Src/stm32h7xx_ll_usb.c ****       USBx_OUTEP(epnum)->DOEPTSIZ |= (USB_OTG_DOEPTSIZ_PKTCNT & (1U << 19));
ARM GAS  C:\Users\Nathan\AppData\Local\Temp\cc7cwqzo.s 			page 73


 2059              		.loc 1 862 24 is_stmt 0 view .LVU693
 2060 0036 1D69     		ldr	r5, [r3, #16]
 862:Drivers/STM32H7xx_HAL_Driver/Src/stm32h7xx_ll_usb.c ****       USBx_OUTEP(epnum)->DOEPTSIZ |= (USB_OTG_DOEPTSIZ_PKTCNT & (1U << 19));
 2061              		.loc 1 862 63 view .LVU694
 2062 0038 C4F31204 		ubfx	r4, r4, #0, #19
 862:Drivers/STM32H7xx_HAL_Driver/Src/stm32h7xx_ll_usb.c ****       USBx_OUTEP(epnum)->DOEPTSIZ |= (USB_OTG_DOEPTSIZ_PKTCNT & (1U << 19));
 2063              		.loc 1 862 35 view .LVU695
 2064 003c 2C43     		orrs	r4, r4, r5
 2065 003e 1C61     		str	r4, [r3, #16]
 863:Drivers/STM32H7xx_HAL_Driver/Src/stm32h7xx_ll_usb.c ****     }
 2066              		.loc 1 863 7 is_stmt 1 view .LVU696
 863:Drivers/STM32H7xx_HAL_Driver/Src/stm32h7xx_ll_usb.c ****     }
 2067              		.loc 1 863 24 is_stmt 0 view .LVU697
 2068 0040 1C69     		ldr	r4, [r3, #16]
 863:Drivers/STM32H7xx_HAL_Driver/Src/stm32h7xx_ll_usb.c ****     }
 2069              		.loc 1 863 35 view .LVU698
 2070 0042 44F40024 		orr	r4, r4, #524288
 2071 0046 1C61     		str	r4, [r3, #16]
 2072              	.L158:
 882:Drivers/STM32H7xx_HAL_Driver/Src/stm32h7xx_ll_usb.c ****     {
 2073              		.loc 1 882 5 is_stmt 1 view .LVU699
 882:Drivers/STM32H7xx_HAL_Driver/Src/stm32h7xx_ll_usb.c ****     {
 2074              		.loc 1 882 8 is_stmt 0 view .LVU700
 2075 0048 012A     		cmp	r2, #1
 2076 004a 00F0DF80 		beq	.L165
 2077              	.LVL137:
 2078              	.L160:
 890:Drivers/STM32H7xx_HAL_Driver/Src/stm32h7xx_ll_usb.c ****     {
 2079              		.loc 1 890 5 is_stmt 1 view .LVU701
 890:Drivers/STM32H7xx_HAL_Driver/Src/stm32h7xx_ll_usb.c ****     {
 2080              		.loc 1 890 11 is_stmt 0 view .LVU702
 2081 004e 0B79     		ldrb	r3, [r1, #4]	@ zero_extendqisi2
 890:Drivers/STM32H7xx_HAL_Driver/Src/stm32h7xx_ll_usb.c ****     {
 2082              		.loc 1 890 8 view .LVU703
 2083 0050 012B     		cmp	r3, #1
 2084 0052 00F0E180 		beq	.L166
 2085              	.L161:
 902:Drivers/STM32H7xx_HAL_Driver/Src/stm32h7xx_ll_usb.c ****   }
 2086              		.loc 1 902 5 is_stmt 1 view .LVU704
 902:Drivers/STM32H7xx_HAL_Driver/Src/stm32h7xx_ll_usb.c ****   }
 2087              		.loc 1 902 22 is_stmt 0 view .LVU705
 2088 0056 DCF8003B 		ldr	r3, [ip, #2816]
 902:Drivers/STM32H7xx_HAL_Driver/Src/stm32h7xx_ll_usb.c ****   }
 2089              		.loc 1 902 32 view .LVU706
 2090 005a 43F00443 		orr	r3, r3, #-2080374784
 2091 005e CCF8003B 		str	r3, [ip, #2816]
 2092              	.LVL138:
 2093              	.L152:
 905:Drivers/STM32H7xx_HAL_Driver/Src/stm32h7xx_ll_usb.c **** }
 2094              		.loc 1 905 3 is_stmt 1 view .LVU707
 906:Drivers/STM32H7xx_HAL_Driver/Src/stm32h7xx_ll_usb.c **** 
 2095              		.loc 1 906 1 is_stmt 0 view .LVU708
 2096 0062 0020     		movs	r0, #0
 2097 0064 03B0     		add	sp, sp, #12
 2098              		.cfi_remember_state
 2099              		.cfi_def_cfa_offset 20
 2100              		@ sp needed
ARM GAS  C:\Users\Nathan\AppData\Local\Temp\cc7cwqzo.s 			page 74


 2101 0066 F0BD     		pop	{r4, r5, r6, r7, pc}
 2102              	.LVL139:
 2103              	.L164:
 2104              		.cfi_restore_state
 753:Drivers/STM32H7xx_HAL_Driver/Src/stm32h7xx_ll_usb.c ****     {
 2105              		.loc 1 753 5 is_stmt 1 view .LVU709
 753:Drivers/STM32H7xx_HAL_Driver/Src/stm32h7xx_ll_usb.c ****     {
 2106              		.loc 1 753 11 is_stmt 0 view .LVU710
 2107 0068 0B69     		ldr	r3, [r1, #16]
 753:Drivers/STM32H7xx_HAL_Driver/Src/stm32h7xx_ll_usb.c ****     {
 2108              		.loc 1 753 8 view .LVU711
 2109 006a 73BB     		cbnz	r3, .L143
 755:Drivers/STM32H7xx_HAL_Driver/Src/stm32h7xx_ll_usb.c ****       USBx_INEP(epnum)->DIEPTSIZ |= (USB_OTG_DIEPTSIZ_PKTCNT & (1U << 19));
 2110              		.loc 1 755 7 is_stmt 1 view .LVU712
 755:Drivers/STM32H7xx_HAL_Driver/Src/stm32h7xx_ll_usb.c ****       USBx_INEP(epnum)->DIEPTSIZ |= (USB_OTG_DIEPTSIZ_PKTCNT & (1U << 19));
 2111              		.loc 1 755 23 is_stmt 0 view .LVU713
 2112 006c 00EB4413 		add	r3, r0, r4, lsl #5
 2113 0070 D3F81059 		ldr	r5, [r3, #2320]
 755:Drivers/STM32H7xx_HAL_Driver/Src/stm32h7xx_ll_usb.c ****       USBx_INEP(epnum)->DIEPTSIZ |= (USB_OTG_DIEPTSIZ_PKTCNT & (1U << 19));
 2114              		.loc 1 755 34 view .LVU714
 2115 0074 6FF3DC45 		bfc	r5, #19, #10
 2116 0078 C3F81059 		str	r5, [r3, #2320]
 756:Drivers/STM32H7xx_HAL_Driver/Src/stm32h7xx_ll_usb.c ****       USBx_INEP(epnum)->DIEPTSIZ &= ~(USB_OTG_DIEPTSIZ_XFRSIZ);
 2117              		.loc 1 756 7 is_stmt 1 view .LVU715
 756:Drivers/STM32H7xx_HAL_Driver/Src/stm32h7xx_ll_usb.c ****       USBx_INEP(epnum)->DIEPTSIZ &= ~(USB_OTG_DIEPTSIZ_XFRSIZ);
 2118              		.loc 1 756 23 is_stmt 0 view .LVU716
 2119 007c D3F81059 		ldr	r5, [r3, #2320]
 756:Drivers/STM32H7xx_HAL_Driver/Src/stm32h7xx_ll_usb.c ****       USBx_INEP(epnum)->DIEPTSIZ &= ~(USB_OTG_DIEPTSIZ_XFRSIZ);
 2120              		.loc 1 756 34 view .LVU717
 2121 0080 45F40025 		orr	r5, r5, #524288
 2122 0084 C3F81059 		str	r5, [r3, #2320]
 757:Drivers/STM32H7xx_HAL_Driver/Src/stm32h7xx_ll_usb.c ****     }
 2123              		.loc 1 757 7 is_stmt 1 view .LVU718
 757:Drivers/STM32H7xx_HAL_Driver/Src/stm32h7xx_ll_usb.c ****     }
 2124              		.loc 1 757 23 is_stmt 0 view .LVU719
 2125 0088 D3F81059 		ldr	r5, [r3, #2320]
 757:Drivers/STM32H7xx_HAL_Driver/Src/stm32h7xx_ll_usb.c ****     }
 2126              		.loc 1 757 34 view .LVU720
 2127 008c 6FF31205 		bfc	r5, #0, #19
 2128 0090 C3F81059 		str	r5, [r3, #2320]
 2129              	.L144:
 793:Drivers/STM32H7xx_HAL_Driver/Src/stm32h7xx_ll_usb.c ****     {
 2130              		.loc 1 793 5 is_stmt 1 view .LVU721
 793:Drivers/STM32H7xx_HAL_Driver/Src/stm32h7xx_ll_usb.c ****     {
 2131              		.loc 1 793 8 is_stmt 0 view .LVU722
 2132 0094 012A     		cmp	r2, #1
 2133 0096 54D0     		beq	.L167
 818:Drivers/STM32H7xx_HAL_Driver/Src/stm32h7xx_ll_usb.c **** 
 2134              		.loc 1 818 7 is_stmt 1 view .LVU723
 818:Drivers/STM32H7xx_HAL_Driver/Src/stm32h7xx_ll_usb.c **** 
 2135              		.loc 1 818 23 is_stmt 0 view .LVU724
 2136 0098 00EB4414 		add	r4, r0, r4, lsl #5
 2137              	.LVL140:
 818:Drivers/STM32H7xx_HAL_Driver/Src/stm32h7xx_ll_usb.c **** 
 2138              		.loc 1 818 23 view .LVU725
 2139 009c D4F80039 		ldr	r3, [r4, #2304]
 818:Drivers/STM32H7xx_HAL_Driver/Src/stm32h7xx_ll_usb.c **** 
ARM GAS  C:\Users\Nathan\AppData\Local\Temp\cc7cwqzo.s 			page 75


 2140              		.loc 1 818 33 view .LVU726
 2141 00a0 43F00443 		orr	r3, r3, #-2080374784
 2142 00a4 C4F80039 		str	r3, [r4, #2304]
 820:Drivers/STM32H7xx_HAL_Driver/Src/stm32h7xx_ll_usb.c ****       {
 2143              		.loc 1 820 7 is_stmt 1 view .LVU727
 820:Drivers/STM32H7xx_HAL_Driver/Src/stm32h7xx_ll_usb.c ****       {
 2144              		.loc 1 820 13 is_stmt 0 view .LVU728
 2145 00a8 0B79     		ldrb	r3, [r1, #4]	@ zero_extendqisi2
 820:Drivers/STM32H7xx_HAL_Driver/Src/stm32h7xx_ll_usb.c ****       {
 2146              		.loc 1 820 10 view .LVU729
 2147 00aa 012B     		cmp	r3, #1
 2148 00ac 72D0     		beq	.L153
 823:Drivers/STM32H7xx_HAL_Driver/Src/stm32h7xx_ll_usb.c ****         {
 2149              		.loc 1 823 9 is_stmt 1 view .LVU730
 823:Drivers/STM32H7xx_HAL_Driver/Src/stm32h7xx_ll_usb.c ****         {
 2150              		.loc 1 823 15 is_stmt 0 view .LVU731
 2151 00ae 0B69     		ldr	r3, [r1, #16]
 823:Drivers/STM32H7xx_HAL_Driver/Src/stm32h7xx_ll_usb.c ****         {
 2152              		.loc 1 823 12 view .LVU732
 2153 00b0 002B     		cmp	r3, #0
 2154 00b2 D6D0     		beq	.L152
 825:Drivers/STM32H7xx_HAL_Driver/Src/stm32h7xx_ll_usb.c ****         }
 2155              		.loc 1 825 11 is_stmt 1 view .LVU733
 825:Drivers/STM32H7xx_HAL_Driver/Src/stm32h7xx_ll_usb.c ****         }
 2156              		.loc 1 825 22 is_stmt 0 view .LVU734
 2157 00b4 D0F83438 		ldr	r3, [r0, #2100]
 825:Drivers/STM32H7xx_HAL_Driver/Src/stm32h7xx_ll_usb.c ****         }
 2158              		.loc 1 825 48 view .LVU735
 2159 00b8 0978     		ldrb	r1, [r1]	@ zero_extendqisi2
 2160              	.LVL141:
 825:Drivers/STM32H7xx_HAL_Driver/Src/stm32h7xx_ll_usb.c ****         }
 2161              		.loc 1 825 54 view .LVU736
 2162 00ba 01F00F01 		and	r1, r1, #15
 825:Drivers/STM32H7xx_HAL_Driver/Src/stm32h7xx_ll_usb.c ****         }
 2163              		.loc 1 825 42 view .LVU737
 2164 00be 0122     		movs	r2, #1
 2165              	.LVL142:
 825:Drivers/STM32H7xx_HAL_Driver/Src/stm32h7xx_ll_usb.c ****         }
 2166              		.loc 1 825 42 view .LVU738
 2167 00c0 8A40     		lsls	r2, r2, r1
 825:Drivers/STM32H7xx_HAL_Driver/Src/stm32h7xx_ll_usb.c ****         }
 2168              		.loc 1 825 35 view .LVU739
 2169 00c2 1343     		orrs	r3, r3, r2
 2170 00c4 C0F83438 		str	r3, [r0, #2100]
 2171 00c8 CBE7     		b	.L152
 2172              	.LVL143:
 2173              	.L143:
 766:Drivers/STM32H7xx_HAL_Driver/Src/stm32h7xx_ll_usb.c ****       USBx_INEP(epnum)->DIEPTSIZ &= ~(USB_OTG_DIEPTSIZ_PKTCNT);
 2174              		.loc 1 766 7 is_stmt 1 view .LVU740
 766:Drivers/STM32H7xx_HAL_Driver/Src/stm32h7xx_ll_usb.c ****       USBx_INEP(epnum)->DIEPTSIZ &= ~(USB_OTG_DIEPTSIZ_PKTCNT);
 2175              		.loc 1 766 23 is_stmt 0 view .LVU741
 2176 00ca 00EB4413 		add	r3, r0, r4, lsl #5
 2177 00ce 03F51063 		add	r3, r3, #2304
 2178 00d2 1D69     		ldr	r5, [r3, #16]
 766:Drivers/STM32H7xx_HAL_Driver/Src/stm32h7xx_ll_usb.c ****       USBx_INEP(epnum)->DIEPTSIZ &= ~(USB_OTG_DIEPTSIZ_PKTCNT);
 2179              		.loc 1 766 34 view .LVU742
 2180 00d4 6FF31205 		bfc	r5, #0, #19
ARM GAS  C:\Users\Nathan\AppData\Local\Temp\cc7cwqzo.s 			page 76


 2181 00d8 1D61     		str	r5, [r3, #16]
 767:Drivers/STM32H7xx_HAL_Driver/Src/stm32h7xx_ll_usb.c **** 
 2182              		.loc 1 767 7 is_stmt 1 view .LVU743
 767:Drivers/STM32H7xx_HAL_Driver/Src/stm32h7xx_ll_usb.c **** 
 2183              		.loc 1 767 23 is_stmt 0 view .LVU744
 2184 00da 1D69     		ldr	r5, [r3, #16]
 767:Drivers/STM32H7xx_HAL_Driver/Src/stm32h7xx_ll_usb.c **** 
 2185              		.loc 1 767 34 view .LVU745
 2186 00dc 6FF3DC45 		bfc	r5, #19, #10
 2187 00e0 1D61     		str	r5, [r3, #16]
 769:Drivers/STM32H7xx_HAL_Driver/Src/stm32h7xx_ll_usb.c ****       {
 2188              		.loc 1 769 7 is_stmt 1 view .LVU746
 769:Drivers/STM32H7xx_HAL_Driver/Src/stm32h7xx_ll_usb.c ****       {
 2189              		.loc 1 769 10 is_stmt 0 view .LVU747
 2190 00e2 84B9     		cbnz	r4, .L145
 771:Drivers/STM32H7xx_HAL_Driver/Src/stm32h7xx_ll_usb.c ****         {
 2191              		.loc 1 771 9 is_stmt 1 view .LVU748
 771:Drivers/STM32H7xx_HAL_Driver/Src/stm32h7xx_ll_usb.c ****         {
 2192              		.loc 1 771 15 is_stmt 0 view .LVU749
 2193 00e4 0E69     		ldr	r6, [r1, #16]
 771:Drivers/STM32H7xx_HAL_Driver/Src/stm32h7xx_ll_usb.c ****         {
 2194              		.loc 1 771 30 view .LVU750
 2195 00e6 8D68     		ldr	r5, [r1, #8]
 771:Drivers/STM32H7xx_HAL_Driver/Src/stm32h7xx_ll_usb.c ****         {
 2196              		.loc 1 771 12 view .LVU751
 2197 00e8 AE42     		cmp	r6, r5
 2198 00ea 00D9     		bls	.L146
 773:Drivers/STM32H7xx_HAL_Driver/Src/stm32h7xx_ll_usb.c ****         }
 2199              		.loc 1 773 11 is_stmt 1 view .LVU752
 773:Drivers/STM32H7xx_HAL_Driver/Src/stm32h7xx_ll_usb.c ****         }
 2200              		.loc 1 773 24 is_stmt 0 view .LVU753
 2201 00ec 0D61     		str	r5, [r1, #16]
 2202              	.L146:
 776:Drivers/STM32H7xx_HAL_Driver/Src/stm32h7xx_ll_usb.c ****       }
 2203              		.loc 1 776 9 is_stmt 1 view .LVU754
 776:Drivers/STM32H7xx_HAL_Driver/Src/stm32h7xx_ll_usb.c ****       }
 2204              		.loc 1 776 25 is_stmt 0 view .LVU755
 2205 00ee 1D69     		ldr	r5, [r3, #16]
 776:Drivers/STM32H7xx_HAL_Driver/Src/stm32h7xx_ll_usb.c ****       }
 2206              		.loc 1 776 36 view .LVU756
 2207 00f0 45F40025 		orr	r5, r5, #524288
 2208 00f4 1D61     		str	r5, [r3, #16]
 2209              	.L147:
 790:Drivers/STM32H7xx_HAL_Driver/Src/stm32h7xx_ll_usb.c ****     }
 2210              		.loc 1 790 7 is_stmt 1 view .LVU757
 790:Drivers/STM32H7xx_HAL_Driver/Src/stm32h7xx_ll_usb.c ****     }
 2211              		.loc 1 790 23 is_stmt 0 view .LVU758
 2212 00f6 1D69     		ldr	r5, [r3, #16]
 790:Drivers/STM32H7xx_HAL_Driver/Src/stm32h7xx_ll_usb.c ****     }
 2213              		.loc 1 790 62 view .LVU759
 2214 00f8 0E69     		ldr	r6, [r1, #16]
 2215 00fa C6F3120C 		ubfx	ip, r6, #0, #19
 790:Drivers/STM32H7xx_HAL_Driver/Src/stm32h7xx_ll_usb.c ****     }
 2216              		.loc 1 790 34 view .LVU760
 2217 00fe 45EA0C05 		orr	r5, r5, ip
 2218 0102 1D61     		str	r5, [r3, #16]
 2219 0104 C6E7     		b	.L144
ARM GAS  C:\Users\Nathan\AppData\Local\Temp\cc7cwqzo.s 			page 77


 2220              	.L145:
 780:Drivers/STM32H7xx_HAL_Driver/Src/stm32h7xx_ll_usb.c ****         USBx_INEP(epnum)->DIEPTSIZ |= (USB_OTG_DIEPTSIZ_PKTCNT & ((uint32_t)pktcnt << 19));
 2221              		.loc 1 780 9 is_stmt 1 view .LVU761
 780:Drivers/STM32H7xx_HAL_Driver/Src/stm32h7xx_ll_usb.c ****         USBx_INEP(epnum)->DIEPTSIZ |= (USB_OTG_DIEPTSIZ_PKTCNT & ((uint32_t)pktcnt << 19));
 2222              		.loc 1 780 32 is_stmt 0 view .LVU762
 2223 0106 0D69     		ldr	r5, [r1, #16]
 780:Drivers/STM32H7xx_HAL_Driver/Src/stm32h7xx_ll_usb.c ****         USBx_INEP(epnum)->DIEPTSIZ |= (USB_OTG_DIEPTSIZ_PKTCNT & ((uint32_t)pktcnt << 19));
 2224              		.loc 1 780 47 view .LVU763
 2225 0108 8E68     		ldr	r6, [r1, #8]
 780:Drivers/STM32H7xx_HAL_Driver/Src/stm32h7xx_ll_usb.c ****         USBx_INEP(epnum)->DIEPTSIZ |= (USB_OTG_DIEPTSIZ_PKTCNT & ((uint32_t)pktcnt << 19));
 2226              		.loc 1 780 43 view .LVU764
 2227 010a 3544     		add	r5, r5, r6
 780:Drivers/STM32H7xx_HAL_Driver/Src/stm32h7xx_ll_usb.c ****         USBx_INEP(epnum)->DIEPTSIZ |= (USB_OTG_DIEPTSIZ_PKTCNT & ((uint32_t)pktcnt << 19));
 2228              		.loc 1 780 59 view .LVU765
 2229 010c 013D     		subs	r5, r5, #1
 780:Drivers/STM32H7xx_HAL_Driver/Src/stm32h7xx_ll_usb.c ****         USBx_INEP(epnum)->DIEPTSIZ |= (USB_OTG_DIEPTSIZ_PKTCNT & ((uint32_t)pktcnt << 19));
 2230              		.loc 1 780 65 view .LVU766
 2231 010e B5FBF6F5 		udiv	r5, r5, r6
 2232              	.LVL144:
 781:Drivers/STM32H7xx_HAL_Driver/Src/stm32h7xx_ll_usb.c **** 
 2233              		.loc 1 781 9 is_stmt 1 view .LVU767
 781:Drivers/STM32H7xx_HAL_Driver/Src/stm32h7xx_ll_usb.c **** 
 2234              		.loc 1 781 25 is_stmt 0 view .LVU768
 2235 0112 1E69     		ldr	r6, [r3, #16]
 2236 0114 1FFA85FC 		uxth	ip, r5
 781:Drivers/STM32H7xx_HAL_Driver/Src/stm32h7xx_ll_usb.c **** 
 2237              		.loc 1 781 64 view .LVU769
 2238 0118 494F     		ldr	r7, .L169
 2239 011a 07EAC545 		and	r5, r7, r5, lsl #19
 2240              	.LVL145:
 781:Drivers/STM32H7xx_HAL_Driver/Src/stm32h7xx_ll_usb.c **** 
 2241              		.loc 1 781 36 view .LVU770
 2242 011e 3543     		orrs	r5, r5, r6
 2243 0120 1D61     		str	r5, [r3, #16]
 783:Drivers/STM32H7xx_HAL_Driver/Src/stm32h7xx_ll_usb.c ****         {
 2244              		.loc 1 783 9 is_stmt 1 view .LVU771
 783:Drivers/STM32H7xx_HAL_Driver/Src/stm32h7xx_ll_usb.c ****         {
 2245              		.loc 1 783 15 is_stmt 0 view .LVU772
 2246 0122 0D79     		ldrb	r5, [r1, #4]	@ zero_extendqisi2
 783:Drivers/STM32H7xx_HAL_Driver/Src/stm32h7xx_ll_usb.c ****         {
 2247              		.loc 1 783 12 view .LVU773
 2248 0124 012D     		cmp	r5, #1
 2249 0126 E6D1     		bne	.L147
 785:Drivers/STM32H7xx_HAL_Driver/Src/stm32h7xx_ll_usb.c ****           USBx_INEP(epnum)->DIEPTSIZ |= (USB_OTG_DIEPTSIZ_MULCNT & ((uint32_t)pktcnt << 29));
 2250              		.loc 1 785 11 is_stmt 1 view .LVU774
 785:Drivers/STM32H7xx_HAL_Driver/Src/stm32h7xx_ll_usb.c ****           USBx_INEP(epnum)->DIEPTSIZ |= (USB_OTG_DIEPTSIZ_MULCNT & ((uint32_t)pktcnt << 29));
 2251              		.loc 1 785 27 is_stmt 0 view .LVU775
 2252 0128 1D69     		ldr	r5, [r3, #16]
 785:Drivers/STM32H7xx_HAL_Driver/Src/stm32h7xx_ll_usb.c ****           USBx_INEP(epnum)->DIEPTSIZ |= (USB_OTG_DIEPTSIZ_MULCNT & ((uint32_t)pktcnt << 29));
 2253              		.loc 1 785 38 view .LVU776
 2254 012a 25F0C045 		bic	r5, r5, #1610612736
 2255 012e 1D61     		str	r5, [r3, #16]
 786:Drivers/STM32H7xx_HAL_Driver/Src/stm32h7xx_ll_usb.c ****         }
 2256              		.loc 1 786 11 is_stmt 1 view .LVU777
 786:Drivers/STM32H7xx_HAL_Driver/Src/stm32h7xx_ll_usb.c ****         }
 2257              		.loc 1 786 27 is_stmt 0 view .LVU778
 2258 0130 1D69     		ldr	r5, [r3, #16]
ARM GAS  C:\Users\Nathan\AppData\Local\Temp\cc7cwqzo.s 			page 78


 786:Drivers/STM32H7xx_HAL_Driver/Src/stm32h7xx_ll_usb.c ****         }
 2259              		.loc 1 786 86 view .LVU779
 2260 0132 4FEA4C7C 		lsl	ip, ip, #29
 2261              	.LVL146:
 786:Drivers/STM32H7xx_HAL_Driver/Src/stm32h7xx_ll_usb.c ****         }
 2262              		.loc 1 786 66 view .LVU780
 2263 0136 0CF0C04C 		and	ip, ip, #1610612736
 786:Drivers/STM32H7xx_HAL_Driver/Src/stm32h7xx_ll_usb.c ****         }
 2264              		.loc 1 786 38 view .LVU781
 2265 013a 45EA0C05 		orr	r5, r5, ip
 2266 013e 1D61     		str	r5, [r3, #16]
 2267 0140 D9E7     		b	.L147
 2268              	.LVL147:
 2269              	.L167:
 795:Drivers/STM32H7xx_HAL_Driver/Src/stm32h7xx_ll_usb.c ****       {
 2270              		.loc 1 795 7 is_stmt 1 view .LVU782
 795:Drivers/STM32H7xx_HAL_Driver/Src/stm32h7xx_ll_usb.c ****       {
 2271              		.loc 1 795 23 is_stmt 0 view .LVU783
 2272 0142 CB69     		ldr	r3, [r1, #28]
 795:Drivers/STM32H7xx_HAL_Driver/Src/stm32h7xx_ll_usb.c ****       {
 2273              		.loc 1 795 10 view .LVU784
 2274 0144 1BB1     		cbz	r3, .L149
 797:Drivers/STM32H7xx_HAL_Driver/Src/stm32h7xx_ll_usb.c ****       }
 2275              		.loc 1 797 9 is_stmt 1 view .LVU785
 2276 0146 00EB4412 		add	r2, r0, r4, lsl #5
 2277              	.LVL148:
 797:Drivers/STM32H7xx_HAL_Driver/Src/stm32h7xx_ll_usb.c ****       }
 2278              		.loc 1 797 35 is_stmt 0 view .LVU786
 2279 014a C2F81439 		str	r3, [r2, #2324]
 2280              	.L149:
 800:Drivers/STM32H7xx_HAL_Driver/Src/stm32h7xx_ll_usb.c ****       {
 2281              		.loc 1 800 7 is_stmt 1 view .LVU787
 800:Drivers/STM32H7xx_HAL_Driver/Src/stm32h7xx_ll_usb.c ****       {
 2282              		.loc 1 800 13 is_stmt 0 view .LVU788
 2283 014e 0B79     		ldrb	r3, [r1, #4]	@ zero_extendqisi2
 800:Drivers/STM32H7xx_HAL_Driver/Src/stm32h7xx_ll_usb.c ****       {
 2284              		.loc 1 800 10 view .LVU789
 2285 0150 012B     		cmp	r3, #1
 2286 0152 08D0     		beq	.L168
 2287              	.L150:
 813:Drivers/STM32H7xx_HAL_Driver/Src/stm32h7xx_ll_usb.c ****     }
 2288              		.loc 1 813 7 is_stmt 1 view .LVU790
 813:Drivers/STM32H7xx_HAL_Driver/Src/stm32h7xx_ll_usb.c ****     }
 2289              		.loc 1 813 23 is_stmt 0 view .LVU791
 2290 0154 00EB4414 		add	r4, r0, r4, lsl #5
 2291              	.LVL149:
 813:Drivers/STM32H7xx_HAL_Driver/Src/stm32h7xx_ll_usb.c ****     }
 2292              		.loc 1 813 23 view .LVU792
 2293 0158 D4F80039 		ldr	r3, [r4, #2304]
 813:Drivers/STM32H7xx_HAL_Driver/Src/stm32h7xx_ll_usb.c ****     }
 2294              		.loc 1 813 33 view .LVU793
 2295 015c 43F00443 		orr	r3, r3, #-2080374784
 2296 0160 C4F80039 		str	r3, [r4, #2304]
 2297 0164 7DE7     		b	.L152
 2298              	.LVL150:
 2299              	.L168:
 802:Drivers/STM32H7xx_HAL_Driver/Src/stm32h7xx_ll_usb.c ****         {
ARM GAS  C:\Users\Nathan\AppData\Local\Temp\cc7cwqzo.s 			page 79


 2300              		.loc 1 802 9 is_stmt 1 view .LVU794
 802:Drivers/STM32H7xx_HAL_Driver/Src/stm32h7xx_ll_usb.c ****         {
 2301              		.loc 1 802 25 is_stmt 0 view .LVU795
 2302 0166 D0F80838 		ldr	r3, [r0, #2056]
 802:Drivers/STM32H7xx_HAL_Driver/Src/stm32h7xx_ll_usb.c ****         {
 2303              		.loc 1 802 12 view .LVU796
 2304 016a 13F4807F 		tst	r3, #256
 2305 016e 08D1     		bne	.L151
 804:Drivers/STM32H7xx_HAL_Driver/Src/stm32h7xx_ll_usb.c ****         }
 2306              		.loc 1 804 11 is_stmt 1 view .LVU797
 804:Drivers/STM32H7xx_HAL_Driver/Src/stm32h7xx_ll_usb.c ****         }
 2307              		.loc 1 804 27 is_stmt 0 view .LVU798
 2308 0170 00EB4412 		add	r2, r0, r4, lsl #5
 2309 0174 D2F80039 		ldr	r3, [r2, #2304]
 804:Drivers/STM32H7xx_HAL_Driver/Src/stm32h7xx_ll_usb.c ****         }
 2310              		.loc 1 804 37 view .LVU799
 2311 0178 43F00053 		orr	r3, r3, #536870912
 2312 017c C2F80039 		str	r3, [r2, #2304]
 2313 0180 E8E7     		b	.L150
 2314              	.L151:
 808:Drivers/STM32H7xx_HAL_Driver/Src/stm32h7xx_ll_usb.c ****         }
 2315              		.loc 1 808 11 is_stmt 1 view .LVU800
 808:Drivers/STM32H7xx_HAL_Driver/Src/stm32h7xx_ll_usb.c ****         }
 2316              		.loc 1 808 27 is_stmt 0 view .LVU801
 2317 0182 00EB4412 		add	r2, r0, r4, lsl #5
 2318 0186 D2F80039 		ldr	r3, [r2, #2304]
 808:Drivers/STM32H7xx_HAL_Driver/Src/stm32h7xx_ll_usb.c ****         }
 2319              		.loc 1 808 37 view .LVU802
 2320 018a 43F08053 		orr	r3, r3, #268435456
 2321 018e C2F80039 		str	r3, [r2, #2304]
 2322 0192 DFE7     		b	.L150
 2323              	.LVL151:
 2324              	.L153:
 830:Drivers/STM32H7xx_HAL_Driver/Src/stm32h7xx_ll_usb.c ****         {
 2325              		.loc 1 830 9 is_stmt 1 view .LVU803
 830:Drivers/STM32H7xx_HAL_Driver/Src/stm32h7xx_ll_usb.c ****         {
 2326              		.loc 1 830 25 is_stmt 0 view .LVU804
 2327 0194 D0F80838 		ldr	r3, [r0, #2056]
 830:Drivers/STM32H7xx_HAL_Driver/Src/stm32h7xx_ll_usb.c ****         {
 2328              		.loc 1 830 12 view .LVU805
 2329 0198 13F4807F 		tst	r3, #256
 2330 019c 0CD1     		bne	.L154
 832:Drivers/STM32H7xx_HAL_Driver/Src/stm32h7xx_ll_usb.c ****         }
 2331              		.loc 1 832 11 is_stmt 1 view .LVU806
 832:Drivers/STM32H7xx_HAL_Driver/Src/stm32h7xx_ll_usb.c ****         }
 2332              		.loc 1 832 27 is_stmt 0 view .LVU807
 2333 019e D4F80039 		ldr	r3, [r4, #2304]
 832:Drivers/STM32H7xx_HAL_Driver/Src/stm32h7xx_ll_usb.c ****         }
 2334              		.loc 1 832 37 view .LVU808
 2335 01a2 43F00053 		orr	r3, r3, #536870912
 2336 01a6 C4F80039 		str	r3, [r4, #2304]
 2337              	.L155:
 839:Drivers/STM32H7xx_HAL_Driver/Src/stm32h7xx_ll_usb.c ****       }
 2338              		.loc 1 839 9 is_stmt 1 view .LVU809
 839:Drivers/STM32H7xx_HAL_Driver/Src/stm32h7xx_ll_usb.c ****       }
 2339              		.loc 1 839 15 is_stmt 0 view .LVU810
 2340 01aa 0092     		str	r2, [sp]
ARM GAS  C:\Users\Nathan\AppData\Local\Temp\cc7cwqzo.s 			page 80


 2341 01ac 0B8A     		ldrh	r3, [r1, #16]
 2342 01ae 0A78     		ldrb	r2, [r1]	@ zero_extendqisi2
 2343              	.LVL152:
 839:Drivers/STM32H7xx_HAL_Driver/Src/stm32h7xx_ll_usb.c ****       }
 2344              		.loc 1 839 15 view .LVU811
 2345 01b0 C968     		ldr	r1, [r1, #12]
 2346              	.LVL153:
 839:Drivers/STM32H7xx_HAL_Driver/Src/stm32h7xx_ll_usb.c ****       }
 2347              		.loc 1 839 15 view .LVU812
 2348 01b2 FFF7FEFF 		bl	USB_WritePacket
 2349              	.LVL154:
 839:Drivers/STM32H7xx_HAL_Driver/Src/stm32h7xx_ll_usb.c ****       }
 2350              		.loc 1 839 15 view .LVU813
 2351 01b6 54E7     		b	.L152
 2352              	.LVL155:
 2353              	.L154:
 836:Drivers/STM32H7xx_HAL_Driver/Src/stm32h7xx_ll_usb.c ****         }
 2354              		.loc 1 836 11 is_stmt 1 view .LVU814
 836:Drivers/STM32H7xx_HAL_Driver/Src/stm32h7xx_ll_usb.c ****         }
 2355              		.loc 1 836 27 is_stmt 0 view .LVU815
 2356 01b8 D4F80039 		ldr	r3, [r4, #2304]
 836:Drivers/STM32H7xx_HAL_Driver/Src/stm32h7xx_ll_usb.c ****         }
 2357              		.loc 1 836 37 view .LVU816
 2358 01bc 43F08053 		orr	r3, r3, #268435456
 2359 01c0 C4F80039 		str	r3, [r4, #2304]
 2360 01c4 F1E7     		b	.L155
 2361              	.LVL156:
 2362              	.L156:
 867:Drivers/STM32H7xx_HAL_Driver/Src/stm32h7xx_ll_usb.c ****       {
 2363              		.loc 1 867 7 is_stmt 1 view .LVU817
 867:Drivers/STM32H7xx_HAL_Driver/Src/stm32h7xx_ll_usb.c ****       {
 2364              		.loc 1 867 13 is_stmt 0 view .LVU818
 2365 01c6 0C69     		ldr	r4, [r1, #16]
 2366              	.LVL157:
 867:Drivers/STM32H7xx_HAL_Driver/Src/stm32h7xx_ll_usb.c ****       {
 2367              		.loc 1 867 10 view .LVU819
 2368 01c8 54B9     		cbnz	r4, .L159
 869:Drivers/STM32H7xx_HAL_Driver/Src/stm32h7xx_ll_usb.c ****         USBx_OUTEP(epnum)->DOEPTSIZ |= (USB_OTG_DOEPTSIZ_PKTCNT & (1U << 19));
 2369              		.loc 1 869 9 is_stmt 1 view .LVU820
 869:Drivers/STM32H7xx_HAL_Driver/Src/stm32h7xx_ll_usb.c ****         USBx_OUTEP(epnum)->DOEPTSIZ |= (USB_OTG_DOEPTSIZ_PKTCNT & (1U << 19));
 2370              		.loc 1 869 26 is_stmt 0 view .LVU821
 2371 01ca 1C69     		ldr	r4, [r3, #16]
 869:Drivers/STM32H7xx_HAL_Driver/Src/stm32h7xx_ll_usb.c ****         USBx_OUTEP(epnum)->DOEPTSIZ |= (USB_OTG_DOEPTSIZ_PKTCNT & (1U << 19));
 2372              		.loc 1 869 69 view .LVU822
 2373 01cc 8D68     		ldr	r5, [r1, #8]
 869:Drivers/STM32H7xx_HAL_Driver/Src/stm32h7xx_ll_usb.c ****         USBx_OUTEP(epnum)->DOEPTSIZ |= (USB_OTG_DOEPTSIZ_PKTCNT & (1U << 19));
 2374              		.loc 1 869 65 view .LVU823
 2375 01ce C5F31205 		ubfx	r5, r5, #0, #19
 869:Drivers/STM32H7xx_HAL_Driver/Src/stm32h7xx_ll_usb.c ****         USBx_OUTEP(epnum)->DOEPTSIZ |= (USB_OTG_DOEPTSIZ_PKTCNT & (1U << 19));
 2376              		.loc 1 869 37 view .LVU824
 2377 01d2 2C43     		orrs	r4, r4, r5
 2378 01d4 1C61     		str	r4, [r3, #16]
 870:Drivers/STM32H7xx_HAL_Driver/Src/stm32h7xx_ll_usb.c ****       }
 2379              		.loc 1 870 9 is_stmt 1 view .LVU825
 870:Drivers/STM32H7xx_HAL_Driver/Src/stm32h7xx_ll_usb.c ****       }
 2380              		.loc 1 870 26 is_stmt 0 view .LVU826
 2381 01d6 1C69     		ldr	r4, [r3, #16]
ARM GAS  C:\Users\Nathan\AppData\Local\Temp\cc7cwqzo.s 			page 81


 870:Drivers/STM32H7xx_HAL_Driver/Src/stm32h7xx_ll_usb.c ****       }
 2382              		.loc 1 870 37 view .LVU827
 2383 01d8 44F40024 		orr	r4, r4, #524288
 2384 01dc 1C61     		str	r4, [r3, #16]
 2385 01de 33E7     		b	.L158
 2386              	.L159:
 874:Drivers/STM32H7xx_HAL_Driver/Src/stm32h7xx_ll_usb.c ****         ep->xfer_size = ep->maxpacket * pktcnt;
 2387              		.loc 1 874 9 is_stmt 1 view .LVU828
 874:Drivers/STM32H7xx_HAL_Driver/Src/stm32h7xx_ll_usb.c ****         ep->xfer_size = ep->maxpacket * pktcnt;
 2388              		.loc 1 874 47 is_stmt 0 view .LVU829
 2389 01e0 8D68     		ldr	r5, [r1, #8]
 874:Drivers/STM32H7xx_HAL_Driver/Src/stm32h7xx_ll_usb.c ****         ep->xfer_size = ep->maxpacket * pktcnt;
 2390              		.loc 1 874 43 view .LVU830
 2391 01e2 2C44     		add	r4, r4, r5
 874:Drivers/STM32H7xx_HAL_Driver/Src/stm32h7xx_ll_usb.c ****         ep->xfer_size = ep->maxpacket * pktcnt;
 2392              		.loc 1 874 59 view .LVU831
 2393 01e4 013C     		subs	r4, r4, #1
 874:Drivers/STM32H7xx_HAL_Driver/Src/stm32h7xx_ll_usb.c ****         ep->xfer_size = ep->maxpacket * pktcnt;
 2394              		.loc 1 874 65 view .LVU832
 2395 01e6 B4FBF5F4 		udiv	r4, r4, r5
 2396              	.LVL158:
 875:Drivers/STM32H7xx_HAL_Driver/Src/stm32h7xx_ll_usb.c **** 
 2397              		.loc 1 875 9 is_stmt 1 view .LVU833
 2398 01ea A4B2     		uxth	r4, r4
 875:Drivers/STM32H7xx_HAL_Driver/Src/stm32h7xx_ll_usb.c **** 
 2399              		.loc 1 875 39 is_stmt 0 view .LVU834
 2400 01ec 04FB05F5 		mul	r5, r4, r5
 875:Drivers/STM32H7xx_HAL_Driver/Src/stm32h7xx_ll_usb.c **** 
 2401              		.loc 1 875 23 view .LVU835
 2402 01f0 0D62     		str	r5, [r1, #32]
 877:Drivers/STM32H7xx_HAL_Driver/Src/stm32h7xx_ll_usb.c ****         USBx_OUTEP(epnum)->DOEPTSIZ |= USB_OTG_DOEPTSIZ_XFRSIZ & ep->xfer_size;
 2403              		.loc 1 877 9 is_stmt 1 view .LVU836
 877:Drivers/STM32H7xx_HAL_Driver/Src/stm32h7xx_ll_usb.c ****         USBx_OUTEP(epnum)->DOEPTSIZ |= USB_OTG_DOEPTSIZ_XFRSIZ & ep->xfer_size;
 2404              		.loc 1 877 26 is_stmt 0 view .LVU837
 2405 01f2 1D69     		ldr	r5, [r3, #16]
 877:Drivers/STM32H7xx_HAL_Driver/Src/stm32h7xx_ll_usb.c ****         USBx_OUTEP(epnum)->DOEPTSIZ |= USB_OTG_DOEPTSIZ_XFRSIZ & ep->xfer_size;
 2406              		.loc 1 877 64 view .LVU838
 2407 01f4 124E     		ldr	r6, .L169
 2408 01f6 06EAC444 		and	r4, r6, r4, lsl #19
 2409              	.LVL159:
 877:Drivers/STM32H7xx_HAL_Driver/Src/stm32h7xx_ll_usb.c ****         USBx_OUTEP(epnum)->DOEPTSIZ |= USB_OTG_DOEPTSIZ_XFRSIZ & ep->xfer_size;
 2410              		.loc 1 877 37 view .LVU839
 2411 01fa 2C43     		orrs	r4, r4, r5
 2412 01fc 1C61     		str	r4, [r3, #16]
 2413              	.LVL160:
 878:Drivers/STM32H7xx_HAL_Driver/Src/stm32h7xx_ll_usb.c ****       }
 2414              		.loc 1 878 9 is_stmt 1 view .LVU840
 878:Drivers/STM32H7xx_HAL_Driver/Src/stm32h7xx_ll_usb.c ****       }
 2415              		.loc 1 878 26 is_stmt 0 view .LVU841
 2416 01fe 1C69     		ldr	r4, [r3, #16]
 878:Drivers/STM32H7xx_HAL_Driver/Src/stm32h7xx_ll_usb.c ****       }
 2417              		.loc 1 878 68 view .LVU842
 2418 0200 0D6A     		ldr	r5, [r1, #32]
 878:Drivers/STM32H7xx_HAL_Driver/Src/stm32h7xx_ll_usb.c ****       }
 2419              		.loc 1 878 64 view .LVU843
 2420 0202 C5F31205 		ubfx	r5, r5, #0, #19
 878:Drivers/STM32H7xx_HAL_Driver/Src/stm32h7xx_ll_usb.c ****       }
ARM GAS  C:\Users\Nathan\AppData\Local\Temp\cc7cwqzo.s 			page 82


 2421              		.loc 1 878 37 view .LVU844
 2422 0206 2C43     		orrs	r4, r4, r5
 2423 0208 1C61     		str	r4, [r3, #16]
 2424 020a 1DE7     		b	.L158
 2425              	.LVL161:
 2426              	.L165:
 884:Drivers/STM32H7xx_HAL_Driver/Src/stm32h7xx_ll_usb.c ****       {
 2427              		.loc 1 884 7 is_stmt 1 view .LVU845
 884:Drivers/STM32H7xx_HAL_Driver/Src/stm32h7xx_ll_usb.c ****       {
 2428              		.loc 1 884 23 is_stmt 0 view .LVU846
 2429 020c CA68     		ldr	r2, [r1, #12]
 2430              	.LVL162:
 884:Drivers/STM32H7xx_HAL_Driver/Src/stm32h7xx_ll_usb.c ****       {
 2431              		.loc 1 884 10 view .LVU847
 2432 020e 002A     		cmp	r2, #0
 2433 0210 3FF41DAF 		beq	.L160
 886:Drivers/STM32H7xx_HAL_Driver/Src/stm32h7xx_ll_usb.c ****       }
 2434              		.loc 1 886 9 is_stmt 1 view .LVU848
 886:Drivers/STM32H7xx_HAL_Driver/Src/stm32h7xx_ll_usb.c ****       }
 2435              		.loc 1 886 36 is_stmt 0 view .LVU849
 2436 0214 5A61     		str	r2, [r3, #20]
 2437 0216 1AE7     		b	.L160
 2438              	.L166:
 892:Drivers/STM32H7xx_HAL_Driver/Src/stm32h7xx_ll_usb.c ****       {
 2439              		.loc 1 892 7 is_stmt 1 view .LVU850
 892:Drivers/STM32H7xx_HAL_Driver/Src/stm32h7xx_ll_usb.c ****       {
 2440              		.loc 1 892 23 is_stmt 0 view .LVU851
 2441 0218 D0F80838 		ldr	r3, [r0, #2056]
 892:Drivers/STM32H7xx_HAL_Driver/Src/stm32h7xx_ll_usb.c ****       {
 2442              		.loc 1 892 10 view .LVU852
 2443 021c 13F4807F 		tst	r3, #256
 2444 0220 06D1     		bne	.L162
 894:Drivers/STM32H7xx_HAL_Driver/Src/stm32h7xx_ll_usb.c ****       }
 2445              		.loc 1 894 9 is_stmt 1 view .LVU853
 894:Drivers/STM32H7xx_HAL_Driver/Src/stm32h7xx_ll_usb.c ****       }
 2446              		.loc 1 894 26 is_stmt 0 view .LVU854
 2447 0222 DCF8003B 		ldr	r3, [ip, #2816]
 894:Drivers/STM32H7xx_HAL_Driver/Src/stm32h7xx_ll_usb.c ****       }
 2448              		.loc 1 894 36 view .LVU855
 2449 0226 43F00053 		orr	r3, r3, #536870912
 2450 022a CCF8003B 		str	r3, [ip, #2816]
 2451 022e 12E7     		b	.L161
 2452              	.L162:
 898:Drivers/STM32H7xx_HAL_Driver/Src/stm32h7xx_ll_usb.c ****       }
 2453              		.loc 1 898 9 is_stmt 1 view .LVU856
 898:Drivers/STM32H7xx_HAL_Driver/Src/stm32h7xx_ll_usb.c ****       }
 2454              		.loc 1 898 26 is_stmt 0 view .LVU857
 2455 0230 DCF8003B 		ldr	r3, [ip, #2816]
 898:Drivers/STM32H7xx_HAL_Driver/Src/stm32h7xx_ll_usb.c ****       }
 2456              		.loc 1 898 36 view .LVU858
 2457 0234 43F08053 		orr	r3, r3, #268435456
 2458 0238 CCF8003B 		str	r3, [ip, #2816]
 2459 023c 0BE7     		b	.L161
 2460              	.L170:
 2461 023e 00BF     		.align	2
 2462              	.L169:
 2463 0240 0000F81F 		.word	536346624
ARM GAS  C:\Users\Nathan\AppData\Local\Temp\cc7cwqzo.s 			page 83


 2464              		.cfi_endproc
 2465              	.LFE158:
 2467              		.section	.text.USB_ReadPacket,"ax",%progbits
 2468              		.align	1
 2469              		.global	USB_ReadPacket
 2470              		.syntax unified
 2471              		.thumb
 2472              		.thumb_func
 2474              	USB_ReadPacket:
 2475              	.LVL163:
 2476              	.LFB161:
1011:Drivers/STM32H7xx_HAL_Driver/Src/stm32h7xx_ll_usb.c ****   uint32_t USBx_BASE = (uint32_t)USBx;
 2477              		.loc 1 1011 1 is_stmt 1 view -0
 2478              		.cfi_startproc
 2479              		@ args = 0, pretend = 0, frame = 0
 2480              		@ frame_needed = 0, uses_anonymous_args = 0
1011:Drivers/STM32H7xx_HAL_Driver/Src/stm32h7xx_ll_usb.c ****   uint32_t USBx_BASE = (uint32_t)USBx;
 2481              		.loc 1 1011 1 is_stmt 0 view .LVU860
 2482 0000 10B5     		push	{r4, lr}
 2483              		.cfi_def_cfa_offset 8
 2484              		.cfi_offset 4, -8
 2485              		.cfi_offset 14, -4
 2486 0002 8446     		mov	ip, r0
 2487 0004 0846     		mov	r0, r1
 2488              	.LVL164:
1012:Drivers/STM32H7xx_HAL_Driver/Src/stm32h7xx_ll_usb.c ****   uint8_t *pDest = dest;
 2489              		.loc 1 1012 3 is_stmt 1 view .LVU861
1013:Drivers/STM32H7xx_HAL_Driver/Src/stm32h7xx_ll_usb.c ****   uint32_t pData;
 2490              		.loc 1 1013 3 view .LVU862
1014:Drivers/STM32H7xx_HAL_Driver/Src/stm32h7xx_ll_usb.c ****   uint32_t i;
 2491              		.loc 1 1014 3 view .LVU863
1015:Drivers/STM32H7xx_HAL_Driver/Src/stm32h7xx_ll_usb.c ****   uint32_t count32b = (uint32_t)len >> 2U;
 2492              		.loc 1 1015 3 view .LVU864
1016:Drivers/STM32H7xx_HAL_Driver/Src/stm32h7xx_ll_usb.c ****   uint16_t remaining_bytes = len % 4U;
 2493              		.loc 1 1016 3 view .LVU865
1016:Drivers/STM32H7xx_HAL_Driver/Src/stm32h7xx_ll_usb.c ****   uint16_t remaining_bytes = len % 4U;
 2494              		.loc 1 1016 37 is_stmt 0 view .LVU866
 2495 0006 4FEA920E 		lsr	lr, r2, #2
 2496              	.LVL165:
1017:Drivers/STM32H7xx_HAL_Driver/Src/stm32h7xx_ll_usb.c **** 
 2497              		.loc 1 1017 3 is_stmt 1 view .LVU867
1017:Drivers/STM32H7xx_HAL_Driver/Src/stm32h7xx_ll_usb.c **** 
 2498              		.loc 1 1017 12 is_stmt 0 view .LVU868
 2499 000a 02F00302 		and	r2, r2, #3
 2500              	.LVL166:
1019:Drivers/STM32H7xx_HAL_Driver/Src/stm32h7xx_ll_usb.c ****   {
 2501              		.loc 1 1019 3 is_stmt 1 view .LVU869
1019:Drivers/STM32H7xx_HAL_Driver/Src/stm32h7xx_ll_usb.c ****   {
 2502              		.loc 1 1019 10 is_stmt 0 view .LVU870
 2503 000e 0023     		movs	r3, #0
1019:Drivers/STM32H7xx_HAL_Driver/Src/stm32h7xx_ll_usb.c ****   {
 2504              		.loc 1 1019 3 view .LVU871
 2505 0010 05E0     		b	.L172
 2506              	.LVL167:
 2507              	.L173:
1021:Drivers/STM32H7xx_HAL_Driver/Src/stm32h7xx_ll_usb.c ****     pDest++;
 2508              		.loc 1 1021 5 is_stmt 1 view .LVU872
ARM GAS  C:\Users\Nathan\AppData\Local\Temp\cc7cwqzo.s 			page 84


 2509 0012 0CF58051 		add	r1, ip, #4096
 2510 0016 0968     		ldr	r1, [r1]
 2511 0018 40F8041B 		str	r1, [r0], #4	@ unaligned
 2512              	.LVL168:
1022:Drivers/STM32H7xx_HAL_Driver/Src/stm32h7xx_ll_usb.c ****     pDest++;
 2513              		.loc 1 1022 5 view .LVU873
1023:Drivers/STM32H7xx_HAL_Driver/Src/stm32h7xx_ll_usb.c ****     pDest++;
 2514              		.loc 1 1023 5 view .LVU874
1024:Drivers/STM32H7xx_HAL_Driver/Src/stm32h7xx_ll_usb.c ****     pDest++;
 2515              		.loc 1 1024 5 view .LVU875
1025:Drivers/STM32H7xx_HAL_Driver/Src/stm32h7xx_ll_usb.c ****   }
 2516              		.loc 1 1025 5 view .LVU876
1019:Drivers/STM32H7xx_HAL_Driver/Src/stm32h7xx_ll_usb.c ****   {
 2517              		.loc 1 1019 31 discriminator 3 view .LVU877
 2518 001c 0133     		adds	r3, r3, #1
 2519              	.LVL169:
 2520              	.L172:
1019:Drivers/STM32H7xx_HAL_Driver/Src/stm32h7xx_ll_usb.c ****   {
 2521              		.loc 1 1019 18 discriminator 1 view .LVU878
 2522 001e 7345     		cmp	r3, lr
 2523 0020 F7D3     		bcc	.L173
1029:Drivers/STM32H7xx_HAL_Driver/Src/stm32h7xx_ll_usb.c ****   {
 2524              		.loc 1 1029 3 view .LVU879
1029:Drivers/STM32H7xx_HAL_Driver/Src/stm32h7xx_ll_usb.c ****   {
 2525              		.loc 1 1029 6 is_stmt 0 view .LVU880
 2526 0022 7AB1     		cbz	r2, .L174
1031:Drivers/STM32H7xx_HAL_Driver/Src/stm32h7xx_ll_usb.c ****     __UNALIGNED_UINT32_WRITE(&pData, USBx_DFIFO(0U));
 2527              		.loc 1 1031 5 is_stmt 1 view .LVU881
 2528              	.LVL170:
1032:Drivers/STM32H7xx_HAL_Driver/Src/stm32h7xx_ll_usb.c **** 
 2529              		.loc 1 1032 5 view .LVU882
 2530 0024 0CF5805C 		add	ip, ip, #4096
 2531              	.LVL171:
1032:Drivers/STM32H7xx_HAL_Driver/Src/stm32h7xx_ll_usb.c **** 
 2532              		.loc 1 1032 5 is_stmt 0 view .LVU883
 2533 0028 DCF80040 		ldr	r4, [ip]
1031:Drivers/STM32H7xx_HAL_Driver/Src/stm32h7xx_ll_usb.c ****     __UNALIGNED_UINT32_WRITE(&pData, USBx_DFIFO(0U));
 2534              		.loc 1 1031 7 view .LVU884
 2535 002c 0021     		movs	r1, #0
 2536              	.LVL172:
 2537              	.L175:
1034:Drivers/STM32H7xx_HAL_Driver/Src/stm32h7xx_ll_usb.c ****     {
 2538              		.loc 1 1034 5 is_stmt 1 view .LVU885
1036:Drivers/STM32H7xx_HAL_Driver/Src/stm32h7xx_ll_usb.c ****       i++;
 2539              		.loc 1 1036 7 view .LVU886
1036:Drivers/STM32H7xx_HAL_Driver/Src/stm32h7xx_ll_usb.c ****       i++;
 2540              		.loc 1 1036 50 is_stmt 0 view .LVU887
 2541 002e CBB2     		uxtb	r3, r1
 2542 0030 DB00     		lsls	r3, r3, #3
1036:Drivers/STM32H7xx_HAL_Driver/Src/stm32h7xx_ll_usb.c ****       i++;
 2543              		.loc 1 1036 43 view .LVU888
 2544 0032 24FA03F3 		lsr	r3, r4, r3
1036:Drivers/STM32H7xx_HAL_Driver/Src/stm32h7xx_ll_usb.c ****       i++;
 2545              		.loc 1 1036 25 view .LVU889
 2546 0036 00F8013B 		strb	r3, [r0], #1
 2547              	.LVL173:
1037:Drivers/STM32H7xx_HAL_Driver/Src/stm32h7xx_ll_usb.c ****       pDest++;
ARM GAS  C:\Users\Nathan\AppData\Local\Temp\cc7cwqzo.s 			page 85


 2548              		.loc 1 1037 7 is_stmt 1 view .LVU890
1037:Drivers/STM32H7xx_HAL_Driver/Src/stm32h7xx_ll_usb.c ****       pDest++;
 2549              		.loc 1 1037 8 is_stmt 0 view .LVU891
 2550 003a 0131     		adds	r1, r1, #1
 2551              	.LVL174:
1038:Drivers/STM32H7xx_HAL_Driver/Src/stm32h7xx_ll_usb.c ****       remaining_bytes--;
 2552              		.loc 1 1038 7 is_stmt 1 view .LVU892
1039:Drivers/STM32H7xx_HAL_Driver/Src/stm32h7xx_ll_usb.c ****     } while (remaining_bytes != 0U);
 2553              		.loc 1 1039 7 view .LVU893
1039:Drivers/STM32H7xx_HAL_Driver/Src/stm32h7xx_ll_usb.c ****     } while (remaining_bytes != 0U);
 2554              		.loc 1 1039 22 is_stmt 0 view .LVU894
 2555 003c 013A     		subs	r2, r2, #1
 2556              	.LVL175:
1039:Drivers/STM32H7xx_HAL_Driver/Src/stm32h7xx_ll_usb.c ****     } while (remaining_bytes != 0U);
 2557              		.loc 1 1039 22 view .LVU895
 2558 003e 92B2     		uxth	r2, r2
 2559              	.LVL176:
1040:Drivers/STM32H7xx_HAL_Driver/Src/stm32h7xx_ll_usb.c ****   }
 2560              		.loc 1 1040 30 is_stmt 1 discriminator 1 view .LVU896
 2561 0040 002A     		cmp	r2, #0
 2562 0042 F4D1     		bne	.L175
 2563              	.LVL177:
 2564              	.L174:
1043:Drivers/STM32H7xx_HAL_Driver/Src/stm32h7xx_ll_usb.c **** }
 2565              		.loc 1 1043 3 view .LVU897
1044:Drivers/STM32H7xx_HAL_Driver/Src/stm32h7xx_ll_usb.c **** 
 2566              		.loc 1 1044 1 is_stmt 0 view .LVU898
 2567 0044 10BD     		pop	{r4, pc}
 2568              		.cfi_endproc
 2569              	.LFE161:
 2571              		.section	.text.USB_EPSetStall,"ax",%progbits
 2572              		.align	1
 2573              		.global	USB_EPSetStall
 2574              		.syntax unified
 2575              		.thumb
 2576              		.thumb_func
 2578              	USB_EPSetStall:
 2579              	.LVL178:
 2580              	.LFB162:
1053:Drivers/STM32H7xx_HAL_Driver/Src/stm32h7xx_ll_usb.c ****   uint32_t USBx_BASE = (uint32_t)USBx;
 2581              		.loc 1 1053 1 is_stmt 1 view -0
 2582              		.cfi_startproc
 2583              		@ args = 0, pretend = 0, frame = 0
 2584              		@ frame_needed = 0, uses_anonymous_args = 0
 2585              		@ link register save eliminated.
1054:Drivers/STM32H7xx_HAL_Driver/Src/stm32h7xx_ll_usb.c ****   uint32_t epnum = (uint32_t)ep->num;
 2586              		.loc 1 1054 3 view .LVU900
1055:Drivers/STM32H7xx_HAL_Driver/Src/stm32h7xx_ll_usb.c **** 
 2587              		.loc 1 1055 3 view .LVU901
1055:Drivers/STM32H7xx_HAL_Driver/Src/stm32h7xx_ll_usb.c **** 
 2588              		.loc 1 1055 32 is_stmt 0 view .LVU902
 2589 0000 0B78     		ldrb	r3, [r1]	@ zero_extendqisi2
 2590              	.LVL179:
1057:Drivers/STM32H7xx_HAL_Driver/Src/stm32h7xx_ll_usb.c ****   {
 2591              		.loc 1 1057 3 is_stmt 1 view .LVU903
1057:Drivers/STM32H7xx_HAL_Driver/Src/stm32h7xx_ll_usb.c ****   {
 2592              		.loc 1 1057 9 is_stmt 0 view .LVU904
ARM GAS  C:\Users\Nathan\AppData\Local\Temp\cc7cwqzo.s 			page 86


 2593 0002 4A78     		ldrb	r2, [r1, #1]	@ zero_extendqisi2
1057:Drivers/STM32H7xx_HAL_Driver/Src/stm32h7xx_ll_usb.c ****   {
 2594              		.loc 1 1057 6 view .LVU905
 2595 0004 012A     		cmp	r2, #1
 2596 0006 14D0     		beq	.L182
1067:Drivers/STM32H7xx_HAL_Driver/Src/stm32h7xx_ll_usb.c ****     {
 2597              		.loc 1 1067 5 is_stmt 1 view .LVU906
1067:Drivers/STM32H7xx_HAL_Driver/Src/stm32h7xx_ll_usb.c ****     {
 2598              		.loc 1 1067 11 is_stmt 0 view .LVU907
 2599 0008 00EB4310 		add	r0, r0, r3, lsl #5
 2600              	.LVL180:
1067:Drivers/STM32H7xx_HAL_Driver/Src/stm32h7xx_ll_usb.c ****     {
 2601              		.loc 1 1067 28 view .LVU908
 2602 000c D0F8002B 		ldr	r2, [r0, #2816]
1067:Drivers/STM32H7xx_HAL_Driver/Src/stm32h7xx_ll_usb.c ****     {
 2603              		.loc 1 1067 8 view .LVU909
 2604 0010 002A     		cmp	r2, #0
 2605 0012 06DB     		blt	.L181
1067:Drivers/STM32H7xx_HAL_Driver/Src/stm32h7xx_ll_usb.c ****     {
 2606              		.loc 1 1067 70 discriminator 1 view .LVU910
 2607 0014 2BB1     		cbz	r3, .L181
1069:Drivers/STM32H7xx_HAL_Driver/Src/stm32h7xx_ll_usb.c ****     }
 2608              		.loc 1 1069 7 is_stmt 1 view .LVU911
1069:Drivers/STM32H7xx_HAL_Driver/Src/stm32h7xx_ll_usb.c ****     }
 2609              		.loc 1 1069 24 is_stmt 0 view .LVU912
 2610 0016 D0F8003B 		ldr	r3, [r0, #2816]
 2611              	.LVL181:
1069:Drivers/STM32H7xx_HAL_Driver/Src/stm32h7xx_ll_usb.c ****     }
 2612              		.loc 1 1069 34 view .LVU913
 2613 001a 23F08043 		bic	r3, r3, #1073741824
 2614 001e C0F8003B 		str	r3, [r0, #2816]
 2615              	.LVL182:
 2616              	.L181:
1071:Drivers/STM32H7xx_HAL_Driver/Src/stm32h7xx_ll_usb.c ****   }
 2617              		.loc 1 1071 5 is_stmt 1 view .LVU914
1071:Drivers/STM32H7xx_HAL_Driver/Src/stm32h7xx_ll_usb.c ****   }
 2618              		.loc 1 1071 22 is_stmt 0 view .LVU915
 2619 0022 D0F8003B 		ldr	r3, [r0, #2816]
1071:Drivers/STM32H7xx_HAL_Driver/Src/stm32h7xx_ll_usb.c ****   }
 2620              		.loc 1 1071 32 view .LVU916
 2621 0026 43F40013 		orr	r3, r3, #2097152
 2622 002a C0F8003B 		str	r3, [r0, #2816]
 2623              	.L180:
1074:Drivers/STM32H7xx_HAL_Driver/Src/stm32h7xx_ll_usb.c **** }
 2624              		.loc 1 1074 3 is_stmt 1 view .LVU917
1075:Drivers/STM32H7xx_HAL_Driver/Src/stm32h7xx_ll_usb.c **** 
 2625              		.loc 1 1075 1 is_stmt 0 view .LVU918
 2626 002e 0020     		movs	r0, #0
 2627 0030 7047     		bx	lr
 2628              	.LVL183:
 2629              	.L182:
1059:Drivers/STM32H7xx_HAL_Driver/Src/stm32h7xx_ll_usb.c ****     {
 2630              		.loc 1 1059 5 is_stmt 1 view .LVU919
1059:Drivers/STM32H7xx_HAL_Driver/Src/stm32h7xx_ll_usb.c ****     {
 2631              		.loc 1 1059 11 is_stmt 0 view .LVU920
 2632 0032 00EB4310 		add	r0, r0, r3, lsl #5
 2633              	.LVL184:
ARM GAS  C:\Users\Nathan\AppData\Local\Temp\cc7cwqzo.s 			page 87


1059:Drivers/STM32H7xx_HAL_Driver/Src/stm32h7xx_ll_usb.c ****     {
 2634              		.loc 1 1059 27 view .LVU921
 2635 0036 D0F80029 		ldr	r2, [r0, #2304]
1059:Drivers/STM32H7xx_HAL_Driver/Src/stm32h7xx_ll_usb.c ****     {
 2636              		.loc 1 1059 8 view .LVU922
 2637 003a 002A     		cmp	r2, #0
 2638 003c 06DB     		blt	.L179
1059:Drivers/STM32H7xx_HAL_Driver/Src/stm32h7xx_ll_usb.c ****     {
 2639              		.loc 1 1059 69 discriminator 1 view .LVU923
 2640 003e 2BB1     		cbz	r3, .L179
1061:Drivers/STM32H7xx_HAL_Driver/Src/stm32h7xx_ll_usb.c ****     }
 2641              		.loc 1 1061 7 is_stmt 1 view .LVU924
1061:Drivers/STM32H7xx_HAL_Driver/Src/stm32h7xx_ll_usb.c ****     }
 2642              		.loc 1 1061 23 is_stmt 0 view .LVU925
 2643 0040 D0F80039 		ldr	r3, [r0, #2304]
 2644              	.LVL185:
1061:Drivers/STM32H7xx_HAL_Driver/Src/stm32h7xx_ll_usb.c ****     }
 2645              		.loc 1 1061 33 view .LVU926
 2646 0044 23F08043 		bic	r3, r3, #1073741824
 2647 0048 C0F80039 		str	r3, [r0, #2304]
 2648              	.LVL186:
 2649              	.L179:
1063:Drivers/STM32H7xx_HAL_Driver/Src/stm32h7xx_ll_usb.c ****   }
 2650              		.loc 1 1063 5 is_stmt 1 view .LVU927
1063:Drivers/STM32H7xx_HAL_Driver/Src/stm32h7xx_ll_usb.c ****   }
 2651              		.loc 1 1063 21 is_stmt 0 view .LVU928
 2652 004c D0F80039 		ldr	r3, [r0, #2304]
1063:Drivers/STM32H7xx_HAL_Driver/Src/stm32h7xx_ll_usb.c ****   }
 2653              		.loc 1 1063 31 view .LVU929
 2654 0050 43F40013 		orr	r3, r3, #2097152
 2655 0054 C0F80039 		str	r3, [r0, #2304]
 2656 0058 E9E7     		b	.L180
 2657              		.cfi_endproc
 2658              	.LFE162:
 2660              		.section	.text.USB_EPClearStall,"ax",%progbits
 2661              		.align	1
 2662              		.global	USB_EPClearStall
 2663              		.syntax unified
 2664              		.thumb
 2665              		.thumb_func
 2667              	USB_EPClearStall:
 2668              	.LVL187:
 2669              	.LFB163:
1084:Drivers/STM32H7xx_HAL_Driver/Src/stm32h7xx_ll_usb.c ****   uint32_t USBx_BASE = (uint32_t)USBx;
 2670              		.loc 1 1084 1 is_stmt 1 view -0
 2671              		.cfi_startproc
 2672              		@ args = 0, pretend = 0, frame = 0
 2673              		@ frame_needed = 0, uses_anonymous_args = 0
 2674              		@ link register save eliminated.
1085:Drivers/STM32H7xx_HAL_Driver/Src/stm32h7xx_ll_usb.c ****   uint32_t epnum = (uint32_t)ep->num;
 2675              		.loc 1 1085 3 view .LVU931
1086:Drivers/STM32H7xx_HAL_Driver/Src/stm32h7xx_ll_usb.c **** 
 2676              		.loc 1 1086 3 view .LVU932
1086:Drivers/STM32H7xx_HAL_Driver/Src/stm32h7xx_ll_usb.c **** 
 2677              		.loc 1 1086 32 is_stmt 0 view .LVU933
 2678 0000 0B78     		ldrb	r3, [r1]	@ zero_extendqisi2
 2679              	.LVL188:
ARM GAS  C:\Users\Nathan\AppData\Local\Temp\cc7cwqzo.s 			page 88


1088:Drivers/STM32H7xx_HAL_Driver/Src/stm32h7xx_ll_usb.c ****   {
 2680              		.loc 1 1088 3 is_stmt 1 view .LVU934
1088:Drivers/STM32H7xx_HAL_Driver/Src/stm32h7xx_ll_usb.c ****   {
 2681              		.loc 1 1088 9 is_stmt 0 view .LVU935
 2682 0002 4A78     		ldrb	r2, [r1, #1]	@ zero_extendqisi2
1088:Drivers/STM32H7xx_HAL_Driver/Src/stm32h7xx_ll_usb.c ****   {
 2683              		.loc 1 1088 6 view .LVU936
 2684 0004 012A     		cmp	r2, #1
 2685 0006 0ED0     		beq	.L186
1098:Drivers/STM32H7xx_HAL_Driver/Src/stm32h7xx_ll_usb.c ****     if ((ep->type == EP_TYPE_INTR) || (ep->type == EP_TYPE_BULK))
 2686              		.loc 1 1098 5 is_stmt 1 view .LVU937
1098:Drivers/STM32H7xx_HAL_Driver/Src/stm32h7xx_ll_usb.c ****     if ((ep->type == EP_TYPE_INTR) || (ep->type == EP_TYPE_BULK))
 2687              		.loc 1 1098 22 is_stmt 0 view .LVU938
 2688 0008 00EB4310 		add	r0, r0, r3, lsl #5
 2689              	.LVL189:
1098:Drivers/STM32H7xx_HAL_Driver/Src/stm32h7xx_ll_usb.c ****     if ((ep->type == EP_TYPE_INTR) || (ep->type == EP_TYPE_BULK))
 2690              		.loc 1 1098 22 view .LVU939
 2691 000c D0F8003B 		ldr	r3, [r0, #2816]
 2692              	.LVL190:
1098:Drivers/STM32H7xx_HAL_Driver/Src/stm32h7xx_ll_usb.c ****     if ((ep->type == EP_TYPE_INTR) || (ep->type == EP_TYPE_BULK))
 2693              		.loc 1 1098 32 view .LVU940
 2694 0010 23F40013 		bic	r3, r3, #2097152
 2695 0014 C0F8003B 		str	r3, [r0, #2816]
 2696              	.LVL191:
1099:Drivers/STM32H7xx_HAL_Driver/Src/stm32h7xx_ll_usb.c ****     {
 2697              		.loc 1 1099 5 is_stmt 1 view .LVU941
1099:Drivers/STM32H7xx_HAL_Driver/Src/stm32h7xx_ll_usb.c ****     {
 2698              		.loc 1 1099 12 is_stmt 0 view .LVU942
 2699 0018 0B79     		ldrb	r3, [r1, #4]	@ zero_extendqisi2
1099:Drivers/STM32H7xx_HAL_Driver/Src/stm32h7xx_ll_usb.c ****     {
 2700              		.loc 1 1099 36 view .LVU943
 2701 001a 023B     		subs	r3, r3, #2
 2702 001c DBB2     		uxtb	r3, r3
1099:Drivers/STM32H7xx_HAL_Driver/Src/stm32h7xx_ll_usb.c ****     {
 2703              		.loc 1 1099 8 view .LVU944
 2704 001e 012B     		cmp	r3, #1
 2705 0020 15D9     		bls	.L187
 2706              	.L185:
1104:Drivers/STM32H7xx_HAL_Driver/Src/stm32h7xx_ll_usb.c **** }
 2707              		.loc 1 1104 3 is_stmt 1 view .LVU945
1105:Drivers/STM32H7xx_HAL_Driver/Src/stm32h7xx_ll_usb.c **** 
 2708              		.loc 1 1105 1 is_stmt 0 view .LVU946
 2709 0022 0020     		movs	r0, #0
 2710 0024 7047     		bx	lr
 2711              	.LVL192:
 2712              	.L186:
1090:Drivers/STM32H7xx_HAL_Driver/Src/stm32h7xx_ll_usb.c ****     if ((ep->type == EP_TYPE_INTR) || (ep->type == EP_TYPE_BULK))
 2713              		.loc 1 1090 5 is_stmt 1 view .LVU947
1090:Drivers/STM32H7xx_HAL_Driver/Src/stm32h7xx_ll_usb.c ****     if ((ep->type == EP_TYPE_INTR) || (ep->type == EP_TYPE_BULK))
 2714              		.loc 1 1090 21 is_stmt 0 view .LVU948
 2715 0026 00EB4310 		add	r0, r0, r3, lsl #5
 2716              	.LVL193:
1090:Drivers/STM32H7xx_HAL_Driver/Src/stm32h7xx_ll_usb.c ****     if ((ep->type == EP_TYPE_INTR) || (ep->type == EP_TYPE_BULK))
 2717              		.loc 1 1090 21 view .LVU949
 2718 002a D0F80039 		ldr	r3, [r0, #2304]
 2719              	.LVL194:
1090:Drivers/STM32H7xx_HAL_Driver/Src/stm32h7xx_ll_usb.c ****     if ((ep->type == EP_TYPE_INTR) || (ep->type == EP_TYPE_BULK))
ARM GAS  C:\Users\Nathan\AppData\Local\Temp\cc7cwqzo.s 			page 89


 2720              		.loc 1 1090 31 view .LVU950
 2721 002e 23F40013 		bic	r3, r3, #2097152
 2722 0032 C0F80039 		str	r3, [r0, #2304]
 2723              	.LVL195:
1091:Drivers/STM32H7xx_HAL_Driver/Src/stm32h7xx_ll_usb.c ****     {
 2724              		.loc 1 1091 5 is_stmt 1 view .LVU951
1091:Drivers/STM32H7xx_HAL_Driver/Src/stm32h7xx_ll_usb.c ****     {
 2725              		.loc 1 1091 12 is_stmt 0 view .LVU952
 2726 0036 0B79     		ldrb	r3, [r1, #4]	@ zero_extendqisi2
1091:Drivers/STM32H7xx_HAL_Driver/Src/stm32h7xx_ll_usb.c ****     {
 2727              		.loc 1 1091 36 view .LVU953
 2728 0038 023B     		subs	r3, r3, #2
 2729 003a DBB2     		uxtb	r3, r3
1091:Drivers/STM32H7xx_HAL_Driver/Src/stm32h7xx_ll_usb.c ****     {
 2730              		.loc 1 1091 8 view .LVU954
 2731 003c 012B     		cmp	r3, #1
 2732 003e F0D8     		bhi	.L185
1093:Drivers/STM32H7xx_HAL_Driver/Src/stm32h7xx_ll_usb.c ****     }
 2733              		.loc 1 1093 7 is_stmt 1 view .LVU955
1093:Drivers/STM32H7xx_HAL_Driver/Src/stm32h7xx_ll_usb.c ****     }
 2734              		.loc 1 1093 23 is_stmt 0 view .LVU956
 2735 0040 D0F80039 		ldr	r3, [r0, #2304]
1093:Drivers/STM32H7xx_HAL_Driver/Src/stm32h7xx_ll_usb.c ****     }
 2736              		.loc 1 1093 33 view .LVU957
 2737 0044 43F08053 		orr	r3, r3, #268435456
 2738 0048 C0F80039 		str	r3, [r0, #2304]
 2739 004c E9E7     		b	.L185
 2740              	.L187:
1101:Drivers/STM32H7xx_HAL_Driver/Src/stm32h7xx_ll_usb.c ****     }
 2741              		.loc 1 1101 7 is_stmt 1 view .LVU958
1101:Drivers/STM32H7xx_HAL_Driver/Src/stm32h7xx_ll_usb.c ****     }
 2742              		.loc 1 1101 24 is_stmt 0 view .LVU959
 2743 004e D0F8003B 		ldr	r3, [r0, #2816]
1101:Drivers/STM32H7xx_HAL_Driver/Src/stm32h7xx_ll_usb.c ****     }
 2744              		.loc 1 1101 34 view .LVU960
 2745 0052 43F08053 		orr	r3, r3, #268435456
 2746 0056 C0F8003B 		str	r3, [r0, #2816]
 2747 005a E2E7     		b	.L185
 2748              		.cfi_endproc
 2749              	.LFE163:
 2751              		.section	.text.USB_StopDevice,"ax",%progbits
 2752              		.align	1
 2753              		.global	USB_StopDevice
 2754              		.syntax unified
 2755              		.thumb
 2756              		.thumb_func
 2758              	USB_StopDevice:
 2759              	.LVL196:
 2760              	.LFB164:
1113:Drivers/STM32H7xx_HAL_Driver/Src/stm32h7xx_ll_usb.c ****   HAL_StatusTypeDef ret;
 2761              		.loc 1 1113 1 is_stmt 1 view -0
 2762              		.cfi_startproc
 2763              		@ args = 0, pretend = 0, frame = 0
 2764              		@ frame_needed = 0, uses_anonymous_args = 0
1113:Drivers/STM32H7xx_HAL_Driver/Src/stm32h7xx_ll_usb.c ****   HAL_StatusTypeDef ret;
 2765              		.loc 1 1113 1 is_stmt 0 view .LVU962
 2766 0000 10B5     		push	{r4, lr}
ARM GAS  C:\Users\Nathan\AppData\Local\Temp\cc7cwqzo.s 			page 90


 2767              		.cfi_def_cfa_offset 8
 2768              		.cfi_offset 4, -8
 2769              		.cfi_offset 14, -4
 2770 0002 0446     		mov	r4, r0
1114:Drivers/STM32H7xx_HAL_Driver/Src/stm32h7xx_ll_usb.c ****   uint32_t USBx_BASE = (uint32_t)USBx;
 2771              		.loc 1 1114 3 is_stmt 1 view .LVU963
1115:Drivers/STM32H7xx_HAL_Driver/Src/stm32h7xx_ll_usb.c ****   uint32_t i;
 2772              		.loc 1 1115 3 view .LVU964
 2773              	.LVL197:
1116:Drivers/STM32H7xx_HAL_Driver/Src/stm32h7xx_ll_usb.c **** 
 2774              		.loc 1 1116 3 view .LVU965
1119:Drivers/STM32H7xx_HAL_Driver/Src/stm32h7xx_ll_usb.c ****   {
 2775              		.loc 1 1119 3 view .LVU966
1119:Drivers/STM32H7xx_HAL_Driver/Src/stm32h7xx_ll_usb.c ****   {
 2776              		.loc 1 1119 10 is_stmt 0 view .LVU967
 2777 0004 0022     		movs	r2, #0
1119:Drivers/STM32H7xx_HAL_Driver/Src/stm32h7xx_ll_usb.c ****   {
 2778              		.loc 1 1119 3 view .LVU968
 2779 0006 08E0     		b	.L189
 2780              	.LVL198:
 2781              	.L190:
1121:Drivers/STM32H7xx_HAL_Driver/Src/stm32h7xx_ll_usb.c ****     USBx_OUTEP(i)->DOEPINT = 0xFB7FU;
 2782              		.loc 1 1121 5 is_stmt 1 view .LVU969
 2783 0008 04EB4213 		add	r3, r4, r2, lsl #5
1121:Drivers/STM32H7xx_HAL_Driver/Src/stm32h7xx_ll_usb.c ****     USBx_OUTEP(i)->DOEPINT = 0xFB7FU;
 2784              		.loc 1 1121 27 is_stmt 0 view .LVU970
 2785 000c 4FF67F31 		movw	r1, #64383
 2786 0010 C3F80819 		str	r1, [r3, #2312]
1122:Drivers/STM32H7xx_HAL_Driver/Src/stm32h7xx_ll_usb.c ****   }
 2787              		.loc 1 1122 5 is_stmt 1 view .LVU971
1122:Drivers/STM32H7xx_HAL_Driver/Src/stm32h7xx_ll_usb.c ****   }
 2788              		.loc 1 1122 28 is_stmt 0 view .LVU972
 2789 0014 C3F8081B 		str	r1, [r3, #2824]
1119:Drivers/STM32H7xx_HAL_Driver/Src/stm32h7xx_ll_usb.c ****   {
 2790              		.loc 1 1119 26 is_stmt 1 discriminator 3 view .LVU973
 2791 0018 0132     		adds	r2, r2, #1
 2792              	.LVL199:
 2793              	.L189:
1119:Drivers/STM32H7xx_HAL_Driver/Src/stm32h7xx_ll_usb.c ****   {
 2794              		.loc 1 1119 18 discriminator 1 view .LVU974
 2795 001a 0E2A     		cmp	r2, #14
 2796 001c F4D9     		bls	.L190
1126:Drivers/STM32H7xx_HAL_Driver/Src/stm32h7xx_ll_usb.c ****   USBx_DEVICE->DOEPMSK  = 0U;
 2797              		.loc 1 1126 3 view .LVU975
1126:Drivers/STM32H7xx_HAL_Driver/Src/stm32h7xx_ll_usb.c ****   USBx_DEVICE->DOEPMSK  = 0U;
 2798              		.loc 1 1126 25 is_stmt 0 view .LVU976
 2799 001e 0022     		movs	r2, #0
 2800              	.LVL200:
1126:Drivers/STM32H7xx_HAL_Driver/Src/stm32h7xx_ll_usb.c ****   USBx_DEVICE->DOEPMSK  = 0U;
 2801              		.loc 1 1126 25 view .LVU977
 2802 0020 C4F81028 		str	r2, [r4, #2064]
1127:Drivers/STM32H7xx_HAL_Driver/Src/stm32h7xx_ll_usb.c ****   USBx_DEVICE->DAINTMSK = 0U;
 2803              		.loc 1 1127 3 is_stmt 1 view .LVU978
1127:Drivers/STM32H7xx_HAL_Driver/Src/stm32h7xx_ll_usb.c ****   USBx_DEVICE->DAINTMSK = 0U;
 2804              		.loc 1 1127 25 is_stmt 0 view .LVU979
 2805 0024 C4F81428 		str	r2, [r4, #2068]
1128:Drivers/STM32H7xx_HAL_Driver/Src/stm32h7xx_ll_usb.c **** 
ARM GAS  C:\Users\Nathan\AppData\Local\Temp\cc7cwqzo.s 			page 91


 2806              		.loc 1 1128 3 is_stmt 1 view .LVU980
1128:Drivers/STM32H7xx_HAL_Driver/Src/stm32h7xx_ll_usb.c **** 
 2807              		.loc 1 1128 25 is_stmt 0 view .LVU981
 2808 0028 C4F81C28 		str	r2, [r4, #2076]
1131:Drivers/STM32H7xx_HAL_Driver/Src/stm32h7xx_ll_usb.c ****   if (ret != HAL_OK)
 2809              		.loc 1 1131 3 is_stmt 1 view .LVU982
1131:Drivers/STM32H7xx_HAL_Driver/Src/stm32h7xx_ll_usb.c ****   if (ret != HAL_OK)
 2810              		.loc 1 1131 9 is_stmt 0 view .LVU983
 2811 002c 2046     		mov	r0, r4
 2812              	.LVL201:
1131:Drivers/STM32H7xx_HAL_Driver/Src/stm32h7xx_ll_usb.c ****   if (ret != HAL_OK)
 2813              		.loc 1 1131 9 view .LVU984
 2814 002e FFF7FEFF 		bl	USB_FlushRxFifo
 2815              	.LVL202:
1132:Drivers/STM32H7xx_HAL_Driver/Src/stm32h7xx_ll_usb.c ****   {
 2816              		.loc 1 1132 3 is_stmt 1 view .LVU985
1132:Drivers/STM32H7xx_HAL_Driver/Src/stm32h7xx_ll_usb.c ****   {
 2817              		.loc 1 1132 6 is_stmt 0 view .LVU986
 2818 0032 00B1     		cbz	r0, .L193
 2819              	.L191:
1144:Drivers/STM32H7xx_HAL_Driver/Src/stm32h7xx_ll_usb.c **** 
 2820              		.loc 1 1144 1 view .LVU987
 2821 0034 10BD     		pop	{r4, pc}
 2822              	.LVL203:
 2823              	.L193:
1137:Drivers/STM32H7xx_HAL_Driver/Src/stm32h7xx_ll_usb.c ****   if (ret != HAL_OK)
 2824              		.loc 1 1137 3 is_stmt 1 view .LVU988
1137:Drivers/STM32H7xx_HAL_Driver/Src/stm32h7xx_ll_usb.c ****   if (ret != HAL_OK)
 2825              		.loc 1 1137 9 is_stmt 0 view .LVU989
 2826 0036 1021     		movs	r1, #16
 2827 0038 2046     		mov	r0, r4
 2828              	.LVL204:
1137:Drivers/STM32H7xx_HAL_Driver/Src/stm32h7xx_ll_usb.c ****   if (ret != HAL_OK)
 2829              		.loc 1 1137 9 view .LVU990
 2830 003a FFF7FEFF 		bl	USB_FlushTxFifo
 2831              	.LVL205:
1138:Drivers/STM32H7xx_HAL_Driver/Src/stm32h7xx_ll_usb.c ****   {
 2832              		.loc 1 1138 3 is_stmt 1 view .LVU991
1140:Drivers/STM32H7xx_HAL_Driver/Src/stm32h7xx_ll_usb.c ****   }
 2833              		.loc 1 1140 5 view .LVU992
 2834 003e F9E7     		b	.L191
 2835              		.cfi_endproc
 2836              	.LFE164:
 2838              		.section	.text.USB_SetDevAddress,"ax",%progbits
 2839              		.align	1
 2840              		.global	USB_SetDevAddress
 2841              		.syntax unified
 2842              		.thumb
 2843              		.thumb_func
 2845              	USB_SetDevAddress:
 2846              	.LVL206:
 2847              	.LFB165:
1154:Drivers/STM32H7xx_HAL_Driver/Src/stm32h7xx_ll_usb.c ****   uint32_t USBx_BASE = (uint32_t)USBx;
 2848              		.loc 1 1154 1 view -0
 2849              		.cfi_startproc
 2850              		@ args = 0, pretend = 0, frame = 0
 2851              		@ frame_needed = 0, uses_anonymous_args = 0
ARM GAS  C:\Users\Nathan\AppData\Local\Temp\cc7cwqzo.s 			page 92


 2852              		@ link register save eliminated.
1155:Drivers/STM32H7xx_HAL_Driver/Src/stm32h7xx_ll_usb.c **** 
 2853              		.loc 1 1155 3 view .LVU994
1157:Drivers/STM32H7xx_HAL_Driver/Src/stm32h7xx_ll_usb.c ****   USBx_DEVICE->DCFG |= ((uint32_t)address << 4) & USB_OTG_DCFG_DAD;
 2854              		.loc 1 1157 3 view .LVU995
1157:Drivers/STM32H7xx_HAL_Driver/Src/stm32h7xx_ll_usb.c ****   USBx_DEVICE->DCFG |= ((uint32_t)address << 4) & USB_OTG_DCFG_DAD;
 2855              		.loc 1 1157 14 is_stmt 0 view .LVU996
 2856 0000 D0F80038 		ldr	r3, [r0, #2048]
1157:Drivers/STM32H7xx_HAL_Driver/Src/stm32h7xx_ll_usb.c ****   USBx_DEVICE->DCFG |= ((uint32_t)address << 4) & USB_OTG_DCFG_DAD;
 2857              		.loc 1 1157 21 view .LVU997
 2858 0004 23F4FE63 		bic	r3, r3, #2032
 2859 0008 C0F80038 		str	r3, [r0, #2048]
1158:Drivers/STM32H7xx_HAL_Driver/Src/stm32h7xx_ll_usb.c **** 
 2860              		.loc 1 1158 3 is_stmt 1 view .LVU998
1158:Drivers/STM32H7xx_HAL_Driver/Src/stm32h7xx_ll_usb.c **** 
 2861              		.loc 1 1158 14 is_stmt 0 view .LVU999
 2862 000c D0F80038 		ldr	r3, [r0, #2048]
1158:Drivers/STM32H7xx_HAL_Driver/Src/stm32h7xx_ll_usb.c **** 
 2863              		.loc 1 1158 43 view .LVU1000
 2864 0010 0901     		lsls	r1, r1, #4
 2865              	.LVL207:
1158:Drivers/STM32H7xx_HAL_Driver/Src/stm32h7xx_ll_usb.c **** 
 2866              		.loc 1 1158 49 view .LVU1001
 2867 0012 01F4FE61 		and	r1, r1, #2032
1158:Drivers/STM32H7xx_HAL_Driver/Src/stm32h7xx_ll_usb.c **** 
 2868              		.loc 1 1158 21 view .LVU1002
 2869 0016 0B43     		orrs	r3, r3, r1
 2870 0018 C0F80038 		str	r3, [r0, #2048]
1160:Drivers/STM32H7xx_HAL_Driver/Src/stm32h7xx_ll_usb.c **** }
 2871              		.loc 1 1160 3 is_stmt 1 view .LVU1003
1161:Drivers/STM32H7xx_HAL_Driver/Src/stm32h7xx_ll_usb.c **** 
 2872              		.loc 1 1161 1 is_stmt 0 view .LVU1004
 2873 001c 0020     		movs	r0, #0
 2874              	.LVL208:
1161:Drivers/STM32H7xx_HAL_Driver/Src/stm32h7xx_ll_usb.c **** 
 2875              		.loc 1 1161 1 view .LVU1005
 2876 001e 7047     		bx	lr
 2877              		.cfi_endproc
 2878              	.LFE165:
 2880              		.section	.text.USB_DevConnect,"ax",%progbits
 2881              		.align	1
 2882              		.global	USB_DevConnect
 2883              		.syntax unified
 2884              		.thumb
 2885              		.thumb_func
 2887              	USB_DevConnect:
 2888              	.LVL209:
 2889              	.LFB166:
1169:Drivers/STM32H7xx_HAL_Driver/Src/stm32h7xx_ll_usb.c ****   uint32_t USBx_BASE = (uint32_t)USBx;
 2890              		.loc 1 1169 1 is_stmt 1 view -0
 2891              		.cfi_startproc
 2892              		@ args = 0, pretend = 0, frame = 0
 2893              		@ frame_needed = 0, uses_anonymous_args = 0
 2894              		@ link register save eliminated.
1170:Drivers/STM32H7xx_HAL_Driver/Src/stm32h7xx_ll_usb.c **** 
 2895              		.loc 1 1170 3 view .LVU1007
1173:Drivers/STM32H7xx_HAL_Driver/Src/stm32h7xx_ll_usb.c **** 
ARM GAS  C:\Users\Nathan\AppData\Local\Temp\cc7cwqzo.s 			page 93


 2896              		.loc 1 1173 3 view .LVU1008
 2897 0000 D0F8003E 		ldr	r3, [r0, #3584]
1173:Drivers/STM32H7xx_HAL_Driver/Src/stm32h7xx_ll_usb.c **** 
 2898              		.loc 1 1173 16 is_stmt 0 view .LVU1009
 2899 0004 23F00303 		bic	r3, r3, #3
 2900 0008 C0F8003E 		str	r3, [r0, #3584]
1175:Drivers/STM32H7xx_HAL_Driver/Src/stm32h7xx_ll_usb.c **** 
 2901              		.loc 1 1175 3 is_stmt 1 view .LVU1010
1175:Drivers/STM32H7xx_HAL_Driver/Src/stm32h7xx_ll_usb.c **** 
 2902              		.loc 1 1175 14 is_stmt 0 view .LVU1011
 2903 000c D0F80438 		ldr	r3, [r0, #2052]
1175:Drivers/STM32H7xx_HAL_Driver/Src/stm32h7xx_ll_usb.c **** 
 2904              		.loc 1 1175 21 view .LVU1012
 2905 0010 23F00203 		bic	r3, r3, #2
 2906 0014 C0F80438 		str	r3, [r0, #2052]
1177:Drivers/STM32H7xx_HAL_Driver/Src/stm32h7xx_ll_usb.c **** }
 2907              		.loc 1 1177 3 is_stmt 1 view .LVU1013
1178:Drivers/STM32H7xx_HAL_Driver/Src/stm32h7xx_ll_usb.c **** 
 2908              		.loc 1 1178 1 is_stmt 0 view .LVU1014
 2909 0018 0020     		movs	r0, #0
 2910              	.LVL210:
1178:Drivers/STM32H7xx_HAL_Driver/Src/stm32h7xx_ll_usb.c **** 
 2911              		.loc 1 1178 1 view .LVU1015
 2912 001a 7047     		bx	lr
 2913              		.cfi_endproc
 2914              	.LFE166:
 2916              		.section	.text.USB_DevDisconnect,"ax",%progbits
 2917              		.align	1
 2918              		.global	USB_DevDisconnect
 2919              		.syntax unified
 2920              		.thumb
 2921              		.thumb_func
 2923              	USB_DevDisconnect:
 2924              	.LVL211:
 2925              	.LFB167:
1186:Drivers/STM32H7xx_HAL_Driver/Src/stm32h7xx_ll_usb.c ****   uint32_t USBx_BASE = (uint32_t)USBx;
 2926              		.loc 1 1186 1 is_stmt 1 view -0
 2927              		.cfi_startproc
 2928              		@ args = 0, pretend = 0, frame = 0
 2929              		@ frame_needed = 0, uses_anonymous_args = 0
 2930              		@ link register save eliminated.
1187:Drivers/STM32H7xx_HAL_Driver/Src/stm32h7xx_ll_usb.c **** 
 2931              		.loc 1 1187 3 view .LVU1017
1190:Drivers/STM32H7xx_HAL_Driver/Src/stm32h7xx_ll_usb.c **** 
 2932              		.loc 1 1190 3 view .LVU1018
 2933 0000 D0F8003E 		ldr	r3, [r0, #3584]
1190:Drivers/STM32H7xx_HAL_Driver/Src/stm32h7xx_ll_usb.c **** 
 2934              		.loc 1 1190 16 is_stmt 0 view .LVU1019
 2935 0004 23F00303 		bic	r3, r3, #3
 2936 0008 C0F8003E 		str	r3, [r0, #3584]
1192:Drivers/STM32H7xx_HAL_Driver/Src/stm32h7xx_ll_usb.c **** 
 2937              		.loc 1 1192 3 is_stmt 1 view .LVU1020
1192:Drivers/STM32H7xx_HAL_Driver/Src/stm32h7xx_ll_usb.c **** 
 2938              		.loc 1 1192 14 is_stmt 0 view .LVU1021
 2939 000c D0F80438 		ldr	r3, [r0, #2052]
1192:Drivers/STM32H7xx_HAL_Driver/Src/stm32h7xx_ll_usb.c **** 
 2940              		.loc 1 1192 21 view .LVU1022
ARM GAS  C:\Users\Nathan\AppData\Local\Temp\cc7cwqzo.s 			page 94


 2941 0010 43F00203 		orr	r3, r3, #2
 2942 0014 C0F80438 		str	r3, [r0, #2052]
1194:Drivers/STM32H7xx_HAL_Driver/Src/stm32h7xx_ll_usb.c **** }
 2943              		.loc 1 1194 3 is_stmt 1 view .LVU1023
1195:Drivers/STM32H7xx_HAL_Driver/Src/stm32h7xx_ll_usb.c **** 
 2944              		.loc 1 1195 1 is_stmt 0 view .LVU1024
 2945 0018 0020     		movs	r0, #0
 2946              	.LVL212:
1195:Drivers/STM32H7xx_HAL_Driver/Src/stm32h7xx_ll_usb.c **** 
 2947              		.loc 1 1195 1 view .LVU1025
 2948 001a 7047     		bx	lr
 2949              		.cfi_endproc
 2950              	.LFE167:
 2952              		.section	.text.USB_ReadInterrupts,"ax",%progbits
 2953              		.align	1
 2954              		.global	USB_ReadInterrupts
 2955              		.syntax unified
 2956              		.thumb
 2957              		.thumb_func
 2959              	USB_ReadInterrupts:
 2960              	.LVL213:
 2961              	.LFB168:
1203:Drivers/STM32H7xx_HAL_Driver/Src/stm32h7xx_ll_usb.c ****   uint32_t tmpreg;
 2962              		.loc 1 1203 1 is_stmt 1 view -0
 2963              		.cfi_startproc
 2964              		@ args = 0, pretend = 0, frame = 0
 2965              		@ frame_needed = 0, uses_anonymous_args = 0
 2966              		@ link register save eliminated.
1204:Drivers/STM32H7xx_HAL_Driver/Src/stm32h7xx_ll_usb.c **** 
 2967              		.loc 1 1204 3 view .LVU1027
1206:Drivers/STM32H7xx_HAL_Driver/Src/stm32h7xx_ll_usb.c ****   tmpreg &= USBx->GINTMSK;
 2968              		.loc 1 1206 3 view .LVU1028
1206:Drivers/STM32H7xx_HAL_Driver/Src/stm32h7xx_ll_usb.c ****   tmpreg &= USBx->GINTMSK;
 2969              		.loc 1 1206 10 is_stmt 0 view .LVU1029
 2970 0000 4269     		ldr	r2, [r0, #20]
 2971              	.LVL214:
1207:Drivers/STM32H7xx_HAL_Driver/Src/stm32h7xx_ll_usb.c **** 
 2972              		.loc 1 1207 3 is_stmt 1 view .LVU1030
1207:Drivers/STM32H7xx_HAL_Driver/Src/stm32h7xx_ll_usb.c **** 
 2973              		.loc 1 1207 17 is_stmt 0 view .LVU1031
 2974 0002 8069     		ldr	r0, [r0, #24]
 2975              	.LVL215:
1209:Drivers/STM32H7xx_HAL_Driver/Src/stm32h7xx_ll_usb.c **** }
 2976              		.loc 1 1209 3 is_stmt 1 view .LVU1032
1210:Drivers/STM32H7xx_HAL_Driver/Src/stm32h7xx_ll_usb.c **** 
 2977              		.loc 1 1210 1 is_stmt 0 view .LVU1033
 2978 0004 1040     		ands	r0, r0, r2
 2979              	.LVL216:
1210:Drivers/STM32H7xx_HAL_Driver/Src/stm32h7xx_ll_usb.c **** 
 2980              		.loc 1 1210 1 view .LVU1034
 2981 0006 7047     		bx	lr
 2982              		.cfi_endproc
 2983              	.LFE168:
 2985              		.section	.text.USB_ReadChInterrupts,"ax",%progbits
 2986              		.align	1
 2987              		.global	USB_ReadChInterrupts
 2988              		.syntax unified
ARM GAS  C:\Users\Nathan\AppData\Local\Temp\cc7cwqzo.s 			page 95


 2989              		.thumb
 2990              		.thumb_func
 2992              	USB_ReadChInterrupts:
 2993              	.LVL217:
 2994              	.LFB169:
1219:Drivers/STM32H7xx_HAL_Driver/Src/stm32h7xx_ll_usb.c ****   uint32_t USBx_BASE = (uint32_t)USBx;
 2995              		.loc 1 1219 1 is_stmt 1 view -0
 2996              		.cfi_startproc
 2997              		@ args = 0, pretend = 0, frame = 0
 2998              		@ frame_needed = 0, uses_anonymous_args = 0
 2999              		@ link register save eliminated.
1220:Drivers/STM32H7xx_HAL_Driver/Src/stm32h7xx_ll_usb.c ****   uint32_t tmpreg;
 3000              		.loc 1 1220 3 view .LVU1036
1221:Drivers/STM32H7xx_HAL_Driver/Src/stm32h7xx_ll_usb.c **** 
 3001              		.loc 1 1221 3 view .LVU1037
1223:Drivers/STM32H7xx_HAL_Driver/Src/stm32h7xx_ll_usb.c ****   tmpreg &= USBx_HC(chnum)->HCINTMSK;
 3002              		.loc 1 1223 3 view .LVU1038
1223:Drivers/STM32H7xx_HAL_Driver/Src/stm32h7xx_ll_usb.c ****   tmpreg &= USBx_HC(chnum)->HCINTMSK;
 3003              		.loc 1 1223 12 is_stmt 0 view .LVU1039
 3004 0000 00EB4110 		add	r0, r0, r1, lsl #5
 3005              	.LVL218:
1223:Drivers/STM32H7xx_HAL_Driver/Src/stm32h7xx_ll_usb.c ****   tmpreg &= USBx_HC(chnum)->HCINTMSK;
 3006              		.loc 1 1223 12 view .LVU1040
 3007 0004 00F5A063 		add	r3, r0, #1280
1223:Drivers/STM32H7xx_HAL_Driver/Src/stm32h7xx_ll_usb.c ****   tmpreg &= USBx_HC(chnum)->HCINTMSK;
 3008              		.loc 1 1223 10 view .LVU1041
 3009 0008 D0F80805 		ldr	r0, [r0, #1288]
 3010              	.LVL219:
1224:Drivers/STM32H7xx_HAL_Driver/Src/stm32h7xx_ll_usb.c **** 
 3011              		.loc 1 1224 3 is_stmt 1 view .LVU1042
1224:Drivers/STM32H7xx_HAL_Driver/Src/stm32h7xx_ll_usb.c **** 
 3012              		.loc 1 1224 27 is_stmt 0 view .LVU1043
 3013 000c DB68     		ldr	r3, [r3, #12]
 3014              	.LVL220:
1226:Drivers/STM32H7xx_HAL_Driver/Src/stm32h7xx_ll_usb.c **** }
 3015              		.loc 1 1226 3 is_stmt 1 view .LVU1044
1227:Drivers/STM32H7xx_HAL_Driver/Src/stm32h7xx_ll_usb.c **** 
 3016              		.loc 1 1227 1 is_stmt 0 view .LVU1045
 3017 000e 1840     		ands	r0, r0, r3
 3018              	.LVL221:
1227:Drivers/STM32H7xx_HAL_Driver/Src/stm32h7xx_ll_usb.c **** 
 3019              		.loc 1 1227 1 view .LVU1046
 3020 0010 7047     		bx	lr
 3021              		.cfi_endproc
 3022              	.LFE169:
 3024              		.section	.text.USB_ReadDevAllOutEpInterrupt,"ax",%progbits
 3025              		.align	1
 3026              		.global	USB_ReadDevAllOutEpInterrupt
 3027              		.syntax unified
 3028              		.thumb
 3029              		.thumb_func
 3031              	USB_ReadDevAllOutEpInterrupt:
 3032              	.LVL222:
 3033              	.LFB170:
1235:Drivers/STM32H7xx_HAL_Driver/Src/stm32h7xx_ll_usb.c ****   uint32_t USBx_BASE = (uint32_t)USBx;
 3034              		.loc 1 1235 1 is_stmt 1 view -0
 3035              		.cfi_startproc
ARM GAS  C:\Users\Nathan\AppData\Local\Temp\cc7cwqzo.s 			page 96


 3036              		@ args = 0, pretend = 0, frame = 0
 3037              		@ frame_needed = 0, uses_anonymous_args = 0
 3038              		@ link register save eliminated.
1236:Drivers/STM32H7xx_HAL_Driver/Src/stm32h7xx_ll_usb.c ****   uint32_t tmpreg;
 3039              		.loc 1 1236 3 view .LVU1048
1237:Drivers/STM32H7xx_HAL_Driver/Src/stm32h7xx_ll_usb.c **** 
 3040              		.loc 1 1237 3 view .LVU1049
1239:Drivers/STM32H7xx_HAL_Driver/Src/stm32h7xx_ll_usb.c ****   tmpreg &= USBx_DEVICE->DAINTMSK;
 3041              		.loc 1 1239 3 view .LVU1050
1239:Drivers/STM32H7xx_HAL_Driver/Src/stm32h7xx_ll_usb.c ****   tmpreg &= USBx_DEVICE->DAINTMSK;
 3042              		.loc 1 1239 11 is_stmt 0 view .LVU1051
 3043 0000 D0F81838 		ldr	r3, [r0, #2072]
1239:Drivers/STM32H7xx_HAL_Driver/Src/stm32h7xx_ll_usb.c ****   tmpreg &= USBx_DEVICE->DAINTMSK;
 3044              		.loc 1 1239 13 view .LVU1052
 3045 0004 00F50060 		add	r0, r0, #2048
 3046              	.LVL223:
1240:Drivers/STM32H7xx_HAL_Driver/Src/stm32h7xx_ll_usb.c **** 
 3047              		.loc 1 1240 3 is_stmt 1 view .LVU1053
1240:Drivers/STM32H7xx_HAL_Driver/Src/stm32h7xx_ll_usb.c **** 
 3048              		.loc 1 1240 24 is_stmt 0 view .LVU1054
 3049 0008 C069     		ldr	r0, [r0, #28]
 3050              	.LVL224:
1240:Drivers/STM32H7xx_HAL_Driver/Src/stm32h7xx_ll_usb.c **** 
 3051              		.loc 1 1240 10 view .LVU1055
 3052 000a 1840     		ands	r0, r0, r3
 3053              	.LVL225:
1242:Drivers/STM32H7xx_HAL_Driver/Src/stm32h7xx_ll_usb.c **** }
 3054              		.loc 1 1242 3 is_stmt 1 view .LVU1056
1243:Drivers/STM32H7xx_HAL_Driver/Src/stm32h7xx_ll_usb.c **** 
 3055              		.loc 1 1243 1 is_stmt 0 view .LVU1057
 3056 000c 000C     		lsrs	r0, r0, #16
 3057              	.LVL226:
1243:Drivers/STM32H7xx_HAL_Driver/Src/stm32h7xx_ll_usb.c **** 
 3058              		.loc 1 1243 1 view .LVU1058
 3059 000e 7047     		bx	lr
 3060              		.cfi_endproc
 3061              	.LFE170:
 3063              		.section	.text.USB_ReadDevAllInEpInterrupt,"ax",%progbits
 3064              		.align	1
 3065              		.global	USB_ReadDevAllInEpInterrupt
 3066              		.syntax unified
 3067              		.thumb
 3068              		.thumb_func
 3070              	USB_ReadDevAllInEpInterrupt:
 3071              	.LVL227:
 3072              	.LFB171:
1251:Drivers/STM32H7xx_HAL_Driver/Src/stm32h7xx_ll_usb.c ****   uint32_t USBx_BASE = (uint32_t)USBx;
 3073              		.loc 1 1251 1 is_stmt 1 view -0
 3074              		.cfi_startproc
 3075              		@ args = 0, pretend = 0, frame = 0
 3076              		@ frame_needed = 0, uses_anonymous_args = 0
 3077              		@ link register save eliminated.
1252:Drivers/STM32H7xx_HAL_Driver/Src/stm32h7xx_ll_usb.c ****   uint32_t tmpreg;
 3078              		.loc 1 1252 3 view .LVU1060
1253:Drivers/STM32H7xx_HAL_Driver/Src/stm32h7xx_ll_usb.c **** 
 3079              		.loc 1 1253 3 view .LVU1061
1255:Drivers/STM32H7xx_HAL_Driver/Src/stm32h7xx_ll_usb.c ****   tmpreg &= USBx_DEVICE->DAINTMSK;
ARM GAS  C:\Users\Nathan\AppData\Local\Temp\cc7cwqzo.s 			page 97


 3080              		.loc 1 1255 3 view .LVU1062
1255:Drivers/STM32H7xx_HAL_Driver/Src/stm32h7xx_ll_usb.c ****   tmpreg &= USBx_DEVICE->DAINTMSK;
 3081              		.loc 1 1255 11 is_stmt 0 view .LVU1063
 3082 0000 D0F81838 		ldr	r3, [r0, #2072]
1255:Drivers/STM32H7xx_HAL_Driver/Src/stm32h7xx_ll_usb.c ****   tmpreg &= USBx_DEVICE->DAINTMSK;
 3083              		.loc 1 1255 13 view .LVU1064
 3084 0004 00F50060 		add	r0, r0, #2048
 3085              	.LVL228:
1256:Drivers/STM32H7xx_HAL_Driver/Src/stm32h7xx_ll_usb.c **** 
 3086              		.loc 1 1256 3 is_stmt 1 view .LVU1065
1256:Drivers/STM32H7xx_HAL_Driver/Src/stm32h7xx_ll_usb.c **** 
 3087              		.loc 1 1256 24 is_stmt 0 view .LVU1066
 3088 0008 C069     		ldr	r0, [r0, #28]
 3089              	.LVL229:
1256:Drivers/STM32H7xx_HAL_Driver/Src/stm32h7xx_ll_usb.c **** 
 3090              		.loc 1 1256 10 view .LVU1067
 3091 000a 1840     		ands	r0, r0, r3
 3092              	.LVL230:
1258:Drivers/STM32H7xx_HAL_Driver/Src/stm32h7xx_ll_usb.c **** }
 3093              		.loc 1 1258 3 is_stmt 1 view .LVU1068
1259:Drivers/STM32H7xx_HAL_Driver/Src/stm32h7xx_ll_usb.c **** 
 3094              		.loc 1 1259 1 is_stmt 0 view .LVU1069
 3095 000c 80B2     		uxth	r0, r0
 3096              	.LVL231:
1259:Drivers/STM32H7xx_HAL_Driver/Src/stm32h7xx_ll_usb.c **** 
 3097              		.loc 1 1259 1 view .LVU1070
 3098 000e 7047     		bx	lr
 3099              		.cfi_endproc
 3100              	.LFE171:
 3102              		.section	.text.USB_ReadDevOutEPInterrupt,"ax",%progbits
 3103              		.align	1
 3104              		.global	USB_ReadDevOutEPInterrupt
 3105              		.syntax unified
 3106              		.thumb
 3107              		.thumb_func
 3109              	USB_ReadDevOutEPInterrupt:
 3110              	.LVL232:
 3111              	.LFB172:
1269:Drivers/STM32H7xx_HAL_Driver/Src/stm32h7xx_ll_usb.c ****   uint32_t USBx_BASE = (uint32_t)USBx;
 3112              		.loc 1 1269 1 is_stmt 1 view -0
 3113              		.cfi_startproc
 3114              		@ args = 0, pretend = 0, frame = 0
 3115              		@ frame_needed = 0, uses_anonymous_args = 0
 3116              		@ link register save eliminated.
1270:Drivers/STM32H7xx_HAL_Driver/Src/stm32h7xx_ll_usb.c ****   uint32_t tmpreg;
 3117              		.loc 1 1270 3 view .LVU1072
1271:Drivers/STM32H7xx_HAL_Driver/Src/stm32h7xx_ll_usb.c **** 
 3118              		.loc 1 1271 3 view .LVU1073
1273:Drivers/STM32H7xx_HAL_Driver/Src/stm32h7xx_ll_usb.c ****   tmpreg &= USBx_DEVICE->DOEPMSK;
 3119              		.loc 1 1273 3 view .LVU1074
1273:Drivers/STM32H7xx_HAL_Driver/Src/stm32h7xx_ll_usb.c ****   tmpreg &= USBx_DEVICE->DOEPMSK;
 3120              		.loc 1 1273 13 is_stmt 0 view .LVU1075
 3121 0000 00EB4111 		add	r1, r0, r1, lsl #5
 3122              	.LVL233:
1273:Drivers/STM32H7xx_HAL_Driver/Src/stm32h7xx_ll_usb.c ****   tmpreg &= USBx_DEVICE->DOEPMSK;
 3123              		.loc 1 1273 11 view .LVU1076
 3124 0004 D1F8082B 		ldr	r2, [r1, #2824]
ARM GAS  C:\Users\Nathan\AppData\Local\Temp\cc7cwqzo.s 			page 98


 3125              	.LVL234:
1274:Drivers/STM32H7xx_HAL_Driver/Src/stm32h7xx_ll_usb.c **** 
 3126              		.loc 1 1274 3 is_stmt 1 view .LVU1077
1274:Drivers/STM32H7xx_HAL_Driver/Src/stm32h7xx_ll_usb.c **** 
 3127              		.loc 1 1274 13 is_stmt 0 view .LVU1078
 3128 0008 00F50060 		add	r0, r0, #2048
 3129              	.LVL235:
1274:Drivers/STM32H7xx_HAL_Driver/Src/stm32h7xx_ll_usb.c **** 
 3130              		.loc 1 1274 24 view .LVU1079
 3131 000c 4069     		ldr	r0, [r0, #20]
 3132              	.LVL236:
1276:Drivers/STM32H7xx_HAL_Driver/Src/stm32h7xx_ll_usb.c **** }
 3133              		.loc 1 1276 3 is_stmt 1 view .LVU1080
1277:Drivers/STM32H7xx_HAL_Driver/Src/stm32h7xx_ll_usb.c **** 
 3134              		.loc 1 1277 1 is_stmt 0 view .LVU1081
 3135 000e 1040     		ands	r0, r0, r2
 3136              	.LVL237:
1277:Drivers/STM32H7xx_HAL_Driver/Src/stm32h7xx_ll_usb.c **** 
 3137              		.loc 1 1277 1 view .LVU1082
 3138 0010 7047     		bx	lr
 3139              		.cfi_endproc
 3140              	.LFE172:
 3142              		.section	.text.USB_ReadDevInEPInterrupt,"ax",%progbits
 3143              		.align	1
 3144              		.global	USB_ReadDevInEPInterrupt
 3145              		.syntax unified
 3146              		.thumb
 3147              		.thumb_func
 3149              	USB_ReadDevInEPInterrupt:
 3150              	.LVL238:
 3151              	.LFB173:
1287:Drivers/STM32H7xx_HAL_Driver/Src/stm32h7xx_ll_usb.c ****   uint32_t USBx_BASE = (uint32_t)USBx;
 3152              		.loc 1 1287 1 is_stmt 1 view -0
 3153              		.cfi_startproc
 3154              		@ args = 0, pretend = 0, frame = 0
 3155              		@ frame_needed = 0, uses_anonymous_args = 0
 3156              		@ link register save eliminated.
1288:Drivers/STM32H7xx_HAL_Driver/Src/stm32h7xx_ll_usb.c ****   uint32_t tmpreg;
 3157              		.loc 1 1288 3 view .LVU1084
1289:Drivers/STM32H7xx_HAL_Driver/Src/stm32h7xx_ll_usb.c ****   uint32_t msk;
 3158              		.loc 1 1289 3 view .LVU1085
1290:Drivers/STM32H7xx_HAL_Driver/Src/stm32h7xx_ll_usb.c ****   uint32_t emp;
 3159              		.loc 1 1290 3 view .LVU1086
1291:Drivers/STM32H7xx_HAL_Driver/Src/stm32h7xx_ll_usb.c **** 
 3160              		.loc 1 1291 3 view .LVU1087
1293:Drivers/STM32H7xx_HAL_Driver/Src/stm32h7xx_ll_usb.c ****   emp = USBx_DEVICE->DIEPEMPMSK;
 3161              		.loc 1 1293 3 view .LVU1088
1293:Drivers/STM32H7xx_HAL_Driver/Src/stm32h7xx_ll_usb.c ****   emp = USBx_DEVICE->DIEPEMPMSK;
 3162              		.loc 1 1293 7 is_stmt 0 view .LVU1089
 3163 0000 D0F81028 		ldr	r2, [r0, #2064]
 3164              	.LVL239:
1294:Drivers/STM32H7xx_HAL_Driver/Src/stm32h7xx_ll_usb.c ****   msk |= ((emp >> (epnum & EP_ADDR_MSK)) & 0x1U) << 7;
 3165              		.loc 1 1294 3 is_stmt 1 view .LVU1090
1294:Drivers/STM32H7xx_HAL_Driver/Src/stm32h7xx_ll_usb.c ****   msk |= ((emp >> (epnum & EP_ADDR_MSK)) & 0x1U) << 7;
 3166              		.loc 1 1294 7 is_stmt 0 view .LVU1091
 3167 0004 D0F83438 		ldr	r3, [r0, #2100]
 3168              	.LVL240:
ARM GAS  C:\Users\Nathan\AppData\Local\Temp\cc7cwqzo.s 			page 99


1295:Drivers/STM32H7xx_HAL_Driver/Src/stm32h7xx_ll_usb.c ****   tmpreg = USBx_INEP((uint32_t)epnum)->DIEPINT & msk;
 3169              		.loc 1 1295 3 is_stmt 1 view .LVU1092
1295:Drivers/STM32H7xx_HAL_Driver/Src/stm32h7xx_ll_usb.c ****   tmpreg = USBx_INEP((uint32_t)epnum)->DIEPINT & msk;
 3170              		.loc 1 1295 26 is_stmt 0 view .LVU1093
 3171 0008 01F00F0C 		and	ip, r1, #15
1295:Drivers/STM32H7xx_HAL_Driver/Src/stm32h7xx_ll_usb.c ****   tmpreg = USBx_INEP((uint32_t)epnum)->DIEPINT & msk;
 3172              		.loc 1 1295 16 view .LVU1094
 3173 000c 23FA0CF3 		lsr	r3, r3, ip
 3174              	.LVL241:
1295:Drivers/STM32H7xx_HAL_Driver/Src/stm32h7xx_ll_usb.c ****   tmpreg = USBx_INEP((uint32_t)epnum)->DIEPINT & msk;
 3175              		.loc 1 1295 50 view .LVU1095
 3176 0010 DB01     		lsls	r3, r3, #7
 3177 0012 DBB2     		uxtb	r3, r3
1295:Drivers/STM32H7xx_HAL_Driver/Src/stm32h7xx_ll_usb.c ****   tmpreg = USBx_INEP((uint32_t)epnum)->DIEPINT & msk;
 3178              		.loc 1 1295 7 view .LVU1096
 3179 0014 1343     		orrs	r3, r3, r2
 3180              	.LVL242:
1296:Drivers/STM32H7xx_HAL_Driver/Src/stm32h7xx_ll_usb.c **** 
 3181              		.loc 1 1296 3 is_stmt 1 view .LVU1097
1296:Drivers/STM32H7xx_HAL_Driver/Src/stm32h7xx_ll_usb.c **** 
 3182              		.loc 1 1296 12 is_stmt 0 view .LVU1098
 3183 0016 00EB4110 		add	r0, r0, r1, lsl #5
 3184              	.LVL243:
1296:Drivers/STM32H7xx_HAL_Driver/Src/stm32h7xx_ll_usb.c **** 
 3185              		.loc 1 1296 12 view .LVU1099
 3186 001a 00F51060 		add	r0, r0, #2304
1296:Drivers/STM32H7xx_HAL_Driver/Src/stm32h7xx_ll_usb.c **** 
 3187              		.loc 1 1296 38 view .LVU1100
 3188 001e 8068     		ldr	r0, [r0, #8]
 3189              	.LVL244:
1298:Drivers/STM32H7xx_HAL_Driver/Src/stm32h7xx_ll_usb.c **** }
 3190              		.loc 1 1298 3 is_stmt 1 view .LVU1101
1299:Drivers/STM32H7xx_HAL_Driver/Src/stm32h7xx_ll_usb.c **** 
 3191              		.loc 1 1299 1 is_stmt 0 view .LVU1102
 3192 0020 1840     		ands	r0, r0, r3
 3193              	.LVL245:
1299:Drivers/STM32H7xx_HAL_Driver/Src/stm32h7xx_ll_usb.c **** 
 3194              		.loc 1 1299 1 view .LVU1103
 3195 0022 7047     		bx	lr
 3196              		.cfi_endproc
 3197              	.LFE173:
 3199              		.section	.text.USB_ClearInterrupts,"ax",%progbits
 3200              		.align	1
 3201              		.global	USB_ClearInterrupts
 3202              		.syntax unified
 3203              		.thumb
 3204              		.thumb_func
 3206              	USB_ClearInterrupts:
 3207              	.LVL246:
 3208              	.LFB174:
1308:Drivers/STM32H7xx_HAL_Driver/Src/stm32h7xx_ll_usb.c ****   USBx->GINTSTS &= interrupt;
 3209              		.loc 1 1308 1 is_stmt 1 view -0
 3210              		.cfi_startproc
 3211              		@ args = 0, pretend = 0, frame = 0
 3212              		@ frame_needed = 0, uses_anonymous_args = 0
 3213              		@ link register save eliminated.
1309:Drivers/STM32H7xx_HAL_Driver/Src/stm32h7xx_ll_usb.c **** }
ARM GAS  C:\Users\Nathan\AppData\Local\Temp\cc7cwqzo.s 			page 100


 3214              		.loc 1 1309 3 view .LVU1105
1309:Drivers/STM32H7xx_HAL_Driver/Src/stm32h7xx_ll_usb.c **** }
 3215              		.loc 1 1309 7 is_stmt 0 view .LVU1106
 3216 0000 4369     		ldr	r3, [r0, #20]
1309:Drivers/STM32H7xx_HAL_Driver/Src/stm32h7xx_ll_usb.c **** }
 3217              		.loc 1 1309 17 view .LVU1107
 3218 0002 0B40     		ands	r3, r3, r1
 3219 0004 4361     		str	r3, [r0, #20]
1310:Drivers/STM32H7xx_HAL_Driver/Src/stm32h7xx_ll_usb.c **** 
 3220              		.loc 1 1310 1 view .LVU1108
 3221 0006 7047     		bx	lr
 3222              		.cfi_endproc
 3223              	.LFE174:
 3225              		.section	.text.USB_GetMode,"ax",%progbits
 3226              		.align	1
 3227              		.global	USB_GetMode
 3228              		.syntax unified
 3229              		.thumb
 3230              		.thumb_func
 3232              	USB_GetMode:
 3233              	.LVL247:
 3234              	.LFB175:
1321:Drivers/STM32H7xx_HAL_Driver/Src/stm32h7xx_ll_usb.c ****   return ((USBx->GINTSTS) & 0x1U);
 3235              		.loc 1 1321 1 is_stmt 1 view -0
 3236              		.cfi_startproc
 3237              		@ args = 0, pretend = 0, frame = 0
 3238              		@ frame_needed = 0, uses_anonymous_args = 0
 3239              		@ link register save eliminated.
1322:Drivers/STM32H7xx_HAL_Driver/Src/stm32h7xx_ll_usb.c **** }
 3240              		.loc 1 1322 3 view .LVU1110
1322:Drivers/STM32H7xx_HAL_Driver/Src/stm32h7xx_ll_usb.c **** }
 3241              		.loc 1 1322 16 is_stmt 0 view .LVU1111
 3242 0000 4069     		ldr	r0, [r0, #20]
 3243              	.LVL248:
1323:Drivers/STM32H7xx_HAL_Driver/Src/stm32h7xx_ll_usb.c **** 
 3244              		.loc 1 1323 1 view .LVU1112
 3245 0002 00F00100 		and	r0, r0, #1
 3246 0006 7047     		bx	lr
 3247              		.cfi_endproc
 3248              	.LFE175:
 3250              		.section	.text.USB_SetCurrentMode,"ax",%progbits
 3251              		.align	1
 3252              		.global	USB_SetCurrentMode
 3253              		.syntax unified
 3254              		.thumb
 3255              		.thumb_func
 3257              	USB_SetCurrentMode:
 3258              	.LVL249:
 3259              	.LFB148:
 254:Drivers/STM32H7xx_HAL_Driver/Src/stm32h7xx_ll_usb.c ****   uint32_t ms = 0U;
 3260              		.loc 1 254 1 is_stmt 1 view -0
 3261              		.cfi_startproc
 3262              		@ args = 0, pretend = 0, frame = 0
 3263              		@ frame_needed = 0, uses_anonymous_args = 0
 254:Drivers/STM32H7xx_HAL_Driver/Src/stm32h7xx_ll_usb.c ****   uint32_t ms = 0U;
 3264              		.loc 1 254 1 is_stmt 0 view .LVU1114
 3265 0000 38B5     		push	{r3, r4, r5, lr}
ARM GAS  C:\Users\Nathan\AppData\Local\Temp\cc7cwqzo.s 			page 101


 3266              		.cfi_def_cfa_offset 16
 3267              		.cfi_offset 3, -16
 3268              		.cfi_offset 4, -12
 3269              		.cfi_offset 5, -8
 3270              		.cfi_offset 14, -4
 3271 0002 0546     		mov	r5, r0
 255:Drivers/STM32H7xx_HAL_Driver/Src/stm32h7xx_ll_usb.c **** 
 3272              		.loc 1 255 3 is_stmt 1 view .LVU1115
 3273              	.LVL250:
 257:Drivers/STM32H7xx_HAL_Driver/Src/stm32h7xx_ll_usb.c **** 
 3274              		.loc 1 257 3 view .LVU1116
 257:Drivers/STM32H7xx_HAL_Driver/Src/stm32h7xx_ll_usb.c **** 
 3275              		.loc 1 257 7 is_stmt 0 view .LVU1117
 3276 0004 C368     		ldr	r3, [r0, #12]
 257:Drivers/STM32H7xx_HAL_Driver/Src/stm32h7xx_ll_usb.c **** 
 3277              		.loc 1 257 17 view .LVU1118
 3278 0006 23F0C043 		bic	r3, r3, #1610612736
 3279 000a C360     		str	r3, [r0, #12]
 259:Drivers/STM32H7xx_HAL_Driver/Src/stm32h7xx_ll_usb.c ****   {
 3280              		.loc 1 259 3 is_stmt 1 view .LVU1119
 259:Drivers/STM32H7xx_HAL_Driver/Src/stm32h7xx_ll_usb.c ****   {
 3281              		.loc 1 259 6 is_stmt 0 view .LVU1120
 3282 000c 0129     		cmp	r1, #1
 3283 000e 13D0     		beq	.L214
 269:Drivers/STM32H7xx_HAL_Driver/Src/stm32h7xx_ll_usb.c ****   {
 3284              		.loc 1 269 8 is_stmt 1 view .LVU1121
 269:Drivers/STM32H7xx_HAL_Driver/Src/stm32h7xx_ll_usb.c ****   {
 3285              		.loc 1 269 11 is_stmt 0 view .LVU1122
 3286 0010 19BB     		cbnz	r1, .L211
 271:Drivers/STM32H7xx_HAL_Driver/Src/stm32h7xx_ll_usb.c **** 
 3287              		.loc 1 271 5 is_stmt 1 view .LVU1123
 271:Drivers/STM32H7xx_HAL_Driver/Src/stm32h7xx_ll_usb.c **** 
 3288              		.loc 1 271 9 is_stmt 0 view .LVU1124
 3289 0012 C368     		ldr	r3, [r0, #12]
 271:Drivers/STM32H7xx_HAL_Driver/Src/stm32h7xx_ll_usb.c **** 
 3290              		.loc 1 271 19 view .LVU1125
 3291 0014 43F08043 		orr	r3, r3, #1073741824
 3292 0018 C360     		str	r3, [r0, #12]
 255:Drivers/STM32H7xx_HAL_Driver/Src/stm32h7xx_ll_usb.c **** 
 3293              		.loc 1 255 12 view .LVU1126
 3294 001a 0024     		movs	r4, #0
 3295              	.LVL251:
 3296              	.L210:
 273:Drivers/STM32H7xx_HAL_Driver/Src/stm32h7xx_ll_usb.c ****     {
 3297              		.loc 1 273 5 is_stmt 1 view .LVU1127
 275:Drivers/STM32H7xx_HAL_Driver/Src/stm32h7xx_ll_usb.c ****       ms += 10U;
 3298              		.loc 1 275 7 view .LVU1128
 3299 001c 0A20     		movs	r0, #10
 3300 001e FFF7FEFF 		bl	HAL_Delay
 3301              	.LVL252:
 276:Drivers/STM32H7xx_HAL_Driver/Src/stm32h7xx_ll_usb.c ****     } while ((USB_GetMode(USBx) != (uint32_t)USB_DEVICE_MODE) && (ms < HAL_USB_CURRENT_MODE_MAX_DEL
 3302              		.loc 1 276 7 view .LVU1129
 276:Drivers/STM32H7xx_HAL_Driver/Src/stm32h7xx_ll_usb.c ****     } while ((USB_GetMode(USBx) != (uint32_t)USB_DEVICE_MODE) && (ms < HAL_USB_CURRENT_MODE_MAX_DEL
 3303              		.loc 1 276 10 is_stmt 0 view .LVU1130
 3304 0022 0A34     		adds	r4, r4, #10
 3305              	.LVL253:
 277:Drivers/STM32H7xx_HAL_Driver/Src/stm32h7xx_ll_usb.c ****   }
ARM GAS  C:\Users\Nathan\AppData\Local\Temp\cc7cwqzo.s 			page 102


 3306              		.loc 1 277 63 is_stmt 1 discriminator 2 view .LVU1131
 277:Drivers/STM32H7xx_HAL_Driver/Src/stm32h7xx_ll_usb.c ****   }
 3307              		.loc 1 277 15 is_stmt 0 discriminator 2 view .LVU1132
 3308 0024 2846     		mov	r0, r5
 3309 0026 FFF7FEFF 		bl	USB_GetMode
 3310              	.LVL254:
 277:Drivers/STM32H7xx_HAL_Driver/Src/stm32h7xx_ll_usb.c ****   }
 3311              		.loc 1 277 63 discriminator 2 view .LVU1133
 3312 002a 08B1     		cbz	r0, .L207
 277:Drivers/STM32H7xx_HAL_Driver/Src/stm32h7xx_ll_usb.c ****   }
 3313              		.loc 1 277 63 discriminator 1 view .LVU1134
 3314 002c C72C     		cmp	r4, #199
 3315 002e F5D9     		bls	.L210
 3316              	.L207:
 284:Drivers/STM32H7xx_HAL_Driver/Src/stm32h7xx_ll_usb.c ****   {
 3317              		.loc 1 284 3 is_stmt 1 view .LVU1135
 284:Drivers/STM32H7xx_HAL_Driver/Src/stm32h7xx_ll_usb.c ****   {
 3318              		.loc 1 284 6 is_stmt 0 view .LVU1136
 3319 0030 C82C     		cmp	r4, #200
 3320 0032 14D0     		beq	.L212
 289:Drivers/STM32H7xx_HAL_Driver/Src/stm32h7xx_ll_usb.c **** }
 3321              		.loc 1 289 10 view .LVU1137
 3322 0034 0020     		movs	r0, #0
 3323              	.LVL255:
 3324              	.L209:
 290:Drivers/STM32H7xx_HAL_Driver/Src/stm32h7xx_ll_usb.c **** 
 3325              		.loc 1 290 1 view .LVU1138
 3326 0036 38BD     		pop	{r3, r4, r5, pc}
 3327              	.LVL256:
 3328              	.L214:
 261:Drivers/STM32H7xx_HAL_Driver/Src/stm32h7xx_ll_usb.c **** 
 3329              		.loc 1 261 5 is_stmt 1 view .LVU1139
 261:Drivers/STM32H7xx_HAL_Driver/Src/stm32h7xx_ll_usb.c **** 
 3330              		.loc 1 261 9 is_stmt 0 view .LVU1140
 3331 0038 C368     		ldr	r3, [r0, #12]
 261:Drivers/STM32H7xx_HAL_Driver/Src/stm32h7xx_ll_usb.c **** 
 3332              		.loc 1 261 19 view .LVU1141
 3333 003a 43F00053 		orr	r3, r3, #536870912
 3334 003e C360     		str	r3, [r0, #12]
 255:Drivers/STM32H7xx_HAL_Driver/Src/stm32h7xx_ll_usb.c **** 
 3335              		.loc 1 255 12 view .LVU1142
 3336 0040 0024     		movs	r4, #0
 3337              	.LVL257:
 3338              	.L208:
 263:Drivers/STM32H7xx_HAL_Driver/Src/stm32h7xx_ll_usb.c ****     {
 3339              		.loc 1 263 5 is_stmt 1 view .LVU1143
 265:Drivers/STM32H7xx_HAL_Driver/Src/stm32h7xx_ll_usb.c ****       ms += 10U;
 3340              		.loc 1 265 7 view .LVU1144
 3341 0042 0A20     		movs	r0, #10
 3342 0044 FFF7FEFF 		bl	HAL_Delay
 3343              	.LVL258:
 266:Drivers/STM32H7xx_HAL_Driver/Src/stm32h7xx_ll_usb.c ****     } while ((USB_GetMode(USBx) != (uint32_t)USB_HOST_MODE) && (ms < HAL_USB_CURRENT_MODE_MAX_DELAY
 3344              		.loc 1 266 7 view .LVU1145
 266:Drivers/STM32H7xx_HAL_Driver/Src/stm32h7xx_ll_usb.c ****     } while ((USB_GetMode(USBx) != (uint32_t)USB_HOST_MODE) && (ms < HAL_USB_CURRENT_MODE_MAX_DELAY
 3345              		.loc 1 266 10 is_stmt 0 view .LVU1146
 3346 0048 0A34     		adds	r4, r4, #10
 3347              	.LVL259:
ARM GAS  C:\Users\Nathan\AppData\Local\Temp\cc7cwqzo.s 			page 103


 267:Drivers/STM32H7xx_HAL_Driver/Src/stm32h7xx_ll_usb.c ****   }
 3348              		.loc 1 267 61 is_stmt 1 discriminator 2 view .LVU1147
 267:Drivers/STM32H7xx_HAL_Driver/Src/stm32h7xx_ll_usb.c ****   }
 3349              		.loc 1 267 15 is_stmt 0 discriminator 2 view .LVU1148
 3350 004a 2846     		mov	r0, r5
 3351 004c FFF7FEFF 		bl	USB_GetMode
 3352              	.LVL260:
 267:Drivers/STM32H7xx_HAL_Driver/Src/stm32h7xx_ll_usb.c ****   }
 3353              		.loc 1 267 61 discriminator 2 view .LVU1149
 3354 0050 0128     		cmp	r0, #1
 3355 0052 EDD0     		beq	.L207
 267:Drivers/STM32H7xx_HAL_Driver/Src/stm32h7xx_ll_usb.c ****   }
 3356              		.loc 1 267 61 discriminator 1 view .LVU1150
 3357 0054 C72C     		cmp	r4, #199
 3358 0056 F4D9     		bls	.L208
 3359 0058 EAE7     		b	.L207
 3360              	.LVL261:
 3361              	.L211:
 281:Drivers/STM32H7xx_HAL_Driver/Src/stm32h7xx_ll_usb.c ****   }
 3362              		.loc 1 281 12 view .LVU1151
 3363 005a 0120     		movs	r0, #1
 3364              	.LVL262:
 281:Drivers/STM32H7xx_HAL_Driver/Src/stm32h7xx_ll_usb.c ****   }
 3365              		.loc 1 281 12 view .LVU1152
 3366 005c EBE7     		b	.L209
 3367              	.LVL263:
 3368              	.L212:
 286:Drivers/STM32H7xx_HAL_Driver/Src/stm32h7xx_ll_usb.c ****   }
 3369              		.loc 1 286 12 view .LVU1153
 3370 005e 0120     		movs	r0, #1
 3371 0060 E9E7     		b	.L209
 3372              		.cfi_endproc
 3373              	.LFE148:
 3375              		.section	.text.USB_ActivateSetup,"ax",%progbits
 3376              		.align	1
 3377              		.global	USB_ActivateSetup
 3378              		.syntax unified
 3379              		.thumb
 3380              		.thumb_func
 3382              	USB_ActivateSetup:
 3383              	.LVL264:
 3384              	.LFB176:
1331:Drivers/STM32H7xx_HAL_Driver/Src/stm32h7xx_ll_usb.c ****   uint32_t USBx_BASE = (uint32_t)USBx;
 3385              		.loc 1 1331 1 is_stmt 1 view -0
 3386              		.cfi_startproc
 3387              		@ args = 0, pretend = 0, frame = 0
 3388              		@ frame_needed = 0, uses_anonymous_args = 0
 3389              		@ link register save eliminated.
1332:Drivers/STM32H7xx_HAL_Driver/Src/stm32h7xx_ll_usb.c **** 
 3390              		.loc 1 1332 3 view .LVU1155
1335:Drivers/STM32H7xx_HAL_Driver/Src/stm32h7xx_ll_usb.c **** 
 3391              		.loc 1 1335 3 view .LVU1156
1335:Drivers/STM32H7xx_HAL_Driver/Src/stm32h7xx_ll_usb.c **** 
 3392              		.loc 1 1335 16 is_stmt 0 view .LVU1157
 3393 0000 D0F80039 		ldr	r3, [r0, #2304]
1335:Drivers/STM32H7xx_HAL_Driver/Src/stm32h7xx_ll_usb.c **** 
 3394              		.loc 1 1335 26 view .LVU1158
ARM GAS  C:\Users\Nathan\AppData\Local\Temp\cc7cwqzo.s 			page 104


 3395 0004 6FF30A03 		bfc	r3, #0, #11
 3396 0008 C0F80039 		str	r3, [r0, #2304]
1337:Drivers/STM32H7xx_HAL_Driver/Src/stm32h7xx_ll_usb.c **** 
 3397              		.loc 1 1337 3 is_stmt 1 view .LVU1159
1337:Drivers/STM32H7xx_HAL_Driver/Src/stm32h7xx_ll_usb.c **** 
 3398              		.loc 1 1337 14 is_stmt 0 view .LVU1160
 3399 000c D0F80438 		ldr	r3, [r0, #2052]
1337:Drivers/STM32H7xx_HAL_Driver/Src/stm32h7xx_ll_usb.c **** 
 3400              		.loc 1 1337 21 view .LVU1161
 3401 0010 43F48073 		orr	r3, r3, #256
 3402 0014 C0F80438 		str	r3, [r0, #2052]
1339:Drivers/STM32H7xx_HAL_Driver/Src/stm32h7xx_ll_usb.c **** }
 3403              		.loc 1 1339 3 is_stmt 1 view .LVU1162
1340:Drivers/STM32H7xx_HAL_Driver/Src/stm32h7xx_ll_usb.c **** 
 3404              		.loc 1 1340 1 is_stmt 0 view .LVU1163
 3405 0018 0020     		movs	r0, #0
 3406              	.LVL265:
1340:Drivers/STM32H7xx_HAL_Driver/Src/stm32h7xx_ll_usb.c **** 
 3407              		.loc 1 1340 1 view .LVU1164
 3408 001a 7047     		bx	lr
 3409              		.cfi_endproc
 3410              	.LFE176:
 3412              		.section	.text.USB_EP0_OutStart,"ax",%progbits
 3413              		.align	1
 3414              		.global	USB_EP0_OutStart
 3415              		.syntax unified
 3416              		.thumb
 3417              		.thumb_func
 3419              	USB_EP0_OutStart:
 3420              	.LVL266:
 3421              	.LFB177:
1353:Drivers/STM32H7xx_HAL_Driver/Src/stm32h7xx_ll_usb.c ****   uint32_t USBx_BASE = (uint32_t)USBx;
 3422              		.loc 1 1353 1 is_stmt 1 view -0
 3423              		.cfi_startproc
 3424              		@ args = 0, pretend = 0, frame = 0
 3425              		@ frame_needed = 0, uses_anonymous_args = 0
 3426              		@ link register save eliminated.
1353:Drivers/STM32H7xx_HAL_Driver/Src/stm32h7xx_ll_usb.c ****   uint32_t USBx_BASE = (uint32_t)USBx;
 3427              		.loc 1 1353 1 is_stmt 0 view .LVU1166
 3428 0000 10B4     		push	{r4}
 3429              		.cfi_def_cfa_offset 4
 3430              		.cfi_offset 4, -4
1354:Drivers/STM32H7xx_HAL_Driver/Src/stm32h7xx_ll_usb.c ****   uint32_t gSNPSiD = *(__IO const uint32_t *)(&USBx->CID + 0x1U);
 3431              		.loc 1 1354 3 is_stmt 1 view .LVU1167
 3432              	.LVL267:
1355:Drivers/STM32H7xx_HAL_Driver/Src/stm32h7xx_ll_usb.c **** 
 3433              		.loc 1 1355 3 view .LVU1168
1355:Drivers/STM32H7xx_HAL_Driver/Src/stm32h7xx_ll_usb.c **** 
 3434              		.loc 1 1355 12 is_stmt 0 view .LVU1169
 3435 0002 046C     		ldr	r4, [r0, #64]
 3436              	.LVL268:
1357:Drivers/STM32H7xx_HAL_Driver/Src/stm32h7xx_ll_usb.c ****   {
 3437              		.loc 1 1357 3 is_stmt 1 view .LVU1170
1357:Drivers/STM32H7xx_HAL_Driver/Src/stm32h7xx_ll_usb.c ****   {
 3438              		.loc 1 1357 6 is_stmt 0 view .LVU1171
 3439 0004 154B     		ldr	r3, .L221
 3440 0006 9C42     		cmp	r4, r3
ARM GAS  C:\Users\Nathan\AppData\Local\Temp\cc7cwqzo.s 			page 105


 3441 0008 03D9     		bls	.L217
1359:Drivers/STM32H7xx_HAL_Driver/Src/stm32h7xx_ll_usb.c ****     {
 3442              		.loc 1 1359 5 is_stmt 1 view .LVU1172
1359:Drivers/STM32H7xx_HAL_Driver/Src/stm32h7xx_ll_usb.c ****     {
 3443              		.loc 1 1359 24 is_stmt 0 view .LVU1173
 3444 000a D0F8003B 		ldr	r3, [r0, #2816]
1359:Drivers/STM32H7xx_HAL_Driver/Src/stm32h7xx_ll_usb.c ****     {
 3445              		.loc 1 1359 8 view .LVU1174
 3446 000e 002B     		cmp	r3, #0
 3447 0010 16DB     		blt	.L218
 3448              	.L217:
1365:Drivers/STM32H7xx_HAL_Driver/Src/stm32h7xx_ll_usb.c ****   USBx_OUTEP(0U)->DOEPTSIZ |= (USB_OTG_DOEPTSIZ_PKTCNT & (1U << 19));
 3449              		.loc 1 1365 3 is_stmt 1 view .LVU1175
1365:Drivers/STM32H7xx_HAL_Driver/Src/stm32h7xx_ll_usb.c ****   USBx_OUTEP(0U)->DOEPTSIZ |= (USB_OTG_DOEPTSIZ_PKTCNT & (1U << 19));
 3450              		.loc 1 1365 28 is_stmt 0 view .LVU1176
 3451 0012 0024     		movs	r4, #0
 3452              	.LVL269:
1365:Drivers/STM32H7xx_HAL_Driver/Src/stm32h7xx_ll_usb.c ****   USBx_OUTEP(0U)->DOEPTSIZ |= (USB_OTG_DOEPTSIZ_PKTCNT & (1U << 19));
 3453              		.loc 1 1365 28 view .LVU1177
 3454 0014 C0F8104B 		str	r4, [r0, #2832]
1366:Drivers/STM32H7xx_HAL_Driver/Src/stm32h7xx_ll_usb.c ****   USBx_OUTEP(0U)->DOEPTSIZ |= (3U * 8U);
 3455              		.loc 1 1366 3 is_stmt 1 view .LVU1178
1366:Drivers/STM32H7xx_HAL_Driver/Src/stm32h7xx_ll_usb.c ****   USBx_OUTEP(0U)->DOEPTSIZ |= (3U * 8U);
 3456              		.loc 1 1366 17 is_stmt 0 view .LVU1179
 3457 0018 D0F8104B 		ldr	r4, [r0, #2832]
1366:Drivers/STM32H7xx_HAL_Driver/Src/stm32h7xx_ll_usb.c ****   USBx_OUTEP(0U)->DOEPTSIZ |= (3U * 8U);
 3458              		.loc 1 1366 28 view .LVU1180
 3459 001c 44F40024 		orr	r4, r4, #524288
 3460 0020 C0F8104B 		str	r4, [r0, #2832]
1367:Drivers/STM32H7xx_HAL_Driver/Src/stm32h7xx_ll_usb.c ****   USBx_OUTEP(0U)->DOEPTSIZ |=  USB_OTG_DOEPTSIZ_STUPCNT;
 3461              		.loc 1 1367 3 is_stmt 1 view .LVU1181
1367:Drivers/STM32H7xx_HAL_Driver/Src/stm32h7xx_ll_usb.c ****   USBx_OUTEP(0U)->DOEPTSIZ |=  USB_OTG_DOEPTSIZ_STUPCNT;
 3462              		.loc 1 1367 17 is_stmt 0 view .LVU1182
 3463 0024 D0F8104B 		ldr	r4, [r0, #2832]
1367:Drivers/STM32H7xx_HAL_Driver/Src/stm32h7xx_ll_usb.c ****   USBx_OUTEP(0U)->DOEPTSIZ |=  USB_OTG_DOEPTSIZ_STUPCNT;
 3464              		.loc 1 1367 28 view .LVU1183
 3465 0028 44F01804 		orr	r4, r4, #24
 3466 002c C0F8104B 		str	r4, [r0, #2832]
1368:Drivers/STM32H7xx_HAL_Driver/Src/stm32h7xx_ll_usb.c **** 
 3467              		.loc 1 1368 3 is_stmt 1 view .LVU1184
1368:Drivers/STM32H7xx_HAL_Driver/Src/stm32h7xx_ll_usb.c **** 
 3468              		.loc 1 1368 17 is_stmt 0 view .LVU1185
 3469 0030 D0F8104B 		ldr	r4, [r0, #2832]
1368:Drivers/STM32H7xx_HAL_Driver/Src/stm32h7xx_ll_usb.c **** 
 3470              		.loc 1 1368 28 view .LVU1186
 3471 0034 44F0C044 		orr	r4, r4, #1610612736
 3472 0038 C0F8104B 		str	r4, [r0, #2832]
1370:Drivers/STM32H7xx_HAL_Driver/Src/stm32h7xx_ll_usb.c ****   {
 3473              		.loc 1 1370 3 is_stmt 1 view .LVU1187
1370:Drivers/STM32H7xx_HAL_Driver/Src/stm32h7xx_ll_usb.c ****   {
 3474              		.loc 1 1370 6 is_stmt 0 view .LVU1188
 3475 003c 0129     		cmp	r1, #1
 3476 003e 03D0     		beq	.L220
 3477              	.L218:
1378:Drivers/STM32H7xx_HAL_Driver/Src/stm32h7xx_ll_usb.c **** 
 3478              		.loc 1 1378 1 view .LVU1189
 3479 0040 0020     		movs	r0, #0
ARM GAS  C:\Users\Nathan\AppData\Local\Temp\cc7cwqzo.s 			page 106


 3480              	.LVL270:
1378:Drivers/STM32H7xx_HAL_Driver/Src/stm32h7xx_ll_usb.c **** 
 3481              		.loc 1 1378 1 view .LVU1190
 3482 0042 5DF8044B 		ldr	r4, [sp], #4
 3483              		.cfi_remember_state
 3484              		.cfi_restore 4
 3485              		.cfi_def_cfa_offset 0
 3486 0046 7047     		bx	lr
 3487              	.LVL271:
 3488              	.L220:
 3489              		.cfi_restore_state
1372:Drivers/STM32H7xx_HAL_Driver/Src/stm32h7xx_ll_usb.c ****     /* EP enable */
 3490              		.loc 1 1372 5 is_stmt 1 view .LVU1191
1372:Drivers/STM32H7xx_HAL_Driver/Src/stm32h7xx_ll_usb.c ****     /* EP enable */
 3491              		.loc 1 1372 29 is_stmt 0 view .LVU1192
 3492 0048 C0F8142B 		str	r2, [r0, #2836]
1374:Drivers/STM32H7xx_HAL_Driver/Src/stm32h7xx_ll_usb.c ****   }
 3493              		.loc 1 1374 5 is_stmt 1 view .LVU1193
1374:Drivers/STM32H7xx_HAL_Driver/Src/stm32h7xx_ll_usb.c ****   }
 3494              		.loc 1 1374 19 is_stmt 0 view .LVU1194
 3495 004c D0F8003B 		ldr	r3, [r0, #2816]
1374:Drivers/STM32H7xx_HAL_Driver/Src/stm32h7xx_ll_usb.c ****   }
 3496              		.loc 1 1374 29 view .LVU1195
 3497 0050 43F08023 		orr	r3, r3, #-2147450880
 3498 0054 C0F8003B 		str	r3, [r0, #2816]
 3499 0058 F2E7     		b	.L218
 3500              	.L222:
 3501 005a 00BF     		.align	2
 3502              	.L221:
 3503 005c 0A30544F 		.word	1330917386
 3504              		.cfi_endproc
 3505              	.LFE177:
 3507              		.section	.text.USB_HostInit,"ax",%progbits
 3508              		.align	1
 3509              		.global	USB_HostInit
 3510              		.syntax unified
 3511              		.thumb
 3512              		.thumb_func
 3514              	USB_HostInit:
 3515              	.LVL272:
 3516              	.LFB179:
1416:Drivers/STM32H7xx_HAL_Driver/Src/stm32h7xx_ll_usb.c **** 
1417:Drivers/STM32H7xx_HAL_Driver/Src/stm32h7xx_ll_usb.c **** /**
1418:Drivers/STM32H7xx_HAL_Driver/Src/stm32h7xx_ll_usb.c ****   * @brief  USB_HostInit : Initializes the USB OTG controller registers
1419:Drivers/STM32H7xx_HAL_Driver/Src/stm32h7xx_ll_usb.c ****   *         for Host mode
1420:Drivers/STM32H7xx_HAL_Driver/Src/stm32h7xx_ll_usb.c ****   * @param  USBx  Selected device
1421:Drivers/STM32H7xx_HAL_Driver/Src/stm32h7xx_ll_usb.c ****   * @param  cfg   pointer to a USB_OTG_CfgTypeDef structure that contains
1422:Drivers/STM32H7xx_HAL_Driver/Src/stm32h7xx_ll_usb.c ****   *         the configuration information for the specified USBx peripheral.
1423:Drivers/STM32H7xx_HAL_Driver/Src/stm32h7xx_ll_usb.c ****   * @retval HAL status
1424:Drivers/STM32H7xx_HAL_Driver/Src/stm32h7xx_ll_usb.c ****   */
1425:Drivers/STM32H7xx_HAL_Driver/Src/stm32h7xx_ll_usb.c **** HAL_StatusTypeDef USB_HostInit(USB_OTG_GlobalTypeDef *USBx, USB_OTG_CfgTypeDef cfg)
1426:Drivers/STM32H7xx_HAL_Driver/Src/stm32h7xx_ll_usb.c **** {
 3517              		.loc 1 1426 1 is_stmt 1 view -0
 3518              		.cfi_startproc
 3519              		@ args = 20, pretend = 16, frame = 0
 3520              		@ frame_needed = 0, uses_anonymous_args = 0
 3521              		.loc 1 1426 1 is_stmt 0 view .LVU1197
ARM GAS  C:\Users\Nathan\AppData\Local\Temp\cc7cwqzo.s 			page 107


 3522 0000 84B0     		sub	sp, sp, #16
 3523              		.cfi_def_cfa_offset 16
 3524 0002 38B5     		push	{r3, r4, r5, lr}
 3525              		.cfi_def_cfa_offset 32
 3526              		.cfi_offset 3, -32
 3527              		.cfi_offset 4, -28
 3528              		.cfi_offset 5, -24
 3529              		.cfi_offset 14, -20
 3530 0004 0446     		mov	r4, r0
 3531 0006 05A8     		add	r0, sp, #20
 3532              	.LVL273:
 3533              		.loc 1 1426 1 view .LVU1198
 3534 0008 80E80E00 		stm	r0, {r1, r2, r3}
1427:Drivers/STM32H7xx_HAL_Driver/Src/stm32h7xx_ll_usb.c ****   HAL_StatusTypeDef ret = HAL_OK;
 3535              		.loc 1 1427 3 is_stmt 1 view .LVU1199
 3536              	.LVL274:
1428:Drivers/STM32H7xx_HAL_Driver/Src/stm32h7xx_ll_usb.c ****   uint32_t USBx_BASE = (uint32_t)USBx;
 3537              		.loc 1 1428 3 view .LVU1200
1429:Drivers/STM32H7xx_HAL_Driver/Src/stm32h7xx_ll_usb.c ****   uint32_t i;
 3538              		.loc 1 1429 3 view .LVU1201
1430:Drivers/STM32H7xx_HAL_Driver/Src/stm32h7xx_ll_usb.c **** 
1431:Drivers/STM32H7xx_HAL_Driver/Src/stm32h7xx_ll_usb.c ****   /* Restart the Phy Clock */
1432:Drivers/STM32H7xx_HAL_Driver/Src/stm32h7xx_ll_usb.c ****   USBx_PCGCCTL = 0U;
 3539              		.loc 1 1432 3 view .LVU1202
 3540              		.loc 1 1432 16 is_stmt 0 view .LVU1203
 3541 000c 0023     		movs	r3, #0
 3542 000e C4F8003E 		str	r3, [r4, #3584]
1433:Drivers/STM32H7xx_HAL_Driver/Src/stm32h7xx_ll_usb.c **** 
1434:Drivers/STM32H7xx_HAL_Driver/Src/stm32h7xx_ll_usb.c ****   /* Disable VBUS sensing */
1435:Drivers/STM32H7xx_HAL_Driver/Src/stm32h7xx_ll_usb.c ****   USBx->GCCFG &= ~(USB_OTG_GCCFG_VBDEN);
 3543              		.loc 1 1435 3 is_stmt 1 view .LVU1204
 3544              		.loc 1 1435 7 is_stmt 0 view .LVU1205
 3545 0012 A36B     		ldr	r3, [r4, #56]
 3546              		.loc 1 1435 15 view .LVU1206
 3547 0014 23F40013 		bic	r3, r3, #2097152
 3548 0018 A363     		str	r3, [r4, #56]
1436:Drivers/STM32H7xx_HAL_Driver/Src/stm32h7xx_ll_usb.c **** 
1437:Drivers/STM32H7xx_HAL_Driver/Src/stm32h7xx_ll_usb.c ****   /* Disable Battery chargin detector */
1438:Drivers/STM32H7xx_HAL_Driver/Src/stm32h7xx_ll_usb.c ****   USBx->GCCFG &= ~(USB_OTG_GCCFG_BCDEN);
 3549              		.loc 1 1438 3 is_stmt 1 view .LVU1207
 3550              		.loc 1 1438 7 is_stmt 0 view .LVU1208
 3551 001a A36B     		ldr	r3, [r4, #56]
 3552              		.loc 1 1438 15 view .LVU1209
 3553 001c 23F40033 		bic	r3, r3, #131072
 3554 0020 A363     		str	r3, [r4, #56]
1439:Drivers/STM32H7xx_HAL_Driver/Src/stm32h7xx_ll_usb.c **** 
1440:Drivers/STM32H7xx_HAL_Driver/Src/stm32h7xx_ll_usb.c **** 
1441:Drivers/STM32H7xx_HAL_Driver/Src/stm32h7xx_ll_usb.c ****   if ((USBx->GUSBCFG & USB_OTG_GUSBCFG_PHYSEL) == 0U)
 3555              		.loc 1 1441 3 is_stmt 1 view .LVU1210
 3556              		.loc 1 1441 12 is_stmt 0 view .LVU1211
 3557 0022 E368     		ldr	r3, [r4, #12]
 3558              		.loc 1 1441 6 view .LVU1212
 3559 0024 13F0400F 		tst	r3, #64
 3560 0028 11D1     		bne	.L224
1442:Drivers/STM32H7xx_HAL_Driver/Src/stm32h7xx_ll_usb.c ****   {
1443:Drivers/STM32H7xx_HAL_Driver/Src/stm32h7xx_ll_usb.c ****     if (cfg.speed == USBH_FSLS_SPEED)
 3561              		.loc 1 1443 5 is_stmt 1 view .LVU1213
ARM GAS  C:\Users\Nathan\AppData\Local\Temp\cc7cwqzo.s 			page 108


 3562              		.loc 1 1443 12 is_stmt 0 view .LVU1214
 3563 002a 9DF81730 		ldrb	r3, [sp, #23]	@ zero_extendqisi2
 3564              		.loc 1 1443 8 view .LVU1215
 3565 002e 012B     		cmp	r3, #1
 3566 0030 06D0     		beq	.L235
1444:Drivers/STM32H7xx_HAL_Driver/Src/stm32h7xx_ll_usb.c ****     {
1445:Drivers/STM32H7xx_HAL_Driver/Src/stm32h7xx_ll_usb.c ****       /* Force Device Enumeration to FS/LS mode only */
1446:Drivers/STM32H7xx_HAL_Driver/Src/stm32h7xx_ll_usb.c ****       USBx_HOST->HCFG |= USB_OTG_HCFG_FSLSS;
1447:Drivers/STM32H7xx_HAL_Driver/Src/stm32h7xx_ll_usb.c ****     }
1448:Drivers/STM32H7xx_HAL_Driver/Src/stm32h7xx_ll_usb.c ****     else
1449:Drivers/STM32H7xx_HAL_Driver/Src/stm32h7xx_ll_usb.c ****     {
1450:Drivers/STM32H7xx_HAL_Driver/Src/stm32h7xx_ll_usb.c ****       /* Set default Max speed support */
1451:Drivers/STM32H7xx_HAL_Driver/Src/stm32h7xx_ll_usb.c ****       USBx_HOST->HCFG &= ~(USB_OTG_HCFG_FSLSS);
 3567              		.loc 1 1451 7 is_stmt 1 view .LVU1216
 3568              		.loc 1 1451 16 is_stmt 0 view .LVU1217
 3569 0032 D4F80034 		ldr	r3, [r4, #1024]
 3570              		.loc 1 1451 23 view .LVU1218
 3571 0036 23F00403 		bic	r3, r3, #4
 3572 003a C4F80034 		str	r3, [r4, #1024]
 3573 003e 0CE0     		b	.L226
 3574              	.L235:
1446:Drivers/STM32H7xx_HAL_Driver/Src/stm32h7xx_ll_usb.c ****     }
 3575              		.loc 1 1446 7 is_stmt 1 view .LVU1219
1446:Drivers/STM32H7xx_HAL_Driver/Src/stm32h7xx_ll_usb.c ****     }
 3576              		.loc 1 1446 16 is_stmt 0 view .LVU1220
 3577 0040 D4F80034 		ldr	r3, [r4, #1024]
1446:Drivers/STM32H7xx_HAL_Driver/Src/stm32h7xx_ll_usb.c ****     }
 3578              		.loc 1 1446 23 view .LVU1221
 3579 0044 43F00403 		orr	r3, r3, #4
 3580 0048 C4F80034 		str	r3, [r4, #1024]
 3581 004c 05E0     		b	.L226
 3582              	.L224:
1452:Drivers/STM32H7xx_HAL_Driver/Src/stm32h7xx_ll_usb.c ****     }
1453:Drivers/STM32H7xx_HAL_Driver/Src/stm32h7xx_ll_usb.c ****   }
1454:Drivers/STM32H7xx_HAL_Driver/Src/stm32h7xx_ll_usb.c ****   else
1455:Drivers/STM32H7xx_HAL_Driver/Src/stm32h7xx_ll_usb.c ****   {
1456:Drivers/STM32H7xx_HAL_Driver/Src/stm32h7xx_ll_usb.c ****     /* Set default Max speed support */
1457:Drivers/STM32H7xx_HAL_Driver/Src/stm32h7xx_ll_usb.c ****     USBx_HOST->HCFG &= ~(USB_OTG_HCFG_FSLSS);
 3583              		.loc 1 1457 5 is_stmt 1 view .LVU1222
 3584              		.loc 1 1457 14 is_stmt 0 view .LVU1223
 3585 004e D4F80034 		ldr	r3, [r4, #1024]
 3586              		.loc 1 1457 21 view .LVU1224
 3587 0052 23F00403 		bic	r3, r3, #4
 3588 0056 C4F80034 		str	r3, [r4, #1024]
 3589              	.L226:
1458:Drivers/STM32H7xx_HAL_Driver/Src/stm32h7xx_ll_usb.c ****   }
1459:Drivers/STM32H7xx_HAL_Driver/Src/stm32h7xx_ll_usb.c **** 
1460:Drivers/STM32H7xx_HAL_Driver/Src/stm32h7xx_ll_usb.c ****   /* Make sure the FIFOs are flushed. */
1461:Drivers/STM32H7xx_HAL_Driver/Src/stm32h7xx_ll_usb.c ****   if (USB_FlushTxFifo(USBx, 0x10U) != HAL_OK) /* all Tx FIFOs */
 3590              		.loc 1 1461 3 is_stmt 1 view .LVU1225
 3591              		.loc 1 1461 7 is_stmt 0 view .LVU1226
 3592 005a 1021     		movs	r1, #16
 3593 005c 2046     		mov	r0, r4
 3594 005e FFF7FEFF 		bl	USB_FlushTxFifo
 3595              	.LVL275:
 3596              		.loc 1 1461 6 discriminator 1 view .LVU1227
 3597 0062 0546     		mov	r5, r0
ARM GAS  C:\Users\Nathan\AppData\Local\Temp\cc7cwqzo.s 			page 109


 3598 0064 00B1     		cbz	r0, .L227
1462:Drivers/STM32H7xx_HAL_Driver/Src/stm32h7xx_ll_usb.c ****   {
1463:Drivers/STM32H7xx_HAL_Driver/Src/stm32h7xx_ll_usb.c ****     ret = HAL_ERROR;
 3599              		.loc 1 1463 9 view .LVU1228
 3600 0066 0125     		movs	r5, #1
 3601              	.L227:
 3602              	.LVL276:
1464:Drivers/STM32H7xx_HAL_Driver/Src/stm32h7xx_ll_usb.c ****   }
1465:Drivers/STM32H7xx_HAL_Driver/Src/stm32h7xx_ll_usb.c **** 
1466:Drivers/STM32H7xx_HAL_Driver/Src/stm32h7xx_ll_usb.c ****   if (USB_FlushRxFifo(USBx) != HAL_OK)
 3603              		.loc 1 1466 3 is_stmt 1 view .LVU1229
 3604              		.loc 1 1466 7 is_stmt 0 view .LVU1230
 3605 0068 2046     		mov	r0, r4
 3606 006a FFF7FEFF 		bl	USB_FlushRxFifo
 3607              	.LVL277:
 3608              		.loc 1 1466 6 discriminator 1 view .LVU1231
 3609 006e 00B1     		cbz	r0, .L228
1467:Drivers/STM32H7xx_HAL_Driver/Src/stm32h7xx_ll_usb.c ****   {
1468:Drivers/STM32H7xx_HAL_Driver/Src/stm32h7xx_ll_usb.c ****     ret = HAL_ERROR;
 3610              		.loc 1 1468 9 view .LVU1232
 3611 0070 0125     		movs	r5, #1
 3612              	.LVL278:
 3613              	.L228:
1469:Drivers/STM32H7xx_HAL_Driver/Src/stm32h7xx_ll_usb.c ****   }
1470:Drivers/STM32H7xx_HAL_Driver/Src/stm32h7xx_ll_usb.c **** 
1471:Drivers/STM32H7xx_HAL_Driver/Src/stm32h7xx_ll_usb.c ****   /* Clear all pending HC Interrupts */
1472:Drivers/STM32H7xx_HAL_Driver/Src/stm32h7xx_ll_usb.c ****   for (i = 0U; i < cfg.Host_channels; i++)
 3614              		.loc 1 1472 3 is_stmt 1 view .LVU1233
 3615              		.loc 1 1472 10 is_stmt 0 view .LVU1234
 3616 0072 0022     		movs	r2, #0
 3617              		.loc 1 1472 3 view .LVU1235
 3618 0074 09E0     		b	.L229
 3619              	.LVL279:
 3620              	.L230:
1473:Drivers/STM32H7xx_HAL_Driver/Src/stm32h7xx_ll_usb.c ****   {
1474:Drivers/STM32H7xx_HAL_Driver/Src/stm32h7xx_ll_usb.c ****     USBx_HC(i)->HCINT = CLEAR_INTERRUPT_MASK;
 3621              		.loc 1 1474 5 is_stmt 1 view .LVU1236
 3622 0076 04EB4213 		add	r3, r4, r2, lsl #5
 3623              		.loc 1 1474 23 is_stmt 0 view .LVU1237
 3624 007a 4FF0FF31 		mov	r1, #-1
 3625 007e C3F80815 		str	r1, [r3, #1288]
1475:Drivers/STM32H7xx_HAL_Driver/Src/stm32h7xx_ll_usb.c ****     USBx_HC(i)->HCINTMSK = 0U;
 3626              		.loc 1 1475 5 is_stmt 1 view .LVU1238
 3627              		.loc 1 1475 26 is_stmt 0 view .LVU1239
 3628 0082 0021     		movs	r1, #0
 3629 0084 C3F80C15 		str	r1, [r3, #1292]
1472:Drivers/STM32H7xx_HAL_Driver/Src/stm32h7xx_ll_usb.c ****   {
 3630              		.loc 1 1472 40 is_stmt 1 discriminator 3 view .LVU1240
 3631 0088 0132     		adds	r2, r2, #1
 3632              	.LVL280:
 3633              	.L229:
1472:Drivers/STM32H7xx_HAL_Driver/Src/stm32h7xx_ll_usb.c ****   {
 3634              		.loc 1 1472 18 discriminator 1 view .LVU1241
1472:Drivers/STM32H7xx_HAL_Driver/Src/stm32h7xx_ll_usb.c ****   {
 3635              		.loc 1 1472 23 is_stmt 0 discriminator 1 view .LVU1242
 3636 008a 9DF81530 		ldrb	r3, [sp, #21]	@ zero_extendqisi2
1472:Drivers/STM32H7xx_HAL_Driver/Src/stm32h7xx_ll_usb.c ****   {
ARM GAS  C:\Users\Nathan\AppData\Local\Temp\cc7cwqzo.s 			page 110


 3637              		.loc 1 1472 18 discriminator 1 view .LVU1243
 3638 008e 9342     		cmp	r3, r2
 3639 0090 F1D8     		bhi	.L230
1476:Drivers/STM32H7xx_HAL_Driver/Src/stm32h7xx_ll_usb.c ****   }
1477:Drivers/STM32H7xx_HAL_Driver/Src/stm32h7xx_ll_usb.c **** 
1478:Drivers/STM32H7xx_HAL_Driver/Src/stm32h7xx_ll_usb.c ****   /* Disable all interrupts. */
1479:Drivers/STM32H7xx_HAL_Driver/Src/stm32h7xx_ll_usb.c ****   USBx->GINTMSK = 0U;
 3640              		.loc 1 1479 3 is_stmt 1 view .LVU1244
 3641              		.loc 1 1479 17 is_stmt 0 view .LVU1245
 3642 0092 0023     		movs	r3, #0
 3643 0094 A361     		str	r3, [r4, #24]
1480:Drivers/STM32H7xx_HAL_Driver/Src/stm32h7xx_ll_usb.c **** 
1481:Drivers/STM32H7xx_HAL_Driver/Src/stm32h7xx_ll_usb.c ****   /* Clear any pending interrupts */
1482:Drivers/STM32H7xx_HAL_Driver/Src/stm32h7xx_ll_usb.c ****   USBx->GINTSTS = CLEAR_INTERRUPT_MASK;
 3644              		.loc 1 1482 3 is_stmt 1 view .LVU1246
 3645              		.loc 1 1482 17 is_stmt 0 view .LVU1247
 3646 0096 4FF0FF33 		mov	r3, #-1
 3647 009a 6361     		str	r3, [r4, #20]
1483:Drivers/STM32H7xx_HAL_Driver/Src/stm32h7xx_ll_usb.c ****   /* set Rx FIFO size */
1484:Drivers/STM32H7xx_HAL_Driver/Src/stm32h7xx_ll_usb.c ****   USBx->GRXFSIZ  = 0x200U;
 3648              		.loc 1 1484 3 is_stmt 1 view .LVU1248
 3649              		.loc 1 1484 18 is_stmt 0 view .LVU1249
 3650 009c 4FF40073 		mov	r3, #512
 3651 00a0 6362     		str	r3, [r4, #36]
1485:Drivers/STM32H7xx_HAL_Driver/Src/stm32h7xx_ll_usb.c ****   USBx->DIEPTXF0_HNPTXFSIZ = (uint32_t)(((0x100U << 16) & USB_OTG_NPTXFD) | 0x200U);
 3652              		.loc 1 1485 3 is_stmt 1 view .LVU1250
 3653              		.loc 1 1485 28 is_stmt 0 view .LVU1251
 3654 00a2 03F18073 		add	r3, r3, #16777216
 3655 00a6 A362     		str	r3, [r4, #40]
1486:Drivers/STM32H7xx_HAL_Driver/Src/stm32h7xx_ll_usb.c ****   USBx->HPTXFSIZ = (uint32_t)(((0xE0U << 16) & USB_OTG_HPTXFSIZ_PTXFD) | 0x300U);
 3656              		.loc 1 1486 3 is_stmt 1 view .LVU1252
 3657              		.loc 1 1486 18 is_stmt 0 view .LVU1253
 3658 00a8 094B     		ldr	r3, .L236
 3659 00aa C4F80031 		str	r3, [r4, #256]
1487:Drivers/STM32H7xx_HAL_Driver/Src/stm32h7xx_ll_usb.c **** 
1488:Drivers/STM32H7xx_HAL_Driver/Src/stm32h7xx_ll_usb.c ****   /* Enable the common interrupts */
1489:Drivers/STM32H7xx_HAL_Driver/Src/stm32h7xx_ll_usb.c ****   if (cfg.dma_enable == 0U)
 3660              		.loc 1 1489 3 is_stmt 1 view .LVU1254
 3661              		.loc 1 1489 10 is_stmt 0 view .LVU1255
 3662 00ae 9DF81630 		ldrb	r3, [sp, #22]	@ zero_extendqisi2
 3663              		.loc 1 1489 6 view .LVU1256
 3664 00b2 1BB9     		cbnz	r3, .L231
1490:Drivers/STM32H7xx_HAL_Driver/Src/stm32h7xx_ll_usb.c ****   {
1491:Drivers/STM32H7xx_HAL_Driver/Src/stm32h7xx_ll_usb.c ****     USBx->GINTMSK |= USB_OTG_GINTMSK_RXFLVLM;
 3665              		.loc 1 1491 5 is_stmt 1 view .LVU1257
 3666              		.loc 1 1491 9 is_stmt 0 view .LVU1258
 3667 00b4 A369     		ldr	r3, [r4, #24]
 3668              		.loc 1 1491 19 view .LVU1259
 3669 00b6 43F01003 		orr	r3, r3, #16
 3670 00ba A361     		str	r3, [r4, #24]
 3671              	.L231:
1492:Drivers/STM32H7xx_HAL_Driver/Src/stm32h7xx_ll_usb.c ****   }
1493:Drivers/STM32H7xx_HAL_Driver/Src/stm32h7xx_ll_usb.c **** 
1494:Drivers/STM32H7xx_HAL_Driver/Src/stm32h7xx_ll_usb.c ****   /* Enable interrupts matching to the Host mode ONLY */
1495:Drivers/STM32H7xx_HAL_Driver/Src/stm32h7xx_ll_usb.c ****   USBx->GINTMSK |= (USB_OTG_GINTMSK_PRTIM            | USB_OTG_GINTMSK_HCIM | \
 3672              		.loc 1 1495 3 is_stmt 1 view .LVU1260
 3673              		.loc 1 1495 7 is_stmt 0 view .LVU1261
ARM GAS  C:\Users\Nathan\AppData\Local\Temp\cc7cwqzo.s 			page 111


 3674 00bc A269     		ldr	r2, [r4, #24]
 3675              	.LVL281:
 3676              		.loc 1 1495 17 view .LVU1262
 3677 00be 054B     		ldr	r3, .L236+4
 3678 00c0 1343     		orrs	r3, r3, r2
 3679 00c2 A361     		str	r3, [r4, #24]
1496:Drivers/STM32H7xx_HAL_Driver/Src/stm32h7xx_ll_usb.c ****                     USB_OTG_GINTMSK_SOFM             | USB_OTG_GINTSTS_DISCINT | \
1497:Drivers/STM32H7xx_HAL_Driver/Src/stm32h7xx_ll_usb.c ****                     USB_OTG_GINTMSK_PXFRM_IISOOXFRM  | USB_OTG_GINTMSK_WUIM);
1498:Drivers/STM32H7xx_HAL_Driver/Src/stm32h7xx_ll_usb.c **** 
1499:Drivers/STM32H7xx_HAL_Driver/Src/stm32h7xx_ll_usb.c ****   return ret;
 3680              		.loc 1 1499 3 is_stmt 1 view .LVU1263
1500:Drivers/STM32H7xx_HAL_Driver/Src/stm32h7xx_ll_usb.c **** }
 3681              		.loc 1 1500 1 is_stmt 0 view .LVU1264
 3682 00c4 2846     		mov	r0, r5
 3683 00c6 BDE83840 		pop	{r3, r4, r5, lr}
 3684              		.cfi_restore 14
 3685              		.cfi_restore 5
 3686              		.cfi_restore 4
 3687              		.cfi_restore 3
 3688              		.cfi_def_cfa_offset 16
 3689              	.LVL282:
 3690              		.loc 1 1500 1 view .LVU1265
 3691 00ca 04B0     		add	sp, sp, #16
 3692              		.cfi_def_cfa_offset 0
 3693 00cc 7047     		bx	lr
 3694              	.L237:
 3695 00ce 00BF     		.align	2
 3696              	.L236:
 3697 00d0 0003E000 		.word	14680832
 3698 00d4 080020A3 		.word	-1558183928
 3699              		.cfi_endproc
 3700              	.LFE179:
 3702              		.section	.text.USB_InitFSLSPClkSel,"ax",%progbits
 3703              		.align	1
 3704              		.global	USB_InitFSLSPClkSel
 3705              		.syntax unified
 3706              		.thumb
 3707              		.thumb_func
 3709              	USB_InitFSLSPClkSel:
 3710              	.LVL283:
 3711              	.LFB180:
1501:Drivers/STM32H7xx_HAL_Driver/Src/stm32h7xx_ll_usb.c **** 
1502:Drivers/STM32H7xx_HAL_Driver/Src/stm32h7xx_ll_usb.c **** /**
1503:Drivers/STM32H7xx_HAL_Driver/Src/stm32h7xx_ll_usb.c ****   * @brief  USB_InitFSLSPClkSel : Initializes the FSLSPClkSel field of the
1504:Drivers/STM32H7xx_HAL_Driver/Src/stm32h7xx_ll_usb.c ****   *         HCFG register on the PHY type and set the right frame interval
1505:Drivers/STM32H7xx_HAL_Driver/Src/stm32h7xx_ll_usb.c ****   * @param  USBx  Selected device
1506:Drivers/STM32H7xx_HAL_Driver/Src/stm32h7xx_ll_usb.c ****   * @param  freq  clock frequency
1507:Drivers/STM32H7xx_HAL_Driver/Src/stm32h7xx_ll_usb.c ****   *          This parameter can be one of these values:
1508:Drivers/STM32H7xx_HAL_Driver/Src/stm32h7xx_ll_usb.c ****   *           HCFG_48_MHZ : Full Speed 48 MHz Clock
1509:Drivers/STM32H7xx_HAL_Driver/Src/stm32h7xx_ll_usb.c ****   *           HCFG_6_MHZ : Low Speed 6 MHz Clock
1510:Drivers/STM32H7xx_HAL_Driver/Src/stm32h7xx_ll_usb.c ****   * @retval HAL status
1511:Drivers/STM32H7xx_HAL_Driver/Src/stm32h7xx_ll_usb.c ****   */
1512:Drivers/STM32H7xx_HAL_Driver/Src/stm32h7xx_ll_usb.c **** HAL_StatusTypeDef USB_InitFSLSPClkSel(const USB_OTG_GlobalTypeDef *USBx, uint8_t freq)
1513:Drivers/STM32H7xx_HAL_Driver/Src/stm32h7xx_ll_usb.c **** {
 3712              		.loc 1 1513 1 is_stmt 1 view -0
 3713              		.cfi_startproc
 3714              		@ args = 0, pretend = 0, frame = 0
ARM GAS  C:\Users\Nathan\AppData\Local\Temp\cc7cwqzo.s 			page 112


 3715              		@ frame_needed = 0, uses_anonymous_args = 0
 3716              		@ link register save eliminated.
1514:Drivers/STM32H7xx_HAL_Driver/Src/stm32h7xx_ll_usb.c ****   uint32_t USBx_BASE = (uint32_t)USBx;
 3717              		.loc 1 1514 3 view .LVU1267
1515:Drivers/STM32H7xx_HAL_Driver/Src/stm32h7xx_ll_usb.c **** 
1516:Drivers/STM32H7xx_HAL_Driver/Src/stm32h7xx_ll_usb.c ****   USBx_HOST->HCFG &= ~(USB_OTG_HCFG_FSLSPCS);
 3718              		.loc 1 1516 3 view .LVU1268
 3719              		.loc 1 1516 12 is_stmt 0 view .LVU1269
 3720 0000 00F5806C 		add	ip, r0, #1024
 3721 0004 D0F80034 		ldr	r3, [r0, #1024]
 3722              		.loc 1 1516 19 view .LVU1270
 3723 0008 23F00303 		bic	r3, r3, #3
 3724 000c C0F80034 		str	r3, [r0, #1024]
1517:Drivers/STM32H7xx_HAL_Driver/Src/stm32h7xx_ll_usb.c ****   USBx_HOST->HCFG |= (uint32_t)freq & USB_OTG_HCFG_FSLSPCS;
 3725              		.loc 1 1517 3 is_stmt 1 view .LVU1271
 3726              		.loc 1 1517 12 is_stmt 0 view .LVU1272
 3727 0010 D0F80034 		ldr	r3, [r0, #1024]
 3728              		.loc 1 1517 37 view .LVU1273
 3729 0014 01F00302 		and	r2, r1, #3
 3730              		.loc 1 1517 19 view .LVU1274
 3731 0018 1343     		orrs	r3, r3, r2
 3732 001a C0F80034 		str	r3, [r0, #1024]
1518:Drivers/STM32H7xx_HAL_Driver/Src/stm32h7xx_ll_usb.c **** 
1519:Drivers/STM32H7xx_HAL_Driver/Src/stm32h7xx_ll_usb.c ****   if (freq == HCFG_48_MHZ)
 3733              		.loc 1 1519 3 is_stmt 1 view .LVU1275
 3734              		.loc 1 1519 6 is_stmt 0 view .LVU1276
 3735 001e 0129     		cmp	r1, #1
 3736 0020 07D0     		beq	.L242
1520:Drivers/STM32H7xx_HAL_Driver/Src/stm32h7xx_ll_usb.c ****   {
1521:Drivers/STM32H7xx_HAL_Driver/Src/stm32h7xx_ll_usb.c ****     USBx_HOST->HFIR = HFIR_48_MHZ;
1522:Drivers/STM32H7xx_HAL_Driver/Src/stm32h7xx_ll_usb.c ****   }
1523:Drivers/STM32H7xx_HAL_Driver/Src/stm32h7xx_ll_usb.c ****   else if (freq == HCFG_6_MHZ)
 3737              		.loc 1 1523 8 is_stmt 1 view .LVU1277
 3738              		.loc 1 1523 11 is_stmt 0 view .LVU1278
 3739 0022 0229     		cmp	r1, #2
 3740 0024 0BD1     		bne	.L241
1524:Drivers/STM32H7xx_HAL_Driver/Src/stm32h7xx_ll_usb.c ****   {
1525:Drivers/STM32H7xx_HAL_Driver/Src/stm32h7xx_ll_usb.c ****     USBx_HOST->HFIR = HFIR_6_MHZ;
 3741              		.loc 1 1525 5 is_stmt 1 view .LVU1279
 3742              		.loc 1 1525 21 is_stmt 0 view .LVU1280
 3743 0026 41F27073 		movw	r3, #6000
 3744 002a CCF80430 		str	r3, [ip, #4]
1526:Drivers/STM32H7xx_HAL_Driver/Src/stm32h7xx_ll_usb.c ****   }
1527:Drivers/STM32H7xx_HAL_Driver/Src/stm32h7xx_ll_usb.c ****   else
1528:Drivers/STM32H7xx_HAL_Driver/Src/stm32h7xx_ll_usb.c ****   {
1529:Drivers/STM32H7xx_HAL_Driver/Src/stm32h7xx_ll_usb.c ****     return HAL_ERROR;
1530:Drivers/STM32H7xx_HAL_Driver/Src/stm32h7xx_ll_usb.c ****   }
1531:Drivers/STM32H7xx_HAL_Driver/Src/stm32h7xx_ll_usb.c **** 
1532:Drivers/STM32H7xx_HAL_Driver/Src/stm32h7xx_ll_usb.c ****   return HAL_OK;
 3745              		.loc 1 1532 10 view .LVU1281
 3746 002e 0020     		movs	r0, #0
 3747              	.LVL284:
 3748              		.loc 1 1532 10 view .LVU1282
 3749 0030 7047     		bx	lr
 3750              	.LVL285:
 3751              	.L242:
1521:Drivers/STM32H7xx_HAL_Driver/Src/stm32h7xx_ll_usb.c ****   }
ARM GAS  C:\Users\Nathan\AppData\Local\Temp\cc7cwqzo.s 			page 113


 3752              		.loc 1 1521 5 is_stmt 1 view .LVU1283
1521:Drivers/STM32H7xx_HAL_Driver/Src/stm32h7xx_ll_usb.c ****   }
 3753              		.loc 1 1521 21 is_stmt 0 view .LVU1284
 3754 0032 4BF68033 		movw	r3, #48000
 3755 0036 CCF80430 		str	r3, [ip, #4]
 3756              		.loc 1 1532 10 view .LVU1285
 3757 003a 0020     		movs	r0, #0
 3758              	.LVL286:
 3759              		.loc 1 1532 10 view .LVU1286
 3760 003c 7047     		bx	lr
 3761              	.LVL287:
 3762              	.L241:
1529:Drivers/STM32H7xx_HAL_Driver/Src/stm32h7xx_ll_usb.c ****   }
 3763              		.loc 1 1529 12 view .LVU1287
 3764 003e 0120     		movs	r0, #1
 3765              	.LVL288:
1533:Drivers/STM32H7xx_HAL_Driver/Src/stm32h7xx_ll_usb.c **** }
 3766              		.loc 1 1533 1 view .LVU1288
 3767 0040 7047     		bx	lr
 3768              		.cfi_endproc
 3769              	.LFE180:
 3771              		.section	.text.USB_ResetPort,"ax",%progbits
 3772              		.align	1
 3773              		.global	USB_ResetPort
 3774              		.syntax unified
 3775              		.thumb
 3776              		.thumb_func
 3778              	USB_ResetPort:
 3779              	.LVL289:
 3780              	.LFB181:
1534:Drivers/STM32H7xx_HAL_Driver/Src/stm32h7xx_ll_usb.c **** 
1535:Drivers/STM32H7xx_HAL_Driver/Src/stm32h7xx_ll_usb.c **** /**
1536:Drivers/STM32H7xx_HAL_Driver/Src/stm32h7xx_ll_usb.c ****   * @brief  USB_OTG_ResetPort : Reset Host Port
1537:Drivers/STM32H7xx_HAL_Driver/Src/stm32h7xx_ll_usb.c ****   * @param  USBx  Selected device
1538:Drivers/STM32H7xx_HAL_Driver/Src/stm32h7xx_ll_usb.c ****   * @retval HAL status
1539:Drivers/STM32H7xx_HAL_Driver/Src/stm32h7xx_ll_usb.c ****   * @note (1)The application must wait at least 10 ms
1540:Drivers/STM32H7xx_HAL_Driver/Src/stm32h7xx_ll_usb.c ****   *   before clearing the reset bit.
1541:Drivers/STM32H7xx_HAL_Driver/Src/stm32h7xx_ll_usb.c ****   */
1542:Drivers/STM32H7xx_HAL_Driver/Src/stm32h7xx_ll_usb.c **** HAL_StatusTypeDef USB_ResetPort(const USB_OTG_GlobalTypeDef *USBx)
1543:Drivers/STM32H7xx_HAL_Driver/Src/stm32h7xx_ll_usb.c **** {
 3781              		.loc 1 1543 1 is_stmt 1 view -0
 3782              		.cfi_startproc
 3783              		@ args = 0, pretend = 0, frame = 8
 3784              		@ frame_needed = 0, uses_anonymous_args = 0
 3785              		.loc 1 1543 1 is_stmt 0 view .LVU1290
 3786 0000 30B5     		push	{r4, r5, lr}
 3787              		.cfi_def_cfa_offset 12
 3788              		.cfi_offset 4, -12
 3789              		.cfi_offset 5, -8
 3790              		.cfi_offset 14, -4
 3791 0002 83B0     		sub	sp, sp, #12
 3792              		.cfi_def_cfa_offset 24
 3793 0004 0446     		mov	r4, r0
1544:Drivers/STM32H7xx_HAL_Driver/Src/stm32h7xx_ll_usb.c ****   uint32_t USBx_BASE = (uint32_t)USBx;
 3794              		.loc 1 1544 3 is_stmt 1 view .LVU1291
 3795              	.LVL290:
1545:Drivers/STM32H7xx_HAL_Driver/Src/stm32h7xx_ll_usb.c **** 
ARM GAS  C:\Users\Nathan\AppData\Local\Temp\cc7cwqzo.s 			page 114


1546:Drivers/STM32H7xx_HAL_Driver/Src/stm32h7xx_ll_usb.c ****   __IO uint32_t hprt0 = 0U;
 3796              		.loc 1 1546 3 view .LVU1292
 3797              		.loc 1 1546 17 is_stmt 0 view .LVU1293
 3798 0006 0025     		movs	r5, #0
 3799 0008 0195     		str	r5, [sp, #4]
1547:Drivers/STM32H7xx_HAL_Driver/Src/stm32h7xx_ll_usb.c **** 
1548:Drivers/STM32H7xx_HAL_Driver/Src/stm32h7xx_ll_usb.c ****   hprt0 = USBx_HPRT0;
 3800              		.loc 1 1548 3 is_stmt 1 view .LVU1294
 3801              		.loc 1 1548 11 is_stmt 0 view .LVU1295
 3802 000a D0F84034 		ldr	r3, [r0, #1088]
 3803              		.loc 1 1548 9 view .LVU1296
 3804 000e 0193     		str	r3, [sp, #4]
1549:Drivers/STM32H7xx_HAL_Driver/Src/stm32h7xx_ll_usb.c **** 
1550:Drivers/STM32H7xx_HAL_Driver/Src/stm32h7xx_ll_usb.c ****   hprt0 &= ~(USB_OTG_HPRT_PENA | USB_OTG_HPRT_PCDET |
 3805              		.loc 1 1550 3 is_stmt 1 view .LVU1297
 3806              		.loc 1 1550 9 is_stmt 0 view .LVU1298
 3807 0010 019B     		ldr	r3, [sp, #4]
 3808 0012 23F02E03 		bic	r3, r3, #46
 3809 0016 0193     		str	r3, [sp, #4]
1551:Drivers/STM32H7xx_HAL_Driver/Src/stm32h7xx_ll_usb.c ****              USB_OTG_HPRT_PENCHNG | USB_OTG_HPRT_POCCHNG);
1552:Drivers/STM32H7xx_HAL_Driver/Src/stm32h7xx_ll_usb.c **** 
1553:Drivers/STM32H7xx_HAL_Driver/Src/stm32h7xx_ll_usb.c ****   USBx_HPRT0 = (USB_OTG_HPRT_PRST | hprt0);
 3810              		.loc 1 1553 3 is_stmt 1 view .LVU1299
 3811              		.loc 1 1553 35 is_stmt 0 view .LVU1300
 3812 0018 019B     		ldr	r3, [sp, #4]
 3813 001a 43F48073 		orr	r3, r3, #256
 3814              		.loc 1 1553 14 view .LVU1301
 3815 001e C0F84034 		str	r3, [r0, #1088]
1554:Drivers/STM32H7xx_HAL_Driver/Src/stm32h7xx_ll_usb.c ****   HAL_Delay(100U);                                 /* See Note #1 */
 3816              		.loc 1 1554 3 is_stmt 1 view .LVU1302
 3817 0022 6420     		movs	r0, #100
 3818              	.LVL291:
 3819              		.loc 1 1554 3 is_stmt 0 view .LVU1303
 3820 0024 FFF7FEFF 		bl	HAL_Delay
 3821              	.LVL292:
1555:Drivers/STM32H7xx_HAL_Driver/Src/stm32h7xx_ll_usb.c ****   USBx_HPRT0 = ((~USB_OTG_HPRT_PRST) & hprt0);
 3822              		.loc 1 1555 3 is_stmt 1 view .LVU1304
 3823              		.loc 1 1555 38 is_stmt 0 view .LVU1305
 3824 0028 019B     		ldr	r3, [sp, #4]
 3825 002a 23F48073 		bic	r3, r3, #256
 3826              		.loc 1 1555 14 view .LVU1306
 3827 002e C4F84034 		str	r3, [r4, #1088]
1556:Drivers/STM32H7xx_HAL_Driver/Src/stm32h7xx_ll_usb.c ****   HAL_Delay(10U);
 3828              		.loc 1 1556 3 is_stmt 1 view .LVU1307
 3829 0032 0A20     		movs	r0, #10
 3830 0034 FFF7FEFF 		bl	HAL_Delay
 3831              	.LVL293:
1557:Drivers/STM32H7xx_HAL_Driver/Src/stm32h7xx_ll_usb.c **** 
1558:Drivers/STM32H7xx_HAL_Driver/Src/stm32h7xx_ll_usb.c ****   return HAL_OK;
 3832              		.loc 1 1558 3 view .LVU1308
1559:Drivers/STM32H7xx_HAL_Driver/Src/stm32h7xx_ll_usb.c **** }
 3833              		.loc 1 1559 1 is_stmt 0 view .LVU1309
 3834 0038 2846     		mov	r0, r5
 3835 003a 03B0     		add	sp, sp, #12
 3836              		.cfi_def_cfa_offset 12
 3837              		@ sp needed
 3838 003c 30BD     		pop	{r4, r5, pc}
ARM GAS  C:\Users\Nathan\AppData\Local\Temp\cc7cwqzo.s 			page 115


 3839              		.loc 1 1559 1 view .LVU1310
 3840              		.cfi_endproc
 3841              	.LFE181:
 3843              		.section	.text.USB_DriveVbus,"ax",%progbits
 3844              		.align	1
 3845              		.global	USB_DriveVbus
 3846              		.syntax unified
 3847              		.thumb
 3848              		.thumb_func
 3850              	USB_DriveVbus:
 3851              	.LVL294:
 3852              	.LFB182:
1560:Drivers/STM32H7xx_HAL_Driver/Src/stm32h7xx_ll_usb.c **** 
1561:Drivers/STM32H7xx_HAL_Driver/Src/stm32h7xx_ll_usb.c **** /**
1562:Drivers/STM32H7xx_HAL_Driver/Src/stm32h7xx_ll_usb.c ****   * @brief  USB_DriveVbus : activate or de-activate vbus
1563:Drivers/STM32H7xx_HAL_Driver/Src/stm32h7xx_ll_usb.c ****   * @param  state  VBUS state
1564:Drivers/STM32H7xx_HAL_Driver/Src/stm32h7xx_ll_usb.c ****   *          This parameter can be one of these values:
1565:Drivers/STM32H7xx_HAL_Driver/Src/stm32h7xx_ll_usb.c ****   *           0 : Deactivate VBUS
1566:Drivers/STM32H7xx_HAL_Driver/Src/stm32h7xx_ll_usb.c ****   *           1 : Activate VBUS
1567:Drivers/STM32H7xx_HAL_Driver/Src/stm32h7xx_ll_usb.c ****   * @retval HAL status
1568:Drivers/STM32H7xx_HAL_Driver/Src/stm32h7xx_ll_usb.c ****   */
1569:Drivers/STM32H7xx_HAL_Driver/Src/stm32h7xx_ll_usb.c **** HAL_StatusTypeDef USB_DriveVbus(const USB_OTG_GlobalTypeDef *USBx, uint8_t state)
1570:Drivers/STM32H7xx_HAL_Driver/Src/stm32h7xx_ll_usb.c **** {
 3853              		.loc 1 1570 1 is_stmt 1 view -0
 3854              		.cfi_startproc
 3855              		@ args = 0, pretend = 0, frame = 8
 3856              		@ frame_needed = 0, uses_anonymous_args = 0
 3857              		@ link register save eliminated.
 3858              		.loc 1 1570 1 is_stmt 0 view .LVU1312
 3859 0000 82B0     		sub	sp, sp, #8
 3860              		.cfi_def_cfa_offset 8
1571:Drivers/STM32H7xx_HAL_Driver/Src/stm32h7xx_ll_usb.c ****   uint32_t USBx_BASE = (uint32_t)USBx;
 3861              		.loc 1 1571 3 is_stmt 1 view .LVU1313
 3862              	.LVL295:
1572:Drivers/STM32H7xx_HAL_Driver/Src/stm32h7xx_ll_usb.c ****   __IO uint32_t hprt0 = 0U;
 3863              		.loc 1 1572 3 view .LVU1314
 3864              		.loc 1 1572 17 is_stmt 0 view .LVU1315
 3865 0002 0023     		movs	r3, #0
 3866 0004 0193     		str	r3, [sp, #4]
1573:Drivers/STM32H7xx_HAL_Driver/Src/stm32h7xx_ll_usb.c **** 
1574:Drivers/STM32H7xx_HAL_Driver/Src/stm32h7xx_ll_usb.c ****   hprt0 = USBx_HPRT0;
 3867              		.loc 1 1574 3 is_stmt 1 view .LVU1316
 3868              		.loc 1 1574 11 is_stmt 0 view .LVU1317
 3869 0006 D0F84034 		ldr	r3, [r0, #1088]
 3870              		.loc 1 1574 9 view .LVU1318
 3871 000a 0193     		str	r3, [sp, #4]
1575:Drivers/STM32H7xx_HAL_Driver/Src/stm32h7xx_ll_usb.c **** 
1576:Drivers/STM32H7xx_HAL_Driver/Src/stm32h7xx_ll_usb.c ****   hprt0 &= ~(USB_OTG_HPRT_PENA | USB_OTG_HPRT_PCDET |
 3872              		.loc 1 1576 3 is_stmt 1 view .LVU1319
 3873              		.loc 1 1576 9 is_stmt 0 view .LVU1320
 3874 000c 019B     		ldr	r3, [sp, #4]
 3875 000e 23F02E03 		bic	r3, r3, #46
 3876 0012 0193     		str	r3, [sp, #4]
1577:Drivers/STM32H7xx_HAL_Driver/Src/stm32h7xx_ll_usb.c ****              USB_OTG_HPRT_PENCHNG | USB_OTG_HPRT_POCCHNG);
1578:Drivers/STM32H7xx_HAL_Driver/Src/stm32h7xx_ll_usb.c **** 
1579:Drivers/STM32H7xx_HAL_Driver/Src/stm32h7xx_ll_usb.c ****   if (((hprt0 & USB_OTG_HPRT_PPWR) == 0U) && (state == 1U))
 3877              		.loc 1 1579 3 is_stmt 1 view .LVU1321
ARM GAS  C:\Users\Nathan\AppData\Local\Temp\cc7cwqzo.s 			page 116


 3878              		.loc 1 1579 15 is_stmt 0 view .LVU1322
 3879 0014 019B     		ldr	r3, [sp, #4]
 3880              		.loc 1 1579 6 view .LVU1323
 3881 0016 13F4805F 		tst	r3, #4096
 3882 001a 01D1     		bne	.L246
 3883              		.loc 1 1579 43 discriminator 1 view .LVU1324
 3884 001c 0129     		cmp	r1, #1
 3885 001e 0CD0     		beq	.L249
 3886              	.L246:
1580:Drivers/STM32H7xx_HAL_Driver/Src/stm32h7xx_ll_usb.c ****   {
1581:Drivers/STM32H7xx_HAL_Driver/Src/stm32h7xx_ll_usb.c ****     USBx_HPRT0 = (USB_OTG_HPRT_PPWR | hprt0);
1582:Drivers/STM32H7xx_HAL_Driver/Src/stm32h7xx_ll_usb.c ****   }
1583:Drivers/STM32H7xx_HAL_Driver/Src/stm32h7xx_ll_usb.c ****   if (((hprt0 & USB_OTG_HPRT_PPWR) == USB_OTG_HPRT_PPWR) && (state == 0U))
 3887              		.loc 1 1583 3 is_stmt 1 view .LVU1325
 3888              		.loc 1 1583 15 is_stmt 0 view .LVU1326
 3889 0020 019B     		ldr	r3, [sp, #4]
 3890              		.loc 1 1583 6 view .LVU1327
 3891 0022 13F4805F 		tst	r3, #4096
 3892 0026 05D0     		beq	.L247
 3893              		.loc 1 1583 58 discriminator 1 view .LVU1328
 3894 0028 21B9     		cbnz	r1, .L247
1584:Drivers/STM32H7xx_HAL_Driver/Src/stm32h7xx_ll_usb.c ****   {
1585:Drivers/STM32H7xx_HAL_Driver/Src/stm32h7xx_ll_usb.c ****     USBx_HPRT0 = ((~USB_OTG_HPRT_PPWR) & hprt0);
 3895              		.loc 1 1585 5 is_stmt 1 view .LVU1329
 3896              		.loc 1 1585 40 is_stmt 0 view .LVU1330
 3897 002a 019B     		ldr	r3, [sp, #4]
 3898 002c 23F48053 		bic	r3, r3, #4096
 3899              		.loc 1 1585 16 view .LVU1331
 3900 0030 C0F84034 		str	r3, [r0, #1088]
 3901              	.L247:
1586:Drivers/STM32H7xx_HAL_Driver/Src/stm32h7xx_ll_usb.c ****   }
1587:Drivers/STM32H7xx_HAL_Driver/Src/stm32h7xx_ll_usb.c ****   return HAL_OK;
 3902              		.loc 1 1587 3 is_stmt 1 view .LVU1332
1588:Drivers/STM32H7xx_HAL_Driver/Src/stm32h7xx_ll_usb.c **** }
 3903              		.loc 1 1588 1 is_stmt 0 view .LVU1333
 3904 0034 0020     		movs	r0, #0
 3905              	.LVL296:
 3906              		.loc 1 1588 1 view .LVU1334
 3907 0036 02B0     		add	sp, sp, #8
 3908              		.cfi_remember_state
 3909              		.cfi_def_cfa_offset 0
 3910              		@ sp needed
 3911 0038 7047     		bx	lr
 3912              	.LVL297:
 3913              	.L249:
 3914              		.cfi_restore_state
1581:Drivers/STM32H7xx_HAL_Driver/Src/stm32h7xx_ll_usb.c ****   }
 3915              		.loc 1 1581 5 is_stmt 1 view .LVU1335
1581:Drivers/STM32H7xx_HAL_Driver/Src/stm32h7xx_ll_usb.c ****   }
 3916              		.loc 1 1581 37 is_stmt 0 view .LVU1336
 3917 003a 019B     		ldr	r3, [sp, #4]
 3918 003c 43F48053 		orr	r3, r3, #4096
1581:Drivers/STM32H7xx_HAL_Driver/Src/stm32h7xx_ll_usb.c ****   }
 3919              		.loc 1 1581 16 view .LVU1337
 3920 0040 C0F84034 		str	r3, [r0, #1088]
 3921 0044 ECE7     		b	.L246
 3922              		.cfi_endproc
ARM GAS  C:\Users\Nathan\AppData\Local\Temp\cc7cwqzo.s 			page 117


 3923              	.LFE182:
 3925              		.section	.text.USB_GetHostSpeed,"ax",%progbits
 3926              		.align	1
 3927              		.global	USB_GetHostSpeed
 3928              		.syntax unified
 3929              		.thumb
 3930              		.thumb_func
 3932              	USB_GetHostSpeed:
 3933              	.LVL298:
 3934              	.LFB183:
1589:Drivers/STM32H7xx_HAL_Driver/Src/stm32h7xx_ll_usb.c **** 
1590:Drivers/STM32H7xx_HAL_Driver/Src/stm32h7xx_ll_usb.c **** /**
1591:Drivers/STM32H7xx_HAL_Driver/Src/stm32h7xx_ll_usb.c ****   * @brief  Return Host Core speed
1592:Drivers/STM32H7xx_HAL_Driver/Src/stm32h7xx_ll_usb.c ****   * @param  USBx  Selected device
1593:Drivers/STM32H7xx_HAL_Driver/Src/stm32h7xx_ll_usb.c ****   * @retval speed : Host speed
1594:Drivers/STM32H7xx_HAL_Driver/Src/stm32h7xx_ll_usb.c ****   *          This parameter can be one of these values:
1595:Drivers/STM32H7xx_HAL_Driver/Src/stm32h7xx_ll_usb.c ****   *            @arg HCD_SPEED_HIGH: High speed mode
1596:Drivers/STM32H7xx_HAL_Driver/Src/stm32h7xx_ll_usb.c ****   *            @arg HCD_SPEED_FULL: Full speed mode
1597:Drivers/STM32H7xx_HAL_Driver/Src/stm32h7xx_ll_usb.c ****   *            @arg HCD_SPEED_LOW: Low speed mode
1598:Drivers/STM32H7xx_HAL_Driver/Src/stm32h7xx_ll_usb.c ****   */
1599:Drivers/STM32H7xx_HAL_Driver/Src/stm32h7xx_ll_usb.c **** uint32_t USB_GetHostSpeed(USB_OTG_GlobalTypeDef const *USBx)
1600:Drivers/STM32H7xx_HAL_Driver/Src/stm32h7xx_ll_usb.c **** {
 3935              		.loc 1 1600 1 is_stmt 1 view -0
 3936              		.cfi_startproc
 3937              		@ args = 0, pretend = 0, frame = 8
 3938              		@ frame_needed = 0, uses_anonymous_args = 0
 3939              		@ link register save eliminated.
 3940              		.loc 1 1600 1 is_stmt 0 view .LVU1339
 3941 0000 82B0     		sub	sp, sp, #8
 3942              		.cfi_def_cfa_offset 8
1601:Drivers/STM32H7xx_HAL_Driver/Src/stm32h7xx_ll_usb.c ****   uint32_t USBx_BASE = (uint32_t)USBx;
 3943              		.loc 1 1601 3 is_stmt 1 view .LVU1340
 3944              	.LVL299:
1602:Drivers/STM32H7xx_HAL_Driver/Src/stm32h7xx_ll_usb.c ****   __IO uint32_t hprt0 = 0U;
 3945              		.loc 1 1602 3 view .LVU1341
 3946              		.loc 1 1602 17 is_stmt 0 view .LVU1342
 3947 0002 0023     		movs	r3, #0
 3948 0004 0193     		str	r3, [sp, #4]
1603:Drivers/STM32H7xx_HAL_Driver/Src/stm32h7xx_ll_usb.c **** 
1604:Drivers/STM32H7xx_HAL_Driver/Src/stm32h7xx_ll_usb.c ****   hprt0 = USBx_HPRT0;
 3949              		.loc 1 1604 3 is_stmt 1 view .LVU1343
 3950              		.loc 1 1604 11 is_stmt 0 view .LVU1344
 3951 0006 D0F84034 		ldr	r3, [r0, #1088]
 3952              		.loc 1 1604 9 view .LVU1345
 3953 000a 0193     		str	r3, [sp, #4]
1605:Drivers/STM32H7xx_HAL_Driver/Src/stm32h7xx_ll_usb.c ****   return ((hprt0 & USB_OTG_HPRT_PSPD) >> 17);
 3954              		.loc 1 1605 3 is_stmt 1 view .LVU1346
 3955              		.loc 1 1605 39 is_stmt 0 view .LVU1347
 3956 000c 0198     		ldr	r0, [sp, #4]
 3957              	.LVL300:
1606:Drivers/STM32H7xx_HAL_Driver/Src/stm32h7xx_ll_usb.c **** }
 3958              		.loc 1 1606 1 view .LVU1348
 3959 000e C0F34140 		ubfx	r0, r0, #17, #2
 3960 0012 02B0     		add	sp, sp, #8
 3961              		.cfi_def_cfa_offset 0
 3962              		@ sp needed
 3963 0014 7047     		bx	lr
ARM GAS  C:\Users\Nathan\AppData\Local\Temp\cc7cwqzo.s 			page 118


 3964              		.cfi_endproc
 3965              	.LFE183:
 3967              		.section	.text.USB_GetCurrentFrame,"ax",%progbits
 3968              		.align	1
 3969              		.global	USB_GetCurrentFrame
 3970              		.syntax unified
 3971              		.thumb
 3972              		.thumb_func
 3974              	USB_GetCurrentFrame:
 3975              	.LVL301:
 3976              	.LFB184:
1607:Drivers/STM32H7xx_HAL_Driver/Src/stm32h7xx_ll_usb.c **** 
1608:Drivers/STM32H7xx_HAL_Driver/Src/stm32h7xx_ll_usb.c **** /**
1609:Drivers/STM32H7xx_HAL_Driver/Src/stm32h7xx_ll_usb.c ****   * @brief  Return Host Current Frame number
1610:Drivers/STM32H7xx_HAL_Driver/Src/stm32h7xx_ll_usb.c ****   * @param  USBx  Selected device
1611:Drivers/STM32H7xx_HAL_Driver/Src/stm32h7xx_ll_usb.c ****   * @retval current frame number
1612:Drivers/STM32H7xx_HAL_Driver/Src/stm32h7xx_ll_usb.c ****   */
1613:Drivers/STM32H7xx_HAL_Driver/Src/stm32h7xx_ll_usb.c **** uint32_t USB_GetCurrentFrame(USB_OTG_GlobalTypeDef const *USBx)
1614:Drivers/STM32H7xx_HAL_Driver/Src/stm32h7xx_ll_usb.c **** {
 3977              		.loc 1 1614 1 is_stmt 1 view -0
 3978              		.cfi_startproc
 3979              		@ args = 0, pretend = 0, frame = 0
 3980              		@ frame_needed = 0, uses_anonymous_args = 0
 3981              		@ link register save eliminated.
1615:Drivers/STM32H7xx_HAL_Driver/Src/stm32h7xx_ll_usb.c ****   uint32_t USBx_BASE = (uint32_t)USBx;
 3982              		.loc 1 1615 3 view .LVU1350
1616:Drivers/STM32H7xx_HAL_Driver/Src/stm32h7xx_ll_usb.c **** 
1617:Drivers/STM32H7xx_HAL_Driver/Src/stm32h7xx_ll_usb.c ****   return (USBx_HOST->HFNUM & USB_OTG_HFNUM_FRNUM);
 3983              		.loc 1 1617 3 view .LVU1351
 3984              		.loc 1 1617 11 is_stmt 0 view .LVU1352
 3985 0000 00F58060 		add	r0, r0, #1024
 3986              	.LVL302:
 3987              		.loc 1 1617 20 view .LVU1353
 3988 0004 8068     		ldr	r0, [r0, #8]
 3989              	.LVL303:
1618:Drivers/STM32H7xx_HAL_Driver/Src/stm32h7xx_ll_usb.c **** }
 3990              		.loc 1 1618 1 view .LVU1354
 3991 0006 80B2     		uxth	r0, r0
 3992 0008 7047     		bx	lr
 3993              		.cfi_endproc
 3994              	.LFE184:
 3996              		.section	.text.USB_HC_Init,"ax",%progbits
 3997              		.align	1
 3998              		.global	USB_HC_Init
 3999              		.syntax unified
 4000              		.thumb
 4001              		.thumb_func
 4003              	USB_HC_Init:
 4004              	.LVL304:
 4005              	.LFB185:
1619:Drivers/STM32H7xx_HAL_Driver/Src/stm32h7xx_ll_usb.c **** 
1620:Drivers/STM32H7xx_HAL_Driver/Src/stm32h7xx_ll_usb.c **** /**
1621:Drivers/STM32H7xx_HAL_Driver/Src/stm32h7xx_ll_usb.c ****   * @brief  Initialize a host channel
1622:Drivers/STM32H7xx_HAL_Driver/Src/stm32h7xx_ll_usb.c ****   * @param  USBx  Selected device
1623:Drivers/STM32H7xx_HAL_Driver/Src/stm32h7xx_ll_usb.c ****   * @param  ch_num  Channel number
1624:Drivers/STM32H7xx_HAL_Driver/Src/stm32h7xx_ll_usb.c ****   *         This parameter can be a value from 1 to 15
1625:Drivers/STM32H7xx_HAL_Driver/Src/stm32h7xx_ll_usb.c ****   * @param  epnum  Endpoint number
ARM GAS  C:\Users\Nathan\AppData\Local\Temp\cc7cwqzo.s 			page 119


1626:Drivers/STM32H7xx_HAL_Driver/Src/stm32h7xx_ll_usb.c ****   *          This parameter can be a value from 1 to 15
1627:Drivers/STM32H7xx_HAL_Driver/Src/stm32h7xx_ll_usb.c ****   * @param  dev_address  Current device address
1628:Drivers/STM32H7xx_HAL_Driver/Src/stm32h7xx_ll_usb.c ****   *          This parameter can be a value from 0 to 255
1629:Drivers/STM32H7xx_HAL_Driver/Src/stm32h7xx_ll_usb.c ****   * @param  speed  Current device speed
1630:Drivers/STM32H7xx_HAL_Driver/Src/stm32h7xx_ll_usb.c ****   *          This parameter can be one of these values:
1631:Drivers/STM32H7xx_HAL_Driver/Src/stm32h7xx_ll_usb.c ****   *            @arg USB_OTG_SPEED_HIGH: High speed mode
1632:Drivers/STM32H7xx_HAL_Driver/Src/stm32h7xx_ll_usb.c ****   *            @arg USB_OTG_SPEED_FULL: Full speed mode
1633:Drivers/STM32H7xx_HAL_Driver/Src/stm32h7xx_ll_usb.c ****   *            @arg USB_OTG_SPEED_LOW: Low speed mode
1634:Drivers/STM32H7xx_HAL_Driver/Src/stm32h7xx_ll_usb.c ****   * @param  ep_type  Endpoint Type
1635:Drivers/STM32H7xx_HAL_Driver/Src/stm32h7xx_ll_usb.c ****   *          This parameter can be one of these values:
1636:Drivers/STM32H7xx_HAL_Driver/Src/stm32h7xx_ll_usb.c ****   *            @arg EP_TYPE_CTRL: Control type
1637:Drivers/STM32H7xx_HAL_Driver/Src/stm32h7xx_ll_usb.c ****   *            @arg EP_TYPE_ISOC: Isochronous type
1638:Drivers/STM32H7xx_HAL_Driver/Src/stm32h7xx_ll_usb.c ****   *            @arg EP_TYPE_BULK: Bulk type
1639:Drivers/STM32H7xx_HAL_Driver/Src/stm32h7xx_ll_usb.c ****   *            @arg EP_TYPE_INTR: Interrupt type
1640:Drivers/STM32H7xx_HAL_Driver/Src/stm32h7xx_ll_usb.c ****   * @param  mps  Max Packet Size
1641:Drivers/STM32H7xx_HAL_Driver/Src/stm32h7xx_ll_usb.c ****   *          This parameter can be a value from 0 to 32K
1642:Drivers/STM32H7xx_HAL_Driver/Src/stm32h7xx_ll_usb.c ****   * @retval HAL state
1643:Drivers/STM32H7xx_HAL_Driver/Src/stm32h7xx_ll_usb.c ****   */
1644:Drivers/STM32H7xx_HAL_Driver/Src/stm32h7xx_ll_usb.c **** HAL_StatusTypeDef USB_HC_Init(USB_OTG_GlobalTypeDef *USBx, uint8_t ch_num,
1645:Drivers/STM32H7xx_HAL_Driver/Src/stm32h7xx_ll_usb.c ****                               uint8_t epnum, uint8_t dev_address, uint8_t speed,
1646:Drivers/STM32H7xx_HAL_Driver/Src/stm32h7xx_ll_usb.c ****                               uint8_t ep_type, uint16_t mps)
1647:Drivers/STM32H7xx_HAL_Driver/Src/stm32h7xx_ll_usb.c **** {
 4006              		.loc 1 1647 1 is_stmt 1 view -0
 4007              		.cfi_startproc
 4008              		@ args = 12, pretend = 0, frame = 0
 4009              		@ frame_needed = 0, uses_anonymous_args = 0
 4010              		.loc 1 1647 1 is_stmt 0 view .LVU1356
 4011 0000 2DE9F843 		push	{r3, r4, r5, r6, r7, r8, r9, lr}
 4012              		.cfi_def_cfa_offset 32
 4013              		.cfi_offset 3, -32
 4014              		.cfi_offset 4, -28
 4015              		.cfi_offset 5, -24
 4016              		.cfi_offset 6, -20
 4017              		.cfi_offset 7, -16
 4018              		.cfi_offset 8, -12
 4019              		.cfi_offset 9, -8
 4020              		.cfi_offset 14, -4
 4021 0004 9146     		mov	r9, r2
 4022 0006 1C46     		mov	r4, r3
 4023 0008 9DF82450 		ldrb	r5, [sp, #36]	@ zero_extendqisi2
1648:Drivers/STM32H7xx_HAL_Driver/Src/stm32h7xx_ll_usb.c ****   HAL_StatusTypeDef ret = HAL_OK;
 4024              		.loc 1 1648 3 is_stmt 1 view .LVU1357
 4025              	.LVL305:
1649:Drivers/STM32H7xx_HAL_Driver/Src/stm32h7xx_ll_usb.c ****   uint32_t USBx_BASE = (uint32_t)USBx;
 4026              		.loc 1 1649 3 view .LVU1358
1650:Drivers/STM32H7xx_HAL_Driver/Src/stm32h7xx_ll_usb.c ****   uint32_t HCcharEpDir;
 4027              		.loc 1 1650 3 view .LVU1359
1651:Drivers/STM32H7xx_HAL_Driver/Src/stm32h7xx_ll_usb.c ****   uint32_t HCcharLowSpeed;
 4028              		.loc 1 1651 3 view .LVU1360
1652:Drivers/STM32H7xx_HAL_Driver/Src/stm32h7xx_ll_usb.c ****   uint32_t HostCoreSpeed;
 4029              		.loc 1 1652 3 view .LVU1361
1653:Drivers/STM32H7xx_HAL_Driver/Src/stm32h7xx_ll_usb.c **** 
1654:Drivers/STM32H7xx_HAL_Driver/Src/stm32h7xx_ll_usb.c ****   /* Clear old interrupt conditions for this host channel. */
1655:Drivers/STM32H7xx_HAL_Driver/Src/stm32h7xx_ll_usb.c ****   USBx_HC((uint32_t)ch_num)->HCINT = CLEAR_INTERRUPT_MASK;
 4030              		.loc 1 1655 3 view .LVU1362
 4031 000c 00EB4116 		add	r6, r0, r1, lsl #5
 4032 0010 06F5A063 		add	r3, r6, #1280
ARM GAS  C:\Users\Nathan\AppData\Local\Temp\cc7cwqzo.s 			page 120


 4033              	.LVL306:
 4034              		.loc 1 1655 36 is_stmt 0 view .LVU1363
 4035 0014 4FF0FF32 		mov	r2, #-1
 4036              	.LVL307:
 4037              		.loc 1 1655 36 view .LVU1364
 4038 0018 9A60     		str	r2, [r3, #8]
1656:Drivers/STM32H7xx_HAL_Driver/Src/stm32h7xx_ll_usb.c **** 
1657:Drivers/STM32H7xx_HAL_Driver/Src/stm32h7xx_ll_usb.c ****   /* Enable channel interrupts required for this transfer. */
1658:Drivers/STM32H7xx_HAL_Driver/Src/stm32h7xx_ll_usb.c ****   switch (ep_type)
 4039              		.loc 1 1658 3 is_stmt 1 view .LVU1365
 4040 001a 032D     		cmp	r5, #3
 4041 001c 7DD8     		bhi	.L263
 4042 001e DFE805F0 		tbb	[pc, r5]
 4043              	.L256:
 4044 0022 02       		.byte	(.L257-.L256)/2
 4045 0023 6E       		.byte	(.L258-.L256)/2
 4046 0024 02       		.byte	(.L257-.L256)/2
 4047 0025 60       		.byte	(.L255-.L256)/2
 4048              		.p2align 1
 4049              	.L257:
1659:Drivers/STM32H7xx_HAL_Driver/Src/stm32h7xx_ll_usb.c ****   {
1660:Drivers/STM32H7xx_HAL_Driver/Src/stm32h7xx_ll_usb.c ****     case EP_TYPE_CTRL:
1661:Drivers/STM32H7xx_HAL_Driver/Src/stm32h7xx_ll_usb.c ****     case EP_TYPE_BULK:
1662:Drivers/STM32H7xx_HAL_Driver/Src/stm32h7xx_ll_usb.c ****       USBx_HC((uint32_t)ch_num)->HCINTMSK = USB_OTG_HCINTMSK_XFRCM  |
 4050              		.loc 1 1662 7 view .LVU1366
 4051              		.loc 1 1662 43 is_stmt 0 view .LVU1367
 4052 0026 40F29D42 		movw	r2, #1181
 4053 002a DA60     		str	r2, [r3, #12]
1663:Drivers/STM32H7xx_HAL_Driver/Src/stm32h7xx_ll_usb.c ****                                             USB_OTG_HCINTMSK_STALLM |
1664:Drivers/STM32H7xx_HAL_Driver/Src/stm32h7xx_ll_usb.c ****                                             USB_OTG_HCINTMSK_TXERRM |
1665:Drivers/STM32H7xx_HAL_Driver/Src/stm32h7xx_ll_usb.c ****                                             USB_OTG_HCINTMSK_DTERRM |
1666:Drivers/STM32H7xx_HAL_Driver/Src/stm32h7xx_ll_usb.c ****                                             USB_OTG_HCINTMSK_AHBERR |
1667:Drivers/STM32H7xx_HAL_Driver/Src/stm32h7xx_ll_usb.c ****                                             USB_OTG_HCINTMSK_NAKM;
1668:Drivers/STM32H7xx_HAL_Driver/Src/stm32h7xx_ll_usb.c **** 
1669:Drivers/STM32H7xx_HAL_Driver/Src/stm32h7xx_ll_usb.c ****       if ((epnum & 0x80U) == 0x80U)
 4054              		.loc 1 1669 7 is_stmt 1 view .LVU1368
 4055              		.loc 1 1669 10 is_stmt 0 view .LVU1369
 4056 002c 19F0800F 		tst	r9, #128
 4057 0030 51D1     		bne	.L269
1670:Drivers/STM32H7xx_HAL_Driver/Src/stm32h7xx_ll_usb.c ****       {
1671:Drivers/STM32H7xx_HAL_Driver/Src/stm32h7xx_ll_usb.c ****         USBx_HC((uint32_t)ch_num)->HCINTMSK |= USB_OTG_HCINTMSK_BBERRM;
1672:Drivers/STM32H7xx_HAL_Driver/Src/stm32h7xx_ll_usb.c ****       }
1673:Drivers/STM32H7xx_HAL_Driver/Src/stm32h7xx_ll_usb.c ****       else
1674:Drivers/STM32H7xx_HAL_Driver/Src/stm32h7xx_ll_usb.c ****       {
1675:Drivers/STM32H7xx_HAL_Driver/Src/stm32h7xx_ll_usb.c ****         USBx_HC((uint32_t)ch_num)->HCINTMSK |= USB_OTG_HCINTMSK_NYET |
 4058              		.loc 1 1675 9 is_stmt 1 view .LVU1370
 4059              		.loc 1 1675 34 is_stmt 0 view .LVU1371
 4060 0032 DA68     		ldr	r2, [r3, #12]
 4061              		.loc 1 1675 45 view .LVU1372
 4062 0034 42F06002 		orr	r2, r2, #96
 4063 0038 DA60     		str	r2, [r3, #12]
1648:Drivers/STM32H7xx_HAL_Driver/Src/stm32h7xx_ll_usb.c ****   uint32_t USBx_BASE = (uint32_t)USBx;
 4064              		.loc 1 1648 21 view .LVU1373
 4065 003a 0027     		movs	r7, #0
 4066              	.L254:
 4067              	.LVL308:
1676:Drivers/STM32H7xx_HAL_Driver/Src/stm32h7xx_ll_usb.c ****                                                USB_OTG_HCINTMSK_ACKM;
ARM GAS  C:\Users\Nathan\AppData\Local\Temp\cc7cwqzo.s 			page 121


1677:Drivers/STM32H7xx_HAL_Driver/Src/stm32h7xx_ll_usb.c ****       }
1678:Drivers/STM32H7xx_HAL_Driver/Src/stm32h7xx_ll_usb.c ****       break;
1679:Drivers/STM32H7xx_HAL_Driver/Src/stm32h7xx_ll_usb.c **** 
1680:Drivers/STM32H7xx_HAL_Driver/Src/stm32h7xx_ll_usb.c ****     case EP_TYPE_INTR:
1681:Drivers/STM32H7xx_HAL_Driver/Src/stm32h7xx_ll_usb.c ****       USBx_HC((uint32_t)ch_num)->HCINTMSK = USB_OTG_HCINTMSK_XFRCM  |
1682:Drivers/STM32H7xx_HAL_Driver/Src/stm32h7xx_ll_usb.c ****                                             USB_OTG_HCINTMSK_STALLM |
1683:Drivers/STM32H7xx_HAL_Driver/Src/stm32h7xx_ll_usb.c ****                                             USB_OTG_HCINTMSK_TXERRM |
1684:Drivers/STM32H7xx_HAL_Driver/Src/stm32h7xx_ll_usb.c ****                                             USB_OTG_HCINTMSK_DTERRM |
1685:Drivers/STM32H7xx_HAL_Driver/Src/stm32h7xx_ll_usb.c ****                                             USB_OTG_HCINTMSK_NAKM   |
1686:Drivers/STM32H7xx_HAL_Driver/Src/stm32h7xx_ll_usb.c ****                                             USB_OTG_HCINTMSK_AHBERR |
1687:Drivers/STM32H7xx_HAL_Driver/Src/stm32h7xx_ll_usb.c ****                                             USB_OTG_HCINTMSK_FRMORM;
1688:Drivers/STM32H7xx_HAL_Driver/Src/stm32h7xx_ll_usb.c **** 
1689:Drivers/STM32H7xx_HAL_Driver/Src/stm32h7xx_ll_usb.c ****       if ((epnum & 0x80U) == 0x80U)
1690:Drivers/STM32H7xx_HAL_Driver/Src/stm32h7xx_ll_usb.c ****       {
1691:Drivers/STM32H7xx_HAL_Driver/Src/stm32h7xx_ll_usb.c ****         USBx_HC((uint32_t)ch_num)->HCINTMSK |= USB_OTG_HCINTMSK_BBERRM;
1692:Drivers/STM32H7xx_HAL_Driver/Src/stm32h7xx_ll_usb.c ****       }
1693:Drivers/STM32H7xx_HAL_Driver/Src/stm32h7xx_ll_usb.c **** 
1694:Drivers/STM32H7xx_HAL_Driver/Src/stm32h7xx_ll_usb.c ****       break;
1695:Drivers/STM32H7xx_HAL_Driver/Src/stm32h7xx_ll_usb.c **** 
1696:Drivers/STM32H7xx_HAL_Driver/Src/stm32h7xx_ll_usb.c ****     case EP_TYPE_ISOC:
1697:Drivers/STM32H7xx_HAL_Driver/Src/stm32h7xx_ll_usb.c ****       USBx_HC((uint32_t)ch_num)->HCINTMSK = USB_OTG_HCINTMSK_XFRCM  |
1698:Drivers/STM32H7xx_HAL_Driver/Src/stm32h7xx_ll_usb.c ****                                             USB_OTG_HCINTMSK_ACKM   |
1699:Drivers/STM32H7xx_HAL_Driver/Src/stm32h7xx_ll_usb.c ****                                             USB_OTG_HCINTMSK_AHBERR |
1700:Drivers/STM32H7xx_HAL_Driver/Src/stm32h7xx_ll_usb.c ****                                             USB_OTG_HCINTMSK_FRMORM;
1701:Drivers/STM32H7xx_HAL_Driver/Src/stm32h7xx_ll_usb.c **** 
1702:Drivers/STM32H7xx_HAL_Driver/Src/stm32h7xx_ll_usb.c ****       if ((epnum & 0x80U) == 0x80U)
1703:Drivers/STM32H7xx_HAL_Driver/Src/stm32h7xx_ll_usb.c ****       {
1704:Drivers/STM32H7xx_HAL_Driver/Src/stm32h7xx_ll_usb.c ****         USBx_HC((uint32_t)ch_num)->HCINTMSK |= (USB_OTG_HCINTMSK_TXERRM | USB_OTG_HCINTMSK_BBERRM);
1705:Drivers/STM32H7xx_HAL_Driver/Src/stm32h7xx_ll_usb.c ****       }
1706:Drivers/STM32H7xx_HAL_Driver/Src/stm32h7xx_ll_usb.c ****       break;
1707:Drivers/STM32H7xx_HAL_Driver/Src/stm32h7xx_ll_usb.c **** 
1708:Drivers/STM32H7xx_HAL_Driver/Src/stm32h7xx_ll_usb.c ****     default:
1709:Drivers/STM32H7xx_HAL_Driver/Src/stm32h7xx_ll_usb.c ****       ret = HAL_ERROR;
1710:Drivers/STM32H7xx_HAL_Driver/Src/stm32h7xx_ll_usb.c ****       break;
1711:Drivers/STM32H7xx_HAL_Driver/Src/stm32h7xx_ll_usb.c ****   }
1712:Drivers/STM32H7xx_HAL_Driver/Src/stm32h7xx_ll_usb.c **** 
1713:Drivers/STM32H7xx_HAL_Driver/Src/stm32h7xx_ll_usb.c ****   /* Clear Hub Start Split transaction */
1714:Drivers/STM32H7xx_HAL_Driver/Src/stm32h7xx_ll_usb.c ****   USBx_HC((uint32_t)ch_num)->HCSPLT = 0U;
 4068              		.loc 1 1714 3 is_stmt 1 view .LVU1374
 4069              		.loc 1 1714 37 is_stmt 0 view .LVU1375
 4070 003c 0022     		movs	r2, #0
 4071 003e 5A60     		str	r2, [r3, #4]
1715:Drivers/STM32H7xx_HAL_Driver/Src/stm32h7xx_ll_usb.c **** 
1716:Drivers/STM32H7xx_HAL_Driver/Src/stm32h7xx_ll_usb.c ****   /* Enable host channel Halt interrupt */
1717:Drivers/STM32H7xx_HAL_Driver/Src/stm32h7xx_ll_usb.c ****   USBx_HC((uint32_t)ch_num)->HCINTMSK |= USB_OTG_HCINTMSK_CHHM;
 4072              		.loc 1 1717 3 is_stmt 1 view .LVU1376
 4073              		.loc 1 1717 28 is_stmt 0 view .LVU1377
 4074 0040 DA68     		ldr	r2, [r3, #12]
 4075              		.loc 1 1717 39 view .LVU1378
 4076 0042 42F00202 		orr	r2, r2, #2
 4077 0046 DA60     		str	r2, [r3, #12]
1718:Drivers/STM32H7xx_HAL_Driver/Src/stm32h7xx_ll_usb.c **** 
1719:Drivers/STM32H7xx_HAL_Driver/Src/stm32h7xx_ll_usb.c ****   /* Enable the top level host channel interrupt. */
1720:Drivers/STM32H7xx_HAL_Driver/Src/stm32h7xx_ll_usb.c ****   USBx_HOST->HAINTMSK |= 1UL << (ch_num & 0xFU);
 4078              		.loc 1 1720 3 is_stmt 1 view .LVU1379
 4079              		.loc 1 1720 12 is_stmt 0 view .LVU1380
 4080 0048 D0F81834 		ldr	r3, [r0, #1048]
ARM GAS  C:\Users\Nathan\AppData\Local\Temp\cc7cwqzo.s 			page 122


 4081              		.loc 1 1720 41 view .LVU1381
 4082 004c 01F00F01 		and	r1, r1, #15
 4083              	.LVL309:
 4084              		.loc 1 1720 30 view .LVU1382
 4085 0050 0122     		movs	r2, #1
 4086 0052 8A40     		lsls	r2, r2, r1
 4087              		.loc 1 1720 23 view .LVU1383
 4088 0054 1343     		orrs	r3, r3, r2
 4089 0056 C0F81834 		str	r3, [r0, #1048]
1721:Drivers/STM32H7xx_HAL_Driver/Src/stm32h7xx_ll_usb.c **** 
1722:Drivers/STM32H7xx_HAL_Driver/Src/stm32h7xx_ll_usb.c ****   /* Make sure host channel interrupts are enabled. */
1723:Drivers/STM32H7xx_HAL_Driver/Src/stm32h7xx_ll_usb.c ****   USBx->GINTMSK |= USB_OTG_GINTMSK_HCIM;
 4090              		.loc 1 1723 3 is_stmt 1 view .LVU1384
 4091              		.loc 1 1723 7 is_stmt 0 view .LVU1385
 4092 005a 8369     		ldr	r3, [r0, #24]
 4093              		.loc 1 1723 17 view .LVU1386
 4094 005c 43F00073 		orr	r3, r3, #33554432
 4095 0060 8361     		str	r3, [r0, #24]
1724:Drivers/STM32H7xx_HAL_Driver/Src/stm32h7xx_ll_usb.c **** 
1725:Drivers/STM32H7xx_HAL_Driver/Src/stm32h7xx_ll_usb.c ****   /* Program the HCCHAR register */
1726:Drivers/STM32H7xx_HAL_Driver/Src/stm32h7xx_ll_usb.c ****   if ((epnum & 0x80U) == 0x80U)
 4096              		.loc 1 1726 3 is_stmt 1 view .LVU1387
 4097              		.loc 1 1726 6 is_stmt 0 view .LVU1388
 4098 0062 19F0800F 		tst	r9, #128
 4099 0066 5AD1     		bne	.L270
1727:Drivers/STM32H7xx_HAL_Driver/Src/stm32h7xx_ll_usb.c ****   {
1728:Drivers/STM32H7xx_HAL_Driver/Src/stm32h7xx_ll_usb.c ****     HCcharEpDir = (0x1U << 15) & USB_OTG_HCCHAR_EPDIR;
1729:Drivers/STM32H7xx_HAL_Driver/Src/stm32h7xx_ll_usb.c ****   }
1730:Drivers/STM32H7xx_HAL_Driver/Src/stm32h7xx_ll_usb.c ****   else
1731:Drivers/STM32H7xx_HAL_Driver/Src/stm32h7xx_ll_usb.c ****   {
1732:Drivers/STM32H7xx_HAL_Driver/Src/stm32h7xx_ll_usb.c ****     HCcharEpDir = 0U;
 4100              		.loc 1 1732 17 view .LVU1389
 4101 0068 4FF00008 		mov	r8, #0
 4102              	.L260:
 4103              	.LVL310:
1733:Drivers/STM32H7xx_HAL_Driver/Src/stm32h7xx_ll_usb.c ****   }
1734:Drivers/STM32H7xx_HAL_Driver/Src/stm32h7xx_ll_usb.c **** 
1735:Drivers/STM32H7xx_HAL_Driver/Src/stm32h7xx_ll_usb.c ****   HostCoreSpeed = USB_GetHostSpeed(USBx);
 4104              		.loc 1 1735 3 is_stmt 1 view .LVU1390
 4105              		.loc 1 1735 19 is_stmt 0 view .LVU1391
 4106 006c FFF7FEFF 		bl	USB_GetHostSpeed
 4107              	.LVL311:
1736:Drivers/STM32H7xx_HAL_Driver/Src/stm32h7xx_ll_usb.c **** 
1737:Drivers/STM32H7xx_HAL_Driver/Src/stm32h7xx_ll_usb.c ****   /* LS device plugged to HUB */
1738:Drivers/STM32H7xx_HAL_Driver/Src/stm32h7xx_ll_usb.c ****   if ((speed == HPRT0_PRTSPD_LOW_SPEED) && (HostCoreSpeed != HPRT0_PRTSPD_LOW_SPEED))
 4108              		.loc 1 1738 3 is_stmt 1 view .LVU1392
 4109              		.loc 1 1738 41 is_stmt 0 view .LVU1393
 4110 0070 9DF82030 		ldrb	r3, [sp, #32]	@ zero_extendqisi2
 4111 0074 022B     		cmp	r3, #2
 4112 0076 14BF     		ite	ne
 4113 0078 0023     		movne	r3, #0
 4114 007a 0123     		moveq	r3, #1
 4115 007c 0228     		cmp	r0, #2
 4116 007e 08BF     		it	eq
 4117 0080 0023     		moveq	r3, #0
 4118              		.loc 1 1738 6 view .LVU1394
 4119 0082 002B     		cmp	r3, #0
ARM GAS  C:\Users\Nathan\AppData\Local\Temp\cc7cwqzo.s 			page 123


 4120 0084 4ED0     		beq	.L267
1739:Drivers/STM32H7xx_HAL_Driver/Src/stm32h7xx_ll_usb.c ****   {
1740:Drivers/STM32H7xx_HAL_Driver/Src/stm32h7xx_ll_usb.c ****     HCcharLowSpeed = (0x1U << 17) & USB_OTG_HCCHAR_LSDEV;
 4121              		.loc 1 1740 20 view .LVU1395
 4122 0086 4FF40032 		mov	r2, #131072
 4123              	.L261:
 4124              	.LVL312:
1741:Drivers/STM32H7xx_HAL_Driver/Src/stm32h7xx_ll_usb.c ****   }
1742:Drivers/STM32H7xx_HAL_Driver/Src/stm32h7xx_ll_usb.c ****   else
1743:Drivers/STM32H7xx_HAL_Driver/Src/stm32h7xx_ll_usb.c ****   {
1744:Drivers/STM32H7xx_HAL_Driver/Src/stm32h7xx_ll_usb.c ****     HCcharLowSpeed = 0U;
1745:Drivers/STM32H7xx_HAL_Driver/Src/stm32h7xx_ll_usb.c ****   }
1746:Drivers/STM32H7xx_HAL_Driver/Src/stm32h7xx_ll_usb.c **** 
1747:Drivers/STM32H7xx_HAL_Driver/Src/stm32h7xx_ll_usb.c ****   USBx_HC((uint32_t)ch_num)->HCCHAR = (((uint32_t)dev_address << 22) & USB_OTG_HCCHAR_DAD) |
 4125              		.loc 1 1747 3 is_stmt 1 view .LVU1396
 4126              		.loc 1 1747 63 is_stmt 0 view .LVU1397
 4127 008a A305     		lsls	r3, r4, #22
 4128              		.loc 1 1747 70 view .LVU1398
 4129 008c 03F0FE53 		and	r3, r3, #532676608
1748:Drivers/STM32H7xx_HAL_Driver/Src/stm32h7xx_ll_usb.c ****                                       ((((uint32_t)epnum & 0x7FU) << 11) & USB_OTG_HCCHAR_EPNUM) |
 4130              		.loc 1 1748 67 view .LVU1399
 4131 0090 4FEAC929 		lsl	r9, r9, #11
 4132              	.LVL313:
 4133              		.loc 1 1748 74 view .LVU1400
 4134 0094 09F4F049 		and	r9, r9, #30720
1747:Drivers/STM32H7xx_HAL_Driver/Src/stm32h7xx_ll_usb.c ****                                       ((((uint32_t)epnum & 0x7FU) << 11) & USB_OTG_HCCHAR_EPNUM) |
 4135              		.loc 1 1747 92 view .LVU1401
 4136 0098 43EA0903 		orr	r3, r3, r9
1749:Drivers/STM32H7xx_HAL_Driver/Src/stm32h7xx_ll_usb.c ****                                       (((uint32_t)ep_type << 18) & USB_OTG_HCCHAR_EPTYP) |
 4137              		.loc 1 1749 59 view .LVU1402
 4138 009c A904     		lsls	r1, r5, #18
 4139              		.loc 1 1749 66 view .LVU1403
 4140 009e 01F44021 		and	r1, r1, #786432
1748:Drivers/STM32H7xx_HAL_Driver/Src/stm32h7xx_ll_usb.c ****                                       ((((uint32_t)epnum & 0x7FU) << 11) & USB_OTG_HCCHAR_EPNUM) |
 4141              		.loc 1 1748 98 view .LVU1404
 4142 00a2 0B43     		orrs	r3, r3, r1
1750:Drivers/STM32H7xx_HAL_Driver/Src/stm32h7xx_ll_usb.c ****                                       ((uint32_t)mps & USB_OTG_HCCHAR_MPSIZ) |
 4143              		.loc 1 1750 54 view .LVU1405
 4144 00a4 BDF82810 		ldrh	r1, [sp, #40]
 4145 00a8 C1F30A01 		ubfx	r1, r1, #0, #11
1749:Drivers/STM32H7xx_HAL_Driver/Src/stm32h7xx_ll_usb.c ****                                       (((uint32_t)ep_type << 18) & USB_OTG_HCCHAR_EPTYP) |
 4146              		.loc 1 1749 90 view .LVU1406
 4147 00ac 0B43     		orrs	r3, r3, r1
1751:Drivers/STM32H7xx_HAL_Driver/Src/stm32h7xx_ll_usb.c ****                                       USB_OTG_HCCHAR_MC_0 | HCcharEpDir | HCcharLowSpeed;
 4148              		.loc 1 1751 59 view .LVU1407
 4149 00ae 43EA0803 		orr	r3, r3, r8
 4150              		.loc 1 1751 73 view .LVU1408
 4151 00b2 1343     		orrs	r3, r3, r2
 4152 00b4 43F48013 		orr	r3, r3, #1048576
1747:Drivers/STM32H7xx_HAL_Driver/Src/stm32h7xx_ll_usb.c ****                                       ((((uint32_t)epnum & 0x7FU) << 11) & USB_OTG_HCCHAR_EPNUM) |
 4153              		.loc 1 1747 37 view .LVU1409
 4154 00b8 C6F80035 		str	r3, [r6, #1280]
1752:Drivers/STM32H7xx_HAL_Driver/Src/stm32h7xx_ll_usb.c **** 
1753:Drivers/STM32H7xx_HAL_Driver/Src/stm32h7xx_ll_usb.c ****   if ((ep_type == EP_TYPE_INTR) || (ep_type == EP_TYPE_ISOC))
 4155              		.loc 1 1753 3 is_stmt 1 view .LVU1410
 4156              		.loc 1 1753 6 is_stmt 0 view .LVU1411
 4157 00bc 012D     		cmp	r5, #1
ARM GAS  C:\Users\Nathan\AppData\Local\Temp\cc7cwqzo.s 			page 124


 4158 00be 18BF     		it	ne
 4159 00c0 032D     		cmpne	r5, #3
 4160 00c2 05D1     		bne	.L262
1754:Drivers/STM32H7xx_HAL_Driver/Src/stm32h7xx_ll_usb.c ****   {
1755:Drivers/STM32H7xx_HAL_Driver/Src/stm32h7xx_ll_usb.c ****     USBx_HC((uint32_t)ch_num)->HCCHAR |= USB_OTG_HCCHAR_ODDFRM;
 4161              		.loc 1 1755 5 is_stmt 1 view .LVU1412
 4162              		.loc 1 1755 30 is_stmt 0 view .LVU1413
 4163 00c4 D6F80035 		ldr	r3, [r6, #1280]
 4164              		.loc 1 1755 39 view .LVU1414
 4165 00c8 43F00053 		orr	r3, r3, #536870912
 4166 00cc C6F80035 		str	r3, [r6, #1280]
 4167              	.L262:
1756:Drivers/STM32H7xx_HAL_Driver/Src/stm32h7xx_ll_usb.c ****   }
1757:Drivers/STM32H7xx_HAL_Driver/Src/stm32h7xx_ll_usb.c **** 
1758:Drivers/STM32H7xx_HAL_Driver/Src/stm32h7xx_ll_usb.c ****   return ret;
 4168              		.loc 1 1758 3 is_stmt 1 view .LVU1415
1759:Drivers/STM32H7xx_HAL_Driver/Src/stm32h7xx_ll_usb.c **** }
 4169              		.loc 1 1759 1 is_stmt 0 view .LVU1416
 4170 00d0 3846     		mov	r0, r7
 4171              	.LVL314:
 4172              		.loc 1 1759 1 view .LVU1417
 4173 00d2 BDE8F883 		pop	{r3, r4, r5, r6, r7, r8, r9, pc}
 4174              	.LVL315:
 4175              	.L269:
1671:Drivers/STM32H7xx_HAL_Driver/Src/stm32h7xx_ll_usb.c ****       }
 4176              		.loc 1 1671 9 is_stmt 1 view .LVU1418
1671:Drivers/STM32H7xx_HAL_Driver/Src/stm32h7xx_ll_usb.c ****       }
 4177              		.loc 1 1671 34 is_stmt 0 view .LVU1419
 4178 00d6 DA68     		ldr	r2, [r3, #12]
1671:Drivers/STM32H7xx_HAL_Driver/Src/stm32h7xx_ll_usb.c ****       }
 4179              		.loc 1 1671 45 view .LVU1420
 4180 00d8 42F48072 		orr	r2, r2, #256
 4181 00dc DA60     		str	r2, [r3, #12]
1648:Drivers/STM32H7xx_HAL_Driver/Src/stm32h7xx_ll_usb.c ****   uint32_t USBx_BASE = (uint32_t)USBx;
 4182              		.loc 1 1648 21 view .LVU1421
 4183 00de 0027     		movs	r7, #0
 4184 00e0 ACE7     		b	.L254
 4185              	.L255:
1681:Drivers/STM32H7xx_HAL_Driver/Src/stm32h7xx_ll_usb.c ****                                             USB_OTG_HCINTMSK_STALLM |
 4186              		.loc 1 1681 7 is_stmt 1 view .LVU1422
1681:Drivers/STM32H7xx_HAL_Driver/Src/stm32h7xx_ll_usb.c ****                                             USB_OTG_HCINTMSK_STALLM |
 4187              		.loc 1 1681 43 is_stmt 0 view .LVU1423
 4188 00e2 40F29D62 		movw	r2, #1693
 4189 00e6 DA60     		str	r2, [r3, #12]
1689:Drivers/STM32H7xx_HAL_Driver/Src/stm32h7xx_ll_usb.c ****       {
 4190              		.loc 1 1689 7 is_stmt 1 view .LVU1424
1689:Drivers/STM32H7xx_HAL_Driver/Src/stm32h7xx_ll_usb.c ****       {
 4191              		.loc 1 1689 10 is_stmt 0 view .LVU1425
 4192 00e8 19F0800F 		tst	r9, #128
 4193 00ec 01D1     		bne	.L271
1648:Drivers/STM32H7xx_HAL_Driver/Src/stm32h7xx_ll_usb.c ****   uint32_t USBx_BASE = (uint32_t)USBx;
 4194              		.loc 1 1648 21 view .LVU1426
 4195 00ee 0027     		movs	r7, #0
 4196 00f0 A4E7     		b	.L254
 4197              	.L271:
1691:Drivers/STM32H7xx_HAL_Driver/Src/stm32h7xx_ll_usb.c ****       }
 4198              		.loc 1 1691 9 is_stmt 1 view .LVU1427
ARM GAS  C:\Users\Nathan\AppData\Local\Temp\cc7cwqzo.s 			page 125


1691:Drivers/STM32H7xx_HAL_Driver/Src/stm32h7xx_ll_usb.c ****       }
 4199              		.loc 1 1691 34 is_stmt 0 view .LVU1428
 4200 00f2 DA68     		ldr	r2, [r3, #12]
1691:Drivers/STM32H7xx_HAL_Driver/Src/stm32h7xx_ll_usb.c ****       }
 4201              		.loc 1 1691 45 view .LVU1429
 4202 00f4 42F48072 		orr	r2, r2, #256
 4203 00f8 DA60     		str	r2, [r3, #12]
1648:Drivers/STM32H7xx_HAL_Driver/Src/stm32h7xx_ll_usb.c ****   uint32_t USBx_BASE = (uint32_t)USBx;
 4204              		.loc 1 1648 21 view .LVU1430
 4205 00fa 0027     		movs	r7, #0
 4206 00fc 9EE7     		b	.L254
 4207              	.L258:
1697:Drivers/STM32H7xx_HAL_Driver/Src/stm32h7xx_ll_usb.c ****                                             USB_OTG_HCINTMSK_ACKM   |
 4208              		.loc 1 1697 7 is_stmt 1 view .LVU1431
1697:Drivers/STM32H7xx_HAL_Driver/Src/stm32h7xx_ll_usb.c ****                                             USB_OTG_HCINTMSK_ACKM   |
 4209              		.loc 1 1697 43 is_stmt 0 view .LVU1432
 4210 00fe 40F22522 		movw	r2, #549
 4211 0102 DA60     		str	r2, [r3, #12]
1702:Drivers/STM32H7xx_HAL_Driver/Src/stm32h7xx_ll_usb.c ****       {
 4212              		.loc 1 1702 7 is_stmt 1 view .LVU1433
1702:Drivers/STM32H7xx_HAL_Driver/Src/stm32h7xx_ll_usb.c ****       {
 4213              		.loc 1 1702 10 is_stmt 0 view .LVU1434
 4214 0104 19F0800F 		tst	r9, #128
 4215 0108 01D1     		bne	.L272
1648:Drivers/STM32H7xx_HAL_Driver/Src/stm32h7xx_ll_usb.c ****   uint32_t USBx_BASE = (uint32_t)USBx;
 4216              		.loc 1 1648 21 view .LVU1435
 4217 010a 0027     		movs	r7, #0
 4218 010c 96E7     		b	.L254
 4219              	.L272:
1704:Drivers/STM32H7xx_HAL_Driver/Src/stm32h7xx_ll_usb.c ****       }
 4220              		.loc 1 1704 9 is_stmt 1 view .LVU1436
1704:Drivers/STM32H7xx_HAL_Driver/Src/stm32h7xx_ll_usb.c ****       }
 4221              		.loc 1 1704 34 is_stmt 0 view .LVU1437
 4222 010e DA68     		ldr	r2, [r3, #12]
1704:Drivers/STM32H7xx_HAL_Driver/Src/stm32h7xx_ll_usb.c ****       }
 4223              		.loc 1 1704 45 view .LVU1438
 4224 0110 42F4C072 		orr	r2, r2, #384
 4225 0114 DA60     		str	r2, [r3, #12]
1648:Drivers/STM32H7xx_HAL_Driver/Src/stm32h7xx_ll_usb.c ****   uint32_t USBx_BASE = (uint32_t)USBx;
 4226              		.loc 1 1648 21 view .LVU1439
 4227 0116 0027     		movs	r7, #0
 4228 0118 90E7     		b	.L254
 4229              	.L263:
1658:Drivers/STM32H7xx_HAL_Driver/Src/stm32h7xx_ll_usb.c ****   {
 4230              		.loc 1 1658 3 view .LVU1440
 4231 011a 0127     		movs	r7, #1
 4232 011c 8EE7     		b	.L254
 4233              	.LVL316:
 4234              	.L270:
1728:Drivers/STM32H7xx_HAL_Driver/Src/stm32h7xx_ll_usb.c ****   }
 4235              		.loc 1 1728 17 view .LVU1441
 4236 011e 4FF40048 		mov	r8, #32768
 4237 0122 A3E7     		b	.L260
 4238              	.LVL317:
 4239              	.L267:
1744:Drivers/STM32H7xx_HAL_Driver/Src/stm32h7xx_ll_usb.c ****   }
 4240              		.loc 1 1744 20 view .LVU1442
ARM GAS  C:\Users\Nathan\AppData\Local\Temp\cc7cwqzo.s 			page 126


 4241 0124 0022     		movs	r2, #0
 4242 0126 B0E7     		b	.L261
 4243              		.cfi_endproc
 4244              	.LFE185:
 4246              		.section	.text.USB_HC_ReadInterrupt,"ax",%progbits
 4247              		.align	1
 4248              		.global	USB_HC_ReadInterrupt
 4249              		.syntax unified
 4250              		.thumb
 4251              		.thumb_func
 4253              	USB_HC_ReadInterrupt:
 4254              	.LVL318:
 4255              	.LFB187:
1760:Drivers/STM32H7xx_HAL_Driver/Src/stm32h7xx_ll_usb.c **** 
1761:Drivers/STM32H7xx_HAL_Driver/Src/stm32h7xx_ll_usb.c **** /**
1762:Drivers/STM32H7xx_HAL_Driver/Src/stm32h7xx_ll_usb.c ****   * @brief  Start a transfer over a host channel
1763:Drivers/STM32H7xx_HAL_Driver/Src/stm32h7xx_ll_usb.c ****   * @param  USBx  Selected device
1764:Drivers/STM32H7xx_HAL_Driver/Src/stm32h7xx_ll_usb.c ****   * @param  hc  pointer to host channel structure
1765:Drivers/STM32H7xx_HAL_Driver/Src/stm32h7xx_ll_usb.c ****   * @param  dma USB dma enabled or disabled
1766:Drivers/STM32H7xx_HAL_Driver/Src/stm32h7xx_ll_usb.c ****   *          This parameter can be one of these values:
1767:Drivers/STM32H7xx_HAL_Driver/Src/stm32h7xx_ll_usb.c ****   *           0 : DMA feature not used
1768:Drivers/STM32H7xx_HAL_Driver/Src/stm32h7xx_ll_usb.c ****   *           1 : DMA feature used
1769:Drivers/STM32H7xx_HAL_Driver/Src/stm32h7xx_ll_usb.c ****   * @retval HAL state
1770:Drivers/STM32H7xx_HAL_Driver/Src/stm32h7xx_ll_usb.c ****   */
1771:Drivers/STM32H7xx_HAL_Driver/Src/stm32h7xx_ll_usb.c **** HAL_StatusTypeDef USB_HC_StartXfer(USB_OTG_GlobalTypeDef *USBx, USB_OTG_HCTypeDef *hc, uint8_t dma)
1772:Drivers/STM32H7xx_HAL_Driver/Src/stm32h7xx_ll_usb.c **** {
1773:Drivers/STM32H7xx_HAL_Driver/Src/stm32h7xx_ll_usb.c ****   uint32_t USBx_BASE = (uint32_t)USBx;
1774:Drivers/STM32H7xx_HAL_Driver/Src/stm32h7xx_ll_usb.c ****   uint32_t ch_num = (uint32_t)hc->ch_num;
1775:Drivers/STM32H7xx_HAL_Driver/Src/stm32h7xx_ll_usb.c ****   __IO uint32_t tmpreg;
1776:Drivers/STM32H7xx_HAL_Driver/Src/stm32h7xx_ll_usb.c ****   uint8_t  is_oddframe;
1777:Drivers/STM32H7xx_HAL_Driver/Src/stm32h7xx_ll_usb.c ****   uint16_t len_words;
1778:Drivers/STM32H7xx_HAL_Driver/Src/stm32h7xx_ll_usb.c ****   uint16_t num_packets;
1779:Drivers/STM32H7xx_HAL_Driver/Src/stm32h7xx_ll_usb.c ****   uint16_t max_hc_pkt_count = HC_MAX_PKT_CNT;
1780:Drivers/STM32H7xx_HAL_Driver/Src/stm32h7xx_ll_usb.c **** 
1781:Drivers/STM32H7xx_HAL_Driver/Src/stm32h7xx_ll_usb.c ****   /* in DMA mode host Core automatically issues ping in case of NYET/NAK */
1782:Drivers/STM32H7xx_HAL_Driver/Src/stm32h7xx_ll_usb.c ****   if (dma == 1U)
1783:Drivers/STM32H7xx_HAL_Driver/Src/stm32h7xx_ll_usb.c ****   {
1784:Drivers/STM32H7xx_HAL_Driver/Src/stm32h7xx_ll_usb.c ****     if ((hc->ep_type == EP_TYPE_CTRL) || (hc->ep_type == EP_TYPE_BULK))
1785:Drivers/STM32H7xx_HAL_Driver/Src/stm32h7xx_ll_usb.c ****     {
1786:Drivers/STM32H7xx_HAL_Driver/Src/stm32h7xx_ll_usb.c **** 
1787:Drivers/STM32H7xx_HAL_Driver/Src/stm32h7xx_ll_usb.c ****       USBx_HC((uint32_t)ch_num)->HCINTMSK &= ~(USB_OTG_HCINTMSK_NYET |
1788:Drivers/STM32H7xx_HAL_Driver/Src/stm32h7xx_ll_usb.c ****                                                USB_OTG_HCINTMSK_ACKM |
1789:Drivers/STM32H7xx_HAL_Driver/Src/stm32h7xx_ll_usb.c ****                                                USB_OTG_HCINTMSK_NAKM);
1790:Drivers/STM32H7xx_HAL_Driver/Src/stm32h7xx_ll_usb.c ****     }
1791:Drivers/STM32H7xx_HAL_Driver/Src/stm32h7xx_ll_usb.c ****   }
1792:Drivers/STM32H7xx_HAL_Driver/Src/stm32h7xx_ll_usb.c ****   else
1793:Drivers/STM32H7xx_HAL_Driver/Src/stm32h7xx_ll_usb.c ****   {
1794:Drivers/STM32H7xx_HAL_Driver/Src/stm32h7xx_ll_usb.c ****     if ((hc->speed == USBH_HS_SPEED) && (hc->do_ping == 1U))
1795:Drivers/STM32H7xx_HAL_Driver/Src/stm32h7xx_ll_usb.c ****     {
1796:Drivers/STM32H7xx_HAL_Driver/Src/stm32h7xx_ll_usb.c ****       (void)USB_DoPing(USBx, hc->ch_num);
1797:Drivers/STM32H7xx_HAL_Driver/Src/stm32h7xx_ll_usb.c ****       return HAL_OK;
1798:Drivers/STM32H7xx_HAL_Driver/Src/stm32h7xx_ll_usb.c ****     }
1799:Drivers/STM32H7xx_HAL_Driver/Src/stm32h7xx_ll_usb.c ****   }
1800:Drivers/STM32H7xx_HAL_Driver/Src/stm32h7xx_ll_usb.c **** 
1801:Drivers/STM32H7xx_HAL_Driver/Src/stm32h7xx_ll_usb.c ****   if (hc->do_ssplit == 1U)
1802:Drivers/STM32H7xx_HAL_Driver/Src/stm32h7xx_ll_usb.c ****   {
1803:Drivers/STM32H7xx_HAL_Driver/Src/stm32h7xx_ll_usb.c ****     /* Set number of packet to 1 for Split transaction */
ARM GAS  C:\Users\Nathan\AppData\Local\Temp\cc7cwqzo.s 			page 127


1804:Drivers/STM32H7xx_HAL_Driver/Src/stm32h7xx_ll_usb.c ****     num_packets = 1U;
1805:Drivers/STM32H7xx_HAL_Driver/Src/stm32h7xx_ll_usb.c **** 
1806:Drivers/STM32H7xx_HAL_Driver/Src/stm32h7xx_ll_usb.c ****     if (hc->ep_is_in != 0U)
1807:Drivers/STM32H7xx_HAL_Driver/Src/stm32h7xx_ll_usb.c ****     {
1808:Drivers/STM32H7xx_HAL_Driver/Src/stm32h7xx_ll_usb.c ****       hc->XferSize = (uint32_t)num_packets * hc->max_packet;
1809:Drivers/STM32H7xx_HAL_Driver/Src/stm32h7xx_ll_usb.c ****     }
1810:Drivers/STM32H7xx_HAL_Driver/Src/stm32h7xx_ll_usb.c ****     else
1811:Drivers/STM32H7xx_HAL_Driver/Src/stm32h7xx_ll_usb.c ****     {
1812:Drivers/STM32H7xx_HAL_Driver/Src/stm32h7xx_ll_usb.c ****       if (hc->ep_type == EP_TYPE_ISOC)
1813:Drivers/STM32H7xx_HAL_Driver/Src/stm32h7xx_ll_usb.c ****       {
1814:Drivers/STM32H7xx_HAL_Driver/Src/stm32h7xx_ll_usb.c ****         if (hc->xfer_len > ISO_SPLT_MPS)
1815:Drivers/STM32H7xx_HAL_Driver/Src/stm32h7xx_ll_usb.c ****         {
1816:Drivers/STM32H7xx_HAL_Driver/Src/stm32h7xx_ll_usb.c ****           /* Isochrone Max Packet Size for Split mode */
1817:Drivers/STM32H7xx_HAL_Driver/Src/stm32h7xx_ll_usb.c ****           hc->XferSize = hc->max_packet;
1818:Drivers/STM32H7xx_HAL_Driver/Src/stm32h7xx_ll_usb.c ****           hc->xfer_len = hc->XferSize;
1819:Drivers/STM32H7xx_HAL_Driver/Src/stm32h7xx_ll_usb.c **** 
1820:Drivers/STM32H7xx_HAL_Driver/Src/stm32h7xx_ll_usb.c ****           if ((hc->iso_splt_xactPos == HCSPLT_BEGIN) || (hc->iso_splt_xactPos == HCSPLT_MIDDLE))
1821:Drivers/STM32H7xx_HAL_Driver/Src/stm32h7xx_ll_usb.c ****           {
1822:Drivers/STM32H7xx_HAL_Driver/Src/stm32h7xx_ll_usb.c ****             hc->iso_splt_xactPos = HCSPLT_MIDDLE;
1823:Drivers/STM32H7xx_HAL_Driver/Src/stm32h7xx_ll_usb.c ****           }
1824:Drivers/STM32H7xx_HAL_Driver/Src/stm32h7xx_ll_usb.c ****           else
1825:Drivers/STM32H7xx_HAL_Driver/Src/stm32h7xx_ll_usb.c ****           {
1826:Drivers/STM32H7xx_HAL_Driver/Src/stm32h7xx_ll_usb.c ****             hc->iso_splt_xactPos = HCSPLT_BEGIN;
1827:Drivers/STM32H7xx_HAL_Driver/Src/stm32h7xx_ll_usb.c ****           }
1828:Drivers/STM32H7xx_HAL_Driver/Src/stm32h7xx_ll_usb.c ****         }
1829:Drivers/STM32H7xx_HAL_Driver/Src/stm32h7xx_ll_usb.c ****         else
1830:Drivers/STM32H7xx_HAL_Driver/Src/stm32h7xx_ll_usb.c ****         {
1831:Drivers/STM32H7xx_HAL_Driver/Src/stm32h7xx_ll_usb.c ****           hc->XferSize = hc->xfer_len;
1832:Drivers/STM32H7xx_HAL_Driver/Src/stm32h7xx_ll_usb.c **** 
1833:Drivers/STM32H7xx_HAL_Driver/Src/stm32h7xx_ll_usb.c ****           if ((hc->iso_splt_xactPos != HCSPLT_BEGIN) && (hc->iso_splt_xactPos != HCSPLT_MIDDLE))
1834:Drivers/STM32H7xx_HAL_Driver/Src/stm32h7xx_ll_usb.c ****           {
1835:Drivers/STM32H7xx_HAL_Driver/Src/stm32h7xx_ll_usb.c ****             hc->iso_splt_xactPos = HCSPLT_FULL;
1836:Drivers/STM32H7xx_HAL_Driver/Src/stm32h7xx_ll_usb.c ****           }
1837:Drivers/STM32H7xx_HAL_Driver/Src/stm32h7xx_ll_usb.c ****           else
1838:Drivers/STM32H7xx_HAL_Driver/Src/stm32h7xx_ll_usb.c ****           {
1839:Drivers/STM32H7xx_HAL_Driver/Src/stm32h7xx_ll_usb.c ****             hc->iso_splt_xactPos = HCSPLT_END;
1840:Drivers/STM32H7xx_HAL_Driver/Src/stm32h7xx_ll_usb.c ****           }
1841:Drivers/STM32H7xx_HAL_Driver/Src/stm32h7xx_ll_usb.c ****         }
1842:Drivers/STM32H7xx_HAL_Driver/Src/stm32h7xx_ll_usb.c ****       }
1843:Drivers/STM32H7xx_HAL_Driver/Src/stm32h7xx_ll_usb.c ****       else
1844:Drivers/STM32H7xx_HAL_Driver/Src/stm32h7xx_ll_usb.c ****       {
1845:Drivers/STM32H7xx_HAL_Driver/Src/stm32h7xx_ll_usb.c ****         if ((dma == 1U) && (hc->xfer_len > hc->max_packet))
1846:Drivers/STM32H7xx_HAL_Driver/Src/stm32h7xx_ll_usb.c ****         {
1847:Drivers/STM32H7xx_HAL_Driver/Src/stm32h7xx_ll_usb.c ****           hc->XferSize = (uint32_t)num_packets * hc->max_packet;
1848:Drivers/STM32H7xx_HAL_Driver/Src/stm32h7xx_ll_usb.c ****         }
1849:Drivers/STM32H7xx_HAL_Driver/Src/stm32h7xx_ll_usb.c ****         else
1850:Drivers/STM32H7xx_HAL_Driver/Src/stm32h7xx_ll_usb.c ****         {
1851:Drivers/STM32H7xx_HAL_Driver/Src/stm32h7xx_ll_usb.c ****           hc->XferSize = hc->xfer_len;
1852:Drivers/STM32H7xx_HAL_Driver/Src/stm32h7xx_ll_usb.c ****         }
1853:Drivers/STM32H7xx_HAL_Driver/Src/stm32h7xx_ll_usb.c ****       }
1854:Drivers/STM32H7xx_HAL_Driver/Src/stm32h7xx_ll_usb.c ****     }
1855:Drivers/STM32H7xx_HAL_Driver/Src/stm32h7xx_ll_usb.c ****   }
1856:Drivers/STM32H7xx_HAL_Driver/Src/stm32h7xx_ll_usb.c ****   else
1857:Drivers/STM32H7xx_HAL_Driver/Src/stm32h7xx_ll_usb.c ****   {
1858:Drivers/STM32H7xx_HAL_Driver/Src/stm32h7xx_ll_usb.c ****     /* Compute the expected number of packets associated to the transfer */
1859:Drivers/STM32H7xx_HAL_Driver/Src/stm32h7xx_ll_usb.c ****     if (hc->xfer_len > 0U)
1860:Drivers/STM32H7xx_HAL_Driver/Src/stm32h7xx_ll_usb.c ****     {
ARM GAS  C:\Users\Nathan\AppData\Local\Temp\cc7cwqzo.s 			page 128


1861:Drivers/STM32H7xx_HAL_Driver/Src/stm32h7xx_ll_usb.c ****       num_packets = (uint16_t)((hc->xfer_len + hc->max_packet - 1U) / hc->max_packet);
1862:Drivers/STM32H7xx_HAL_Driver/Src/stm32h7xx_ll_usb.c **** 
1863:Drivers/STM32H7xx_HAL_Driver/Src/stm32h7xx_ll_usb.c ****       if (num_packets > max_hc_pkt_count)
1864:Drivers/STM32H7xx_HAL_Driver/Src/stm32h7xx_ll_usb.c ****       {
1865:Drivers/STM32H7xx_HAL_Driver/Src/stm32h7xx_ll_usb.c ****         num_packets = max_hc_pkt_count;
1866:Drivers/STM32H7xx_HAL_Driver/Src/stm32h7xx_ll_usb.c ****         hc->XferSize = (uint32_t)num_packets * hc->max_packet;
1867:Drivers/STM32H7xx_HAL_Driver/Src/stm32h7xx_ll_usb.c ****       }
1868:Drivers/STM32H7xx_HAL_Driver/Src/stm32h7xx_ll_usb.c ****     }
1869:Drivers/STM32H7xx_HAL_Driver/Src/stm32h7xx_ll_usb.c ****     else
1870:Drivers/STM32H7xx_HAL_Driver/Src/stm32h7xx_ll_usb.c ****     {
1871:Drivers/STM32H7xx_HAL_Driver/Src/stm32h7xx_ll_usb.c ****       num_packets = 1U;
1872:Drivers/STM32H7xx_HAL_Driver/Src/stm32h7xx_ll_usb.c ****     }
1873:Drivers/STM32H7xx_HAL_Driver/Src/stm32h7xx_ll_usb.c **** 
1874:Drivers/STM32H7xx_HAL_Driver/Src/stm32h7xx_ll_usb.c ****     /*
1875:Drivers/STM32H7xx_HAL_Driver/Src/stm32h7xx_ll_usb.c ****     * For IN channel HCTSIZ.XferSize is expected to be an integer multiple of
1876:Drivers/STM32H7xx_HAL_Driver/Src/stm32h7xx_ll_usb.c ****     * max_packet size.
1877:Drivers/STM32H7xx_HAL_Driver/Src/stm32h7xx_ll_usb.c ****     */
1878:Drivers/STM32H7xx_HAL_Driver/Src/stm32h7xx_ll_usb.c ****     if (hc->ep_is_in != 0U)
1879:Drivers/STM32H7xx_HAL_Driver/Src/stm32h7xx_ll_usb.c ****     {
1880:Drivers/STM32H7xx_HAL_Driver/Src/stm32h7xx_ll_usb.c ****       hc->XferSize = (uint32_t)num_packets * hc->max_packet;
1881:Drivers/STM32H7xx_HAL_Driver/Src/stm32h7xx_ll_usb.c ****     }
1882:Drivers/STM32H7xx_HAL_Driver/Src/stm32h7xx_ll_usb.c ****     else
1883:Drivers/STM32H7xx_HAL_Driver/Src/stm32h7xx_ll_usb.c ****     {
1884:Drivers/STM32H7xx_HAL_Driver/Src/stm32h7xx_ll_usb.c ****       hc->XferSize = hc->xfer_len;
1885:Drivers/STM32H7xx_HAL_Driver/Src/stm32h7xx_ll_usb.c ****     }
1886:Drivers/STM32H7xx_HAL_Driver/Src/stm32h7xx_ll_usb.c ****   }
1887:Drivers/STM32H7xx_HAL_Driver/Src/stm32h7xx_ll_usb.c **** 
1888:Drivers/STM32H7xx_HAL_Driver/Src/stm32h7xx_ll_usb.c ****   /* Initialize the HCTSIZn register */
1889:Drivers/STM32H7xx_HAL_Driver/Src/stm32h7xx_ll_usb.c ****   USBx_HC(ch_num)->HCTSIZ = (hc->XferSize & USB_OTG_HCTSIZ_XFRSIZ) |
1890:Drivers/STM32H7xx_HAL_Driver/Src/stm32h7xx_ll_usb.c ****                             (((uint32_t)num_packets << 19) & USB_OTG_HCTSIZ_PKTCNT) |
1891:Drivers/STM32H7xx_HAL_Driver/Src/stm32h7xx_ll_usb.c ****                             (((uint32_t)hc->data_pid << 29) & USB_OTG_HCTSIZ_DPID);
1892:Drivers/STM32H7xx_HAL_Driver/Src/stm32h7xx_ll_usb.c **** 
1893:Drivers/STM32H7xx_HAL_Driver/Src/stm32h7xx_ll_usb.c ****   if (dma != 0U)
1894:Drivers/STM32H7xx_HAL_Driver/Src/stm32h7xx_ll_usb.c ****   {
1895:Drivers/STM32H7xx_HAL_Driver/Src/stm32h7xx_ll_usb.c ****     /* xfer_buff MUST be 32-bits aligned */
1896:Drivers/STM32H7xx_HAL_Driver/Src/stm32h7xx_ll_usb.c ****     USBx_HC(ch_num)->HCDMA = (uint32_t)hc->xfer_buff;
1897:Drivers/STM32H7xx_HAL_Driver/Src/stm32h7xx_ll_usb.c ****   }
1898:Drivers/STM32H7xx_HAL_Driver/Src/stm32h7xx_ll_usb.c **** 
1899:Drivers/STM32H7xx_HAL_Driver/Src/stm32h7xx_ll_usb.c ****   is_oddframe = (((uint32_t)USBx_HOST->HFNUM & 0x01U) != 0U) ? 0U : 1U;
1900:Drivers/STM32H7xx_HAL_Driver/Src/stm32h7xx_ll_usb.c ****   USBx_HC(ch_num)->HCCHAR &= ~USB_OTG_HCCHAR_ODDFRM;
1901:Drivers/STM32H7xx_HAL_Driver/Src/stm32h7xx_ll_usb.c ****   USBx_HC(ch_num)->HCCHAR |= (uint32_t)is_oddframe << 29;
1902:Drivers/STM32H7xx_HAL_Driver/Src/stm32h7xx_ll_usb.c **** 
1903:Drivers/STM32H7xx_HAL_Driver/Src/stm32h7xx_ll_usb.c ****   if (hc->do_ssplit == 1U)
1904:Drivers/STM32H7xx_HAL_Driver/Src/stm32h7xx_ll_usb.c ****   {
1905:Drivers/STM32H7xx_HAL_Driver/Src/stm32h7xx_ll_usb.c ****     /* Set Hub start Split transaction */
1906:Drivers/STM32H7xx_HAL_Driver/Src/stm32h7xx_ll_usb.c ****     USBx_HC((uint32_t)ch_num)->HCSPLT = ((uint32_t)hc->hub_addr << USB_OTG_HCSPLT_HUBADDR_Pos) |
1907:Drivers/STM32H7xx_HAL_Driver/Src/stm32h7xx_ll_usb.c ****                                         (uint32_t)hc->hub_port_nbr | USB_OTG_HCSPLT_SPLITEN;
1908:Drivers/STM32H7xx_HAL_Driver/Src/stm32h7xx_ll_usb.c **** 
1909:Drivers/STM32H7xx_HAL_Driver/Src/stm32h7xx_ll_usb.c ****     /* unmask ack & nyet for IN/OUT transactions */
1910:Drivers/STM32H7xx_HAL_Driver/Src/stm32h7xx_ll_usb.c ****     USBx_HC((uint32_t)ch_num)->HCINTMSK |= (USB_OTG_HCINTMSK_ACKM |
1911:Drivers/STM32H7xx_HAL_Driver/Src/stm32h7xx_ll_usb.c ****                                             USB_OTG_HCINTMSK_NYET);
1912:Drivers/STM32H7xx_HAL_Driver/Src/stm32h7xx_ll_usb.c **** 
1913:Drivers/STM32H7xx_HAL_Driver/Src/stm32h7xx_ll_usb.c ****     if ((hc->do_csplit == 1U) && (hc->ep_is_in == 0U))
1914:Drivers/STM32H7xx_HAL_Driver/Src/stm32h7xx_ll_usb.c ****     {
1915:Drivers/STM32H7xx_HAL_Driver/Src/stm32h7xx_ll_usb.c ****       USBx_HC((uint32_t)ch_num)->HCSPLT |= USB_OTG_HCSPLT_COMPLSPLT;
1916:Drivers/STM32H7xx_HAL_Driver/Src/stm32h7xx_ll_usb.c ****       USBx_HC((uint32_t)ch_num)->HCINTMSK |= USB_OTG_HCINTMSK_NYET;
1917:Drivers/STM32H7xx_HAL_Driver/Src/stm32h7xx_ll_usb.c ****     }
ARM GAS  C:\Users\Nathan\AppData\Local\Temp\cc7cwqzo.s 			page 129


1918:Drivers/STM32H7xx_HAL_Driver/Src/stm32h7xx_ll_usb.c **** 
1919:Drivers/STM32H7xx_HAL_Driver/Src/stm32h7xx_ll_usb.c ****     if (((hc->ep_type == EP_TYPE_ISOC) || (hc->ep_type == EP_TYPE_INTR)) &&
1920:Drivers/STM32H7xx_HAL_Driver/Src/stm32h7xx_ll_usb.c ****         (hc->do_csplit == 1U) && (hc->ep_is_in == 1U))
1921:Drivers/STM32H7xx_HAL_Driver/Src/stm32h7xx_ll_usb.c ****     {
1922:Drivers/STM32H7xx_HAL_Driver/Src/stm32h7xx_ll_usb.c ****       USBx_HC((uint32_t)ch_num)->HCSPLT |= USB_OTG_HCSPLT_COMPLSPLT;
1923:Drivers/STM32H7xx_HAL_Driver/Src/stm32h7xx_ll_usb.c ****     }
1924:Drivers/STM32H7xx_HAL_Driver/Src/stm32h7xx_ll_usb.c **** 
1925:Drivers/STM32H7xx_HAL_Driver/Src/stm32h7xx_ll_usb.c ****     /* Position management for iso out transaction on split mode */
1926:Drivers/STM32H7xx_HAL_Driver/Src/stm32h7xx_ll_usb.c ****     if ((hc->ep_type == EP_TYPE_ISOC) && (hc->ep_is_in == 0U))
1927:Drivers/STM32H7xx_HAL_Driver/Src/stm32h7xx_ll_usb.c ****     {
1928:Drivers/STM32H7xx_HAL_Driver/Src/stm32h7xx_ll_usb.c ****       /* Set data payload position */
1929:Drivers/STM32H7xx_HAL_Driver/Src/stm32h7xx_ll_usb.c ****       switch (hc->iso_splt_xactPos)
1930:Drivers/STM32H7xx_HAL_Driver/Src/stm32h7xx_ll_usb.c ****       {
1931:Drivers/STM32H7xx_HAL_Driver/Src/stm32h7xx_ll_usb.c ****         case HCSPLT_BEGIN:
1932:Drivers/STM32H7xx_HAL_Driver/Src/stm32h7xx_ll_usb.c ****           /* First data payload for OUT Transaction */
1933:Drivers/STM32H7xx_HAL_Driver/Src/stm32h7xx_ll_usb.c ****           USBx_HC((uint32_t)ch_num)->HCSPLT |= USB_OTG_HCSPLT_XACTPOS_1;
1934:Drivers/STM32H7xx_HAL_Driver/Src/stm32h7xx_ll_usb.c ****           break;
1935:Drivers/STM32H7xx_HAL_Driver/Src/stm32h7xx_ll_usb.c **** 
1936:Drivers/STM32H7xx_HAL_Driver/Src/stm32h7xx_ll_usb.c ****         case HCSPLT_MIDDLE:
1937:Drivers/STM32H7xx_HAL_Driver/Src/stm32h7xx_ll_usb.c ****           /* Middle data payload for OUT Transaction */
1938:Drivers/STM32H7xx_HAL_Driver/Src/stm32h7xx_ll_usb.c ****           USBx_HC((uint32_t)ch_num)->HCSPLT |= USB_OTG_HCSPLT_XACTPOS_Pos;
1939:Drivers/STM32H7xx_HAL_Driver/Src/stm32h7xx_ll_usb.c ****           break;
1940:Drivers/STM32H7xx_HAL_Driver/Src/stm32h7xx_ll_usb.c **** 
1941:Drivers/STM32H7xx_HAL_Driver/Src/stm32h7xx_ll_usb.c ****         case HCSPLT_END:
1942:Drivers/STM32H7xx_HAL_Driver/Src/stm32h7xx_ll_usb.c ****           /* End data payload for OUT Transaction */
1943:Drivers/STM32H7xx_HAL_Driver/Src/stm32h7xx_ll_usb.c ****           USBx_HC((uint32_t)ch_num)->HCSPLT |= USB_OTG_HCSPLT_XACTPOS_0;
1944:Drivers/STM32H7xx_HAL_Driver/Src/stm32h7xx_ll_usb.c ****           break;
1945:Drivers/STM32H7xx_HAL_Driver/Src/stm32h7xx_ll_usb.c **** 
1946:Drivers/STM32H7xx_HAL_Driver/Src/stm32h7xx_ll_usb.c ****         case HCSPLT_FULL:
1947:Drivers/STM32H7xx_HAL_Driver/Src/stm32h7xx_ll_usb.c ****           /* Entire data payload for OUT Transaction */
1948:Drivers/STM32H7xx_HAL_Driver/Src/stm32h7xx_ll_usb.c ****           USBx_HC((uint32_t)ch_num)->HCSPLT |= USB_OTG_HCSPLT_XACTPOS;
1949:Drivers/STM32H7xx_HAL_Driver/Src/stm32h7xx_ll_usb.c ****           break;
1950:Drivers/STM32H7xx_HAL_Driver/Src/stm32h7xx_ll_usb.c **** 
1951:Drivers/STM32H7xx_HAL_Driver/Src/stm32h7xx_ll_usb.c ****         default:
1952:Drivers/STM32H7xx_HAL_Driver/Src/stm32h7xx_ll_usb.c ****           break;
1953:Drivers/STM32H7xx_HAL_Driver/Src/stm32h7xx_ll_usb.c ****       }
1954:Drivers/STM32H7xx_HAL_Driver/Src/stm32h7xx_ll_usb.c ****     }
1955:Drivers/STM32H7xx_HAL_Driver/Src/stm32h7xx_ll_usb.c ****   }
1956:Drivers/STM32H7xx_HAL_Driver/Src/stm32h7xx_ll_usb.c ****   else
1957:Drivers/STM32H7xx_HAL_Driver/Src/stm32h7xx_ll_usb.c ****   {
1958:Drivers/STM32H7xx_HAL_Driver/Src/stm32h7xx_ll_usb.c ****     /* Clear Hub Start Split transaction */
1959:Drivers/STM32H7xx_HAL_Driver/Src/stm32h7xx_ll_usb.c ****     USBx_HC((uint32_t)ch_num)->HCSPLT = 0U;
1960:Drivers/STM32H7xx_HAL_Driver/Src/stm32h7xx_ll_usb.c ****   }
1961:Drivers/STM32H7xx_HAL_Driver/Src/stm32h7xx_ll_usb.c **** 
1962:Drivers/STM32H7xx_HAL_Driver/Src/stm32h7xx_ll_usb.c ****   /* Set host channel enable */
1963:Drivers/STM32H7xx_HAL_Driver/Src/stm32h7xx_ll_usb.c ****   tmpreg = USBx_HC(ch_num)->HCCHAR;
1964:Drivers/STM32H7xx_HAL_Driver/Src/stm32h7xx_ll_usb.c ****   tmpreg &= ~USB_OTG_HCCHAR_CHDIS;
1965:Drivers/STM32H7xx_HAL_Driver/Src/stm32h7xx_ll_usb.c **** 
1966:Drivers/STM32H7xx_HAL_Driver/Src/stm32h7xx_ll_usb.c ****   /* make sure to set the correct ep direction */
1967:Drivers/STM32H7xx_HAL_Driver/Src/stm32h7xx_ll_usb.c ****   if (hc->ep_is_in != 0U)
1968:Drivers/STM32H7xx_HAL_Driver/Src/stm32h7xx_ll_usb.c ****   {
1969:Drivers/STM32H7xx_HAL_Driver/Src/stm32h7xx_ll_usb.c ****     tmpreg |= USB_OTG_HCCHAR_EPDIR;
1970:Drivers/STM32H7xx_HAL_Driver/Src/stm32h7xx_ll_usb.c ****   }
1971:Drivers/STM32H7xx_HAL_Driver/Src/stm32h7xx_ll_usb.c ****   else
1972:Drivers/STM32H7xx_HAL_Driver/Src/stm32h7xx_ll_usb.c ****   {
1973:Drivers/STM32H7xx_HAL_Driver/Src/stm32h7xx_ll_usb.c ****     tmpreg &= ~USB_OTG_HCCHAR_EPDIR;
1974:Drivers/STM32H7xx_HAL_Driver/Src/stm32h7xx_ll_usb.c ****   }
ARM GAS  C:\Users\Nathan\AppData\Local\Temp\cc7cwqzo.s 			page 130


1975:Drivers/STM32H7xx_HAL_Driver/Src/stm32h7xx_ll_usb.c ****   tmpreg |= USB_OTG_HCCHAR_CHENA;
1976:Drivers/STM32H7xx_HAL_Driver/Src/stm32h7xx_ll_usb.c ****   USBx_HC(ch_num)->HCCHAR = tmpreg;
1977:Drivers/STM32H7xx_HAL_Driver/Src/stm32h7xx_ll_usb.c **** 
1978:Drivers/STM32H7xx_HAL_Driver/Src/stm32h7xx_ll_usb.c ****   if (dma != 0U) /* dma mode */
1979:Drivers/STM32H7xx_HAL_Driver/Src/stm32h7xx_ll_usb.c ****   {
1980:Drivers/STM32H7xx_HAL_Driver/Src/stm32h7xx_ll_usb.c ****     return HAL_OK;
1981:Drivers/STM32H7xx_HAL_Driver/Src/stm32h7xx_ll_usb.c ****   }
1982:Drivers/STM32H7xx_HAL_Driver/Src/stm32h7xx_ll_usb.c **** 
1983:Drivers/STM32H7xx_HAL_Driver/Src/stm32h7xx_ll_usb.c ****   if ((hc->ep_is_in == 0U) && (hc->xfer_len > 0U) && (hc->do_csplit == 0U))
1984:Drivers/STM32H7xx_HAL_Driver/Src/stm32h7xx_ll_usb.c ****   {
1985:Drivers/STM32H7xx_HAL_Driver/Src/stm32h7xx_ll_usb.c ****     switch (hc->ep_type)
1986:Drivers/STM32H7xx_HAL_Driver/Src/stm32h7xx_ll_usb.c ****     {
1987:Drivers/STM32H7xx_HAL_Driver/Src/stm32h7xx_ll_usb.c ****       /* Non periodic transfer */
1988:Drivers/STM32H7xx_HAL_Driver/Src/stm32h7xx_ll_usb.c ****       case EP_TYPE_CTRL:
1989:Drivers/STM32H7xx_HAL_Driver/Src/stm32h7xx_ll_usb.c ****       case EP_TYPE_BULK:
1990:Drivers/STM32H7xx_HAL_Driver/Src/stm32h7xx_ll_usb.c **** 
1991:Drivers/STM32H7xx_HAL_Driver/Src/stm32h7xx_ll_usb.c ****         len_words = (uint16_t)((hc->xfer_len + 3U) / 4U);
1992:Drivers/STM32H7xx_HAL_Driver/Src/stm32h7xx_ll_usb.c **** 
1993:Drivers/STM32H7xx_HAL_Driver/Src/stm32h7xx_ll_usb.c ****         /* check if there is enough space in FIFO space */
1994:Drivers/STM32H7xx_HAL_Driver/Src/stm32h7xx_ll_usb.c ****         if (len_words > (USBx->HNPTXSTS & 0xFFFFU))
1995:Drivers/STM32H7xx_HAL_Driver/Src/stm32h7xx_ll_usb.c ****         {
1996:Drivers/STM32H7xx_HAL_Driver/Src/stm32h7xx_ll_usb.c ****           /* need to process data in nptxfempty interrupt */
1997:Drivers/STM32H7xx_HAL_Driver/Src/stm32h7xx_ll_usb.c ****           USBx->GINTMSK |= USB_OTG_GINTMSK_NPTXFEM;
1998:Drivers/STM32H7xx_HAL_Driver/Src/stm32h7xx_ll_usb.c ****         }
1999:Drivers/STM32H7xx_HAL_Driver/Src/stm32h7xx_ll_usb.c ****         break;
2000:Drivers/STM32H7xx_HAL_Driver/Src/stm32h7xx_ll_usb.c **** 
2001:Drivers/STM32H7xx_HAL_Driver/Src/stm32h7xx_ll_usb.c ****       /* Periodic transfer */
2002:Drivers/STM32H7xx_HAL_Driver/Src/stm32h7xx_ll_usb.c ****       case EP_TYPE_INTR:
2003:Drivers/STM32H7xx_HAL_Driver/Src/stm32h7xx_ll_usb.c ****       case EP_TYPE_ISOC:
2004:Drivers/STM32H7xx_HAL_Driver/Src/stm32h7xx_ll_usb.c ****         len_words = (uint16_t)((hc->xfer_len + 3U) / 4U);
2005:Drivers/STM32H7xx_HAL_Driver/Src/stm32h7xx_ll_usb.c ****         /* check if there is enough space in FIFO space */
2006:Drivers/STM32H7xx_HAL_Driver/Src/stm32h7xx_ll_usb.c ****         if (len_words > (USBx_HOST->HPTXSTS & 0xFFFFU)) /* split the transfer */
2007:Drivers/STM32H7xx_HAL_Driver/Src/stm32h7xx_ll_usb.c ****         {
2008:Drivers/STM32H7xx_HAL_Driver/Src/stm32h7xx_ll_usb.c ****           /* need to process data in ptxfempty interrupt */
2009:Drivers/STM32H7xx_HAL_Driver/Src/stm32h7xx_ll_usb.c ****           USBx->GINTMSK |= USB_OTG_GINTMSK_PTXFEM;
2010:Drivers/STM32H7xx_HAL_Driver/Src/stm32h7xx_ll_usb.c ****         }
2011:Drivers/STM32H7xx_HAL_Driver/Src/stm32h7xx_ll_usb.c ****         break;
2012:Drivers/STM32H7xx_HAL_Driver/Src/stm32h7xx_ll_usb.c **** 
2013:Drivers/STM32H7xx_HAL_Driver/Src/stm32h7xx_ll_usb.c ****       default:
2014:Drivers/STM32H7xx_HAL_Driver/Src/stm32h7xx_ll_usb.c ****         break;
2015:Drivers/STM32H7xx_HAL_Driver/Src/stm32h7xx_ll_usb.c ****     }
2016:Drivers/STM32H7xx_HAL_Driver/Src/stm32h7xx_ll_usb.c **** 
2017:Drivers/STM32H7xx_HAL_Driver/Src/stm32h7xx_ll_usb.c ****     /* Write packet into the Tx FIFO. */
2018:Drivers/STM32H7xx_HAL_Driver/Src/stm32h7xx_ll_usb.c ****     (void)USB_WritePacket(USBx, hc->xfer_buff, hc->ch_num, (uint16_t)hc->xfer_len, 0);
2019:Drivers/STM32H7xx_HAL_Driver/Src/stm32h7xx_ll_usb.c ****   }
2020:Drivers/STM32H7xx_HAL_Driver/Src/stm32h7xx_ll_usb.c **** 
2021:Drivers/STM32H7xx_HAL_Driver/Src/stm32h7xx_ll_usb.c ****   return HAL_OK;
2022:Drivers/STM32H7xx_HAL_Driver/Src/stm32h7xx_ll_usb.c **** }
2023:Drivers/STM32H7xx_HAL_Driver/Src/stm32h7xx_ll_usb.c **** 
2024:Drivers/STM32H7xx_HAL_Driver/Src/stm32h7xx_ll_usb.c **** /**
2025:Drivers/STM32H7xx_HAL_Driver/Src/stm32h7xx_ll_usb.c ****   * @brief Read all host channel interrupts status
2026:Drivers/STM32H7xx_HAL_Driver/Src/stm32h7xx_ll_usb.c ****   * @param  USBx  Selected device
2027:Drivers/STM32H7xx_HAL_Driver/Src/stm32h7xx_ll_usb.c ****   * @retval HAL state
2028:Drivers/STM32H7xx_HAL_Driver/Src/stm32h7xx_ll_usb.c ****   */
2029:Drivers/STM32H7xx_HAL_Driver/Src/stm32h7xx_ll_usb.c **** uint32_t USB_HC_ReadInterrupt(const USB_OTG_GlobalTypeDef *USBx)
2030:Drivers/STM32H7xx_HAL_Driver/Src/stm32h7xx_ll_usb.c **** {
 4256              		.loc 1 2030 1 is_stmt 1 view -0
ARM GAS  C:\Users\Nathan\AppData\Local\Temp\cc7cwqzo.s 			page 131


 4257              		.cfi_startproc
 4258              		@ args = 0, pretend = 0, frame = 0
 4259              		@ frame_needed = 0, uses_anonymous_args = 0
 4260              		@ link register save eliminated.
2031:Drivers/STM32H7xx_HAL_Driver/Src/stm32h7xx_ll_usb.c ****   uint32_t USBx_BASE = (uint32_t)USBx;
 4261              		.loc 1 2031 3 view .LVU1444
2032:Drivers/STM32H7xx_HAL_Driver/Src/stm32h7xx_ll_usb.c **** 
2033:Drivers/STM32H7xx_HAL_Driver/Src/stm32h7xx_ll_usb.c ****   return ((USBx_HOST->HAINT) & 0xFFFFU);
 4262              		.loc 1 2033 3 view .LVU1445
 4263              		.loc 1 2033 12 is_stmt 0 view .LVU1446
 4264 0000 00F58060 		add	r0, r0, #1024
 4265              	.LVL319:
 4266              		.loc 1 2033 21 view .LVU1447
 4267 0004 4069     		ldr	r0, [r0, #20]
 4268              	.LVL320:
2034:Drivers/STM32H7xx_HAL_Driver/Src/stm32h7xx_ll_usb.c **** }
 4269              		.loc 1 2034 1 view .LVU1448
 4270 0006 80B2     		uxth	r0, r0
 4271 0008 7047     		bx	lr
 4272              		.cfi_endproc
 4273              	.LFE187:
 4275              		.section	.text.USB_HC_Halt,"ax",%progbits
 4276              		.align	1
 4277              		.global	USB_HC_Halt
 4278              		.syntax unified
 4279              		.thumb
 4280              		.thumb_func
 4282              	USB_HC_Halt:
 4283              	.LVL321:
 4284              	.LFB188:
2035:Drivers/STM32H7xx_HAL_Driver/Src/stm32h7xx_ll_usb.c **** 
2036:Drivers/STM32H7xx_HAL_Driver/Src/stm32h7xx_ll_usb.c **** /**
2037:Drivers/STM32H7xx_HAL_Driver/Src/stm32h7xx_ll_usb.c ****   * @brief  Halt a host channel
2038:Drivers/STM32H7xx_HAL_Driver/Src/stm32h7xx_ll_usb.c ****   * @param  USBx  Selected device
2039:Drivers/STM32H7xx_HAL_Driver/Src/stm32h7xx_ll_usb.c ****   * @param  hc_num  Host Channel number
2040:Drivers/STM32H7xx_HAL_Driver/Src/stm32h7xx_ll_usb.c ****   *         This parameter can be a value from 1 to 15
2041:Drivers/STM32H7xx_HAL_Driver/Src/stm32h7xx_ll_usb.c ****   * @retval HAL state
2042:Drivers/STM32H7xx_HAL_Driver/Src/stm32h7xx_ll_usb.c ****   */
2043:Drivers/STM32H7xx_HAL_Driver/Src/stm32h7xx_ll_usb.c **** HAL_StatusTypeDef USB_HC_Halt(const USB_OTG_GlobalTypeDef *USBx, uint8_t hc_num)
2044:Drivers/STM32H7xx_HAL_Driver/Src/stm32h7xx_ll_usb.c **** {
 4285              		.loc 1 2044 1 is_stmt 1 view -0
 4286              		.cfi_startproc
 4287              		@ args = 0, pretend = 0, frame = 8
 4288              		@ frame_needed = 0, uses_anonymous_args = 0
 4289              		@ link register save eliminated.
 4290              		.loc 1 2044 1 is_stmt 0 view .LVU1450
 4291 0000 70B4     		push	{r4, r5, r6}
 4292              		.cfi_def_cfa_offset 12
 4293              		.cfi_offset 4, -12
 4294              		.cfi_offset 5, -8
 4295              		.cfi_offset 6, -4
 4296 0002 83B0     		sub	sp, sp, #12
 4297              		.cfi_def_cfa_offset 24
2045:Drivers/STM32H7xx_HAL_Driver/Src/stm32h7xx_ll_usb.c ****   uint32_t USBx_BASE = (uint32_t)USBx;
 4298              		.loc 1 2045 3 is_stmt 1 view .LVU1451
 4299              	.LVL322:
2046:Drivers/STM32H7xx_HAL_Driver/Src/stm32h7xx_ll_usb.c ****   uint32_t hcnum = (uint32_t)hc_num;
ARM GAS  C:\Users\Nathan\AppData\Local\Temp\cc7cwqzo.s 			page 132


 4300              		.loc 1 2046 3 view .LVU1452
2047:Drivers/STM32H7xx_HAL_Driver/Src/stm32h7xx_ll_usb.c ****   __IO uint32_t count = 0U;
 4301              		.loc 1 2047 3 view .LVU1453
 4302              		.loc 1 2047 17 is_stmt 0 view .LVU1454
 4303 0004 0023     		movs	r3, #0
 4304 0006 0193     		str	r3, [sp, #4]
2048:Drivers/STM32H7xx_HAL_Driver/Src/stm32h7xx_ll_usb.c ****   uint32_t HcEpType = (USBx_HC(hcnum)->HCCHAR & USB_OTG_HCCHAR_EPTYP) >> 18;
 4305              		.loc 1 2048 3 is_stmt 1 view .LVU1455
 4306              		.loc 1 2048 24 is_stmt 0 view .LVU1456
 4307 0008 00EB4111 		add	r1, r0, r1, lsl #5
 4308              	.LVL323:
 4309              		.loc 1 2048 24 view .LVU1457
 4310 000c 01F5A062 		add	r2, r1, #1280
 4311              		.loc 1 2048 38 view .LVU1458
 4312 0010 D1F80035 		ldr	r3, [r1, #1280]
 4313              		.loc 1 2048 12 view .LVU1459
 4314 0014 C3F38143 		ubfx	r3, r3, #18, #2
 4315              	.LVL324:
2049:Drivers/STM32H7xx_HAL_Driver/Src/stm32h7xx_ll_usb.c ****   uint32_t ChannelEna = (USBx_HC(hcnum)->HCCHAR & USB_OTG_HCCHAR_CHENA) >> 31;
 4316              		.loc 1 2049 3 is_stmt 1 view .LVU1460
 4317              		.loc 1 2049 40 is_stmt 0 view .LVU1461
 4318 0018 D1F80055 		ldr	r5, [r1, #1280]
 4319              	.LVL325:
2050:Drivers/STM32H7xx_HAL_Driver/Src/stm32h7xx_ll_usb.c ****   uint32_t SplitEna = (USBx_HC(hcnum)->HCSPLT & USB_OTG_HCSPLT_SPLITEN) >> 31;
 4320              		.loc 1 2050 3 is_stmt 1 view .LVU1462
 4321              		.loc 1 2050 38 is_stmt 0 view .LVU1463
 4322 001c 5468     		ldr	r4, [r2, #4]
 4323              	.LVL326:
2051:Drivers/STM32H7xx_HAL_Driver/Src/stm32h7xx_ll_usb.c **** 
2052:Drivers/STM32H7xx_HAL_Driver/Src/stm32h7xx_ll_usb.c ****   /* In buffer DMA, Channel disable must not be programmed for non-split periodic channels.
2053:Drivers/STM32H7xx_HAL_Driver/Src/stm32h7xx_ll_usb.c ****      At the end of the next uframe/frame (in the worst case), the core generates a channel halted
2054:Drivers/STM32H7xx_HAL_Driver/Src/stm32h7xx_ll_usb.c ****      and disables the channel automatically. */
2055:Drivers/STM32H7xx_HAL_Driver/Src/stm32h7xx_ll_usb.c **** 
2056:Drivers/STM32H7xx_HAL_Driver/Src/stm32h7xx_ll_usb.c ****   if ((((USBx->GAHBCFG & USB_OTG_GAHBCFG_DMAEN) == USB_OTG_GAHBCFG_DMAEN) && (SplitEna == 0U)) &&
 4324              		.loc 1 2056 3 is_stmt 1 view .LVU1464
 4325              		.loc 1 2056 14 is_stmt 0 view .LVU1465
 4326 001e 8668     		ldr	r6, [r0, #8]
 4327              		.loc 1 2056 6 view .LVU1466
 4328 0020 16F0200F 		tst	r6, #32
 4329 0024 07D0     		beq	.L275
 4330 0026 ED0F     		lsrs	r5, r5, #31
 4331              	.LVL327:
 4332              		.loc 1 2056 6 view .LVU1467
 4333 0028 E40F     		lsrs	r4, r4, #31
 4334              	.LVL328:
 4335              		.loc 1 2056 75 discriminator 1 view .LVU1468
 4336 002a 24B9     		cbnz	r4, .L275
 4337              		.loc 1 2056 96 discriminator 2 view .LVU1469
 4338 002c CDB3     		cbz	r5, .L276
2057:Drivers/STM32H7xx_HAL_Driver/Src/stm32h7xx_ll_usb.c ****       ((ChannelEna == 0U) || (((HcEpType == HCCHAR_ISOC) || (HcEpType == HCCHAR_INTR)))))
 4339              		.loc 1 2057 27 view .LVU1470
 4340 002e 032B     		cmp	r3, #3
 4341 0030 18BF     		it	ne
 4342 0032 012B     		cmpne	r3, #1
 4343 0034 35D0     		beq	.L276
 4344              	.LVL329:
 4345              	.L275:
ARM GAS  C:\Users\Nathan\AppData\Local\Temp\cc7cwqzo.s 			page 133


2058:Drivers/STM32H7xx_HAL_Driver/Src/stm32h7xx_ll_usb.c ****   {
2059:Drivers/STM32H7xx_HAL_Driver/Src/stm32h7xx_ll_usb.c ****     return HAL_OK;
2060:Drivers/STM32H7xx_HAL_Driver/Src/stm32h7xx_ll_usb.c ****   }
2061:Drivers/STM32H7xx_HAL_Driver/Src/stm32h7xx_ll_usb.c **** 
2062:Drivers/STM32H7xx_HAL_Driver/Src/stm32h7xx_ll_usb.c ****   /* Check for space in the request queue to issue the halt. */
2063:Drivers/STM32H7xx_HAL_Driver/Src/stm32h7xx_ll_usb.c ****   if ((HcEpType == HCCHAR_CTRL) || (HcEpType == HCCHAR_BULK))
 4346              		.loc 1 2063 3 is_stmt 1 view .LVU1471
 4347              		.loc 1 2063 6 is_stmt 0 view .LVU1472
 4348 0036 022B     		cmp	r3, #2
 4349 0038 18BF     		it	ne
 4350 003a 002B     		cmpne	r3, #0
 4351 003c 35D1     		bne	.L277
2064:Drivers/STM32H7xx_HAL_Driver/Src/stm32h7xx_ll_usb.c ****   {
2065:Drivers/STM32H7xx_HAL_Driver/Src/stm32h7xx_ll_usb.c ****     USBx_HC(hcnum)->HCCHAR |= USB_OTG_HCCHAR_CHDIS;
 4352              		.loc 1 2065 5 is_stmt 1 view .LVU1473
 4353              		.loc 1 2065 19 is_stmt 0 view .LVU1474
 4354 003e D1F80035 		ldr	r3, [r1, #1280]
 4355              	.LVL330:
 4356              		.loc 1 2065 28 view .LVU1475
 4357 0042 43F08043 		orr	r3, r3, #1073741824
 4358 0046 C1F80035 		str	r3, [r1, #1280]
2066:Drivers/STM32H7xx_HAL_Driver/Src/stm32h7xx_ll_usb.c **** 
2067:Drivers/STM32H7xx_HAL_Driver/Src/stm32h7xx_ll_usb.c ****     if ((USBx->GAHBCFG & USB_OTG_GAHBCFG_DMAEN) == 0U)
 4359              		.loc 1 2067 5 is_stmt 1 view .LVU1476
 4360              		.loc 1 2067 14 is_stmt 0 view .LVU1477
 4361 004a 8368     		ldr	r3, [r0, #8]
 4362              		.loc 1 2067 8 view .LVU1478
 4363 004c 13F0200F 		tst	r3, #32
 4364 0050 21D1     		bne	.L278
2068:Drivers/STM32H7xx_HAL_Driver/Src/stm32h7xx_ll_usb.c ****     {
2069:Drivers/STM32H7xx_HAL_Driver/Src/stm32h7xx_ll_usb.c ****       if ((USBx->HNPTXSTS & (0xFFU << 16)) == 0U)
 4365              		.loc 1 2069 7 is_stmt 1 view .LVU1479
 4366              		.loc 1 2069 16 is_stmt 0 view .LVU1480
 4367 0052 C36A     		ldr	r3, [r0, #44]
 4368              		.loc 1 2069 10 view .LVU1481
 4369 0054 13F47F0F 		tst	r3, #16711680
 4370 0058 16D1     		bne	.L279
2070:Drivers/STM32H7xx_HAL_Driver/Src/stm32h7xx_ll_usb.c ****       {
2071:Drivers/STM32H7xx_HAL_Driver/Src/stm32h7xx_ll_usb.c ****         USBx_HC(hcnum)->HCCHAR &= ~USB_OTG_HCCHAR_CHENA;
 4371              		.loc 1 2071 9 is_stmt 1 view .LVU1482
 4372              		.loc 1 2071 23 is_stmt 0 view .LVU1483
 4373 005a D1F80035 		ldr	r3, [r1, #1280]
 4374              		.loc 1 2071 32 view .LVU1484
 4375 005e 23F00043 		bic	r3, r3, #-2147483648
 4376 0062 C1F80035 		str	r3, [r1, #1280]
2072:Drivers/STM32H7xx_HAL_Driver/Src/stm32h7xx_ll_usb.c ****         USBx_HC(hcnum)->HCCHAR |= USB_OTG_HCCHAR_CHENA;
 4377              		.loc 1 2072 9 is_stmt 1 view .LVU1485
 4378              		.loc 1 2072 23 is_stmt 0 view .LVU1486
 4379 0066 D1F80035 		ldr	r3, [r1, #1280]
 4380              		.loc 1 2072 32 view .LVU1487
 4381 006a 43F00043 		orr	r3, r3, #-2147483648
 4382 006e C1F80035 		str	r3, [r1, #1280]
 4383              	.L280:
2073:Drivers/STM32H7xx_HAL_Driver/Src/stm32h7xx_ll_usb.c ****         do
 4384              		.loc 1 2073 9 is_stmt 1 view .LVU1488
2074:Drivers/STM32H7xx_HAL_Driver/Src/stm32h7xx_ll_usb.c ****         {
2075:Drivers/STM32H7xx_HAL_Driver/Src/stm32h7xx_ll_usb.c ****           count++;
ARM GAS  C:\Users\Nathan\AppData\Local\Temp\cc7cwqzo.s 			page 134


 4385              		.loc 1 2075 11 view .LVU1489
 4386              		.loc 1 2075 16 is_stmt 0 view .LVU1490
 4387 0072 019B     		ldr	r3, [sp, #4]
 4388 0074 0133     		adds	r3, r3, #1
 4389 0076 0193     		str	r3, [sp, #4]
2076:Drivers/STM32H7xx_HAL_Driver/Src/stm32h7xx_ll_usb.c **** 
2077:Drivers/STM32H7xx_HAL_Driver/Src/stm32h7xx_ll_usb.c ****           if (count > 1000U)
 4390              		.loc 1 2077 11 is_stmt 1 view .LVU1491
 4391              		.loc 1 2077 21 is_stmt 0 view .LVU1492
 4392 0078 019B     		ldr	r3, [sp, #4]
 4393              		.loc 1 2077 14 view .LVU1493
 4394 007a B3F57A7F 		cmp	r3, #1000
 4395 007e 10D8     		bhi	.L276
2078:Drivers/STM32H7xx_HAL_Driver/Src/stm32h7xx_ll_usb.c ****           {
2079:Drivers/STM32H7xx_HAL_Driver/Src/stm32h7xx_ll_usb.c ****             break;
2080:Drivers/STM32H7xx_HAL_Driver/Src/stm32h7xx_ll_usb.c ****           }
2081:Drivers/STM32H7xx_HAL_Driver/Src/stm32h7xx_ll_usb.c ****         } while ((USBx_HC(hcnum)->HCCHAR & USB_OTG_HCCHAR_CHENA) == USB_OTG_HCCHAR_CHENA);
 4396              		.loc 1 2081 66 is_stmt 1 view .LVU1494
 4397              		.loc 1 2081 33 is_stmt 0 view .LVU1495
 4398 0080 1368     		ldr	r3, [r2]
 4399              		.loc 1 2081 66 view .LVU1496
 4400 0082 002B     		cmp	r3, #0
 4401 0084 F5DB     		blt	.L280
 4402 0086 0CE0     		b	.L276
 4403              	.L279:
2082:Drivers/STM32H7xx_HAL_Driver/Src/stm32h7xx_ll_usb.c ****       }
2083:Drivers/STM32H7xx_HAL_Driver/Src/stm32h7xx_ll_usb.c ****       else
2084:Drivers/STM32H7xx_HAL_Driver/Src/stm32h7xx_ll_usb.c ****       {
2085:Drivers/STM32H7xx_HAL_Driver/Src/stm32h7xx_ll_usb.c ****         USBx_HC(hcnum)->HCCHAR |= USB_OTG_HCCHAR_CHENA;
 4404              		.loc 1 2085 9 is_stmt 1 view .LVU1497
 4405              		.loc 1 2085 23 is_stmt 0 view .LVU1498
 4406 0088 D1F80035 		ldr	r3, [r1, #1280]
 4407              		.loc 1 2085 32 view .LVU1499
 4408 008c 43F00043 		orr	r3, r3, #-2147483648
 4409 0090 C1F80035 		str	r3, [r1, #1280]
 4410 0094 05E0     		b	.L276
 4411              	.L278:
2086:Drivers/STM32H7xx_HAL_Driver/Src/stm32h7xx_ll_usb.c ****       }
2087:Drivers/STM32H7xx_HAL_Driver/Src/stm32h7xx_ll_usb.c ****     }
2088:Drivers/STM32H7xx_HAL_Driver/Src/stm32h7xx_ll_usb.c ****     else
2089:Drivers/STM32H7xx_HAL_Driver/Src/stm32h7xx_ll_usb.c ****     {
2090:Drivers/STM32H7xx_HAL_Driver/Src/stm32h7xx_ll_usb.c ****       USBx_HC(hcnum)->HCCHAR |= USB_OTG_HCCHAR_CHENA;
 4412              		.loc 1 2090 7 is_stmt 1 view .LVU1500
 4413              		.loc 1 2090 21 is_stmt 0 view .LVU1501
 4414 0096 D1F80035 		ldr	r3, [r1, #1280]
 4415              		.loc 1 2090 30 view .LVU1502
 4416 009a 43F00043 		orr	r3, r3, #-2147483648
 4417 009e C1F80035 		str	r3, [r1, #1280]
 4418              	.L276:
2091:Drivers/STM32H7xx_HAL_Driver/Src/stm32h7xx_ll_usb.c ****     }
2092:Drivers/STM32H7xx_HAL_Driver/Src/stm32h7xx_ll_usb.c ****   }
2093:Drivers/STM32H7xx_HAL_Driver/Src/stm32h7xx_ll_usb.c ****   else
2094:Drivers/STM32H7xx_HAL_Driver/Src/stm32h7xx_ll_usb.c ****   {
2095:Drivers/STM32H7xx_HAL_Driver/Src/stm32h7xx_ll_usb.c ****     USBx_HC(hcnum)->HCCHAR |= USB_OTG_HCCHAR_CHDIS;
2096:Drivers/STM32H7xx_HAL_Driver/Src/stm32h7xx_ll_usb.c **** 
2097:Drivers/STM32H7xx_HAL_Driver/Src/stm32h7xx_ll_usb.c ****     if ((USBx_HOST->HPTXSTS & (0xFFU << 16)) == 0U)
2098:Drivers/STM32H7xx_HAL_Driver/Src/stm32h7xx_ll_usb.c ****     {
ARM GAS  C:\Users\Nathan\AppData\Local\Temp\cc7cwqzo.s 			page 135


2099:Drivers/STM32H7xx_HAL_Driver/Src/stm32h7xx_ll_usb.c ****       USBx_HC(hcnum)->HCCHAR &= ~USB_OTG_HCCHAR_CHENA;
2100:Drivers/STM32H7xx_HAL_Driver/Src/stm32h7xx_ll_usb.c ****       USBx_HC(hcnum)->HCCHAR |= USB_OTG_HCCHAR_CHENA;
2101:Drivers/STM32H7xx_HAL_Driver/Src/stm32h7xx_ll_usb.c ****       do
2102:Drivers/STM32H7xx_HAL_Driver/Src/stm32h7xx_ll_usb.c ****       {
2103:Drivers/STM32H7xx_HAL_Driver/Src/stm32h7xx_ll_usb.c ****         count++;
2104:Drivers/STM32H7xx_HAL_Driver/Src/stm32h7xx_ll_usb.c **** 
2105:Drivers/STM32H7xx_HAL_Driver/Src/stm32h7xx_ll_usb.c ****         if (count > 1000U)
2106:Drivers/STM32H7xx_HAL_Driver/Src/stm32h7xx_ll_usb.c ****         {
2107:Drivers/STM32H7xx_HAL_Driver/Src/stm32h7xx_ll_usb.c ****           break;
2108:Drivers/STM32H7xx_HAL_Driver/Src/stm32h7xx_ll_usb.c ****         }
2109:Drivers/STM32H7xx_HAL_Driver/Src/stm32h7xx_ll_usb.c ****       } while ((USBx_HC(hcnum)->HCCHAR & USB_OTG_HCCHAR_CHENA) == USB_OTG_HCCHAR_CHENA);
2110:Drivers/STM32H7xx_HAL_Driver/Src/stm32h7xx_ll_usb.c ****     }
2111:Drivers/STM32H7xx_HAL_Driver/Src/stm32h7xx_ll_usb.c ****     else
2112:Drivers/STM32H7xx_HAL_Driver/Src/stm32h7xx_ll_usb.c ****     {
2113:Drivers/STM32H7xx_HAL_Driver/Src/stm32h7xx_ll_usb.c ****       USBx_HC(hcnum)->HCCHAR |= USB_OTG_HCCHAR_CHENA;
2114:Drivers/STM32H7xx_HAL_Driver/Src/stm32h7xx_ll_usb.c ****     }
2115:Drivers/STM32H7xx_HAL_Driver/Src/stm32h7xx_ll_usb.c ****   }
2116:Drivers/STM32H7xx_HAL_Driver/Src/stm32h7xx_ll_usb.c **** 
2117:Drivers/STM32H7xx_HAL_Driver/Src/stm32h7xx_ll_usb.c ****   return HAL_OK;
2118:Drivers/STM32H7xx_HAL_Driver/Src/stm32h7xx_ll_usb.c **** }
 4419              		.loc 1 2118 1 view .LVU1503
 4420 00a2 0020     		movs	r0, #0
 4421              	.LVL331:
 4422              		.loc 1 2118 1 view .LVU1504
 4423 00a4 03B0     		add	sp, sp, #12
 4424              		.cfi_remember_state
 4425              		.cfi_def_cfa_offset 12
 4426              		@ sp needed
 4427 00a6 70BC     		pop	{r4, r5, r6}
 4428              		.cfi_restore 6
 4429              		.cfi_restore 5
 4430              		.cfi_restore 4
 4431              		.cfi_def_cfa_offset 0
 4432 00a8 7047     		bx	lr
 4433              	.LVL332:
 4434              	.L277:
 4435              		.cfi_restore_state
2095:Drivers/STM32H7xx_HAL_Driver/Src/stm32h7xx_ll_usb.c **** 
 4436              		.loc 1 2095 5 is_stmt 1 view .LVU1505
2095:Drivers/STM32H7xx_HAL_Driver/Src/stm32h7xx_ll_usb.c **** 
 4437              		.loc 1 2095 19 is_stmt 0 view .LVU1506
 4438 00aa D1F80035 		ldr	r3, [r1, #1280]
 4439              	.LVL333:
2095:Drivers/STM32H7xx_HAL_Driver/Src/stm32h7xx_ll_usb.c **** 
 4440              		.loc 1 2095 28 view .LVU1507
 4441 00ae 43F08043 		orr	r3, r3, #1073741824
 4442 00b2 C1F80035 		str	r3, [r1, #1280]
2097:Drivers/STM32H7xx_HAL_Driver/Src/stm32h7xx_ll_usb.c ****     {
 4443              		.loc 1 2097 5 is_stmt 1 view .LVU1508
2097:Drivers/STM32H7xx_HAL_Driver/Src/stm32h7xx_ll_usb.c ****     {
 4444              		.loc 1 2097 19 is_stmt 0 view .LVU1509
 4445 00b6 D0F81034 		ldr	r3, [r0, #1040]
2097:Drivers/STM32H7xx_HAL_Driver/Src/stm32h7xx_ll_usb.c ****     {
 4446              		.loc 1 2097 8 view .LVU1510
 4447 00ba 13F47F0F 		tst	r3, #16711680
 4448 00be 16D1     		bne	.L281
2099:Drivers/STM32H7xx_HAL_Driver/Src/stm32h7xx_ll_usb.c ****       USBx_HC(hcnum)->HCCHAR |= USB_OTG_HCCHAR_CHENA;
ARM GAS  C:\Users\Nathan\AppData\Local\Temp\cc7cwqzo.s 			page 136


 4449              		.loc 1 2099 7 is_stmt 1 view .LVU1511
2099:Drivers/STM32H7xx_HAL_Driver/Src/stm32h7xx_ll_usb.c ****       USBx_HC(hcnum)->HCCHAR |= USB_OTG_HCCHAR_CHENA;
 4450              		.loc 1 2099 21 is_stmt 0 view .LVU1512
 4451 00c0 D1F80035 		ldr	r3, [r1, #1280]
2099:Drivers/STM32H7xx_HAL_Driver/Src/stm32h7xx_ll_usb.c ****       USBx_HC(hcnum)->HCCHAR |= USB_OTG_HCCHAR_CHENA;
 4452              		.loc 1 2099 30 view .LVU1513
 4453 00c4 23F00043 		bic	r3, r3, #-2147483648
 4454 00c8 C1F80035 		str	r3, [r1, #1280]
2100:Drivers/STM32H7xx_HAL_Driver/Src/stm32h7xx_ll_usb.c ****       do
 4455              		.loc 1 2100 7 is_stmt 1 view .LVU1514
2100:Drivers/STM32H7xx_HAL_Driver/Src/stm32h7xx_ll_usb.c ****       do
 4456              		.loc 1 2100 21 is_stmt 0 view .LVU1515
 4457 00cc D1F80035 		ldr	r3, [r1, #1280]
2100:Drivers/STM32H7xx_HAL_Driver/Src/stm32h7xx_ll_usb.c ****       do
 4458              		.loc 1 2100 30 view .LVU1516
 4459 00d0 43F00043 		orr	r3, r3, #-2147483648
 4460 00d4 C1F80035 		str	r3, [r1, #1280]
 4461              	.L282:
2101:Drivers/STM32H7xx_HAL_Driver/Src/stm32h7xx_ll_usb.c ****       {
 4462              		.loc 1 2101 7 is_stmt 1 view .LVU1517
2103:Drivers/STM32H7xx_HAL_Driver/Src/stm32h7xx_ll_usb.c **** 
 4463              		.loc 1 2103 9 view .LVU1518
2103:Drivers/STM32H7xx_HAL_Driver/Src/stm32h7xx_ll_usb.c **** 
 4464              		.loc 1 2103 14 is_stmt 0 view .LVU1519
 4465 00d8 019B     		ldr	r3, [sp, #4]
 4466 00da 0133     		adds	r3, r3, #1
 4467 00dc 0193     		str	r3, [sp, #4]
2105:Drivers/STM32H7xx_HAL_Driver/Src/stm32h7xx_ll_usb.c ****         {
 4468              		.loc 1 2105 9 is_stmt 1 view .LVU1520
2105:Drivers/STM32H7xx_HAL_Driver/Src/stm32h7xx_ll_usb.c ****         {
 4469              		.loc 1 2105 19 is_stmt 0 view .LVU1521
 4470 00de 019B     		ldr	r3, [sp, #4]
2105:Drivers/STM32H7xx_HAL_Driver/Src/stm32h7xx_ll_usb.c ****         {
 4471              		.loc 1 2105 12 view .LVU1522
 4472 00e0 B3F57A7F 		cmp	r3, #1000
 4473 00e4 DDD8     		bhi	.L276
2109:Drivers/STM32H7xx_HAL_Driver/Src/stm32h7xx_ll_usb.c ****     }
 4474              		.loc 1 2109 64 is_stmt 1 view .LVU1523
2109:Drivers/STM32H7xx_HAL_Driver/Src/stm32h7xx_ll_usb.c ****     }
 4475              		.loc 1 2109 31 is_stmt 0 view .LVU1524
 4476 00e6 1368     		ldr	r3, [r2]
2109:Drivers/STM32H7xx_HAL_Driver/Src/stm32h7xx_ll_usb.c ****     }
 4477              		.loc 1 2109 64 view .LVU1525
 4478 00e8 002B     		cmp	r3, #0
 4479 00ea F5DB     		blt	.L282
 4480 00ec D9E7     		b	.L276
 4481              	.L281:
2113:Drivers/STM32H7xx_HAL_Driver/Src/stm32h7xx_ll_usb.c ****     }
 4482              		.loc 1 2113 7 is_stmt 1 view .LVU1526
2113:Drivers/STM32H7xx_HAL_Driver/Src/stm32h7xx_ll_usb.c ****     }
 4483              		.loc 1 2113 21 is_stmt 0 view .LVU1527
 4484 00ee D1F80035 		ldr	r3, [r1, #1280]
2113:Drivers/STM32H7xx_HAL_Driver/Src/stm32h7xx_ll_usb.c ****     }
 4485              		.loc 1 2113 30 view .LVU1528
 4486 00f2 43F00043 		orr	r3, r3, #-2147483648
 4487 00f6 C1F80035 		str	r3, [r1, #1280]
 4488 00fa D2E7     		b	.L276
ARM GAS  C:\Users\Nathan\AppData\Local\Temp\cc7cwqzo.s 			page 137


 4489              		.cfi_endproc
 4490              	.LFE188:
 4492              		.section	.text.USB_DoPing,"ax",%progbits
 4493              		.align	1
 4494              		.global	USB_DoPing
 4495              		.syntax unified
 4496              		.thumb
 4497              		.thumb_func
 4499              	USB_DoPing:
 4500              	.LVL334:
 4501              	.LFB189:
2119:Drivers/STM32H7xx_HAL_Driver/Src/stm32h7xx_ll_usb.c **** 
2120:Drivers/STM32H7xx_HAL_Driver/Src/stm32h7xx_ll_usb.c **** /**
2121:Drivers/STM32H7xx_HAL_Driver/Src/stm32h7xx_ll_usb.c ****   * @brief  Initiate Do Ping protocol
2122:Drivers/STM32H7xx_HAL_Driver/Src/stm32h7xx_ll_usb.c ****   * @param  USBx  Selected device
2123:Drivers/STM32H7xx_HAL_Driver/Src/stm32h7xx_ll_usb.c ****   * @param  hc_num  Host Channel number
2124:Drivers/STM32H7xx_HAL_Driver/Src/stm32h7xx_ll_usb.c ****   *         This parameter can be a value from 1 to 15
2125:Drivers/STM32H7xx_HAL_Driver/Src/stm32h7xx_ll_usb.c ****   * @retval HAL state
2126:Drivers/STM32H7xx_HAL_Driver/Src/stm32h7xx_ll_usb.c ****   */
2127:Drivers/STM32H7xx_HAL_Driver/Src/stm32h7xx_ll_usb.c **** HAL_StatusTypeDef USB_DoPing(const USB_OTG_GlobalTypeDef *USBx, uint8_t ch_num)
2128:Drivers/STM32H7xx_HAL_Driver/Src/stm32h7xx_ll_usb.c **** {
 4502              		.loc 1 2128 1 is_stmt 1 view -0
 4503              		.cfi_startproc
 4504              		@ args = 0, pretend = 0, frame = 0
 4505              		@ frame_needed = 0, uses_anonymous_args = 0
 4506              		@ link register save eliminated.
2129:Drivers/STM32H7xx_HAL_Driver/Src/stm32h7xx_ll_usb.c ****   uint32_t USBx_BASE = (uint32_t)USBx;
 4507              		.loc 1 2129 3 view .LVU1530
2130:Drivers/STM32H7xx_HAL_Driver/Src/stm32h7xx_ll_usb.c ****   uint32_t chnum = (uint32_t)ch_num;
 4508              		.loc 1 2130 3 view .LVU1531
2131:Drivers/STM32H7xx_HAL_Driver/Src/stm32h7xx_ll_usb.c ****   uint32_t num_packets = 1U;
 4509              		.loc 1 2131 3 view .LVU1532
2132:Drivers/STM32H7xx_HAL_Driver/Src/stm32h7xx_ll_usb.c ****   uint32_t tmpreg;
 4510              		.loc 1 2132 3 view .LVU1533
2133:Drivers/STM32H7xx_HAL_Driver/Src/stm32h7xx_ll_usb.c **** 
2134:Drivers/STM32H7xx_HAL_Driver/Src/stm32h7xx_ll_usb.c ****   USBx_HC(chnum)->HCTSIZ = ((num_packets << 19) & USB_OTG_HCTSIZ_PKTCNT) |
 4511              		.loc 1 2134 3 view .LVU1534
 4512 0000 00EB4110 		add	r0, r0, r1, lsl #5
 4513              	.LVL335:
 4514              		.loc 1 2134 26 is_stmt 0 view .LVU1535
 4515 0004 064A     		ldr	r2, .L285
 4516 0006 C0F81025 		str	r2, [r0, #1296]
2135:Drivers/STM32H7xx_HAL_Driver/Src/stm32h7xx_ll_usb.c ****                            USB_OTG_HCTSIZ_DOPING;
2136:Drivers/STM32H7xx_HAL_Driver/Src/stm32h7xx_ll_usb.c **** 
2137:Drivers/STM32H7xx_HAL_Driver/Src/stm32h7xx_ll_usb.c ****   /* Set host channel enable */
2138:Drivers/STM32H7xx_HAL_Driver/Src/stm32h7xx_ll_usb.c ****   tmpreg = USBx_HC(chnum)->HCCHAR;
 4517              		.loc 1 2138 3 is_stmt 1 view .LVU1536
 4518              		.loc 1 2138 10 is_stmt 0 view .LVU1537
 4519 000a D0F80035 		ldr	r3, [r0, #1280]
 4520              	.LVL336:
2139:Drivers/STM32H7xx_HAL_Driver/Src/stm32h7xx_ll_usb.c ****   tmpreg &= ~USB_OTG_HCCHAR_CHDIS;
 4521              		.loc 1 2139 3 is_stmt 1 view .LVU1538
 4522              		.loc 1 2139 10 is_stmt 0 view .LVU1539
 4523 000e 23F08043 		bic	r3, r3, #1073741824
 4524              	.LVL337:
2140:Drivers/STM32H7xx_HAL_Driver/Src/stm32h7xx_ll_usb.c ****   tmpreg |= USB_OTG_HCCHAR_CHENA;
 4525              		.loc 1 2140 3 is_stmt 1 view .LVU1540
ARM GAS  C:\Users\Nathan\AppData\Local\Temp\cc7cwqzo.s 			page 138


 4526              		.loc 1 2140 10 is_stmt 0 view .LVU1541
 4527 0012 43F00043 		orr	r3, r3, #-2147483648
 4528              	.LVL338:
2141:Drivers/STM32H7xx_HAL_Driver/Src/stm32h7xx_ll_usb.c ****   USBx_HC(chnum)->HCCHAR = tmpreg;
 4529              		.loc 1 2141 3 is_stmt 1 view .LVU1542
 4530              		.loc 1 2141 26 is_stmt 0 view .LVU1543
 4531 0016 C0F80035 		str	r3, [r0, #1280]
2142:Drivers/STM32H7xx_HAL_Driver/Src/stm32h7xx_ll_usb.c **** 
2143:Drivers/STM32H7xx_HAL_Driver/Src/stm32h7xx_ll_usb.c ****   return HAL_OK;
 4532              		.loc 1 2143 3 is_stmt 1 view .LVU1544
2144:Drivers/STM32H7xx_HAL_Driver/Src/stm32h7xx_ll_usb.c **** }
 4533              		.loc 1 2144 1 is_stmt 0 view .LVU1545
 4534 001a 0020     		movs	r0, #0
 4535 001c 7047     		bx	lr
 4536              	.L286:
 4537 001e 00BF     		.align	2
 4538              	.L285:
 4539 0020 00000880 		.word	-2146959360
 4540              		.cfi_endproc
 4541              	.LFE189:
 4543              		.section	.text.USB_HC_StartXfer,"ax",%progbits
 4544              		.align	1
 4545              		.global	USB_HC_StartXfer
 4546              		.syntax unified
 4547              		.thumb
 4548              		.thumb_func
 4550              	USB_HC_StartXfer:
 4551              	.LVL339:
 4552              	.LFB186:
1772:Drivers/STM32H7xx_HAL_Driver/Src/stm32h7xx_ll_usb.c ****   uint32_t USBx_BASE = (uint32_t)USBx;
 4553              		.loc 1 1772 1 is_stmt 1 view -0
 4554              		.cfi_startproc
 4555              		@ args = 0, pretend = 0, frame = 8
 4556              		@ frame_needed = 0, uses_anonymous_args = 0
1772:Drivers/STM32H7xx_HAL_Driver/Src/stm32h7xx_ll_usb.c ****   uint32_t USBx_BASE = (uint32_t)USBx;
 4557              		.loc 1 1772 1 is_stmt 0 view .LVU1547
 4558 0000 70B5     		push	{r4, r5, r6, lr}
 4559              		.cfi_def_cfa_offset 16
 4560              		.cfi_offset 4, -16
 4561              		.cfi_offset 5, -12
 4562              		.cfi_offset 6, -8
 4563              		.cfi_offset 14, -4
 4564 0002 84B0     		sub	sp, sp, #16
 4565              		.cfi_def_cfa_offset 32
1773:Drivers/STM32H7xx_HAL_Driver/Src/stm32h7xx_ll_usb.c ****   uint32_t ch_num = (uint32_t)hc->ch_num;
 4566              		.loc 1 1773 3 is_stmt 1 view .LVU1548
 4567              	.LVL340:
1774:Drivers/STM32H7xx_HAL_Driver/Src/stm32h7xx_ll_usb.c ****   __IO uint32_t tmpreg;
 4568              		.loc 1 1774 3 view .LVU1549
1774:Drivers/STM32H7xx_HAL_Driver/Src/stm32h7xx_ll_usb.c ****   __IO uint32_t tmpreg;
 4569              		.loc 1 1774 33 is_stmt 0 view .LVU1550
 4570 0004 4B78     		ldrb	r3, [r1, #1]	@ zero_extendqisi2
 4571              	.LVL341:
1775:Drivers/STM32H7xx_HAL_Driver/Src/stm32h7xx_ll_usb.c ****   uint8_t  is_oddframe;
 4572              		.loc 1 1775 3 is_stmt 1 view .LVU1551
1776:Drivers/STM32H7xx_HAL_Driver/Src/stm32h7xx_ll_usb.c ****   uint16_t len_words;
 4573              		.loc 1 1776 3 view .LVU1552
ARM GAS  C:\Users\Nathan\AppData\Local\Temp\cc7cwqzo.s 			page 139


1777:Drivers/STM32H7xx_HAL_Driver/Src/stm32h7xx_ll_usb.c ****   uint16_t num_packets;
 4574              		.loc 1 1777 3 view .LVU1553
1778:Drivers/STM32H7xx_HAL_Driver/Src/stm32h7xx_ll_usb.c ****   uint16_t max_hc_pkt_count = HC_MAX_PKT_CNT;
 4575              		.loc 1 1778 3 view .LVU1554
1779:Drivers/STM32H7xx_HAL_Driver/Src/stm32h7xx_ll_usb.c **** 
 4576              		.loc 1 1779 3 view .LVU1555
1782:Drivers/STM32H7xx_HAL_Driver/Src/stm32h7xx_ll_usb.c ****   {
 4577              		.loc 1 1782 3 view .LVU1556
1782:Drivers/STM32H7xx_HAL_Driver/Src/stm32h7xx_ll_usb.c ****   {
 4578              		.loc 1 1782 6 is_stmt 0 view .LVU1557
 4579 0006 012A     		cmp	r2, #1
 4580 0008 1AD0     		beq	.L321
1794:Drivers/STM32H7xx_HAL_Driver/Src/stm32h7xx_ll_usb.c ****     {
 4581              		.loc 1 1794 5 is_stmt 1 view .LVU1558
1794:Drivers/STM32H7xx_HAL_Driver/Src/stm32h7xx_ll_usb.c ****     {
 4582              		.loc 1 1794 38 is_stmt 0 view .LVU1559
 4583 000a 8C88     		ldrh	r4, [r1, #4]
1794:Drivers/STM32H7xx_HAL_Driver/Src/stm32h7xx_ll_usb.c ****     {
 4584              		.loc 1 1794 8 view .LVU1560
 4585 000c B4F5807F 		cmp	r4, #256
 4586 0010 24D0     		beq	.L322
 4587              	.L289:
1801:Drivers/STM32H7xx_HAL_Driver/Src/stm32h7xx_ll_usb.c ****   {
 4588              		.loc 1 1801 3 is_stmt 1 view .LVU1561
1801:Drivers/STM32H7xx_HAL_Driver/Src/stm32h7xx_ll_usb.c ****   {
 4589              		.loc 1 1801 9 is_stmt 0 view .LVU1562
 4590 0012 8C79     		ldrb	r4, [r1, #6]	@ zero_extendqisi2
1801:Drivers/STM32H7xx_HAL_Driver/Src/stm32h7xx_ll_usb.c ****   {
 4591              		.loc 1 1801 6 view .LVU1563
 4592 0014 012C     		cmp	r4, #1
 4593 0016 27D0     		beq	.L323
1859:Drivers/STM32H7xx_HAL_Driver/Src/stm32h7xx_ll_usb.c ****     {
 4594              		.loc 1 1859 5 is_stmt 1 view .LVU1564
1859:Drivers/STM32H7xx_HAL_Driver/Src/stm32h7xx_ll_usb.c ****     {
 4595              		.loc 1 1859 11 is_stmt 0 view .LVU1565
 4596 0018 0C6A     		ldr	r4, [r1, #32]
1859:Drivers/STM32H7xx_HAL_Driver/Src/stm32h7xx_ll_usb.c ****     {
 4597              		.loc 1 1859 8 view .LVU1566
 4598 001a 002C     		cmp	r4, #0
 4599 001c 5FD0     		beq	.L317
1861:Drivers/STM32H7xx_HAL_Driver/Src/stm32h7xx_ll_usb.c **** 
 4600              		.loc 1 1861 7 is_stmt 1 view .LVU1567
1861:Drivers/STM32H7xx_HAL_Driver/Src/stm32h7xx_ll_usb.c **** 
 4601              		.loc 1 1861 50 is_stmt 0 view .LVU1568
 4602 001e 8D8A     		ldrh	r5, [r1, #20]
1861:Drivers/STM32H7xx_HAL_Driver/Src/stm32h7xx_ll_usb.c **** 
 4603              		.loc 1 1861 46 view .LVU1569
 4604 0020 04EB050C 		add	ip, r4, r5
1861:Drivers/STM32H7xx_HAL_Driver/Src/stm32h7xx_ll_usb.c **** 
 4605              		.loc 1 1861 63 view .LVU1570
 4606 0024 0CF1FF3C 		add	ip, ip, #-1
1861:Drivers/STM32H7xx_HAL_Driver/Src/stm32h7xx_ll_usb.c **** 
 4607              		.loc 1 1861 69 view .LVU1571
 4608 0028 BCFBF5FC 		udiv	ip, ip, r5
1861:Drivers/STM32H7xx_HAL_Driver/Src/stm32h7xx_ll_usb.c **** 
 4609              		.loc 1 1861 19 view .LVU1572
 4610 002c 1FFA8CFC 		uxth	ip, ip
ARM GAS  C:\Users\Nathan\AppData\Local\Temp\cc7cwqzo.s 			page 140


 4611              	.LVL342:
1863:Drivers/STM32H7xx_HAL_Driver/Src/stm32h7xx_ll_usb.c ****       {
 4612              		.loc 1 1863 7 is_stmt 1 view .LVU1573
1863:Drivers/STM32H7xx_HAL_Driver/Src/stm32h7xx_ll_usb.c ****       {
 4613              		.loc 1 1863 10 is_stmt 0 view .LVU1574
 4614 0030 BCF5807F 		cmp	ip, #256
 4615 0034 55D9     		bls	.L299
1865:Drivers/STM32H7xx_HAL_Driver/Src/stm32h7xx_ll_usb.c ****         hc->XferSize = (uint32_t)num_packets * hc->max_packet;
 4616              		.loc 1 1865 9 is_stmt 1 view .LVU1575
 4617              	.LVL343:
1866:Drivers/STM32H7xx_HAL_Driver/Src/stm32h7xx_ll_usb.c ****       }
 4618              		.loc 1 1866 9 view .LVU1576
1866:Drivers/STM32H7xx_HAL_Driver/Src/stm32h7xx_ll_usb.c ****       }
 4619              		.loc 1 1866 46 is_stmt 0 view .LVU1577
 4620 0036 2D02     		lsls	r5, r5, #8
1866:Drivers/STM32H7xx_HAL_Driver/Src/stm32h7xx_ll_usb.c ****       }
 4621              		.loc 1 1866 22 view .LVU1578
 4622 0038 CD61     		str	r5, [r1, #28]
1865:Drivers/STM32H7xx_HAL_Driver/Src/stm32h7xx_ll_usb.c ****         hc->XferSize = (uint32_t)num_packets * hc->max_packet;
 4623              		.loc 1 1865 21 view .LVU1579
 4624 003a 4FF4807C 		mov	ip, #256
 4625 003e 50E0     		b	.L299
 4626              	.LVL344:
 4627              	.L321:
1784:Drivers/STM32H7xx_HAL_Driver/Src/stm32h7xx_ll_usb.c ****     {
 4628              		.loc 1 1784 5 is_stmt 1 view .LVU1580
1784:Drivers/STM32H7xx_HAL_Driver/Src/stm32h7xx_ll_usb.c ****     {
 4629              		.loc 1 1784 12 is_stmt 0 view .LVU1581
 4630 0040 8C7C     		ldrb	r4, [r1, #18]	@ zero_extendqisi2
1784:Drivers/STM32H7xx_HAL_Driver/Src/stm32h7xx_ll_usb.c ****     {
 4631              		.loc 1 1784 8 view .LVU1582
 4632 0042 022C     		cmp	r4, #2
 4633 0044 18BF     		it	ne
 4634 0046 002C     		cmpne	r4, #0
 4635 0048 E3D1     		bne	.L289
1787:Drivers/STM32H7xx_HAL_Driver/Src/stm32h7xx_ll_usb.c ****                                                USB_OTG_HCINTMSK_ACKM |
 4636              		.loc 1 1787 7 is_stmt 1 view .LVU1583
1787:Drivers/STM32H7xx_HAL_Driver/Src/stm32h7xx_ll_usb.c ****                                                USB_OTG_HCINTMSK_ACKM |
 4637              		.loc 1 1787 32 is_stmt 0 view .LVU1584
 4638 004a 00EB4314 		add	r4, r0, r3, lsl #5
 4639 004e D4F80C55 		ldr	r5, [r4, #1292]
1787:Drivers/STM32H7xx_HAL_Driver/Src/stm32h7xx_ll_usb.c ****                                                USB_OTG_HCINTMSK_ACKM |
 4640              		.loc 1 1787 43 view .LVU1585
 4641 0052 25F07005 		bic	r5, r5, #112
 4642 0056 C4F80C55 		str	r5, [r4, #1292]
 4643 005a DAE7     		b	.L289
 4644              	.L322:
1796:Drivers/STM32H7xx_HAL_Driver/Src/stm32h7xx_ll_usb.c ****       return HAL_OK;
 4645              		.loc 1 1796 7 is_stmt 1 view .LVU1586
1796:Drivers/STM32H7xx_HAL_Driver/Src/stm32h7xx_ll_usb.c ****       return HAL_OK;
 4646              		.loc 1 1796 13 is_stmt 0 view .LVU1587
 4647 005c 1946     		mov	r1, r3
 4648              	.LVL345:
1796:Drivers/STM32H7xx_HAL_Driver/Src/stm32h7xx_ll_usb.c ****       return HAL_OK;
 4649              		.loc 1 1796 13 view .LVU1588
 4650 005e FFF7FEFF 		bl	USB_DoPing
 4651              	.LVL346:
ARM GAS  C:\Users\Nathan\AppData\Local\Temp\cc7cwqzo.s 			page 141


1797:Drivers/STM32H7xx_HAL_Driver/Src/stm32h7xx_ll_usb.c ****     }
 4652              		.loc 1 1797 7 is_stmt 1 view .LVU1589
 4653              	.L290:
2022:Drivers/STM32H7xx_HAL_Driver/Src/stm32h7xx_ll_usb.c **** 
 4654              		.loc 1 2022 1 is_stmt 0 view .LVU1590
 4655 0062 0020     		movs	r0, #0
 4656 0064 04B0     		add	sp, sp, #16
 4657              		.cfi_remember_state
 4658              		.cfi_def_cfa_offset 16
 4659              		@ sp needed
 4660 0066 70BD     		pop	{r4, r5, r6, pc}
 4661              	.LVL347:
 4662              	.L323:
 4663              		.cfi_restore_state
1804:Drivers/STM32H7xx_HAL_Driver/Src/stm32h7xx_ll_usb.c **** 
 4664              		.loc 1 1804 5 is_stmt 1 view .LVU1591
1806:Drivers/STM32H7xx_HAL_Driver/Src/stm32h7xx_ll_usb.c ****     {
 4665              		.loc 1 1806 5 view .LVU1592
1806:Drivers/STM32H7xx_HAL_Driver/Src/stm32h7xx_ll_usb.c ****     {
 4666              		.loc 1 1806 11 is_stmt 0 view .LVU1593
 4667 0068 CC78     		ldrb	r4, [r1, #3]	@ zero_extendqisi2
1806:Drivers/STM32H7xx_HAL_Driver/Src/stm32h7xx_ll_usb.c ****     {
 4668              		.loc 1 1806 8 view .LVU1594
 4669 006a 24B1     		cbz	r4, .L292
1808:Drivers/STM32H7xx_HAL_Driver/Src/stm32h7xx_ll_usb.c ****     }
 4670              		.loc 1 1808 7 is_stmt 1 view .LVU1595
1808:Drivers/STM32H7xx_HAL_Driver/Src/stm32h7xx_ll_usb.c ****     }
 4671              		.loc 1 1808 48 is_stmt 0 view .LVU1596
 4672 006c 8C8A     		ldrh	r4, [r1, #20]
1808:Drivers/STM32H7xx_HAL_Driver/Src/stm32h7xx_ll_usb.c ****     }
 4673              		.loc 1 1808 20 view .LVU1597
 4674 006e CC61     		str	r4, [r1, #28]
1804:Drivers/STM32H7xx_HAL_Driver/Src/stm32h7xx_ll_usb.c **** 
 4675              		.loc 1 1804 17 view .LVU1598
 4676 0070 4FF0010C 		mov	ip, #1
 4677 0074 3CE0     		b	.L293
 4678              	.L292:
1812:Drivers/STM32H7xx_HAL_Driver/Src/stm32h7xx_ll_usb.c ****       {
 4679              		.loc 1 1812 7 is_stmt 1 view .LVU1599
1812:Drivers/STM32H7xx_HAL_Driver/Src/stm32h7xx_ll_usb.c ****       {
 4680              		.loc 1 1812 13 is_stmt 0 view .LVU1600
 4681 0076 8C7C     		ldrb	r4, [r1, #18]	@ zero_extendqisi2
1812:Drivers/STM32H7xx_HAL_Driver/Src/stm32h7xx_ll_usb.c ****       {
 4682              		.loc 1 1812 10 view .LVU1601
 4683 0078 012C     		cmp	r4, #1
 4684 007a 06D0     		beq	.L324
1845:Drivers/STM32H7xx_HAL_Driver/Src/stm32h7xx_ll_usb.c ****         {
 4685              		.loc 1 1845 9 is_stmt 1 view .LVU1602
1845:Drivers/STM32H7xx_HAL_Driver/Src/stm32h7xx_ll_usb.c ****         {
 4686              		.loc 1 1845 12 is_stmt 0 view .LVU1603
 4687 007c 012A     		cmp	r2, #1
 4688 007e 26D0     		beq	.L325
 4689              	.L298:
1851:Drivers/STM32H7xx_HAL_Driver/Src/stm32h7xx_ll_usb.c ****         }
 4690              		.loc 1 1851 11 is_stmt 1 view .LVU1604
1851:Drivers/STM32H7xx_HAL_Driver/Src/stm32h7xx_ll_usb.c ****         }
 4691              		.loc 1 1851 28 is_stmt 0 view .LVU1605
ARM GAS  C:\Users\Nathan\AppData\Local\Temp\cc7cwqzo.s 			page 142


 4692 0080 0C6A     		ldr	r4, [r1, #32]
1851:Drivers/STM32H7xx_HAL_Driver/Src/stm32h7xx_ll_usb.c ****         }
 4693              		.loc 1 1851 24 view .LVU1606
 4694 0082 CC61     		str	r4, [r1, #28]
1804:Drivers/STM32H7xx_HAL_Driver/Src/stm32h7xx_ll_usb.c **** 
 4695              		.loc 1 1804 17 view .LVU1607
 4696 0084 4FF0010C 		mov	ip, #1
 4697 0088 32E0     		b	.L293
 4698              	.L324:
1814:Drivers/STM32H7xx_HAL_Driver/Src/stm32h7xx_ll_usb.c ****         {
 4699              		.loc 1 1814 9 is_stmt 1 view .LVU1608
1814:Drivers/STM32H7xx_HAL_Driver/Src/stm32h7xx_ll_usb.c ****         {
 4700              		.loc 1 1814 15 is_stmt 0 view .LVU1609
 4701 008a 0C6A     		ldr	r4, [r1, #32]
1814:Drivers/STM32H7xx_HAL_Driver/Src/stm32h7xx_ll_usb.c ****         {
 4702              		.loc 1 1814 12 view .LVU1610
 4703 008c BC2C     		cmp	r4, #188
 4704 008e 0FD9     		bls	.L295
1817:Drivers/STM32H7xx_HAL_Driver/Src/stm32h7xx_ll_usb.c ****           hc->xfer_len = hc->XferSize;
 4705              		.loc 1 1817 11 is_stmt 1 view .LVU1611
1817:Drivers/STM32H7xx_HAL_Driver/Src/stm32h7xx_ll_usb.c ****           hc->xfer_len = hc->XferSize;
 4706              		.loc 1 1817 28 is_stmt 0 view .LVU1612
 4707 0090 8C8A     		ldrh	r4, [r1, #20]
1817:Drivers/STM32H7xx_HAL_Driver/Src/stm32h7xx_ll_usb.c ****           hc->xfer_len = hc->XferSize;
 4708              		.loc 1 1817 24 view .LVU1613
 4709 0092 CC61     		str	r4, [r1, #28]
1818:Drivers/STM32H7xx_HAL_Driver/Src/stm32h7xx_ll_usb.c **** 
 4710              		.loc 1 1818 11 is_stmt 1 view .LVU1614
1818:Drivers/STM32H7xx_HAL_Driver/Src/stm32h7xx_ll_usb.c **** 
 4711              		.loc 1 1818 24 is_stmt 0 view .LVU1615
 4712 0094 0C62     		str	r4, [r1, #32]
1820:Drivers/STM32H7xx_HAL_Driver/Src/stm32h7xx_ll_usb.c ****           {
 4713              		.loc 1 1820 11 is_stmt 1 view .LVU1616
1820:Drivers/STM32H7xx_HAL_Driver/Src/stm32h7xx_ll_usb.c ****           {
 4714              		.loc 1 1820 18 is_stmt 0 view .LVU1617
 4715 0096 CC68     		ldr	r4, [r1, #12]
1820:Drivers/STM32H7xx_HAL_Driver/Src/stm32h7xx_ll_usb.c ****           {
 4716              		.loc 1 1820 54 view .LVU1618
 4717 0098 013C     		subs	r4, r4, #1
1820:Drivers/STM32H7xx_HAL_Driver/Src/stm32h7xx_ll_usb.c ****           {
 4718              		.loc 1 1820 14 view .LVU1619
 4719 009a 012C     		cmp	r4, #1
 4720 009c 03D9     		bls	.L326
1826:Drivers/STM32H7xx_HAL_Driver/Src/stm32h7xx_ll_usb.c ****           }
 4721              		.loc 1 1826 13 is_stmt 1 view .LVU1620
1826:Drivers/STM32H7xx_HAL_Driver/Src/stm32h7xx_ll_usb.c ****           }
 4722              		.loc 1 1826 34 is_stmt 0 view .LVU1621
 4723 009e 0124     		movs	r4, #1
 4724 00a0 CC60     		str	r4, [r1, #12]
1804:Drivers/STM32H7xx_HAL_Driver/Src/stm32h7xx_ll_usb.c **** 
 4725              		.loc 1 1804 17 view .LVU1622
 4726 00a2 A446     		mov	ip, r4
 4727 00a4 24E0     		b	.L293
 4728              	.L326:
1822:Drivers/STM32H7xx_HAL_Driver/Src/stm32h7xx_ll_usb.c ****           }
 4729              		.loc 1 1822 13 is_stmt 1 view .LVU1623
1822:Drivers/STM32H7xx_HAL_Driver/Src/stm32h7xx_ll_usb.c ****           }
ARM GAS  C:\Users\Nathan\AppData\Local\Temp\cc7cwqzo.s 			page 143


 4730              		.loc 1 1822 34 is_stmt 0 view .LVU1624
 4731 00a6 0224     		movs	r4, #2
 4732 00a8 CC60     		str	r4, [r1, #12]
1804:Drivers/STM32H7xx_HAL_Driver/Src/stm32h7xx_ll_usb.c **** 
 4733              		.loc 1 1804 17 view .LVU1625
 4734 00aa 4FF0010C 		mov	ip, #1
 4735 00ae 1FE0     		b	.L293
 4736              	.L295:
1831:Drivers/STM32H7xx_HAL_Driver/Src/stm32h7xx_ll_usb.c **** 
 4737              		.loc 1 1831 11 is_stmt 1 view .LVU1626
1831:Drivers/STM32H7xx_HAL_Driver/Src/stm32h7xx_ll_usb.c **** 
 4738              		.loc 1 1831 24 is_stmt 0 view .LVU1627
 4739 00b0 CC61     		str	r4, [r1, #28]
1833:Drivers/STM32H7xx_HAL_Driver/Src/stm32h7xx_ll_usb.c ****           {
 4740              		.loc 1 1833 11 is_stmt 1 view .LVU1628
1833:Drivers/STM32H7xx_HAL_Driver/Src/stm32h7xx_ll_usb.c ****           {
 4741              		.loc 1 1833 18 is_stmt 0 view .LVU1629
 4742 00b2 CC68     		ldr	r4, [r1, #12]
1833:Drivers/STM32H7xx_HAL_Driver/Src/stm32h7xx_ll_usb.c ****           {
 4743              		.loc 1 1833 54 view .LVU1630
 4744 00b4 013C     		subs	r4, r4, #1
1833:Drivers/STM32H7xx_HAL_Driver/Src/stm32h7xx_ll_usb.c ****           {
 4745              		.loc 1 1833 14 view .LVU1631
 4746 00b6 012C     		cmp	r4, #1
 4747 00b8 04D9     		bls	.L297
1835:Drivers/STM32H7xx_HAL_Driver/Src/stm32h7xx_ll_usb.c ****           }
 4748              		.loc 1 1835 13 is_stmt 1 view .LVU1632
1835:Drivers/STM32H7xx_HAL_Driver/Src/stm32h7xx_ll_usb.c ****           }
 4749              		.loc 1 1835 34 is_stmt 0 view .LVU1633
 4750 00ba 0424     		movs	r4, #4
 4751 00bc CC60     		str	r4, [r1, #12]
1804:Drivers/STM32H7xx_HAL_Driver/Src/stm32h7xx_ll_usb.c **** 
 4752              		.loc 1 1804 17 view .LVU1634
 4753 00be 4FF0010C 		mov	ip, #1
 4754 00c2 15E0     		b	.L293
 4755              	.L297:
1839:Drivers/STM32H7xx_HAL_Driver/Src/stm32h7xx_ll_usb.c ****           }
 4756              		.loc 1 1839 13 is_stmt 1 view .LVU1635
1839:Drivers/STM32H7xx_HAL_Driver/Src/stm32h7xx_ll_usb.c ****           }
 4757              		.loc 1 1839 34 is_stmt 0 view .LVU1636
 4758 00c4 0324     		movs	r4, #3
 4759 00c6 CC60     		str	r4, [r1, #12]
1804:Drivers/STM32H7xx_HAL_Driver/Src/stm32h7xx_ll_usb.c **** 
 4760              		.loc 1 1804 17 view .LVU1637
 4761 00c8 4FF0010C 		mov	ip, #1
 4762 00cc 10E0     		b	.L293
 4763              	.L325:
1845:Drivers/STM32H7xx_HAL_Driver/Src/stm32h7xx_ll_usb.c ****         {
 4764              		.loc 1 1845 31 discriminator 1 view .LVU1638
 4765 00ce 0D6A     		ldr	r5, [r1, #32]
1845:Drivers/STM32H7xx_HAL_Driver/Src/stm32h7xx_ll_usb.c ****         {
 4766              		.loc 1 1845 46 discriminator 1 view .LVU1639
 4767 00d0 8C8A     		ldrh	r4, [r1, #20]
1845:Drivers/STM32H7xx_HAL_Driver/Src/stm32h7xx_ll_usb.c ****         {
 4768              		.loc 1 1845 25 discriminator 1 view .LVU1640
 4769 00d2 A542     		cmp	r5, r4
 4770 00d4 D4D9     		bls	.L298
ARM GAS  C:\Users\Nathan\AppData\Local\Temp\cc7cwqzo.s 			page 144


1847:Drivers/STM32H7xx_HAL_Driver/Src/stm32h7xx_ll_usb.c ****         }
 4771              		.loc 1 1847 11 is_stmt 1 view .LVU1641
1847:Drivers/STM32H7xx_HAL_Driver/Src/stm32h7xx_ll_usb.c ****         }
 4772              		.loc 1 1847 24 is_stmt 0 view .LVU1642
 4773 00d6 CC61     		str	r4, [r1, #28]
1804:Drivers/STM32H7xx_HAL_Driver/Src/stm32h7xx_ll_usb.c **** 
 4774              		.loc 1 1804 17 view .LVU1643
 4775 00d8 4FF0010C 		mov	ip, #1
1847:Drivers/STM32H7xx_HAL_Driver/Src/stm32h7xx_ll_usb.c ****         }
 4776              		.loc 1 1847 24 view .LVU1644
 4777 00dc 08E0     		b	.L293
 4778              	.LVL348:
 4779              	.L317:
1871:Drivers/STM32H7xx_HAL_Driver/Src/stm32h7xx_ll_usb.c ****     }
 4780              		.loc 1 1871 19 view .LVU1645
 4781 00de 4FF0010C 		mov	ip, #1
 4782              	.L299:
 4783              	.LVL349:
1878:Drivers/STM32H7xx_HAL_Driver/Src/stm32h7xx_ll_usb.c ****     {
 4784              		.loc 1 1878 5 is_stmt 1 view .LVU1646
1878:Drivers/STM32H7xx_HAL_Driver/Src/stm32h7xx_ll_usb.c ****     {
 4785              		.loc 1 1878 11 is_stmt 0 view .LVU1647
 4786 00e2 CD78     		ldrb	r5, [r1, #3]	@ zero_extendqisi2
1878:Drivers/STM32H7xx_HAL_Driver/Src/stm32h7xx_ll_usb.c ****     {
 4787              		.loc 1 1878 8 view .LVU1648
 4788 00e4 002D     		cmp	r5, #0
 4789 00e6 62D0     		beq	.L300
1880:Drivers/STM32H7xx_HAL_Driver/Src/stm32h7xx_ll_usb.c ****     }
 4790              		.loc 1 1880 7 is_stmt 1 view .LVU1649
1880:Drivers/STM32H7xx_HAL_Driver/Src/stm32h7xx_ll_usb.c ****     }
 4791              		.loc 1 1880 48 is_stmt 0 view .LVU1650
 4792 00e8 8C8A     		ldrh	r4, [r1, #20]
1880:Drivers/STM32H7xx_HAL_Driver/Src/stm32h7xx_ll_usb.c ****     }
 4793              		.loc 1 1880 44 view .LVU1651
 4794 00ea 04FB0CF4 		mul	r4, r4, ip
1880:Drivers/STM32H7xx_HAL_Driver/Src/stm32h7xx_ll_usb.c ****     }
 4795              		.loc 1 1880 20 view .LVU1652
 4796 00ee CC61     		str	r4, [r1, #28]
 4797              	.LVL350:
 4798              	.L293:
1889:Drivers/STM32H7xx_HAL_Driver/Src/stm32h7xx_ll_usb.c ****                             (((uint32_t)num_packets << 19) & USB_OTG_HCTSIZ_PKTCNT) |
 4799              		.loc 1 1889 3 is_stmt 1 view .LVU1653
1889:Drivers/STM32H7xx_HAL_Driver/Src/stm32h7xx_ll_usb.c ****                             (((uint32_t)num_packets << 19) & USB_OTG_HCTSIZ_PKTCNT) |
 4800              		.loc 1 1889 32 is_stmt 0 view .LVU1654
 4801 00f0 CC69     		ldr	r4, [r1, #28]
1889:Drivers/STM32H7xx_HAL_Driver/Src/stm32h7xx_ll_usb.c ****                             (((uint32_t)num_packets << 19) & USB_OTG_HCTSIZ_PKTCNT) |
 4802              		.loc 1 1889 43 view .LVU1655
 4803 00f2 C4F31204 		ubfx	r4, r4, #0, #19
1890:Drivers/STM32H7xx_HAL_Driver/Src/stm32h7xx_ll_usb.c ****                             (((uint32_t)hc->data_pid << 29) & USB_OTG_HCTSIZ_DPID);
 4804              		.loc 1 1890 60 view .LVU1656
 4805 00f6 6F4D     		ldr	r5, .L330
 4806 00f8 05EACC45 		and	r5, r5, ip, lsl #19
1889:Drivers/STM32H7xx_HAL_Driver/Src/stm32h7xx_ll_usb.c ****                             (((uint32_t)num_packets << 19) & USB_OTG_HCTSIZ_PKTCNT) |
 4807              		.loc 1 1889 68 view .LVU1657
 4808 00fc 2C43     		orrs	r4, r4, r5
1891:Drivers/STM32H7xx_HAL_Driver/Src/stm32h7xx_ll_usb.c **** 
 4809              		.loc 1 1891 43 view .LVU1658
ARM GAS  C:\Users\Nathan\AppData\Local\Temp\cc7cwqzo.s 			page 145


 4810 00fe 91F816C0 		ldrb	ip, [r1, #22]	@ zero_extendqisi2
 4811              	.LVL351:
1891:Drivers/STM32H7xx_HAL_Driver/Src/stm32h7xx_ll_usb.c **** 
 4812              		.loc 1 1891 54 view .LVU1659
 4813 0102 4FEA4C7C 		lsl	ip, ip, #29
1891:Drivers/STM32H7xx_HAL_Driver/Src/stm32h7xx_ll_usb.c **** 
 4814              		.loc 1 1891 61 view .LVU1660
 4815 0106 0CF0C04C 		and	ip, ip, #1610612736
1889:Drivers/STM32H7xx_HAL_Driver/Src/stm32h7xx_ll_usb.c ****                             (((uint32_t)num_packets << 19) & USB_OTG_HCTSIZ_PKTCNT) |
 4816              		.loc 1 1889 3 view .LVU1661
 4817 010a 00EB4313 		add	r3, r0, r3, lsl #5
 4818              	.LVL352:
1889:Drivers/STM32H7xx_HAL_Driver/Src/stm32h7xx_ll_usb.c ****                             (((uint32_t)num_packets << 19) & USB_OTG_HCTSIZ_PKTCNT) |
 4819              		.loc 1 1889 3 view .LVU1662
 4820 010e 03F5A06E 		add	lr, r3, #1280
1890:Drivers/STM32H7xx_HAL_Driver/Src/stm32h7xx_ll_usb.c ****                             (((uint32_t)hc->data_pid << 29) & USB_OTG_HCTSIZ_DPID);
 4821              		.loc 1 1890 85 view .LVU1663
 4822 0112 44EA0C04 		orr	r4, r4, ip
1889:Drivers/STM32H7xx_HAL_Driver/Src/stm32h7xx_ll_usb.c ****                             (((uint32_t)num_packets << 19) & USB_OTG_HCTSIZ_PKTCNT) |
 4823              		.loc 1 1889 27 view .LVU1664
 4824 0116 CEF81040 		str	r4, [lr, #16]
1893:Drivers/STM32H7xx_HAL_Driver/Src/stm32h7xx_ll_usb.c ****   {
 4825              		.loc 1 1893 3 is_stmt 1 view .LVU1665
1893:Drivers/STM32H7xx_HAL_Driver/Src/stm32h7xx_ll_usb.c ****   {
 4826              		.loc 1 1893 6 is_stmt 0 view .LVU1666
 4827 011a 12B1     		cbz	r2, .L301
1896:Drivers/STM32H7xx_HAL_Driver/Src/stm32h7xx_ll_usb.c ****   }
 4828              		.loc 1 1896 5 is_stmt 1 view .LVU1667
1896:Drivers/STM32H7xx_HAL_Driver/Src/stm32h7xx_ll_usb.c ****   }
 4829              		.loc 1 1896 42 is_stmt 0 view .LVU1668
 4830 011c 8C69     		ldr	r4, [r1, #24]
1896:Drivers/STM32H7xx_HAL_Driver/Src/stm32h7xx_ll_usb.c ****   }
 4831              		.loc 1 1896 28 view .LVU1669
 4832 011e CEF81440 		str	r4, [lr, #20]
 4833              	.L301:
1899:Drivers/STM32H7xx_HAL_Driver/Src/stm32h7xx_ll_usb.c ****   USBx_HC(ch_num)->HCCHAR &= ~USB_OTG_HCCHAR_ODDFRM;
 4834              		.loc 1 1899 3 is_stmt 1 view .LVU1670
1899:Drivers/STM32H7xx_HAL_Driver/Src/stm32h7xx_ll_usb.c ****   USBx_HC(ch_num)->HCCHAR &= ~USB_OTG_HCCHAR_ODDFRM;
 4835              		.loc 1 1899 29 is_stmt 0 view .LVU1671
 4836 0122 00F58065 		add	r5, r0, #1024
1899:Drivers/STM32H7xx_HAL_Driver/Src/stm32h7xx_ll_usb.c ****   USBx_HC(ch_num)->HCCHAR &= ~USB_OTG_HCCHAR_ODDFRM;
 4837              		.loc 1 1899 38 view .LVU1672
 4838 0126 AC68     		ldr	r4, [r5, #8]
 4839              	.LVL353:
1900:Drivers/STM32H7xx_HAL_Driver/Src/stm32h7xx_ll_usb.c ****   USBx_HC(ch_num)->HCCHAR |= (uint32_t)is_oddframe << 29;
 4840              		.loc 1 1900 3 is_stmt 1 view .LVU1673
1900:Drivers/STM32H7xx_HAL_Driver/Src/stm32h7xx_ll_usb.c ****   USBx_HC(ch_num)->HCCHAR |= (uint32_t)is_oddframe << 29;
 4841              		.loc 1 1900 18 is_stmt 0 view .LVU1674
 4842 0128 D3F80065 		ldr	r6, [r3, #1280]
1900:Drivers/STM32H7xx_HAL_Driver/Src/stm32h7xx_ll_usb.c ****   USBx_HC(ch_num)->HCCHAR |= (uint32_t)is_oddframe << 29;
 4843              		.loc 1 1900 27 view .LVU1675
 4844 012c 26F00056 		bic	r6, r6, #536870912
 4845 0130 C3F80065 		str	r6, [r3, #1280]
1901:Drivers/STM32H7xx_HAL_Driver/Src/stm32h7xx_ll_usb.c **** 
 4846              		.loc 1 1901 3 is_stmt 1 view .LVU1676
1901:Drivers/STM32H7xx_HAL_Driver/Src/stm32h7xx_ll_usb.c **** 
 4847              		.loc 1 1901 18 is_stmt 0 view .LVU1677
ARM GAS  C:\Users\Nathan\AppData\Local\Temp\cc7cwqzo.s 			page 146


 4848 0134 D3F80065 		ldr	r6, [r3, #1280]
1901:Drivers/STM32H7xx_HAL_Driver/Src/stm32h7xx_ll_usb.c **** 
 4849              		.loc 1 1901 52 view .LVU1678
 4850 0138 6FEA040C 		mvn	ip, r4
 4851 013c 4FEA4C7C 		lsl	ip, ip, #29
 4852 0140 0CF0005C 		and	ip, ip, #536870912
1901:Drivers/STM32H7xx_HAL_Driver/Src/stm32h7xx_ll_usb.c **** 
 4853              		.loc 1 1901 27 view .LVU1679
 4854 0144 46EA0C06 		orr	r6, r6, ip
 4855 0148 C3F80065 		str	r6, [r3, #1280]
1903:Drivers/STM32H7xx_HAL_Driver/Src/stm32h7xx_ll_usb.c ****   {
 4856              		.loc 1 1903 3 is_stmt 1 view .LVU1680
1903:Drivers/STM32H7xx_HAL_Driver/Src/stm32h7xx_ll_usb.c ****   {
 4857              		.loc 1 1903 9 is_stmt 0 view .LVU1681
 4858 014c 8C79     		ldrb	r4, [r1, #6]	@ zero_extendqisi2
 4859              	.LVL354:
1903:Drivers/STM32H7xx_HAL_Driver/Src/stm32h7xx_ll_usb.c ****   {
 4860              		.loc 1 1903 6 view .LVU1682
 4861 014e 012C     		cmp	r4, #1
 4862 0150 2FD0     		beq	.L327
1959:Drivers/STM32H7xx_HAL_Driver/Src/stm32h7xx_ll_usb.c ****   }
 4863              		.loc 1 1959 5 is_stmt 1 view .LVU1683
1959:Drivers/STM32H7xx_HAL_Driver/Src/stm32h7xx_ll_usb.c ****   }
 4864              		.loc 1 1959 39 is_stmt 0 view .LVU1684
 4865 0152 0024     		movs	r4, #0
 4866 0154 CEF80440 		str	r4, [lr, #4]
 4867              	.L305:
1963:Drivers/STM32H7xx_HAL_Driver/Src/stm32h7xx_ll_usb.c ****   tmpreg &= ~USB_OTG_HCCHAR_CHDIS;
 4868              		.loc 1 1963 3 is_stmt 1 view .LVU1685
1963:Drivers/STM32H7xx_HAL_Driver/Src/stm32h7xx_ll_usb.c ****   tmpreg &= ~USB_OTG_HCCHAR_CHDIS;
 4869              		.loc 1 1963 27 is_stmt 0 view .LVU1686
 4870 0158 D3F80045 		ldr	r4, [r3, #1280]
1963:Drivers/STM32H7xx_HAL_Driver/Src/stm32h7xx_ll_usb.c ****   tmpreg &= ~USB_OTG_HCCHAR_CHDIS;
 4871              		.loc 1 1963 10 view .LVU1687
 4872 015c 0394     		str	r4, [sp, #12]
1964:Drivers/STM32H7xx_HAL_Driver/Src/stm32h7xx_ll_usb.c **** 
 4873              		.loc 1 1964 3 is_stmt 1 view .LVU1688
1964:Drivers/STM32H7xx_HAL_Driver/Src/stm32h7xx_ll_usb.c **** 
 4874              		.loc 1 1964 10 is_stmt 0 view .LVU1689
 4875 015e 039C     		ldr	r4, [sp, #12]
 4876 0160 24F08044 		bic	r4, r4, #1073741824
 4877 0164 0394     		str	r4, [sp, #12]
1967:Drivers/STM32H7xx_HAL_Driver/Src/stm32h7xx_ll_usb.c ****   {
 4878              		.loc 1 1967 3 is_stmt 1 view .LVU1690
1967:Drivers/STM32H7xx_HAL_Driver/Src/stm32h7xx_ll_usb.c ****   {
 4879              		.loc 1 1967 9 is_stmt 0 view .LVU1691
 4880 0166 CC78     		ldrb	r4, [r1, #3]	@ zero_extendqisi2
1967:Drivers/STM32H7xx_HAL_Driver/Src/stm32h7xx_ll_usb.c ****   {
 4881              		.loc 1 1967 6 view .LVU1692
 4882 0168 002C     		cmp	r4, #0
 4883 016a 7FD0     		beq	.L311
1969:Drivers/STM32H7xx_HAL_Driver/Src/stm32h7xx_ll_usb.c ****   }
 4884              		.loc 1 1969 5 is_stmt 1 view .LVU1693
1969:Drivers/STM32H7xx_HAL_Driver/Src/stm32h7xx_ll_usb.c ****   }
 4885              		.loc 1 1969 12 is_stmt 0 view .LVU1694
 4886 016c 039C     		ldr	r4, [sp, #12]
 4887 016e 44F40044 		orr	r4, r4, #32768
ARM GAS  C:\Users\Nathan\AppData\Local\Temp\cc7cwqzo.s 			page 147


 4888 0172 0394     		str	r4, [sp, #12]
 4889              	.L312:
1975:Drivers/STM32H7xx_HAL_Driver/Src/stm32h7xx_ll_usb.c ****   USBx_HC(ch_num)->HCCHAR = tmpreg;
 4890              		.loc 1 1975 3 is_stmt 1 view .LVU1695
1975:Drivers/STM32H7xx_HAL_Driver/Src/stm32h7xx_ll_usb.c ****   USBx_HC(ch_num)->HCCHAR = tmpreg;
 4891              		.loc 1 1975 10 is_stmt 0 view .LVU1696
 4892 0174 039C     		ldr	r4, [sp, #12]
 4893 0176 44F00044 		orr	r4, r4, #-2147483648
 4894 017a 0394     		str	r4, [sp, #12]
1976:Drivers/STM32H7xx_HAL_Driver/Src/stm32h7xx_ll_usb.c **** 
 4895              		.loc 1 1976 3 is_stmt 1 view .LVU1697
1976:Drivers/STM32H7xx_HAL_Driver/Src/stm32h7xx_ll_usb.c **** 
 4896              		.loc 1 1976 27 is_stmt 0 view .LVU1698
 4897 017c 039C     		ldr	r4, [sp, #12]
 4898 017e C3F80045 		str	r4, [r3, #1280]
1978:Drivers/STM32H7xx_HAL_Driver/Src/stm32h7xx_ll_usb.c ****   {
 4899              		.loc 1 1978 3 is_stmt 1 view .LVU1699
1978:Drivers/STM32H7xx_HAL_Driver/Src/stm32h7xx_ll_usb.c ****   {
 4900              		.loc 1 1978 6 is_stmt 0 view .LVU1700
 4901 0182 002A     		cmp	r2, #0
 4902 0184 7FF46DAF 		bne	.L290
1983:Drivers/STM32H7xx_HAL_Driver/Src/stm32h7xx_ll_usb.c ****   {
 4903              		.loc 1 1983 3 is_stmt 1 view .LVU1701
1983:Drivers/STM32H7xx_HAL_Driver/Src/stm32h7xx_ll_usb.c ****   {
 4904              		.loc 1 1983 10 is_stmt 0 view .LVU1702
 4905 0188 CB78     		ldrb	r3, [r1, #3]	@ zero_extendqisi2
1983:Drivers/STM32H7xx_HAL_Driver/Src/stm32h7xx_ll_usb.c ****   {
 4906              		.loc 1 1983 6 view .LVU1703
 4907 018a 002B     		cmp	r3, #0
 4908 018c 7FF469AF 		bne	.L290
1983:Drivers/STM32H7xx_HAL_Driver/Src/stm32h7xx_ll_usb.c ****   {
 4909              		.loc 1 1983 34 discriminator 1 view .LVU1704
 4910 0190 0B6A     		ldr	r3, [r1, #32]
1983:Drivers/STM32H7xx_HAL_Driver/Src/stm32h7xx_ll_usb.c ****   {
 4911              		.loc 1 1983 28 discriminator 1 view .LVU1705
 4912 0192 002B     		cmp	r3, #0
 4913 0194 3FF465AF 		beq	.L290
1983:Drivers/STM32H7xx_HAL_Driver/Src/stm32h7xx_ll_usb.c ****   {
 4914              		.loc 1 1983 57 discriminator 2 view .LVU1706
 4915 0198 CA79     		ldrb	r2, [r1, #7]	@ zero_extendqisi2
 4916              	.LVL355:
1983:Drivers/STM32H7xx_HAL_Driver/Src/stm32h7xx_ll_usb.c ****   {
 4917              		.loc 1 1983 51 discriminator 2 view .LVU1707
 4918 019a 002A     		cmp	r2, #0
 4919 019c 7FF461AF 		bne	.L290
1985:Drivers/STM32H7xx_HAL_Driver/Src/stm32h7xx_ll_usb.c ****     {
 4920              		.loc 1 1985 5 is_stmt 1 view .LVU1708
1985:Drivers/STM32H7xx_HAL_Driver/Src/stm32h7xx_ll_usb.c ****     {
 4921              		.loc 1 1985 15 is_stmt 0 view .LVU1709
 4922 01a0 8A7C     		ldrb	r2, [r1, #18]	@ zero_extendqisi2
1985:Drivers/STM32H7xx_HAL_Driver/Src/stm32h7xx_ll_usb.c ****     {
 4923              		.loc 1 1985 5 view .LVU1710
 4924 01a2 032A     		cmp	r2, #3
 4925 01a4 72D8     		bhi	.L313
 4926 01a6 DFE802F0 		tbb	[pc, r2]
 4927              	.L315:
 4928 01aa 66       		.byte	(.L316-.L315)/2
ARM GAS  C:\Users\Nathan\AppData\Local\Temp\cc7cwqzo.s 			page 148


 4929 01ab 79       		.byte	(.L314-.L315)/2
 4930 01ac 66       		.byte	(.L316-.L315)/2
 4931 01ad 79       		.byte	(.L314-.L315)/2
 4932              	.LVL356:
 4933              		.p2align 1
 4934              	.L300:
1884:Drivers/STM32H7xx_HAL_Driver/Src/stm32h7xx_ll_usb.c ****     }
 4935              		.loc 1 1884 7 is_stmt 1 view .LVU1711
1884:Drivers/STM32H7xx_HAL_Driver/Src/stm32h7xx_ll_usb.c ****     }
 4936              		.loc 1 1884 20 is_stmt 0 view .LVU1712
 4937 01ae CC61     		str	r4, [r1, #28]
 4938 01b0 9EE7     		b	.L293
 4939              	.LVL357:
 4940              	.L327:
1906:Drivers/STM32H7xx_HAL_Driver/Src/stm32h7xx_ll_usb.c ****                                         (uint32_t)hc->hub_port_nbr | USB_OTG_HCSPLT_SPLITEN;
 4941              		.loc 1 1906 5 is_stmt 1 view .LVU1713
1906:Drivers/STM32H7xx_HAL_Driver/Src/stm32h7xx_ll_usb.c ****                                         (uint32_t)hc->hub_port_nbr | USB_OTG_HCSPLT_SPLITEN;
 4942              		.loc 1 1906 54 is_stmt 0 view .LVU1714
 4943 01b2 4E7C     		ldrb	r6, [r1, #17]	@ zero_extendqisi2
1907:Drivers/STM32H7xx_HAL_Driver/Src/stm32h7xx_ll_usb.c **** 
 4944              		.loc 1 1907 53 view .LVU1715
 4945 01b4 0C7C     		ldrb	r4, [r1, #16]	@ zero_extendqisi2
1906:Drivers/STM32H7xx_HAL_Driver/Src/stm32h7xx_ll_usb.c ****                                         (uint32_t)hc->hub_port_nbr | USB_OTG_HCSPLT_SPLITEN;
 4946              		.loc 1 1906 96 view .LVU1716
 4947 01b6 44EAC614 		orr	r4, r4, r6, lsl #7
1907:Drivers/STM32H7xx_HAL_Driver/Src/stm32h7xx_ll_usb.c **** 
 4948              		.loc 1 1907 68 view .LVU1717
 4949 01ba 44F00044 		orr	r4, r4, #-2147483648
1906:Drivers/STM32H7xx_HAL_Driver/Src/stm32h7xx_ll_usb.c ****                                         (uint32_t)hc->hub_port_nbr | USB_OTG_HCSPLT_SPLITEN;
 4950              		.loc 1 1906 39 view .LVU1718
 4951 01be CEF80440 		str	r4, [lr, #4]
1910:Drivers/STM32H7xx_HAL_Driver/Src/stm32h7xx_ll_usb.c ****                                             USB_OTG_HCINTMSK_NYET);
 4952              		.loc 1 1910 5 is_stmt 1 view .LVU1719
1910:Drivers/STM32H7xx_HAL_Driver/Src/stm32h7xx_ll_usb.c ****                                             USB_OTG_HCINTMSK_NYET);
 4953              		.loc 1 1910 30 is_stmt 0 view .LVU1720
 4954 01c2 DEF80C40 		ldr	r4, [lr, #12]
1910:Drivers/STM32H7xx_HAL_Driver/Src/stm32h7xx_ll_usb.c ****                                             USB_OTG_HCINTMSK_NYET);
 4955              		.loc 1 1910 41 view .LVU1721
 4956 01c6 44F06004 		orr	r4, r4, #96
 4957 01ca CEF80C40 		str	r4, [lr, #12]
1913:Drivers/STM32H7xx_HAL_Driver/Src/stm32h7xx_ll_usb.c ****     {
 4958              		.loc 1 1913 5 is_stmt 1 view .LVU1722
1913:Drivers/STM32H7xx_HAL_Driver/Src/stm32h7xx_ll_usb.c ****     {
 4959              		.loc 1 1913 12 is_stmt 0 view .LVU1723
 4960 01ce CC79     		ldrb	r4, [r1, #7]	@ zero_extendqisi2
1913:Drivers/STM32H7xx_HAL_Driver/Src/stm32h7xx_ll_usb.c ****     {
 4961              		.loc 1 1913 8 view .LVU1724
 4962 01d0 012C     		cmp	r4, #1
 4963 01d2 15D0     		beq	.L328
 4964              	.L303:
1919:Drivers/STM32H7xx_HAL_Driver/Src/stm32h7xx_ll_usb.c ****         (hc->do_csplit == 1U) && (hc->ep_is_in == 1U))
 4965              		.loc 1 1919 5 is_stmt 1 view .LVU1725
1919:Drivers/STM32H7xx_HAL_Driver/Src/stm32h7xx_ll_usb.c ****         (hc->do_csplit == 1U) && (hc->ep_is_in == 1U))
 4966              		.loc 1 1919 13 is_stmt 0 view .LVU1726
 4967 01d4 8C7C     		ldrb	r4, [r1, #18]	@ zero_extendqisi2
1919:Drivers/STM32H7xx_HAL_Driver/Src/stm32h7xx_ll_usb.c ****         (hc->do_csplit == 1U) && (hc->ep_is_in == 1U))
 4968              		.loc 1 1919 8 view .LVU1727
ARM GAS  C:\Users\Nathan\AppData\Local\Temp\cc7cwqzo.s 			page 149


 4969 01d6 032C     		cmp	r4, #3
 4970 01d8 18BF     		it	ne
 4971 01da 012C     		cmpne	r4, #1
 4972 01dc 02D1     		bne	.L304
1920:Drivers/STM32H7xx_HAL_Driver/Src/stm32h7xx_ll_usb.c ****     {
 4973              		.loc 1 1920 12 view .LVU1728
 4974 01de CC79     		ldrb	r4, [r1, #7]	@ zero_extendqisi2
1919:Drivers/STM32H7xx_HAL_Driver/Src/stm32h7xx_ll_usb.c ****         (hc->do_csplit == 1U) && (hc->ep_is_in == 1U))
 4975              		.loc 1 1919 74 discriminator 1 view .LVU1729
 4976 01e0 012C     		cmp	r4, #1
 4977 01e2 1DD0     		beq	.L329
 4978              	.L304:
1926:Drivers/STM32H7xx_HAL_Driver/Src/stm32h7xx_ll_usb.c ****     {
 4979              		.loc 1 1926 5 is_stmt 1 view .LVU1730
1926:Drivers/STM32H7xx_HAL_Driver/Src/stm32h7xx_ll_usb.c ****     {
 4980              		.loc 1 1926 12 is_stmt 0 view .LVU1731
 4981 01e4 8C7C     		ldrb	r4, [r1, #18]	@ zero_extendqisi2
1926:Drivers/STM32H7xx_HAL_Driver/Src/stm32h7xx_ll_usb.c ****     {
 4982              		.loc 1 1926 8 view .LVU1732
 4983 01e6 012C     		cmp	r4, #1
 4984 01e8 B6D1     		bne	.L305
1926:Drivers/STM32H7xx_HAL_Driver/Src/stm32h7xx_ll_usb.c ****     {
 4985              		.loc 1 1926 45 discriminator 1 view .LVU1733
 4986 01ea CC78     		ldrb	r4, [r1, #3]	@ zero_extendqisi2
1926:Drivers/STM32H7xx_HAL_Driver/Src/stm32h7xx_ll_usb.c ****     {
 4987              		.loc 1 1926 39 discriminator 1 view .LVU1734
 4988 01ec 002C     		cmp	r4, #0
 4989 01ee B3D1     		bne	.L305
1929:Drivers/STM32H7xx_HAL_Driver/Src/stm32h7xx_ll_usb.c ****       {
 4990              		.loc 1 1929 7 is_stmt 1 view .LVU1735
1929:Drivers/STM32H7xx_HAL_Driver/Src/stm32h7xx_ll_usb.c ****       {
 4991              		.loc 1 1929 17 is_stmt 0 view .LVU1736
 4992 01f0 CC68     		ldr	r4, [r1, #12]
1929:Drivers/STM32H7xx_HAL_Driver/Src/stm32h7xx_ll_usb.c ****       {
 4993              		.loc 1 1929 7 view .LVU1737
 4994 01f2 013C     		subs	r4, r4, #1
 4995 01f4 032C     		cmp	r4, #3
 4996 01f6 AFD8     		bhi	.L305
 4997 01f8 DFE804F0 		tbb	[pc, r4]
 4998              	.L307:
 4999 01fc 1C       		.byte	(.L310-.L307)/2
 5000 01fd 23       		.byte	(.L309-.L307)/2
 5001 01fe 2A       		.byte	(.L308-.L307)/2
 5002 01ff 31       		.byte	(.L306-.L307)/2
 5003              		.p2align 1
 5004              	.L328:
1913:Drivers/STM32H7xx_HAL_Driver/Src/stm32h7xx_ll_usb.c ****     {
 5005              		.loc 1 1913 37 discriminator 1 view .LVU1738
 5006 0200 CC78     		ldrb	r4, [r1, #3]	@ zero_extendqisi2
1913:Drivers/STM32H7xx_HAL_Driver/Src/stm32h7xx_ll_usb.c ****     {
 5007              		.loc 1 1913 31 discriminator 1 view .LVU1739
 5008 0202 002C     		cmp	r4, #0
 5009 0204 E6D1     		bne	.L303
1915:Drivers/STM32H7xx_HAL_Driver/Src/stm32h7xx_ll_usb.c ****       USBx_HC((uint32_t)ch_num)->HCINTMSK |= USB_OTG_HCINTMSK_NYET;
 5010              		.loc 1 1915 7 is_stmt 1 view .LVU1740
1915:Drivers/STM32H7xx_HAL_Driver/Src/stm32h7xx_ll_usb.c ****       USBx_HC((uint32_t)ch_num)->HCINTMSK |= USB_OTG_HCINTMSK_NYET;
 5011              		.loc 1 1915 32 is_stmt 0 view .LVU1741
ARM GAS  C:\Users\Nathan\AppData\Local\Temp\cc7cwqzo.s 			page 150


 5012 0206 DEF80440 		ldr	r4, [lr, #4]
1915:Drivers/STM32H7xx_HAL_Driver/Src/stm32h7xx_ll_usb.c ****       USBx_HC((uint32_t)ch_num)->HCINTMSK |= USB_OTG_HCINTMSK_NYET;
 5013              		.loc 1 1915 41 view .LVU1742
 5014 020a 44F48034 		orr	r4, r4, #65536
 5015 020e CEF80440 		str	r4, [lr, #4]
1916:Drivers/STM32H7xx_HAL_Driver/Src/stm32h7xx_ll_usb.c ****     }
 5016              		.loc 1 1916 7 is_stmt 1 view .LVU1743
1916:Drivers/STM32H7xx_HAL_Driver/Src/stm32h7xx_ll_usb.c ****     }
 5017              		.loc 1 1916 32 is_stmt 0 view .LVU1744
 5018 0212 DEF80C40 		ldr	r4, [lr, #12]
1916:Drivers/STM32H7xx_HAL_Driver/Src/stm32h7xx_ll_usb.c ****     }
 5019              		.loc 1 1916 43 view .LVU1745
 5020 0216 44F04004 		orr	r4, r4, #64
 5021 021a CEF80C40 		str	r4, [lr, #12]
 5022 021e D9E7     		b	.L303
 5023              	.L329:
1920:Drivers/STM32H7xx_HAL_Driver/Src/stm32h7xx_ll_usb.c ****     {
 5024              		.loc 1 1920 37 view .LVU1746
 5025 0220 CC78     		ldrb	r4, [r1, #3]	@ zero_extendqisi2
1920:Drivers/STM32H7xx_HAL_Driver/Src/stm32h7xx_ll_usb.c ****     {
 5026              		.loc 1 1920 31 view .LVU1747
 5027 0222 012C     		cmp	r4, #1
 5028 0224 DED1     		bne	.L304
1922:Drivers/STM32H7xx_HAL_Driver/Src/stm32h7xx_ll_usb.c ****     }
 5029              		.loc 1 1922 7 is_stmt 1 view .LVU1748
1922:Drivers/STM32H7xx_HAL_Driver/Src/stm32h7xx_ll_usb.c ****     }
 5030              		.loc 1 1922 32 is_stmt 0 view .LVU1749
 5031 0226 DEF80440 		ldr	r4, [lr, #4]
1922:Drivers/STM32H7xx_HAL_Driver/Src/stm32h7xx_ll_usb.c ****     }
 5032              		.loc 1 1922 41 view .LVU1750
 5033 022a 44F48034 		orr	r4, r4, #65536
 5034 022e CEF80440 		str	r4, [lr, #4]
 5035 0232 D7E7     		b	.L304
 5036              	.L310:
1933:Drivers/STM32H7xx_HAL_Driver/Src/stm32h7xx_ll_usb.c ****           break;
 5037              		.loc 1 1933 11 is_stmt 1 view .LVU1751
1933:Drivers/STM32H7xx_HAL_Driver/Src/stm32h7xx_ll_usb.c ****           break;
 5038              		.loc 1 1933 36 is_stmt 0 view .LVU1752
 5039 0234 DEF80440 		ldr	r4, [lr, #4]
1933:Drivers/STM32H7xx_HAL_Driver/Src/stm32h7xx_ll_usb.c ****           break;
 5040              		.loc 1 1933 45 view .LVU1753
 5041 0238 44F40044 		orr	r4, r4, #32768
 5042 023c CEF80440 		str	r4, [lr, #4]
1934:Drivers/STM32H7xx_HAL_Driver/Src/stm32h7xx_ll_usb.c **** 
 5043              		.loc 1 1934 11 is_stmt 1 view .LVU1754
 5044 0240 8AE7     		b	.L305
 5045              	.L309:
1938:Drivers/STM32H7xx_HAL_Driver/Src/stm32h7xx_ll_usb.c ****           break;
 5046              		.loc 1 1938 11 view .LVU1755
1938:Drivers/STM32H7xx_HAL_Driver/Src/stm32h7xx_ll_usb.c ****           break;
 5047              		.loc 1 1938 36 is_stmt 0 view .LVU1756
 5048 0242 DEF80440 		ldr	r4, [lr, #4]
1938:Drivers/STM32H7xx_HAL_Driver/Src/stm32h7xx_ll_usb.c ****           break;
 5049              		.loc 1 1938 45 view .LVU1757
 5050 0246 44F00E04 		orr	r4, r4, #14
 5051 024a CEF80440 		str	r4, [lr, #4]
1939:Drivers/STM32H7xx_HAL_Driver/Src/stm32h7xx_ll_usb.c **** 
ARM GAS  C:\Users\Nathan\AppData\Local\Temp\cc7cwqzo.s 			page 151


 5052              		.loc 1 1939 11 is_stmt 1 view .LVU1758
 5053 024e 83E7     		b	.L305
 5054              	.L308:
1943:Drivers/STM32H7xx_HAL_Driver/Src/stm32h7xx_ll_usb.c ****           break;
 5055              		.loc 1 1943 11 view .LVU1759
1943:Drivers/STM32H7xx_HAL_Driver/Src/stm32h7xx_ll_usb.c ****           break;
 5056              		.loc 1 1943 36 is_stmt 0 view .LVU1760
 5057 0250 DEF80440 		ldr	r4, [lr, #4]
1943:Drivers/STM32H7xx_HAL_Driver/Src/stm32h7xx_ll_usb.c ****           break;
 5058              		.loc 1 1943 45 view .LVU1761
 5059 0254 44F48044 		orr	r4, r4, #16384
 5060 0258 CEF80440 		str	r4, [lr, #4]
1944:Drivers/STM32H7xx_HAL_Driver/Src/stm32h7xx_ll_usb.c **** 
 5061              		.loc 1 1944 11 is_stmt 1 view .LVU1762
 5062 025c 7CE7     		b	.L305
 5063              	.L306:
1948:Drivers/STM32H7xx_HAL_Driver/Src/stm32h7xx_ll_usb.c ****           break;
 5064              		.loc 1 1948 11 view .LVU1763
1948:Drivers/STM32H7xx_HAL_Driver/Src/stm32h7xx_ll_usb.c ****           break;
 5065              		.loc 1 1948 36 is_stmt 0 view .LVU1764
 5066 025e DEF80440 		ldr	r4, [lr, #4]
1948:Drivers/STM32H7xx_HAL_Driver/Src/stm32h7xx_ll_usb.c ****           break;
 5067              		.loc 1 1948 45 view .LVU1765
 5068 0262 44F44044 		orr	r4, r4, #49152
 5069 0266 CEF80440 		str	r4, [lr, #4]
1949:Drivers/STM32H7xx_HAL_Driver/Src/stm32h7xx_ll_usb.c **** 
 5070              		.loc 1 1949 11 is_stmt 1 view .LVU1766
 5071 026a 75E7     		b	.L305
 5072              	.L311:
1973:Drivers/STM32H7xx_HAL_Driver/Src/stm32h7xx_ll_usb.c ****   }
 5073              		.loc 1 1973 5 view .LVU1767
1973:Drivers/STM32H7xx_HAL_Driver/Src/stm32h7xx_ll_usb.c ****   }
 5074              		.loc 1 1973 12 is_stmt 0 view .LVU1768
 5075 026c 039C     		ldr	r4, [sp, #12]
 5076 026e 24F40044 		bic	r4, r4, #32768
 5077 0272 0394     		str	r4, [sp, #12]
 5078 0274 7EE7     		b	.L312
 5079              	.LVL358:
 5080              	.L316:
1991:Drivers/STM32H7xx_HAL_Driver/Src/stm32h7xx_ll_usb.c **** 
 5081              		.loc 1 1991 9 is_stmt 1 view .LVU1769
1991:Drivers/STM32H7xx_HAL_Driver/Src/stm32h7xx_ll_usb.c **** 
 5082              		.loc 1 1991 46 is_stmt 0 view .LVU1770
 5083 0276 0333     		adds	r3, r3, #3
 5084              	.LVL359:
1994:Drivers/STM32H7xx_HAL_Driver/Src/stm32h7xx_ll_usb.c ****         {
 5085              		.loc 1 1994 9 is_stmt 1 view .LVU1771
1994:Drivers/STM32H7xx_HAL_Driver/Src/stm32h7xx_ll_usb.c ****         {
 5086              		.loc 1 1994 30 is_stmt 0 view .LVU1772
 5087 0278 C26A     		ldr	r2, [r0, #44]
1994:Drivers/STM32H7xx_HAL_Driver/Src/stm32h7xx_ll_usb.c ****         {
 5088              		.loc 1 1994 41 view .LVU1773
 5089 027a 92B2     		uxth	r2, r2
1994:Drivers/STM32H7xx_HAL_Driver/Src/stm32h7xx_ll_usb.c ****         {
 5090              		.loc 1 1994 12 view .LVU1774
 5091 027c C3F38F03 		ubfx	r3, r3, #2, #16
 5092              	.LVL360:
ARM GAS  C:\Users\Nathan\AppData\Local\Temp\cc7cwqzo.s 			page 152


1994:Drivers/STM32H7xx_HAL_Driver/Src/stm32h7xx_ll_usb.c ****         {
 5093              		.loc 1 1994 12 view .LVU1775
 5094 0280 9A42     		cmp	r2, r3
 5095 0282 03D2     		bcs	.L313
1997:Drivers/STM32H7xx_HAL_Driver/Src/stm32h7xx_ll_usb.c ****         }
 5096              		.loc 1 1997 11 is_stmt 1 view .LVU1776
1997:Drivers/STM32H7xx_HAL_Driver/Src/stm32h7xx_ll_usb.c ****         }
 5097              		.loc 1 1997 15 is_stmt 0 view .LVU1777
 5098 0284 8369     		ldr	r3, [r0, #24]
1997:Drivers/STM32H7xx_HAL_Driver/Src/stm32h7xx_ll_usb.c ****         }
 5099              		.loc 1 1997 25 view .LVU1778
 5100 0286 43F02003 		orr	r3, r3, #32
 5101 028a 8361     		str	r3, [r0, #24]
 5102              	.LVL361:
 5103              	.L313:
2018:Drivers/STM32H7xx_HAL_Driver/Src/stm32h7xx_ll_usb.c ****   }
 5104              		.loc 1 2018 5 is_stmt 1 view .LVU1779
2018:Drivers/STM32H7xx_HAL_Driver/Src/stm32h7xx_ll_usb.c ****   }
 5105              		.loc 1 2018 11 is_stmt 0 view .LVU1780
 5106 028c 0023     		movs	r3, #0
 5107 028e 0093     		str	r3, [sp]
 5108 0290 0B8C     		ldrh	r3, [r1, #32]
 5109 0292 4A78     		ldrb	r2, [r1, #1]	@ zero_extendqisi2
 5110 0294 8969     		ldr	r1, [r1, #24]
 5111              	.LVL362:
2018:Drivers/STM32H7xx_HAL_Driver/Src/stm32h7xx_ll_usb.c ****   }
 5112              		.loc 1 2018 11 view .LVU1781
 5113 0296 FFF7FEFF 		bl	USB_WritePacket
 5114              	.LVL363:
2018:Drivers/STM32H7xx_HAL_Driver/Src/stm32h7xx_ll_usb.c ****   }
 5115              		.loc 1 2018 11 view .LVU1782
 5116 029a E2E6     		b	.L290
 5117              	.LVL364:
 5118              	.L314:
2004:Drivers/STM32H7xx_HAL_Driver/Src/stm32h7xx_ll_usb.c ****         /* check if there is enough space in FIFO space */
 5119              		.loc 1 2004 9 is_stmt 1 view .LVU1783
2004:Drivers/STM32H7xx_HAL_Driver/Src/stm32h7xx_ll_usb.c ****         /* check if there is enough space in FIFO space */
 5120              		.loc 1 2004 46 is_stmt 0 view .LVU1784
 5121 029c 0333     		adds	r3, r3, #3
 5122              	.LVL365:
2006:Drivers/STM32H7xx_HAL_Driver/Src/stm32h7xx_ll_usb.c ****         {
 5123              		.loc 1 2006 9 is_stmt 1 view .LVU1785
2006:Drivers/STM32H7xx_HAL_Driver/Src/stm32h7xx_ll_usb.c ****         {
 5124              		.loc 1 2006 35 is_stmt 0 view .LVU1786
 5125 029e 2A69     		ldr	r2, [r5, #16]
2006:Drivers/STM32H7xx_HAL_Driver/Src/stm32h7xx_ll_usb.c ****         {
 5126              		.loc 1 2006 45 view .LVU1787
 5127 02a0 92B2     		uxth	r2, r2
2006:Drivers/STM32H7xx_HAL_Driver/Src/stm32h7xx_ll_usb.c ****         {
 5128              		.loc 1 2006 12 view .LVU1788
 5129 02a2 C3F38F03 		ubfx	r3, r3, #2, #16
 5130              	.LVL366:
2006:Drivers/STM32H7xx_HAL_Driver/Src/stm32h7xx_ll_usb.c ****         {
 5131              		.loc 1 2006 12 view .LVU1789
 5132 02a6 9A42     		cmp	r2, r3
 5133 02a8 F0D2     		bcs	.L313
2009:Drivers/STM32H7xx_HAL_Driver/Src/stm32h7xx_ll_usb.c ****         }
ARM GAS  C:\Users\Nathan\AppData\Local\Temp\cc7cwqzo.s 			page 153


 5134              		.loc 1 2009 11 is_stmt 1 view .LVU1790
2009:Drivers/STM32H7xx_HAL_Driver/Src/stm32h7xx_ll_usb.c ****         }
 5135              		.loc 1 2009 15 is_stmt 0 view .LVU1791
 5136 02aa 8369     		ldr	r3, [r0, #24]
2009:Drivers/STM32H7xx_HAL_Driver/Src/stm32h7xx_ll_usb.c ****         }
 5137              		.loc 1 2009 25 view .LVU1792
 5138 02ac 43F08063 		orr	r3, r3, #67108864
 5139 02b0 8361     		str	r3, [r0, #24]
 5140              	.LVL367:
2009:Drivers/STM32H7xx_HAL_Driver/Src/stm32h7xx_ll_usb.c ****         }
 5141              		.loc 1 2009 25 view .LVU1793
 5142 02b2 EBE7     		b	.L313
 5143              	.L331:
 5144              		.align	2
 5145              	.L330:
 5146 02b4 0000F81F 		.word	536346624
 5147              		.cfi_endproc
 5148              	.LFE186:
 5150              		.section	.text.USB_StopHost,"ax",%progbits
 5151              		.align	1
 5152              		.global	USB_StopHost
 5153              		.syntax unified
 5154              		.thumb
 5155              		.thumb_func
 5157              	USB_StopHost:
 5158              	.LVL368:
 5159              	.LFB190:
2145:Drivers/STM32H7xx_HAL_Driver/Src/stm32h7xx_ll_usb.c **** 
2146:Drivers/STM32H7xx_HAL_Driver/Src/stm32h7xx_ll_usb.c **** /**
2147:Drivers/STM32H7xx_HAL_Driver/Src/stm32h7xx_ll_usb.c ****   * @brief  Stop Host Core
2148:Drivers/STM32H7xx_HAL_Driver/Src/stm32h7xx_ll_usb.c ****   * @param  USBx  Selected device
2149:Drivers/STM32H7xx_HAL_Driver/Src/stm32h7xx_ll_usb.c ****   * @retval HAL state
2150:Drivers/STM32H7xx_HAL_Driver/Src/stm32h7xx_ll_usb.c ****   */
2151:Drivers/STM32H7xx_HAL_Driver/Src/stm32h7xx_ll_usb.c **** HAL_StatusTypeDef USB_StopHost(USB_OTG_GlobalTypeDef *USBx)
2152:Drivers/STM32H7xx_HAL_Driver/Src/stm32h7xx_ll_usb.c **** {
 5160              		.loc 1 2152 1 is_stmt 1 view -0
 5161              		.cfi_startproc
 5162              		@ args = 0, pretend = 0, frame = 8
 5163              		@ frame_needed = 0, uses_anonymous_args = 0
 5164              		.loc 1 2152 1 is_stmt 0 view .LVU1795
 5165 0000 30B5     		push	{r4, r5, lr}
 5166              		.cfi_def_cfa_offset 12
 5167              		.cfi_offset 4, -12
 5168              		.cfi_offset 5, -8
 5169              		.cfi_offset 14, -4
 5170 0002 83B0     		sub	sp, sp, #12
 5171              		.cfi_def_cfa_offset 24
 5172 0004 0446     		mov	r4, r0
2153:Drivers/STM32H7xx_HAL_Driver/Src/stm32h7xx_ll_usb.c ****   HAL_StatusTypeDef ret = HAL_OK;
 5173              		.loc 1 2153 3 is_stmt 1 view .LVU1796
 5174              	.LVL369:
2154:Drivers/STM32H7xx_HAL_Driver/Src/stm32h7xx_ll_usb.c ****   uint32_t USBx_BASE = (uint32_t)USBx;
 5175              		.loc 1 2154 3 view .LVU1797
2155:Drivers/STM32H7xx_HAL_Driver/Src/stm32h7xx_ll_usb.c ****   __IO uint32_t count = 0U;
 5176              		.loc 1 2155 3 view .LVU1798
 5177              		.loc 1 2155 17 is_stmt 0 view .LVU1799
 5178 0006 0023     		movs	r3, #0
ARM GAS  C:\Users\Nathan\AppData\Local\Temp\cc7cwqzo.s 			page 154


 5179 0008 0193     		str	r3, [sp, #4]
2156:Drivers/STM32H7xx_HAL_Driver/Src/stm32h7xx_ll_usb.c ****   uint32_t value;
 5180              		.loc 1 2156 3 is_stmt 1 view .LVU1800
2157:Drivers/STM32H7xx_HAL_Driver/Src/stm32h7xx_ll_usb.c ****   uint32_t i;
 5181              		.loc 1 2157 3 view .LVU1801
2158:Drivers/STM32H7xx_HAL_Driver/Src/stm32h7xx_ll_usb.c **** 
2159:Drivers/STM32H7xx_HAL_Driver/Src/stm32h7xx_ll_usb.c ****   (void)USB_DisableGlobalInt(USBx);
 5182              		.loc 1 2159 3 view .LVU1802
 5183              		.loc 1 2159 9 is_stmt 0 view .LVU1803
 5184 000a FFF7FEFF 		bl	USB_DisableGlobalInt
 5185              	.LVL370:
2160:Drivers/STM32H7xx_HAL_Driver/Src/stm32h7xx_ll_usb.c **** 
2161:Drivers/STM32H7xx_HAL_Driver/Src/stm32h7xx_ll_usb.c ****   /* Flush USB FIFO */
2162:Drivers/STM32H7xx_HAL_Driver/Src/stm32h7xx_ll_usb.c ****   if (USB_FlushTxFifo(USBx, 0x10U) != HAL_OK) /* all Tx FIFOs */
 5186              		.loc 1 2162 3 is_stmt 1 view .LVU1804
 5187              		.loc 1 2162 7 is_stmt 0 view .LVU1805
 5188 000e 1021     		movs	r1, #16
 5189 0010 2046     		mov	r0, r4
 5190 0012 FFF7FEFF 		bl	USB_FlushTxFifo
 5191              	.LVL371:
 5192              		.loc 1 2162 6 discriminator 1 view .LVU1806
 5193 0016 0546     		mov	r5, r0
 5194 0018 00B1     		cbz	r0, .L333
2163:Drivers/STM32H7xx_HAL_Driver/Src/stm32h7xx_ll_usb.c ****   {
2164:Drivers/STM32H7xx_HAL_Driver/Src/stm32h7xx_ll_usb.c ****     ret = HAL_ERROR;
 5195              		.loc 1 2164 9 view .LVU1807
 5196 001a 0125     		movs	r5, #1
 5197              	.L333:
 5198              	.LVL372:
2165:Drivers/STM32H7xx_HAL_Driver/Src/stm32h7xx_ll_usb.c ****   }
2166:Drivers/STM32H7xx_HAL_Driver/Src/stm32h7xx_ll_usb.c **** 
2167:Drivers/STM32H7xx_HAL_Driver/Src/stm32h7xx_ll_usb.c ****   if (USB_FlushRxFifo(USBx) != HAL_OK)
 5199              		.loc 1 2167 3 is_stmt 1 view .LVU1808
 5200              		.loc 1 2167 7 is_stmt 0 view .LVU1809
 5201 001c 2046     		mov	r0, r4
 5202 001e FFF7FEFF 		bl	USB_FlushRxFifo
 5203              	.LVL373:
 5204              		.loc 1 2167 6 discriminator 1 view .LVU1810
 5205 0022 00B1     		cbz	r0, .L334
2168:Drivers/STM32H7xx_HAL_Driver/Src/stm32h7xx_ll_usb.c ****   {
2169:Drivers/STM32H7xx_HAL_Driver/Src/stm32h7xx_ll_usb.c ****     ret = HAL_ERROR;
 5206              		.loc 1 2169 9 view .LVU1811
 5207 0024 0125     		movs	r5, #1
 5208              	.LVL374:
 5209              	.L334:
2170:Drivers/STM32H7xx_HAL_Driver/Src/stm32h7xx_ll_usb.c ****   }
2171:Drivers/STM32H7xx_HAL_Driver/Src/stm32h7xx_ll_usb.c **** 
2172:Drivers/STM32H7xx_HAL_Driver/Src/stm32h7xx_ll_usb.c ****   /* Flush out any leftover queued requests. */
2173:Drivers/STM32H7xx_HAL_Driver/Src/stm32h7xx_ll_usb.c ****   for (i = 0U; i <= 15U; i++)
 5210              		.loc 1 2173 3 is_stmt 1 view .LVU1812
 5211              		.loc 1 2173 10 is_stmt 0 view .LVU1813
 5212 0026 0022     		movs	r2, #0
 5213              		.loc 1 2173 3 view .LVU1814
 5214 0028 0AE0     		b	.L335
 5215              	.LVL375:
 5216              	.L336:
2174:Drivers/STM32H7xx_HAL_Driver/Src/stm32h7xx_ll_usb.c ****   {
ARM GAS  C:\Users\Nathan\AppData\Local\Temp\cc7cwqzo.s 			page 155


2175:Drivers/STM32H7xx_HAL_Driver/Src/stm32h7xx_ll_usb.c ****     value = USBx_HC(i)->HCCHAR;
 5217              		.loc 1 2175 5 is_stmt 1 view .LVU1815
 5218              		.loc 1 2175 13 is_stmt 0 view .LVU1816
 5219 002a 04EB4211 		add	r1, r4, r2, lsl #5
 5220              		.loc 1 2175 11 view .LVU1817
 5221 002e D1F80035 		ldr	r3, [r1, #1280]
 5222              	.LVL376:
2176:Drivers/STM32H7xx_HAL_Driver/Src/stm32h7xx_ll_usb.c ****     value |=  USB_OTG_HCCHAR_CHDIS;
 5223              		.loc 1 2176 5 is_stmt 1 view .LVU1818
2177:Drivers/STM32H7xx_HAL_Driver/Src/stm32h7xx_ll_usb.c ****     value &= ~USB_OTG_HCCHAR_CHENA;
 5224              		.loc 1 2177 5 view .LVU1819
2178:Drivers/STM32H7xx_HAL_Driver/Src/stm32h7xx_ll_usb.c ****     value &= ~USB_OTG_HCCHAR_EPDIR;
 5225              		.loc 1 2178 5 view .LVU1820
 5226 0032 23F08023 		bic	r3, r3, #-2147450880
 5227              	.LVL377:
 5228              		.loc 1 2178 11 is_stmt 0 view .LVU1821
 5229 0036 43F08043 		orr	r3, r3, #1073741824
 5230              	.LVL378:
2179:Drivers/STM32H7xx_HAL_Driver/Src/stm32h7xx_ll_usb.c ****     USBx_HC(i)->HCCHAR = value;
 5231              		.loc 1 2179 5 is_stmt 1 view .LVU1822
 5232              		.loc 1 2179 24 is_stmt 0 view .LVU1823
 5233 003a C1F80035 		str	r3, [r1, #1280]
2173:Drivers/STM32H7xx_HAL_Driver/Src/stm32h7xx_ll_usb.c ****   {
 5234              		.loc 1 2173 27 is_stmt 1 discriminator 3 view .LVU1824
 5235 003e 0132     		adds	r2, r2, #1
 5236              	.LVL379:
 5237              	.L335:
2173:Drivers/STM32H7xx_HAL_Driver/Src/stm32h7xx_ll_usb.c ****   {
 5238              		.loc 1 2173 18 discriminator 1 view .LVU1825
 5239 0040 0F2A     		cmp	r2, #15
 5240 0042 F2D9     		bls	.L336
2180:Drivers/STM32H7xx_HAL_Driver/Src/stm32h7xx_ll_usb.c ****   }
2181:Drivers/STM32H7xx_HAL_Driver/Src/stm32h7xx_ll_usb.c **** 
2182:Drivers/STM32H7xx_HAL_Driver/Src/stm32h7xx_ll_usb.c ****   /* Halt all channels to put them into a known state. */
2183:Drivers/STM32H7xx_HAL_Driver/Src/stm32h7xx_ll_usb.c ****   for (i = 0U; i <= 15U; i++)
 5241              		.loc 1 2183 10 is_stmt 0 view .LVU1826
 5242 0044 0021     		movs	r1, #0
 5243 0046 00E0     		b	.L337
 5244              	.LVL380:
 5245              	.L338:
 5246              		.loc 1 2183 27 is_stmt 1 discriminator 2 view .LVU1827
 5247 0048 0131     		adds	r1, r1, #1
 5248              	.LVL381:
 5249              	.L337:
 5250              		.loc 1 2183 18 discriminator 1 view .LVU1828
 5251 004a 0F29     		cmp	r1, #15
 5252 004c 16D8     		bhi	.L344
2184:Drivers/STM32H7xx_HAL_Driver/Src/stm32h7xx_ll_usb.c ****   {
2185:Drivers/STM32H7xx_HAL_Driver/Src/stm32h7xx_ll_usb.c ****     value = USBx_HC(i)->HCCHAR;
 5253              		.loc 1 2185 5 view .LVU1829
 5254              		.loc 1 2185 13 is_stmt 0 view .LVU1830
 5255 004e 04EB4110 		add	r0, r4, r1, lsl #5
 5256 0052 00F5A062 		add	r2, r0, #1280
 5257              		.loc 1 2185 11 view .LVU1831
 5258 0056 D0F80035 		ldr	r3, [r0, #1280]
 5259              	.LVL382:
2186:Drivers/STM32H7xx_HAL_Driver/Src/stm32h7xx_ll_usb.c ****     value |= USB_OTG_HCCHAR_CHDIS;
ARM GAS  C:\Users\Nathan\AppData\Local\Temp\cc7cwqzo.s 			page 156


 5260              		.loc 1 2186 5 is_stmt 1 view .LVU1832
2187:Drivers/STM32H7xx_HAL_Driver/Src/stm32h7xx_ll_usb.c ****     value |= USB_OTG_HCCHAR_CHENA;
 5261              		.loc 1 2187 5 view .LVU1833
2188:Drivers/STM32H7xx_HAL_Driver/Src/stm32h7xx_ll_usb.c ****     value &= ~USB_OTG_HCCHAR_EPDIR;
 5262              		.loc 1 2188 5 view .LVU1834
 5263 005a 23F40043 		bic	r3, r3, #32768
 5264              	.LVL383:
 5265              		.loc 1 2188 11 is_stmt 0 view .LVU1835
 5266 005e 43F04043 		orr	r3, r3, #-1073741824
 5267              	.LVL384:
2189:Drivers/STM32H7xx_HAL_Driver/Src/stm32h7xx_ll_usb.c ****     USBx_HC(i)->HCCHAR = value;
 5268              		.loc 1 2189 5 is_stmt 1 view .LVU1836
 5269              		.loc 1 2189 24 is_stmt 0 view .LVU1837
 5270 0062 C0F80035 		str	r3, [r0, #1280]
 5271              	.LVL385:
 5272              	.L339:
2190:Drivers/STM32H7xx_HAL_Driver/Src/stm32h7xx_ll_usb.c **** 
2191:Drivers/STM32H7xx_HAL_Driver/Src/stm32h7xx_ll_usb.c ****     do
 5273              		.loc 1 2191 5 is_stmt 1 view .LVU1838
2192:Drivers/STM32H7xx_HAL_Driver/Src/stm32h7xx_ll_usb.c ****     {
2193:Drivers/STM32H7xx_HAL_Driver/Src/stm32h7xx_ll_usb.c ****       count++;
 5274              		.loc 1 2193 7 view .LVU1839
 5275              		.loc 1 2193 12 is_stmt 0 view .LVU1840
 5276 0066 019B     		ldr	r3, [sp, #4]
 5277 0068 0133     		adds	r3, r3, #1
 5278 006a 0193     		str	r3, [sp, #4]
2194:Drivers/STM32H7xx_HAL_Driver/Src/stm32h7xx_ll_usb.c **** 
2195:Drivers/STM32H7xx_HAL_Driver/Src/stm32h7xx_ll_usb.c ****       if (count > 1000U)
 5279              		.loc 1 2195 7 is_stmt 1 view .LVU1841
 5280              		.loc 1 2195 17 is_stmt 0 view .LVU1842
 5281 006c 019B     		ldr	r3, [sp, #4]
 5282              		.loc 1 2195 10 view .LVU1843
 5283 006e B3F57A7F 		cmp	r3, #1000
 5284 0072 E9D8     		bhi	.L338
2196:Drivers/STM32H7xx_HAL_Driver/Src/stm32h7xx_ll_usb.c ****       {
2197:Drivers/STM32H7xx_HAL_Driver/Src/stm32h7xx_ll_usb.c ****         break;
2198:Drivers/STM32H7xx_HAL_Driver/Src/stm32h7xx_ll_usb.c ****       }
2199:Drivers/STM32H7xx_HAL_Driver/Src/stm32h7xx_ll_usb.c ****     } while ((USBx_HC(i)->HCCHAR & USB_OTG_HCCHAR_CHENA) == USB_OTG_HCCHAR_CHENA);
 5285              		.loc 1 2199 58 is_stmt 1 view .LVU1844
 5286              		.loc 1 2199 25 is_stmt 0 view .LVU1845
 5287 0074 1368     		ldr	r3, [r2]
 5288              		.loc 1 2199 58 view .LVU1846
 5289 0076 002B     		cmp	r3, #0
 5290 0078 F5DB     		blt	.L339
 5291 007a E5E7     		b	.L338
 5292              	.LVL386:
 5293              	.L344:
2200:Drivers/STM32H7xx_HAL_Driver/Src/stm32h7xx_ll_usb.c ****   }
2201:Drivers/STM32H7xx_HAL_Driver/Src/stm32h7xx_ll_usb.c **** 
2202:Drivers/STM32H7xx_HAL_Driver/Src/stm32h7xx_ll_usb.c ****   /* Clear any pending Host interrupts */
2203:Drivers/STM32H7xx_HAL_Driver/Src/stm32h7xx_ll_usb.c ****   USBx_HOST->HAINT = CLEAR_INTERRUPT_MASK;
 5294              		.loc 1 2203 3 is_stmt 1 view .LVU1847
 5295              		.loc 1 2203 20 is_stmt 0 view .LVU1848
 5296 007c 4FF0FF33 		mov	r3, #-1
 5297 0080 C4F81434 		str	r3, [r4, #1044]
2204:Drivers/STM32H7xx_HAL_Driver/Src/stm32h7xx_ll_usb.c ****   USBx->GINTSTS = CLEAR_INTERRUPT_MASK;
 5298              		.loc 1 2204 3 is_stmt 1 view .LVU1849
ARM GAS  C:\Users\Nathan\AppData\Local\Temp\cc7cwqzo.s 			page 157


 5299              		.loc 1 2204 17 is_stmt 0 view .LVU1850
 5300 0084 6361     		str	r3, [r4, #20]
2205:Drivers/STM32H7xx_HAL_Driver/Src/stm32h7xx_ll_usb.c **** 
2206:Drivers/STM32H7xx_HAL_Driver/Src/stm32h7xx_ll_usb.c ****   (void)USB_EnableGlobalInt(USBx);
 5301              		.loc 1 2206 3 is_stmt 1 view .LVU1851
 5302              		.loc 1 2206 9 is_stmt 0 view .LVU1852
 5303 0086 2046     		mov	r0, r4
 5304 0088 FFF7FEFF 		bl	USB_EnableGlobalInt
 5305              	.LVL387:
2207:Drivers/STM32H7xx_HAL_Driver/Src/stm32h7xx_ll_usb.c **** 
2208:Drivers/STM32H7xx_HAL_Driver/Src/stm32h7xx_ll_usb.c ****   return ret;
 5306              		.loc 1 2208 3 is_stmt 1 view .LVU1853
2209:Drivers/STM32H7xx_HAL_Driver/Src/stm32h7xx_ll_usb.c **** }
 5307              		.loc 1 2209 1 is_stmt 0 view .LVU1854
 5308 008c 2846     		mov	r0, r5
 5309 008e 03B0     		add	sp, sp, #12
 5310              		.cfi_def_cfa_offset 12
 5311              		@ sp needed
 5312 0090 30BD     		pop	{r4, r5, pc}
 5313              		.loc 1 2209 1 view .LVU1855
 5314              		.cfi_endproc
 5315              	.LFE190:
 5317              		.section	.text.USB_ActivateRemoteWakeup,"ax",%progbits
 5318              		.align	1
 5319              		.global	USB_ActivateRemoteWakeup
 5320              		.syntax unified
 5321              		.thumb
 5322              		.thumb_func
 5324              	USB_ActivateRemoteWakeup:
 5325              	.LVL388:
 5326              	.LFB191:
2210:Drivers/STM32H7xx_HAL_Driver/Src/stm32h7xx_ll_usb.c **** 
2211:Drivers/STM32H7xx_HAL_Driver/Src/stm32h7xx_ll_usb.c **** /**
2212:Drivers/STM32H7xx_HAL_Driver/Src/stm32h7xx_ll_usb.c ****   * @brief  USB_ActivateRemoteWakeup active remote wakeup signalling
2213:Drivers/STM32H7xx_HAL_Driver/Src/stm32h7xx_ll_usb.c ****   * @param  USBx Selected device
2214:Drivers/STM32H7xx_HAL_Driver/Src/stm32h7xx_ll_usb.c ****   * @retval HAL status
2215:Drivers/STM32H7xx_HAL_Driver/Src/stm32h7xx_ll_usb.c ****   */
2216:Drivers/STM32H7xx_HAL_Driver/Src/stm32h7xx_ll_usb.c **** HAL_StatusTypeDef USB_ActivateRemoteWakeup(const USB_OTG_GlobalTypeDef *USBx)
2217:Drivers/STM32H7xx_HAL_Driver/Src/stm32h7xx_ll_usb.c **** {
 5327              		.loc 1 2217 1 is_stmt 1 view -0
 5328              		.cfi_startproc
 5329              		@ args = 0, pretend = 0, frame = 0
 5330              		@ frame_needed = 0, uses_anonymous_args = 0
 5331              		@ link register save eliminated.
2218:Drivers/STM32H7xx_HAL_Driver/Src/stm32h7xx_ll_usb.c ****   uint32_t USBx_BASE = (uint32_t)USBx;
 5332              		.loc 1 2218 3 view .LVU1857
2219:Drivers/STM32H7xx_HAL_Driver/Src/stm32h7xx_ll_usb.c **** 
2220:Drivers/STM32H7xx_HAL_Driver/Src/stm32h7xx_ll_usb.c ****   if ((USBx_DEVICE->DSTS & USB_OTG_DSTS_SUSPSTS) == USB_OTG_DSTS_SUSPSTS)
 5333              		.loc 1 2220 3 view .LVU1858
 5334              		.loc 1 2220 19 is_stmt 0 view .LVU1859
 5335 0000 D0F80838 		ldr	r3, [r0, #2056]
 5336              		.loc 1 2220 8 view .LVU1860
 5337 0004 00F50060 		add	r0, r0, #2048
 5338              	.LVL389:
 5339              		.loc 1 2220 6 view .LVU1861
 5340 0008 13F0010F 		tst	r3, #1
 5341 000c 03D0     		beq	.L346
ARM GAS  C:\Users\Nathan\AppData\Local\Temp\cc7cwqzo.s 			page 158


2221:Drivers/STM32H7xx_HAL_Driver/Src/stm32h7xx_ll_usb.c ****   {
2222:Drivers/STM32H7xx_HAL_Driver/Src/stm32h7xx_ll_usb.c ****     /* active Remote wakeup signalling */
2223:Drivers/STM32H7xx_HAL_Driver/Src/stm32h7xx_ll_usb.c ****     USBx_DEVICE->DCTL |= USB_OTG_DCTL_RWUSIG;
 5342              		.loc 1 2223 5 is_stmt 1 view .LVU1862
 5343              		.loc 1 2223 16 is_stmt 0 view .LVU1863
 5344 000e 4368     		ldr	r3, [r0, #4]
 5345              		.loc 1 2223 23 view .LVU1864
 5346 0010 43F00103 		orr	r3, r3, #1
 5347 0014 4360     		str	r3, [r0, #4]
 5348              	.L346:
2224:Drivers/STM32H7xx_HAL_Driver/Src/stm32h7xx_ll_usb.c ****   }
2225:Drivers/STM32H7xx_HAL_Driver/Src/stm32h7xx_ll_usb.c **** 
2226:Drivers/STM32H7xx_HAL_Driver/Src/stm32h7xx_ll_usb.c ****   return HAL_OK;
 5349              		.loc 1 2226 3 is_stmt 1 view .LVU1865
2227:Drivers/STM32H7xx_HAL_Driver/Src/stm32h7xx_ll_usb.c **** }
 5350              		.loc 1 2227 1 is_stmt 0 view .LVU1866
 5351 0016 0020     		movs	r0, #0
 5352              	.LVL390:
 5353              		.loc 1 2227 1 view .LVU1867
 5354 0018 7047     		bx	lr
 5355              		.cfi_endproc
 5356              	.LFE191:
 5358              		.section	.text.USB_DeActivateRemoteWakeup,"ax",%progbits
 5359              		.align	1
 5360              		.global	USB_DeActivateRemoteWakeup
 5361              		.syntax unified
 5362              		.thumb
 5363              		.thumb_func
 5365              	USB_DeActivateRemoteWakeup:
 5366              	.LVL391:
 5367              	.LFB192:
2228:Drivers/STM32H7xx_HAL_Driver/Src/stm32h7xx_ll_usb.c **** 
2229:Drivers/STM32H7xx_HAL_Driver/Src/stm32h7xx_ll_usb.c **** /**
2230:Drivers/STM32H7xx_HAL_Driver/Src/stm32h7xx_ll_usb.c ****   * @brief  USB_DeActivateRemoteWakeup de-active remote wakeup signalling
2231:Drivers/STM32H7xx_HAL_Driver/Src/stm32h7xx_ll_usb.c ****   * @param  USBx Selected device
2232:Drivers/STM32H7xx_HAL_Driver/Src/stm32h7xx_ll_usb.c ****   * @retval HAL status
2233:Drivers/STM32H7xx_HAL_Driver/Src/stm32h7xx_ll_usb.c ****   */
2234:Drivers/STM32H7xx_HAL_Driver/Src/stm32h7xx_ll_usb.c **** HAL_StatusTypeDef USB_DeActivateRemoteWakeup(const USB_OTG_GlobalTypeDef *USBx)
2235:Drivers/STM32H7xx_HAL_Driver/Src/stm32h7xx_ll_usb.c **** {
 5368              		.loc 1 2235 1 is_stmt 1 view -0
 5369              		.cfi_startproc
 5370              		@ args = 0, pretend = 0, frame = 0
 5371              		@ frame_needed = 0, uses_anonymous_args = 0
 5372              		@ link register save eliminated.
2236:Drivers/STM32H7xx_HAL_Driver/Src/stm32h7xx_ll_usb.c ****   uint32_t USBx_BASE = (uint32_t)USBx;
 5373              		.loc 1 2236 3 view .LVU1869
2237:Drivers/STM32H7xx_HAL_Driver/Src/stm32h7xx_ll_usb.c **** 
2238:Drivers/STM32H7xx_HAL_Driver/Src/stm32h7xx_ll_usb.c ****   /* active Remote wakeup signalling */
2239:Drivers/STM32H7xx_HAL_Driver/Src/stm32h7xx_ll_usb.c ****   USBx_DEVICE->DCTL &= ~(USB_OTG_DCTL_RWUSIG);
 5374              		.loc 1 2239 3 view .LVU1870
 5375              		.loc 1 2239 14 is_stmt 0 view .LVU1871
 5376 0000 D0F80438 		ldr	r3, [r0, #2052]
 5377              		.loc 1 2239 21 view .LVU1872
 5378 0004 23F00103 		bic	r3, r3, #1
 5379 0008 C0F80438 		str	r3, [r0, #2052]
2240:Drivers/STM32H7xx_HAL_Driver/Src/stm32h7xx_ll_usb.c **** 
2241:Drivers/STM32H7xx_HAL_Driver/Src/stm32h7xx_ll_usb.c ****   return HAL_OK;
ARM GAS  C:\Users\Nathan\AppData\Local\Temp\cc7cwqzo.s 			page 159


 5380              		.loc 1 2241 3 is_stmt 1 view .LVU1873
2242:Drivers/STM32H7xx_HAL_Driver/Src/stm32h7xx_ll_usb.c **** }
 5381              		.loc 1 2242 1 is_stmt 0 view .LVU1874
 5382 000c 0020     		movs	r0, #0
 5383              	.LVL392:
 5384              		.loc 1 2242 1 view .LVU1875
 5385 000e 7047     		bx	lr
 5386              		.cfi_endproc
 5387              	.LFE192:
 5389              		.text
 5390              	.Letext0:
 5391              		.file 2 "C:/Users/Nathan/AppData/Roaming/Code/User/globalStorage/bmd.stm32-for-vscode/@xpack-dev-t
 5392              		.file 3 "C:/Users/Nathan/AppData/Roaming/Code/User/globalStorage/bmd.stm32-for-vscode/@xpack-dev-t
 5393              		.file 4 "Drivers/CMSIS/Include/cmsis_gcc.h"
 5394              		.file 5 "Drivers/CMSIS/Device/ST/STM32H7xx/Include/stm32h743xx.h"
 5395              		.file 6 "Drivers/STM32H7xx_HAL_Driver/Inc/stm32h7xx_hal_def.h"
 5396              		.file 7 "Drivers/STM32H7xx_HAL_Driver/Inc/stm32h7xx_ll_usb.h"
 5397              		.file 8 "Drivers/STM32H7xx_HAL_Driver/Inc/stm32h7xx_hal.h"
ARM GAS  C:\Users\Nathan\AppData\Local\Temp\cc7cwqzo.s 			page 160


DEFINED SYMBOLS
                            *ABS*:00000000 stm32h7xx_ll_usb.c
C:\Users\Nathan\AppData\Local\Temp\cc7cwqzo.s:20     .text.USB_CoreReset:00000000 $t
C:\Users\Nathan\AppData\Local\Temp\cc7cwqzo.s:25     .text.USB_CoreReset:00000000 USB_CoreReset
C:\Users\Nathan\AppData\Local\Temp\cc7cwqzo.s:117    .text.USB_CoreInit:00000000 $t
C:\Users\Nathan\AppData\Local\Temp\cc7cwqzo.s:123    .text.USB_CoreInit:00000000 USB_CoreInit
C:\Users\Nathan\AppData\Local\Temp\cc7cwqzo.s:272    .text.USB_CoreInit:0000009c $d
C:\Users\Nathan\AppData\Local\Temp\cc7cwqzo.s:278    .text.USB_SetTurnaroundTime:00000000 $t
C:\Users\Nathan\AppData\Local\Temp\cc7cwqzo.s:284    .text.USB_SetTurnaroundTime:00000000 USB_SetTurnaroundTime
C:\Users\Nathan\AppData\Local\Temp\cc7cwqzo.s:437    .text.USB_SetTurnaroundTime:0000009c $d
C:\Users\Nathan\AppData\Local\Temp\cc7cwqzo.s:459    .text.USB_EnableGlobalInt:00000000 $t
C:\Users\Nathan\AppData\Local\Temp\cc7cwqzo.s:465    .text.USB_EnableGlobalInt:00000000 USB_EnableGlobalInt
C:\Users\Nathan\AppData\Local\Temp\cc7cwqzo.s:489    .text.USB_DisableGlobalInt:00000000 $t
C:\Users\Nathan\AppData\Local\Temp\cc7cwqzo.s:495    .text.USB_DisableGlobalInt:00000000 USB_DisableGlobalInt
C:\Users\Nathan\AppData\Local\Temp\cc7cwqzo.s:519    .text.USB_FlushTxFifo:00000000 $t
C:\Users\Nathan\AppData\Local\Temp\cc7cwqzo.s:525    .text.USB_FlushTxFifo:00000000 USB_FlushTxFifo
C:\Users\Nathan\AppData\Local\Temp\cc7cwqzo.s:619    .text.USB_FlushRxFifo:00000000 $t
C:\Users\Nathan\AppData\Local\Temp\cc7cwqzo.s:625    .text.USB_FlushRxFifo:00000000 USB_FlushRxFifo
C:\Users\Nathan\AppData\Local\Temp\cc7cwqzo.s:715    .text.USB_SetDevSpeed:00000000 $t
C:\Users\Nathan\AppData\Local\Temp\cc7cwqzo.s:721    .text.USB_SetDevSpeed:00000000 USB_SetDevSpeed
C:\Users\Nathan\AppData\Local\Temp\cc7cwqzo.s:748    .text.USB_DevInit:00000000 $t
C:\Users\Nathan\AppData\Local\Temp\cc7cwqzo.s:754    .text.USB_DevInit:00000000 USB_DevInit
C:\Users\Nathan\AppData\Local\Temp\cc7cwqzo.s:1102   .text.USB_DevInit:00000188 $d
C:\Users\Nathan\AppData\Local\Temp\cc7cwqzo.s:1108   .text.USB_GetDevSpeed:00000000 $t
C:\Users\Nathan\AppData\Local\Temp\cc7cwqzo.s:1114   .text.USB_GetDevSpeed:00000000 USB_GetDevSpeed
C:\Users\Nathan\AppData\Local\Temp\cc7cwqzo.s:1167   .text.USB_ActivateEndpoint:00000000 $t
C:\Users\Nathan\AppData\Local\Temp\cc7cwqzo.s:1173   .text.USB_ActivateEndpoint:00000000 USB_ActivateEndpoint
C:\Users\Nathan\AppData\Local\Temp\cc7cwqzo.s:1287   .text.USB_ActivateEndpoint:00000094 $d
C:\Users\Nathan\AppData\Local\Temp\cc7cwqzo.s:1292   .text.USB_ActivateDedicatedEndpoint:00000000 $t
C:\Users\Nathan\AppData\Local\Temp\cc7cwqzo.s:1298   .text.USB_ActivateDedicatedEndpoint:00000000 USB_ActivateDedicatedEndpoint
C:\Users\Nathan\AppData\Local\Temp\cc7cwqzo.s:1430   .text.USB_ActivateDedicatedEndpoint:0000009c $d
C:\Users\Nathan\AppData\Local\Temp\cc7cwqzo.s:1435   .text.USB_DeactivateEndpoint:00000000 $t
C:\Users\Nathan\AppData\Local\Temp\cc7cwqzo.s:1441   .text.USB_DeactivateEndpoint:00000000 USB_DeactivateEndpoint
C:\Users\Nathan\AppData\Local\Temp\cc7cwqzo.s:1609   .text.USB_DeactivateEndpoint:000000d8 $d
C:\Users\Nathan\AppData\Local\Temp\cc7cwqzo.s:1615   .text.USB_DeactivateDedicatedEndpoint:00000000 $t
C:\Users\Nathan\AppData\Local\Temp\cc7cwqzo.s:1621   .text.USB_DeactivateDedicatedEndpoint:00000000 USB_DeactivateDedicatedEndpoint
C:\Users\Nathan\AppData\Local\Temp\cc7cwqzo.s:1750   .text.USB_EPStopXfer:00000000 $t
C:\Users\Nathan\AppData\Local\Temp\cc7cwqzo.s:1756   .text.USB_EPStopXfer:00000000 USB_EPStopXfer
C:\Users\Nathan\AppData\Local\Temp\cc7cwqzo.s:1913   .text.USB_WritePacket:00000000 $t
C:\Users\Nathan\AppData\Local\Temp\cc7cwqzo.s:1919   .text.USB_WritePacket:00000000 USB_WritePacket
C:\Users\Nathan\AppData\Local\Temp\cc7cwqzo.s:1987   .text.USB_EPStartXfer:00000000 $t
C:\Users\Nathan\AppData\Local\Temp\cc7cwqzo.s:1993   .text.USB_EPStartXfer:00000000 USB_EPStartXfer
C:\Users\Nathan\AppData\Local\Temp\cc7cwqzo.s:2463   .text.USB_EPStartXfer:00000240 $d
C:\Users\Nathan\AppData\Local\Temp\cc7cwqzo.s:2468   .text.USB_ReadPacket:00000000 $t
C:\Users\Nathan\AppData\Local\Temp\cc7cwqzo.s:2474   .text.USB_ReadPacket:00000000 USB_ReadPacket
C:\Users\Nathan\AppData\Local\Temp\cc7cwqzo.s:2572   .text.USB_EPSetStall:00000000 $t
C:\Users\Nathan\AppData\Local\Temp\cc7cwqzo.s:2578   .text.USB_EPSetStall:00000000 USB_EPSetStall
C:\Users\Nathan\AppData\Local\Temp\cc7cwqzo.s:2661   .text.USB_EPClearStall:00000000 $t
C:\Users\Nathan\AppData\Local\Temp\cc7cwqzo.s:2667   .text.USB_EPClearStall:00000000 USB_EPClearStall
C:\Users\Nathan\AppData\Local\Temp\cc7cwqzo.s:2752   .text.USB_StopDevice:00000000 $t
C:\Users\Nathan\AppData\Local\Temp\cc7cwqzo.s:2758   .text.USB_StopDevice:00000000 USB_StopDevice
C:\Users\Nathan\AppData\Local\Temp\cc7cwqzo.s:2839   .text.USB_SetDevAddress:00000000 $t
C:\Users\Nathan\AppData\Local\Temp\cc7cwqzo.s:2845   .text.USB_SetDevAddress:00000000 USB_SetDevAddress
C:\Users\Nathan\AppData\Local\Temp\cc7cwqzo.s:2881   .text.USB_DevConnect:00000000 $t
C:\Users\Nathan\AppData\Local\Temp\cc7cwqzo.s:2887   .text.USB_DevConnect:00000000 USB_DevConnect
C:\Users\Nathan\AppData\Local\Temp\cc7cwqzo.s:2917   .text.USB_DevDisconnect:00000000 $t
C:\Users\Nathan\AppData\Local\Temp\cc7cwqzo.s:2923   .text.USB_DevDisconnect:00000000 USB_DevDisconnect
ARM GAS  C:\Users\Nathan\AppData\Local\Temp\cc7cwqzo.s 			page 161


C:\Users\Nathan\AppData\Local\Temp\cc7cwqzo.s:2953   .text.USB_ReadInterrupts:00000000 $t
C:\Users\Nathan\AppData\Local\Temp\cc7cwqzo.s:2959   .text.USB_ReadInterrupts:00000000 USB_ReadInterrupts
C:\Users\Nathan\AppData\Local\Temp\cc7cwqzo.s:2986   .text.USB_ReadChInterrupts:00000000 $t
C:\Users\Nathan\AppData\Local\Temp\cc7cwqzo.s:2992   .text.USB_ReadChInterrupts:00000000 USB_ReadChInterrupts
C:\Users\Nathan\AppData\Local\Temp\cc7cwqzo.s:3025   .text.USB_ReadDevAllOutEpInterrupt:00000000 $t
C:\Users\Nathan\AppData\Local\Temp\cc7cwqzo.s:3031   .text.USB_ReadDevAllOutEpInterrupt:00000000 USB_ReadDevAllOutEpInterrupt
C:\Users\Nathan\AppData\Local\Temp\cc7cwqzo.s:3064   .text.USB_ReadDevAllInEpInterrupt:00000000 $t
C:\Users\Nathan\AppData\Local\Temp\cc7cwqzo.s:3070   .text.USB_ReadDevAllInEpInterrupt:00000000 USB_ReadDevAllInEpInterrupt
C:\Users\Nathan\AppData\Local\Temp\cc7cwqzo.s:3103   .text.USB_ReadDevOutEPInterrupt:00000000 $t
C:\Users\Nathan\AppData\Local\Temp\cc7cwqzo.s:3109   .text.USB_ReadDevOutEPInterrupt:00000000 USB_ReadDevOutEPInterrupt
C:\Users\Nathan\AppData\Local\Temp\cc7cwqzo.s:3143   .text.USB_ReadDevInEPInterrupt:00000000 $t
C:\Users\Nathan\AppData\Local\Temp\cc7cwqzo.s:3149   .text.USB_ReadDevInEPInterrupt:00000000 USB_ReadDevInEPInterrupt
C:\Users\Nathan\AppData\Local\Temp\cc7cwqzo.s:3200   .text.USB_ClearInterrupts:00000000 $t
C:\Users\Nathan\AppData\Local\Temp\cc7cwqzo.s:3206   .text.USB_ClearInterrupts:00000000 USB_ClearInterrupts
C:\Users\Nathan\AppData\Local\Temp\cc7cwqzo.s:3226   .text.USB_GetMode:00000000 $t
C:\Users\Nathan\AppData\Local\Temp\cc7cwqzo.s:3232   .text.USB_GetMode:00000000 USB_GetMode
C:\Users\Nathan\AppData\Local\Temp\cc7cwqzo.s:3251   .text.USB_SetCurrentMode:00000000 $t
C:\Users\Nathan\AppData\Local\Temp\cc7cwqzo.s:3257   .text.USB_SetCurrentMode:00000000 USB_SetCurrentMode
C:\Users\Nathan\AppData\Local\Temp\cc7cwqzo.s:3376   .text.USB_ActivateSetup:00000000 $t
C:\Users\Nathan\AppData\Local\Temp\cc7cwqzo.s:3382   .text.USB_ActivateSetup:00000000 USB_ActivateSetup
C:\Users\Nathan\AppData\Local\Temp\cc7cwqzo.s:3413   .text.USB_EP0_OutStart:00000000 $t
C:\Users\Nathan\AppData\Local\Temp\cc7cwqzo.s:3419   .text.USB_EP0_OutStart:00000000 USB_EP0_OutStart
C:\Users\Nathan\AppData\Local\Temp\cc7cwqzo.s:3503   .text.USB_EP0_OutStart:0000005c $d
C:\Users\Nathan\AppData\Local\Temp\cc7cwqzo.s:3508   .text.USB_HostInit:00000000 $t
C:\Users\Nathan\AppData\Local\Temp\cc7cwqzo.s:3514   .text.USB_HostInit:00000000 USB_HostInit
C:\Users\Nathan\AppData\Local\Temp\cc7cwqzo.s:3697   .text.USB_HostInit:000000d0 $d
C:\Users\Nathan\AppData\Local\Temp\cc7cwqzo.s:3703   .text.USB_InitFSLSPClkSel:00000000 $t
C:\Users\Nathan\AppData\Local\Temp\cc7cwqzo.s:3709   .text.USB_InitFSLSPClkSel:00000000 USB_InitFSLSPClkSel
C:\Users\Nathan\AppData\Local\Temp\cc7cwqzo.s:3772   .text.USB_ResetPort:00000000 $t
C:\Users\Nathan\AppData\Local\Temp\cc7cwqzo.s:3778   .text.USB_ResetPort:00000000 USB_ResetPort
C:\Users\Nathan\AppData\Local\Temp\cc7cwqzo.s:3844   .text.USB_DriveVbus:00000000 $t
C:\Users\Nathan\AppData\Local\Temp\cc7cwqzo.s:3850   .text.USB_DriveVbus:00000000 USB_DriveVbus
C:\Users\Nathan\AppData\Local\Temp\cc7cwqzo.s:3926   .text.USB_GetHostSpeed:00000000 $t
C:\Users\Nathan\AppData\Local\Temp\cc7cwqzo.s:3932   .text.USB_GetHostSpeed:00000000 USB_GetHostSpeed
C:\Users\Nathan\AppData\Local\Temp\cc7cwqzo.s:3968   .text.USB_GetCurrentFrame:00000000 $t
C:\Users\Nathan\AppData\Local\Temp\cc7cwqzo.s:3974   .text.USB_GetCurrentFrame:00000000 USB_GetCurrentFrame
C:\Users\Nathan\AppData\Local\Temp\cc7cwqzo.s:3997   .text.USB_HC_Init:00000000 $t
C:\Users\Nathan\AppData\Local\Temp\cc7cwqzo.s:4003   .text.USB_HC_Init:00000000 USB_HC_Init
C:\Users\Nathan\AppData\Local\Temp\cc7cwqzo.s:4044   .text.USB_HC_Init:00000022 $d
C:\Users\Nathan\AppData\Local\Temp\cc7cwqzo.s:4048   .text.USB_HC_Init:00000026 $t
C:\Users\Nathan\AppData\Local\Temp\cc7cwqzo.s:4247   .text.USB_HC_ReadInterrupt:00000000 $t
C:\Users\Nathan\AppData\Local\Temp\cc7cwqzo.s:4253   .text.USB_HC_ReadInterrupt:00000000 USB_HC_ReadInterrupt
C:\Users\Nathan\AppData\Local\Temp\cc7cwqzo.s:4276   .text.USB_HC_Halt:00000000 $t
C:\Users\Nathan\AppData\Local\Temp\cc7cwqzo.s:4282   .text.USB_HC_Halt:00000000 USB_HC_Halt
C:\Users\Nathan\AppData\Local\Temp\cc7cwqzo.s:4493   .text.USB_DoPing:00000000 $t
C:\Users\Nathan\AppData\Local\Temp\cc7cwqzo.s:4499   .text.USB_DoPing:00000000 USB_DoPing
C:\Users\Nathan\AppData\Local\Temp\cc7cwqzo.s:4539   .text.USB_DoPing:00000020 $d
C:\Users\Nathan\AppData\Local\Temp\cc7cwqzo.s:4544   .text.USB_HC_StartXfer:00000000 $t
C:\Users\Nathan\AppData\Local\Temp\cc7cwqzo.s:4550   .text.USB_HC_StartXfer:00000000 USB_HC_StartXfer
C:\Users\Nathan\AppData\Local\Temp\cc7cwqzo.s:4928   .text.USB_HC_StartXfer:000001aa $d
C:\Users\Nathan\AppData\Local\Temp\cc7cwqzo.s:4933   .text.USB_HC_StartXfer:000001ae $t
C:\Users\Nathan\AppData\Local\Temp\cc7cwqzo.s:4999   .text.USB_HC_StartXfer:000001fc $d
C:\Users\Nathan\AppData\Local\Temp\cc7cwqzo.s:5003   .text.USB_HC_StartXfer:00000200 $t
C:\Users\Nathan\AppData\Local\Temp\cc7cwqzo.s:5146   .text.USB_HC_StartXfer:000002b4 $d
C:\Users\Nathan\AppData\Local\Temp\cc7cwqzo.s:5151   .text.USB_StopHost:00000000 $t
C:\Users\Nathan\AppData\Local\Temp\cc7cwqzo.s:5157   .text.USB_StopHost:00000000 USB_StopHost
C:\Users\Nathan\AppData\Local\Temp\cc7cwqzo.s:5318   .text.USB_ActivateRemoteWakeup:00000000 $t
ARM GAS  C:\Users\Nathan\AppData\Local\Temp\cc7cwqzo.s 			page 162


C:\Users\Nathan\AppData\Local\Temp\cc7cwqzo.s:5324   .text.USB_ActivateRemoteWakeup:00000000 USB_ActivateRemoteWakeup
C:\Users\Nathan\AppData\Local\Temp\cc7cwqzo.s:5359   .text.USB_DeActivateRemoteWakeup:00000000 $t
C:\Users\Nathan\AppData\Local\Temp\cc7cwqzo.s:5365   .text.USB_DeActivateRemoteWakeup:00000000 USB_DeActivateRemoteWakeup

UNDEFINED SYMBOLS
HAL_Delay
