ARM GAS  C:\Users\Nathan\AppData\Local\Temp\ccAW34bj.s 			page 1


   1              		.cpu cortex-m7
   2              		.arch armv7e-m
   3              		.fpu fpv5-d16
   4              		.eabi_attribute 28, 1
   5              		.eabi_attribute 20, 1
   6              		.eabi_attribute 21, 1
   7              		.eabi_attribute 23, 3
   8              		.eabi_attribute 24, 1
   9              		.eabi_attribute 25, 1
  10              		.eabi_attribute 26, 1
  11              		.eabi_attribute 30, 1
  12              		.eabi_attribute 34, 1
  13              		.eabi_attribute 18, 4
  14              		.file	"usbd_desc.c"
  15              		.text
  16              	.Ltext0:
  17              		.cfi_sections	.debug_frame
  18              		.file 1 "USB_DEVICE/App/usbd_desc.c"
  19              		.section	.text.USBD_FS_DeviceDescriptor,"ax",%progbits
  20              		.align	1
  21              		.global	USBD_FS_DeviceDescriptor
  22              		.syntax unified
  23              		.thumb
  24              		.thumb_func
  26              	USBD_FS_DeviceDescriptor:
  27              	.LVL0:
  28              	.LFB148:
   1:USB_DEVICE/App/usbd_desc.c **** /* USER CODE BEGIN Header */
   2:USB_DEVICE/App/usbd_desc.c **** /**
   3:USB_DEVICE/App/usbd_desc.c ****   ******************************************************************************
   4:USB_DEVICE/App/usbd_desc.c ****   * @file           : App/usbd_desc.c
   5:USB_DEVICE/App/usbd_desc.c ****   * @version        : v1.0_Cube
   6:USB_DEVICE/App/usbd_desc.c ****   * @brief          : This file implements the USB device descriptors.
   7:USB_DEVICE/App/usbd_desc.c ****   ******************************************************************************
   8:USB_DEVICE/App/usbd_desc.c ****   * @attention
   9:USB_DEVICE/App/usbd_desc.c ****   *
  10:USB_DEVICE/App/usbd_desc.c ****   * Copyright (c) 2025 STMicroelectronics.
  11:USB_DEVICE/App/usbd_desc.c ****   * All rights reserved.
  12:USB_DEVICE/App/usbd_desc.c ****   *
  13:USB_DEVICE/App/usbd_desc.c ****   * This software is licensed under terms that can be found in the LICENSE file
  14:USB_DEVICE/App/usbd_desc.c ****   * in the root directory of this software component.
  15:USB_DEVICE/App/usbd_desc.c ****   * If no LICENSE file comes with this software, it is provided AS-IS.
  16:USB_DEVICE/App/usbd_desc.c ****   *
  17:USB_DEVICE/App/usbd_desc.c ****   ******************************************************************************
  18:USB_DEVICE/App/usbd_desc.c ****   */
  19:USB_DEVICE/App/usbd_desc.c **** /* USER CODE END Header */
  20:USB_DEVICE/App/usbd_desc.c **** 
  21:USB_DEVICE/App/usbd_desc.c **** /* Includes ------------------------------------------------------------------*/
  22:USB_DEVICE/App/usbd_desc.c **** #include "usbd_core.h"
  23:USB_DEVICE/App/usbd_desc.c **** #include "usbd_desc.h"
  24:USB_DEVICE/App/usbd_desc.c **** #include "usbd_conf.h"
  25:USB_DEVICE/App/usbd_desc.c **** 
  26:USB_DEVICE/App/usbd_desc.c **** /* USER CODE BEGIN INCLUDE */
  27:USB_DEVICE/App/usbd_desc.c **** 
  28:USB_DEVICE/App/usbd_desc.c **** /* USER CODE END INCLUDE */
  29:USB_DEVICE/App/usbd_desc.c **** 
  30:USB_DEVICE/App/usbd_desc.c **** /* Private typedef -----------------------------------------------------------*/
ARM GAS  C:\Users\Nathan\AppData\Local\Temp\ccAW34bj.s 			page 2


  31:USB_DEVICE/App/usbd_desc.c **** /* Private define ------------------------------------------------------------*/
  32:USB_DEVICE/App/usbd_desc.c **** /* Private macro -------------------------------------------------------------*/
  33:USB_DEVICE/App/usbd_desc.c **** 
  34:USB_DEVICE/App/usbd_desc.c **** /* USER CODE BEGIN PV */
  35:USB_DEVICE/App/usbd_desc.c **** /* Private variables ---------------------------------------------------------*/
  36:USB_DEVICE/App/usbd_desc.c **** 
  37:USB_DEVICE/App/usbd_desc.c **** /* USER CODE END PV */
  38:USB_DEVICE/App/usbd_desc.c **** 
  39:USB_DEVICE/App/usbd_desc.c **** /** @addtogroup STM32_USB_OTG_DEVICE_LIBRARY
  40:USB_DEVICE/App/usbd_desc.c ****   * @{
  41:USB_DEVICE/App/usbd_desc.c ****   */
  42:USB_DEVICE/App/usbd_desc.c **** 
  43:USB_DEVICE/App/usbd_desc.c **** /** @addtogroup USBD_DESC
  44:USB_DEVICE/App/usbd_desc.c ****   * @{
  45:USB_DEVICE/App/usbd_desc.c ****   */
  46:USB_DEVICE/App/usbd_desc.c **** 
  47:USB_DEVICE/App/usbd_desc.c **** /** @defgroup USBD_DESC_Private_TypesDefinitions USBD_DESC_Private_TypesDefinitions
  48:USB_DEVICE/App/usbd_desc.c ****   * @brief Private types.
  49:USB_DEVICE/App/usbd_desc.c ****   * @{
  50:USB_DEVICE/App/usbd_desc.c ****   */
  51:USB_DEVICE/App/usbd_desc.c **** 
  52:USB_DEVICE/App/usbd_desc.c **** /* USER CODE BEGIN PRIVATE_TYPES */
  53:USB_DEVICE/App/usbd_desc.c **** 
  54:USB_DEVICE/App/usbd_desc.c **** /* USER CODE END PRIVATE_TYPES */
  55:USB_DEVICE/App/usbd_desc.c **** 
  56:USB_DEVICE/App/usbd_desc.c **** /**
  57:USB_DEVICE/App/usbd_desc.c ****   * @}
  58:USB_DEVICE/App/usbd_desc.c ****   */
  59:USB_DEVICE/App/usbd_desc.c **** 
  60:USB_DEVICE/App/usbd_desc.c **** /** @defgroup USBD_DESC_Private_Defines USBD_DESC_Private_Defines
  61:USB_DEVICE/App/usbd_desc.c ****   * @brief Private defines.
  62:USB_DEVICE/App/usbd_desc.c ****   * @{
  63:USB_DEVICE/App/usbd_desc.c ****   */
  64:USB_DEVICE/App/usbd_desc.c **** 
  65:USB_DEVICE/App/usbd_desc.c **** #define USBD_VID     1155
  66:USB_DEVICE/App/usbd_desc.c **** #define USBD_LANGID_STRING     1033
  67:USB_DEVICE/App/usbd_desc.c **** #define USBD_MANUFACTURER_STRING     "STMicroelectronics"
  68:USB_DEVICE/App/usbd_desc.c **** #define USBD_PID_FS     22336
  69:USB_DEVICE/App/usbd_desc.c **** #define USBD_PRODUCT_STRING_FS     "STM32 Virtual ComPort"
  70:USB_DEVICE/App/usbd_desc.c **** #define USBD_CONFIGURATION_STRING_FS     "CDC Config"
  71:USB_DEVICE/App/usbd_desc.c **** #define USBD_INTERFACE_STRING_FS     "CDC Interface"
  72:USB_DEVICE/App/usbd_desc.c **** 
  73:USB_DEVICE/App/usbd_desc.c **** #define USB_SIZ_BOS_DESC            0x0C
  74:USB_DEVICE/App/usbd_desc.c **** 
  75:USB_DEVICE/App/usbd_desc.c **** /* USER CODE BEGIN PRIVATE_DEFINES */
  76:USB_DEVICE/App/usbd_desc.c **** 
  77:USB_DEVICE/App/usbd_desc.c **** /* USER CODE END PRIVATE_DEFINES */
  78:USB_DEVICE/App/usbd_desc.c **** 
  79:USB_DEVICE/App/usbd_desc.c **** /**
  80:USB_DEVICE/App/usbd_desc.c ****   * @}
  81:USB_DEVICE/App/usbd_desc.c ****   */
  82:USB_DEVICE/App/usbd_desc.c **** 
  83:USB_DEVICE/App/usbd_desc.c **** /* USER CODE BEGIN 0 */
  84:USB_DEVICE/App/usbd_desc.c **** 
  85:USB_DEVICE/App/usbd_desc.c **** /* USER CODE END 0 */
  86:USB_DEVICE/App/usbd_desc.c **** 
  87:USB_DEVICE/App/usbd_desc.c **** /** @defgroup USBD_DESC_Private_Macros USBD_DESC_Private_Macros
ARM GAS  C:\Users\Nathan\AppData\Local\Temp\ccAW34bj.s 			page 3


  88:USB_DEVICE/App/usbd_desc.c ****   * @brief Private macros.
  89:USB_DEVICE/App/usbd_desc.c ****   * @{
  90:USB_DEVICE/App/usbd_desc.c ****   */
  91:USB_DEVICE/App/usbd_desc.c **** 
  92:USB_DEVICE/App/usbd_desc.c **** /* USER CODE BEGIN PRIVATE_MACRO */
  93:USB_DEVICE/App/usbd_desc.c **** 
  94:USB_DEVICE/App/usbd_desc.c **** /* USER CODE END PRIVATE_MACRO */
  95:USB_DEVICE/App/usbd_desc.c **** 
  96:USB_DEVICE/App/usbd_desc.c **** /**
  97:USB_DEVICE/App/usbd_desc.c ****   * @}
  98:USB_DEVICE/App/usbd_desc.c ****   */
  99:USB_DEVICE/App/usbd_desc.c **** 
 100:USB_DEVICE/App/usbd_desc.c **** /** @defgroup USBD_DESC_Private_FunctionPrototypes USBD_DESC_Private_FunctionPrototypes
 101:USB_DEVICE/App/usbd_desc.c ****   * @brief Private functions declaration.
 102:USB_DEVICE/App/usbd_desc.c ****   * @{
 103:USB_DEVICE/App/usbd_desc.c ****   */
 104:USB_DEVICE/App/usbd_desc.c **** 
 105:USB_DEVICE/App/usbd_desc.c **** static void Get_SerialNum(void);
 106:USB_DEVICE/App/usbd_desc.c **** static void IntToUnicode(uint32_t value, uint8_t * pbuf, uint8_t len);
 107:USB_DEVICE/App/usbd_desc.c **** 
 108:USB_DEVICE/App/usbd_desc.c **** /**
 109:USB_DEVICE/App/usbd_desc.c ****   * @}
 110:USB_DEVICE/App/usbd_desc.c ****   */
 111:USB_DEVICE/App/usbd_desc.c **** 
 112:USB_DEVICE/App/usbd_desc.c **** /** @defgroup USBD_DESC_Private_FunctionPrototypes USBD_DESC_Private_FunctionPrototypes
 113:USB_DEVICE/App/usbd_desc.c ****   * @brief Private functions declaration for FS.
 114:USB_DEVICE/App/usbd_desc.c ****   * @{
 115:USB_DEVICE/App/usbd_desc.c ****   */
 116:USB_DEVICE/App/usbd_desc.c **** 
 117:USB_DEVICE/App/usbd_desc.c **** uint8_t * USBD_FS_DeviceDescriptor(USBD_SpeedTypeDef speed, uint16_t *length);
 118:USB_DEVICE/App/usbd_desc.c **** uint8_t * USBD_FS_LangIDStrDescriptor(USBD_SpeedTypeDef speed, uint16_t *length);
 119:USB_DEVICE/App/usbd_desc.c **** uint8_t * USBD_FS_ManufacturerStrDescriptor(USBD_SpeedTypeDef speed, uint16_t *length);
 120:USB_DEVICE/App/usbd_desc.c **** uint8_t * USBD_FS_ProductStrDescriptor(USBD_SpeedTypeDef speed, uint16_t *length);
 121:USB_DEVICE/App/usbd_desc.c **** uint8_t * USBD_FS_SerialStrDescriptor(USBD_SpeedTypeDef speed, uint16_t *length);
 122:USB_DEVICE/App/usbd_desc.c **** uint8_t * USBD_FS_ConfigStrDescriptor(USBD_SpeedTypeDef speed, uint16_t *length);
 123:USB_DEVICE/App/usbd_desc.c **** uint8_t * USBD_FS_InterfaceStrDescriptor(USBD_SpeedTypeDef speed, uint16_t *length);
 124:USB_DEVICE/App/usbd_desc.c **** 
 125:USB_DEVICE/App/usbd_desc.c **** /**
 126:USB_DEVICE/App/usbd_desc.c ****   * @}
 127:USB_DEVICE/App/usbd_desc.c ****   */
 128:USB_DEVICE/App/usbd_desc.c **** 
 129:USB_DEVICE/App/usbd_desc.c **** /** @defgroup USBD_DESC_Private_Variables USBD_DESC_Private_Variables
 130:USB_DEVICE/App/usbd_desc.c ****   * @brief Private variables.
 131:USB_DEVICE/App/usbd_desc.c ****   * @{
 132:USB_DEVICE/App/usbd_desc.c ****   */
 133:USB_DEVICE/App/usbd_desc.c **** 
 134:USB_DEVICE/App/usbd_desc.c **** USBD_DescriptorsTypeDef FS_Desc =
 135:USB_DEVICE/App/usbd_desc.c **** {
 136:USB_DEVICE/App/usbd_desc.c ****   USBD_FS_DeviceDescriptor
 137:USB_DEVICE/App/usbd_desc.c **** , USBD_FS_LangIDStrDescriptor
 138:USB_DEVICE/App/usbd_desc.c **** , USBD_FS_ManufacturerStrDescriptor
 139:USB_DEVICE/App/usbd_desc.c **** , USBD_FS_ProductStrDescriptor
 140:USB_DEVICE/App/usbd_desc.c **** , USBD_FS_SerialStrDescriptor
 141:USB_DEVICE/App/usbd_desc.c **** , USBD_FS_ConfigStrDescriptor
 142:USB_DEVICE/App/usbd_desc.c **** , USBD_FS_InterfaceStrDescriptor
 143:USB_DEVICE/App/usbd_desc.c **** };
 144:USB_DEVICE/App/usbd_desc.c **** 
ARM GAS  C:\Users\Nathan\AppData\Local\Temp\ccAW34bj.s 			page 4


 145:USB_DEVICE/App/usbd_desc.c **** #if defined ( __ICCARM__ ) /* IAR Compiler */
 146:USB_DEVICE/App/usbd_desc.c ****   #pragma data_alignment=4
 147:USB_DEVICE/App/usbd_desc.c **** #endif /* defined ( __ICCARM__ ) */
 148:USB_DEVICE/App/usbd_desc.c **** /** USB standard device descriptor. */
 149:USB_DEVICE/App/usbd_desc.c **** __ALIGN_BEGIN uint8_t USBD_FS_DeviceDesc[USB_LEN_DEV_DESC] __ALIGN_END =
 150:USB_DEVICE/App/usbd_desc.c **** {
 151:USB_DEVICE/App/usbd_desc.c ****   0x12,                       /*bLength */
 152:USB_DEVICE/App/usbd_desc.c ****   USB_DESC_TYPE_DEVICE,       /*bDescriptorType*/
 153:USB_DEVICE/App/usbd_desc.c ****   0x00,                       /*bcdUSB */
 154:USB_DEVICE/App/usbd_desc.c ****   0x02,
 155:USB_DEVICE/App/usbd_desc.c ****   0x02,                       /*bDeviceClass*/
 156:USB_DEVICE/App/usbd_desc.c ****   0x02,                       /*bDeviceSubClass*/
 157:USB_DEVICE/App/usbd_desc.c ****   0x00,                       /*bDeviceProtocol*/
 158:USB_DEVICE/App/usbd_desc.c ****   USB_MAX_EP0_SIZE,           /*bMaxPacketSize*/
 159:USB_DEVICE/App/usbd_desc.c ****   LOBYTE(USBD_VID),           /*idVendor*/
 160:USB_DEVICE/App/usbd_desc.c ****   HIBYTE(USBD_VID),           /*idVendor*/
 161:USB_DEVICE/App/usbd_desc.c ****   LOBYTE(USBD_PID_FS),        /*idProduct*/
 162:USB_DEVICE/App/usbd_desc.c ****   HIBYTE(USBD_PID_FS),        /*idProduct*/
 163:USB_DEVICE/App/usbd_desc.c ****   0x00,                       /*bcdDevice rel. 2.00*/
 164:USB_DEVICE/App/usbd_desc.c ****   0x02,
 165:USB_DEVICE/App/usbd_desc.c ****   USBD_IDX_MFC_STR,           /*Index of manufacturer  string*/
 166:USB_DEVICE/App/usbd_desc.c ****   USBD_IDX_PRODUCT_STR,       /*Index of product string*/
 167:USB_DEVICE/App/usbd_desc.c ****   USBD_IDX_SERIAL_STR,        /*Index of serial number string*/
 168:USB_DEVICE/App/usbd_desc.c ****   USBD_MAX_NUM_CONFIGURATION  /*bNumConfigurations*/
 169:USB_DEVICE/App/usbd_desc.c **** };
 170:USB_DEVICE/App/usbd_desc.c **** 
 171:USB_DEVICE/App/usbd_desc.c **** /* USB_DeviceDescriptor */
 172:USB_DEVICE/App/usbd_desc.c **** /** BOS descriptor. */
 173:USB_DEVICE/App/usbd_desc.c **** #if (USBD_LPM_ENABLED == 1)
 174:USB_DEVICE/App/usbd_desc.c **** #if defined ( __ICCARM__ ) /* IAR Compiler */
 175:USB_DEVICE/App/usbd_desc.c ****   #pragma data_alignment=4
 176:USB_DEVICE/App/usbd_desc.c **** #endif /* defined ( __ICCARM__ ) */
 177:USB_DEVICE/App/usbd_desc.c **** __ALIGN_BEGIN uint8_t USBD_FS_BOSDesc[USB_SIZ_BOS_DESC] __ALIGN_END =
 178:USB_DEVICE/App/usbd_desc.c **** {
 179:USB_DEVICE/App/usbd_desc.c ****   0x5,
 180:USB_DEVICE/App/usbd_desc.c ****   USB_DESC_TYPE_BOS,
 181:USB_DEVICE/App/usbd_desc.c ****   0xC,
 182:USB_DEVICE/App/usbd_desc.c ****   0x0,
 183:USB_DEVICE/App/usbd_desc.c ****   0x1,  /* 1 device capability*/
 184:USB_DEVICE/App/usbd_desc.c ****         /* device capability*/
 185:USB_DEVICE/App/usbd_desc.c ****   0x7,
 186:USB_DEVICE/App/usbd_desc.c ****   USB_DEVICE_CAPABITY_TYPE,
 187:USB_DEVICE/App/usbd_desc.c ****   0x2,
 188:USB_DEVICE/App/usbd_desc.c ****   0x2,  /* LPM capability bit set*/
 189:USB_DEVICE/App/usbd_desc.c ****   0x0,
 190:USB_DEVICE/App/usbd_desc.c ****   0x0,
 191:USB_DEVICE/App/usbd_desc.c ****   0x0
 192:USB_DEVICE/App/usbd_desc.c **** };
 193:USB_DEVICE/App/usbd_desc.c **** #endif /* (USBD_LPM_ENABLED == 1) */
 194:USB_DEVICE/App/usbd_desc.c **** 
 195:USB_DEVICE/App/usbd_desc.c **** /**
 196:USB_DEVICE/App/usbd_desc.c ****   * @}
 197:USB_DEVICE/App/usbd_desc.c ****   */
 198:USB_DEVICE/App/usbd_desc.c **** 
 199:USB_DEVICE/App/usbd_desc.c **** /** @defgroup USBD_DESC_Private_Variables USBD_DESC_Private_Variables
 200:USB_DEVICE/App/usbd_desc.c ****   * @brief Private variables.
 201:USB_DEVICE/App/usbd_desc.c ****   * @{
ARM GAS  C:\Users\Nathan\AppData\Local\Temp\ccAW34bj.s 			page 5


 202:USB_DEVICE/App/usbd_desc.c ****   */
 203:USB_DEVICE/App/usbd_desc.c **** 
 204:USB_DEVICE/App/usbd_desc.c **** #if defined ( __ICCARM__ ) /* IAR Compiler */
 205:USB_DEVICE/App/usbd_desc.c ****   #pragma data_alignment=4
 206:USB_DEVICE/App/usbd_desc.c **** #endif /* defined ( __ICCARM__ ) */
 207:USB_DEVICE/App/usbd_desc.c **** 
 208:USB_DEVICE/App/usbd_desc.c **** /** USB lang identifier descriptor. */
 209:USB_DEVICE/App/usbd_desc.c **** __ALIGN_BEGIN uint8_t USBD_LangIDDesc[USB_LEN_LANGID_STR_DESC] __ALIGN_END =
 210:USB_DEVICE/App/usbd_desc.c **** {
 211:USB_DEVICE/App/usbd_desc.c ****      USB_LEN_LANGID_STR_DESC,
 212:USB_DEVICE/App/usbd_desc.c ****      USB_DESC_TYPE_STRING,
 213:USB_DEVICE/App/usbd_desc.c ****      LOBYTE(USBD_LANGID_STRING),
 214:USB_DEVICE/App/usbd_desc.c ****      HIBYTE(USBD_LANGID_STRING)
 215:USB_DEVICE/App/usbd_desc.c **** };
 216:USB_DEVICE/App/usbd_desc.c **** 
 217:USB_DEVICE/App/usbd_desc.c **** #if defined ( __ICCARM__ ) /* IAR Compiler */
 218:USB_DEVICE/App/usbd_desc.c ****   #pragma data_alignment=4
 219:USB_DEVICE/App/usbd_desc.c **** #endif /* defined ( __ICCARM__ ) */
 220:USB_DEVICE/App/usbd_desc.c **** /* Internal string descriptor. */
 221:USB_DEVICE/App/usbd_desc.c **** __ALIGN_BEGIN uint8_t USBD_StrDesc[USBD_MAX_STR_DESC_SIZ] __ALIGN_END;
 222:USB_DEVICE/App/usbd_desc.c **** 
 223:USB_DEVICE/App/usbd_desc.c **** #if defined ( __ICCARM__ ) /*!< IAR Compiler */
 224:USB_DEVICE/App/usbd_desc.c ****   #pragma data_alignment=4
 225:USB_DEVICE/App/usbd_desc.c **** #endif
 226:USB_DEVICE/App/usbd_desc.c **** __ALIGN_BEGIN uint8_t USBD_StringSerial[USB_SIZ_STRING_SERIAL] __ALIGN_END = {
 227:USB_DEVICE/App/usbd_desc.c ****   USB_SIZ_STRING_SERIAL,
 228:USB_DEVICE/App/usbd_desc.c ****   USB_DESC_TYPE_STRING,
 229:USB_DEVICE/App/usbd_desc.c **** };
 230:USB_DEVICE/App/usbd_desc.c **** 
 231:USB_DEVICE/App/usbd_desc.c **** /**
 232:USB_DEVICE/App/usbd_desc.c ****   * @}
 233:USB_DEVICE/App/usbd_desc.c ****   */
 234:USB_DEVICE/App/usbd_desc.c **** 
 235:USB_DEVICE/App/usbd_desc.c **** /** @defgroup USBD_DESC_Private_Functions USBD_DESC_Private_Functions
 236:USB_DEVICE/App/usbd_desc.c ****   * @brief Private functions.
 237:USB_DEVICE/App/usbd_desc.c ****   * @{
 238:USB_DEVICE/App/usbd_desc.c ****   */
 239:USB_DEVICE/App/usbd_desc.c **** 
 240:USB_DEVICE/App/usbd_desc.c **** /**
 241:USB_DEVICE/App/usbd_desc.c ****   * @brief  Return the device descriptor
 242:USB_DEVICE/App/usbd_desc.c ****   * @param  speed : Current device speed
 243:USB_DEVICE/App/usbd_desc.c ****   * @param  length : Pointer to data length variable
 244:USB_DEVICE/App/usbd_desc.c ****   * @retval Pointer to descriptor buffer
 245:USB_DEVICE/App/usbd_desc.c ****   */
 246:USB_DEVICE/App/usbd_desc.c **** uint8_t * USBD_FS_DeviceDescriptor(USBD_SpeedTypeDef speed, uint16_t *length)
 247:USB_DEVICE/App/usbd_desc.c **** {
  29              		.loc 1 247 1 view -0
  30              		.cfi_startproc
  31              		@ args = 0, pretend = 0, frame = 0
  32              		@ frame_needed = 0, uses_anonymous_args = 0
  33              		@ link register save eliminated.
 248:USB_DEVICE/App/usbd_desc.c ****   UNUSED(speed);
  34              		.loc 1 248 3 view .LVU1
 249:USB_DEVICE/App/usbd_desc.c ****   *length = sizeof(USBD_FS_DeviceDesc);
  35              		.loc 1 249 3 view .LVU2
  36              		.loc 1 249 11 is_stmt 0 view .LVU3
  37 0000 1223     		movs	r3, #18
ARM GAS  C:\Users\Nathan\AppData\Local\Temp\ccAW34bj.s 			page 6


  38 0002 0B80     		strh	r3, [r1]	@ movhi
 250:USB_DEVICE/App/usbd_desc.c ****   return USBD_FS_DeviceDesc;
  39              		.loc 1 250 3 is_stmt 1 view .LVU4
 251:USB_DEVICE/App/usbd_desc.c **** }
  40              		.loc 1 251 1 is_stmt 0 view .LVU5
  41 0004 0048     		ldr	r0, .L2
  42              	.LVL1:
  43              		.loc 1 251 1 view .LVU6
  44 0006 7047     		bx	lr
  45              	.L3:
  46              		.align	2
  47              	.L2:
  48 0008 00000000 		.word	USBD_FS_DeviceDesc
  49              		.cfi_endproc
  50              	.LFE148:
  52              		.section	.text.USBD_FS_LangIDStrDescriptor,"ax",%progbits
  53              		.align	1
  54              		.global	USBD_FS_LangIDStrDescriptor
  55              		.syntax unified
  56              		.thumb
  57              		.thumb_func
  59              	USBD_FS_LangIDStrDescriptor:
  60              	.LVL2:
  61              	.LFB149:
 252:USB_DEVICE/App/usbd_desc.c **** 
 253:USB_DEVICE/App/usbd_desc.c **** /**
 254:USB_DEVICE/App/usbd_desc.c ****   * @brief  Return the LangID string descriptor
 255:USB_DEVICE/App/usbd_desc.c ****   * @param  speed : Current device speed
 256:USB_DEVICE/App/usbd_desc.c ****   * @param  length : Pointer to data length variable
 257:USB_DEVICE/App/usbd_desc.c ****   * @retval Pointer to descriptor buffer
 258:USB_DEVICE/App/usbd_desc.c ****   */
 259:USB_DEVICE/App/usbd_desc.c **** uint8_t * USBD_FS_LangIDStrDescriptor(USBD_SpeedTypeDef speed, uint16_t *length)
 260:USB_DEVICE/App/usbd_desc.c **** {
  62              		.loc 1 260 1 is_stmt 1 view -0
  63              		.cfi_startproc
  64              		@ args = 0, pretend = 0, frame = 0
  65              		@ frame_needed = 0, uses_anonymous_args = 0
  66              		@ link register save eliminated.
 261:USB_DEVICE/App/usbd_desc.c ****   UNUSED(speed);
  67              		.loc 1 261 3 view .LVU8
 262:USB_DEVICE/App/usbd_desc.c ****   *length = sizeof(USBD_LangIDDesc);
  68              		.loc 1 262 3 view .LVU9
  69              		.loc 1 262 11 is_stmt 0 view .LVU10
  70 0000 0423     		movs	r3, #4
  71 0002 0B80     		strh	r3, [r1]	@ movhi
 263:USB_DEVICE/App/usbd_desc.c ****   return USBD_LangIDDesc;
  72              		.loc 1 263 3 is_stmt 1 view .LVU11
 264:USB_DEVICE/App/usbd_desc.c **** }
  73              		.loc 1 264 1 is_stmt 0 view .LVU12
  74 0004 0048     		ldr	r0, .L5
  75              	.LVL3:
  76              		.loc 1 264 1 view .LVU13
  77 0006 7047     		bx	lr
  78              	.L6:
  79              		.align	2
  80              	.L5:
  81 0008 00000000 		.word	USBD_LangIDDesc
ARM GAS  C:\Users\Nathan\AppData\Local\Temp\ccAW34bj.s 			page 7


  82              		.cfi_endproc
  83              	.LFE149:
  85              		.section	.text.IntToUnicode,"ax",%progbits
  86              		.align	1
  87              		.syntax unified
  88              		.thumb
  89              		.thumb_func
  91              	IntToUnicode:
  92              	.LVL4:
  93              	.LFB156:
 265:USB_DEVICE/App/usbd_desc.c **** 
 266:USB_DEVICE/App/usbd_desc.c **** /**
 267:USB_DEVICE/App/usbd_desc.c ****   * @brief  Return the product string descriptor
 268:USB_DEVICE/App/usbd_desc.c ****   * @param  speed : Current device speed
 269:USB_DEVICE/App/usbd_desc.c ****   * @param  length : Pointer to data length variable
 270:USB_DEVICE/App/usbd_desc.c ****   * @retval Pointer to descriptor buffer
 271:USB_DEVICE/App/usbd_desc.c ****   */
 272:USB_DEVICE/App/usbd_desc.c **** uint8_t * USBD_FS_ProductStrDescriptor(USBD_SpeedTypeDef speed, uint16_t *length)
 273:USB_DEVICE/App/usbd_desc.c **** {
 274:USB_DEVICE/App/usbd_desc.c ****   if(speed == 0)
 275:USB_DEVICE/App/usbd_desc.c ****   {
 276:USB_DEVICE/App/usbd_desc.c ****     USBD_GetString((uint8_t *)USBD_PRODUCT_STRING_FS, USBD_StrDesc, length);
 277:USB_DEVICE/App/usbd_desc.c ****   }
 278:USB_DEVICE/App/usbd_desc.c ****   else
 279:USB_DEVICE/App/usbd_desc.c ****   {
 280:USB_DEVICE/App/usbd_desc.c ****     USBD_GetString((uint8_t *)USBD_PRODUCT_STRING_FS, USBD_StrDesc, length);
 281:USB_DEVICE/App/usbd_desc.c ****   }
 282:USB_DEVICE/App/usbd_desc.c ****   return USBD_StrDesc;
 283:USB_DEVICE/App/usbd_desc.c **** }
 284:USB_DEVICE/App/usbd_desc.c **** 
 285:USB_DEVICE/App/usbd_desc.c **** /**
 286:USB_DEVICE/App/usbd_desc.c ****   * @brief  Return the manufacturer string descriptor
 287:USB_DEVICE/App/usbd_desc.c ****   * @param  speed : Current device speed
 288:USB_DEVICE/App/usbd_desc.c ****   * @param  length : Pointer to data length variable
 289:USB_DEVICE/App/usbd_desc.c ****   * @retval Pointer to descriptor buffer
 290:USB_DEVICE/App/usbd_desc.c ****   */
 291:USB_DEVICE/App/usbd_desc.c **** uint8_t * USBD_FS_ManufacturerStrDescriptor(USBD_SpeedTypeDef speed, uint16_t *length)
 292:USB_DEVICE/App/usbd_desc.c **** {
 293:USB_DEVICE/App/usbd_desc.c ****   UNUSED(speed);
 294:USB_DEVICE/App/usbd_desc.c ****   USBD_GetString((uint8_t *)USBD_MANUFACTURER_STRING, USBD_StrDesc, length);
 295:USB_DEVICE/App/usbd_desc.c ****   return USBD_StrDesc;
 296:USB_DEVICE/App/usbd_desc.c **** }
 297:USB_DEVICE/App/usbd_desc.c **** 
 298:USB_DEVICE/App/usbd_desc.c **** /**
 299:USB_DEVICE/App/usbd_desc.c ****   * @brief  Return the serial number string descriptor
 300:USB_DEVICE/App/usbd_desc.c ****   * @param  speed : Current device speed
 301:USB_DEVICE/App/usbd_desc.c ****   * @param  length : Pointer to data length variable
 302:USB_DEVICE/App/usbd_desc.c ****   * @retval Pointer to descriptor buffer
 303:USB_DEVICE/App/usbd_desc.c ****   */
 304:USB_DEVICE/App/usbd_desc.c **** uint8_t * USBD_FS_SerialStrDescriptor(USBD_SpeedTypeDef speed, uint16_t *length)
 305:USB_DEVICE/App/usbd_desc.c **** {
 306:USB_DEVICE/App/usbd_desc.c ****   UNUSED(speed);
 307:USB_DEVICE/App/usbd_desc.c ****   *length = USB_SIZ_STRING_SERIAL;
 308:USB_DEVICE/App/usbd_desc.c **** 
 309:USB_DEVICE/App/usbd_desc.c ****   /* Update the serial number string descriptor with the data from the unique
 310:USB_DEVICE/App/usbd_desc.c ****    * ID */
 311:USB_DEVICE/App/usbd_desc.c ****   Get_SerialNum();
ARM GAS  C:\Users\Nathan\AppData\Local\Temp\ccAW34bj.s 			page 8


 312:USB_DEVICE/App/usbd_desc.c ****   /* USER CODE BEGIN USBD_FS_SerialStrDescriptor */
 313:USB_DEVICE/App/usbd_desc.c **** 
 314:USB_DEVICE/App/usbd_desc.c ****   /* USER CODE END USBD_FS_SerialStrDescriptor */
 315:USB_DEVICE/App/usbd_desc.c ****   return (uint8_t *) USBD_StringSerial;
 316:USB_DEVICE/App/usbd_desc.c **** }
 317:USB_DEVICE/App/usbd_desc.c **** 
 318:USB_DEVICE/App/usbd_desc.c **** /**
 319:USB_DEVICE/App/usbd_desc.c ****   * @brief  Return the configuration string descriptor
 320:USB_DEVICE/App/usbd_desc.c ****   * @param  speed : Current device speed
 321:USB_DEVICE/App/usbd_desc.c ****   * @param  length : Pointer to data length variable
 322:USB_DEVICE/App/usbd_desc.c ****   * @retval Pointer to descriptor buffer
 323:USB_DEVICE/App/usbd_desc.c ****   */
 324:USB_DEVICE/App/usbd_desc.c **** uint8_t * USBD_FS_ConfigStrDescriptor(USBD_SpeedTypeDef speed, uint16_t *length)
 325:USB_DEVICE/App/usbd_desc.c **** {
 326:USB_DEVICE/App/usbd_desc.c ****   if(speed == USBD_SPEED_HIGH)
 327:USB_DEVICE/App/usbd_desc.c ****   {
 328:USB_DEVICE/App/usbd_desc.c ****     USBD_GetString((uint8_t *)USBD_CONFIGURATION_STRING_FS, USBD_StrDesc, length);
 329:USB_DEVICE/App/usbd_desc.c ****   }
 330:USB_DEVICE/App/usbd_desc.c ****   else
 331:USB_DEVICE/App/usbd_desc.c ****   {
 332:USB_DEVICE/App/usbd_desc.c ****     USBD_GetString((uint8_t *)USBD_CONFIGURATION_STRING_FS, USBD_StrDesc, length);
 333:USB_DEVICE/App/usbd_desc.c ****   }
 334:USB_DEVICE/App/usbd_desc.c ****   return USBD_StrDesc;
 335:USB_DEVICE/App/usbd_desc.c **** }
 336:USB_DEVICE/App/usbd_desc.c **** 
 337:USB_DEVICE/App/usbd_desc.c **** /**
 338:USB_DEVICE/App/usbd_desc.c ****   * @brief  Return the interface string descriptor
 339:USB_DEVICE/App/usbd_desc.c ****   * @param  speed : Current device speed
 340:USB_DEVICE/App/usbd_desc.c ****   * @param  length : Pointer to data length variable
 341:USB_DEVICE/App/usbd_desc.c ****   * @retval Pointer to descriptor buffer
 342:USB_DEVICE/App/usbd_desc.c ****   */
 343:USB_DEVICE/App/usbd_desc.c **** uint8_t * USBD_FS_InterfaceStrDescriptor(USBD_SpeedTypeDef speed, uint16_t *length)
 344:USB_DEVICE/App/usbd_desc.c **** {
 345:USB_DEVICE/App/usbd_desc.c ****   if(speed == 0)
 346:USB_DEVICE/App/usbd_desc.c ****   {
 347:USB_DEVICE/App/usbd_desc.c ****     USBD_GetString((uint8_t *)USBD_INTERFACE_STRING_FS, USBD_StrDesc, length);
 348:USB_DEVICE/App/usbd_desc.c ****   }
 349:USB_DEVICE/App/usbd_desc.c ****   else
 350:USB_DEVICE/App/usbd_desc.c ****   {
 351:USB_DEVICE/App/usbd_desc.c ****     USBD_GetString((uint8_t *)USBD_INTERFACE_STRING_FS, USBD_StrDesc, length);
 352:USB_DEVICE/App/usbd_desc.c ****   }
 353:USB_DEVICE/App/usbd_desc.c ****   return USBD_StrDesc;
 354:USB_DEVICE/App/usbd_desc.c **** }
 355:USB_DEVICE/App/usbd_desc.c **** 
 356:USB_DEVICE/App/usbd_desc.c **** /**
 357:USB_DEVICE/App/usbd_desc.c ****   * @brief  Create the serial number string descriptor
 358:USB_DEVICE/App/usbd_desc.c ****   * @param  None
 359:USB_DEVICE/App/usbd_desc.c ****   * @retval None
 360:USB_DEVICE/App/usbd_desc.c ****   */
 361:USB_DEVICE/App/usbd_desc.c **** static void Get_SerialNum(void)
 362:USB_DEVICE/App/usbd_desc.c **** {
 363:USB_DEVICE/App/usbd_desc.c ****   uint32_t deviceserial0;
 364:USB_DEVICE/App/usbd_desc.c ****   uint32_t deviceserial1;
 365:USB_DEVICE/App/usbd_desc.c ****   uint32_t deviceserial2;
 366:USB_DEVICE/App/usbd_desc.c **** 
 367:USB_DEVICE/App/usbd_desc.c ****   deviceserial0 = *(uint32_t *) DEVICE_ID1;
 368:USB_DEVICE/App/usbd_desc.c ****   deviceserial1 = *(uint32_t *) DEVICE_ID2;
ARM GAS  C:\Users\Nathan\AppData\Local\Temp\ccAW34bj.s 			page 9


 369:USB_DEVICE/App/usbd_desc.c ****   deviceserial2 = *(uint32_t *) DEVICE_ID3;
 370:USB_DEVICE/App/usbd_desc.c **** 
 371:USB_DEVICE/App/usbd_desc.c ****   deviceserial0 += deviceserial2;
 372:USB_DEVICE/App/usbd_desc.c **** 
 373:USB_DEVICE/App/usbd_desc.c ****   if (deviceserial0 != 0)
 374:USB_DEVICE/App/usbd_desc.c ****   {
 375:USB_DEVICE/App/usbd_desc.c ****     IntToUnicode(deviceserial0, &USBD_StringSerial[2], 8);
 376:USB_DEVICE/App/usbd_desc.c ****     IntToUnicode(deviceserial1, &USBD_StringSerial[18], 4);
 377:USB_DEVICE/App/usbd_desc.c ****   }
 378:USB_DEVICE/App/usbd_desc.c **** }
 379:USB_DEVICE/App/usbd_desc.c **** 
 380:USB_DEVICE/App/usbd_desc.c **** /**
 381:USB_DEVICE/App/usbd_desc.c ****   * @brief  Convert Hex 32Bits value into char
 382:USB_DEVICE/App/usbd_desc.c ****   * @param  value: value to convert
 383:USB_DEVICE/App/usbd_desc.c ****   * @param  pbuf: pointer to the buffer
 384:USB_DEVICE/App/usbd_desc.c ****   * @param  len: buffer length
 385:USB_DEVICE/App/usbd_desc.c ****   * @retval None
 386:USB_DEVICE/App/usbd_desc.c ****   */
 387:USB_DEVICE/App/usbd_desc.c **** static void IntToUnicode(uint32_t value, uint8_t * pbuf, uint8_t len)
 388:USB_DEVICE/App/usbd_desc.c **** {
  94              		.loc 1 388 1 is_stmt 1 view -0
  95              		.cfi_startproc
  96              		@ args = 0, pretend = 0, frame = 0
  97              		@ frame_needed = 0, uses_anonymous_args = 0
 389:USB_DEVICE/App/usbd_desc.c ****   uint8_t idx = 0;
  98              		.loc 1 389 3 view .LVU15
 390:USB_DEVICE/App/usbd_desc.c **** 
 391:USB_DEVICE/App/usbd_desc.c ****   for (idx = 0; idx < len; idx++)
  99              		.loc 1 391 3 view .LVU16
 100              		.loc 1 391 12 is_stmt 0 view .LVU17
 101 0000 0023     		movs	r3, #0
 102              	.LVL5:
 103              		.loc 1 391 21 is_stmt 1 discriminator 1 view .LVU18
 104 0002 9342     		cmp	r3, r2
 105 0004 1ED2     		bcs	.L15
 388:USB_DEVICE/App/usbd_desc.c ****   uint8_t idx = 0;
 106              		.loc 1 388 1 is_stmt 0 view .LVU19
 107 0006 00B5     		push	{lr}
 108              		.cfi_def_cfa_offset 4
 109              		.cfi_offset 14, -4
 110 0008 10E0     		b	.L11
 111              	.L9:
 392:USB_DEVICE/App/usbd_desc.c ****   {
 393:USB_DEVICE/App/usbd_desc.c ****     if (((value >> 28)) < 0xA)
 394:USB_DEVICE/App/usbd_desc.c ****     {
 395:USB_DEVICE/App/usbd_desc.c ****       pbuf[2 * idx] = (value >> 28) + '0';
 396:USB_DEVICE/App/usbd_desc.c ****     }
 397:USB_DEVICE/App/usbd_desc.c ****     else
 398:USB_DEVICE/App/usbd_desc.c ****     {
 399:USB_DEVICE/App/usbd_desc.c ****       pbuf[2 * idx] = (value >> 28) + 'A' - 10;
 112              		.loc 1 399 7 is_stmt 1 view .LVU20
 113              		.loc 1 399 43 is_stmt 0 view .LVU21
 114 000a 0CF1370C 		add	ip, ip, #55
 115              		.loc 1 399 21 view .LVU22
 116 000e 01F813C0 		strb	ip, [r1, r3, lsl #1]
 117              	.L10:
 400:USB_DEVICE/App/usbd_desc.c ****     }
ARM GAS  C:\Users\Nathan\AppData\Local\Temp\ccAW34bj.s 			page 10


 401:USB_DEVICE/App/usbd_desc.c **** 
 402:USB_DEVICE/App/usbd_desc.c ****     value = value << 4;
 118              		.loc 1 402 5 is_stmt 1 view .LVU23
 119              		.loc 1 402 11 is_stmt 0 view .LVU24
 120 0012 0001     		lsls	r0, r0, #4
 121              	.LVL6:
 403:USB_DEVICE/App/usbd_desc.c **** 
 404:USB_DEVICE/App/usbd_desc.c ****     pbuf[2 * idx + 1] = 0;
 122              		.loc 1 404 5 is_stmt 1 view .LVU25
 123              		.loc 1 404 12 is_stmt 0 view .LVU26
 124 0014 4FEA430C 		lsl	ip, r3, #1
 125              		.loc 1 404 9 view .LVU27
 126 0018 0CF1010C 		add	ip, ip, #1
 127              		.loc 1 404 23 view .LVU28
 128 001c 4FF0000E 		mov	lr, #0
 129 0020 01F80CE0 		strb	lr, [r1, ip]
 391:USB_DEVICE/App/usbd_desc.c ****   {
 130              		.loc 1 391 31 is_stmt 1 discriminator 2 view .LVU29
 131 0024 0133     		adds	r3, r3, #1
 132              	.LVL7:
 391:USB_DEVICE/App/usbd_desc.c ****   {
 133              		.loc 1 391 31 is_stmt 0 discriminator 2 view .LVU30
 134 0026 DBB2     		uxtb	r3, r3
 135              	.LVL8:
 391:USB_DEVICE/App/usbd_desc.c ****   {
 136              		.loc 1 391 21 is_stmt 1 discriminator 1 view .LVU31
 137 0028 9342     		cmp	r3, r2
 138 002a 09D2     		bcs	.L16
 139              	.L11:
 393:USB_DEVICE/App/usbd_desc.c ****     {
 140              		.loc 1 393 5 view .LVU32
 393:USB_DEVICE/App/usbd_desc.c ****     {
 141              		.loc 1 393 17 is_stmt 0 view .LVU33
 142 002c 4FEA107C 		lsr	ip, r0, #28
 393:USB_DEVICE/App/usbd_desc.c ****     {
 143              		.loc 1 393 8 view .LVU34
 144 0030 B0F1204F 		cmp	r0, #-1610612736
 145 0034 E9D2     		bcs	.L9
 395:USB_DEVICE/App/usbd_desc.c ****     }
 146              		.loc 1 395 7 is_stmt 1 view .LVU35
 395:USB_DEVICE/App/usbd_desc.c ****     }
 147              		.loc 1 395 37 is_stmt 0 view .LVU36
 148 0036 0CF1300C 		add	ip, ip, #48
 395:USB_DEVICE/App/usbd_desc.c ****     }
 149              		.loc 1 395 21 view .LVU37
 150 003a 01F813C0 		strb	ip, [r1, r3, lsl #1]
 151 003e E8E7     		b	.L10
 152              	.L16:
 405:USB_DEVICE/App/usbd_desc.c ****   }
 406:USB_DEVICE/App/usbd_desc.c **** }
 153              		.loc 1 406 1 view .LVU38
 154 0040 5DF804FB 		ldr	pc, [sp], #4
 155              	.L15:
 156              		.cfi_def_cfa_offset 0
 157              		.cfi_restore 14
 158              		.loc 1 406 1 view .LVU39
 159 0044 7047     		bx	lr
ARM GAS  C:\Users\Nathan\AppData\Local\Temp\ccAW34bj.s 			page 11


 160              		.cfi_endproc
 161              	.LFE156:
 163              		.section	.text.Get_SerialNum,"ax",%progbits
 164              		.align	1
 165              		.syntax unified
 166              		.thumb
 167              		.thumb_func
 169              	Get_SerialNum:
 170              	.LFB155:
 362:USB_DEVICE/App/usbd_desc.c ****   uint32_t deviceserial0;
 171              		.loc 1 362 1 is_stmt 1 view -0
 172              		.cfi_startproc
 173              		@ args = 0, pretend = 0, frame = 0
 174              		@ frame_needed = 0, uses_anonymous_args = 0
 175 0000 38B5     		push	{r3, r4, r5, lr}
 176              		.cfi_def_cfa_offset 16
 177              		.cfi_offset 3, -16
 178              		.cfi_offset 4, -12
 179              		.cfi_offset 5, -8
 180              		.cfi_offset 14, -4
 363:USB_DEVICE/App/usbd_desc.c ****   uint32_t deviceserial1;
 181              		.loc 1 363 3 view .LVU41
 364:USB_DEVICE/App/usbd_desc.c ****   uint32_t deviceserial2;
 182              		.loc 1 364 3 view .LVU42
 365:USB_DEVICE/App/usbd_desc.c **** 
 183              		.loc 1 365 3 view .LVU43
 367:USB_DEVICE/App/usbd_desc.c ****   deviceserial1 = *(uint32_t *) DEVICE_ID2;
 184              		.loc 1 367 3 view .LVU44
 367:USB_DEVICE/App/usbd_desc.c ****   deviceserial1 = *(uint32_t *) DEVICE_ID2;
 185              		.loc 1 367 17 is_stmt 0 view .LVU45
 186 0002 0B4B     		ldr	r3, .L21
 187 0004 D3F80008 		ldr	r0, [r3, #2048]
 188              	.LVL9:
 368:USB_DEVICE/App/usbd_desc.c ****   deviceserial2 = *(uint32_t *) DEVICE_ID3;
 189              		.loc 1 368 3 is_stmt 1 view .LVU46
 368:USB_DEVICE/App/usbd_desc.c ****   deviceserial2 = *(uint32_t *) DEVICE_ID3;
 190              		.loc 1 368 17 is_stmt 0 view .LVU47
 191 0008 D3F80448 		ldr	r4, [r3, #2052]
 192              	.LVL10:
 369:USB_DEVICE/App/usbd_desc.c **** 
 193              		.loc 1 369 3 is_stmt 1 view .LVU48
 369:USB_DEVICE/App/usbd_desc.c **** 
 194              		.loc 1 369 17 is_stmt 0 view .LVU49
 195 000c D3F80838 		ldr	r3, [r3, #2056]
 196              	.LVL11:
 371:USB_DEVICE/App/usbd_desc.c **** 
 197              		.loc 1 371 3 is_stmt 1 view .LVU50
 373:USB_DEVICE/App/usbd_desc.c ****   {
 198              		.loc 1 373 3 view .LVU51
 373:USB_DEVICE/App/usbd_desc.c ****   {
 199              		.loc 1 373 6 is_stmt 0 view .LVU52
 200 0010 C018     		adds	r0, r0, r3
 201              	.LVL12:
 373:USB_DEVICE/App/usbd_desc.c ****   {
 202              		.loc 1 373 6 view .LVU53
 203 0012 00D1     		bne	.L20
 204              	.LVL13:
ARM GAS  C:\Users\Nathan\AppData\Local\Temp\ccAW34bj.s 			page 12


 205              	.L17:
 378:USB_DEVICE/App/usbd_desc.c **** 
 206              		.loc 1 378 1 view .LVU54
 207 0014 38BD     		pop	{r3, r4, r5, pc}
 208              	.LVL14:
 209              	.L20:
 375:USB_DEVICE/App/usbd_desc.c ****     IntToUnicode(deviceserial1, &USBD_StringSerial[18], 4);
 210              		.loc 1 375 5 is_stmt 1 view .LVU55
 211 0016 074D     		ldr	r5, .L21+4
 212 0018 0822     		movs	r2, #8
 213 001a 2946     		mov	r1, r5
 214 001c FFF7FEFF 		bl	IntToUnicode
 215              	.LVL15:
 376:USB_DEVICE/App/usbd_desc.c ****   }
 216              		.loc 1 376 5 view .LVU56
 217 0020 0422     		movs	r2, #4
 218 0022 05F11001 		add	r1, r5, #16
 219 0026 2046     		mov	r0, r4
 220 0028 FFF7FEFF 		bl	IntToUnicode
 221              	.LVL16:
 378:USB_DEVICE/App/usbd_desc.c **** 
 222              		.loc 1 378 1 is_stmt 0 view .LVU57
 223 002c F2E7     		b	.L17
 224              	.L22:
 225 002e 00BF     		.align	2
 226              	.L21:
 227 0030 00E0F11F 		.word	535945216
 228 0034 02000000 		.word	USBD_StringSerial+2
 229              		.cfi_endproc
 230              	.LFE155:
 232              		.section	.text.USBD_FS_SerialStrDescriptor,"ax",%progbits
 233              		.align	1
 234              		.global	USBD_FS_SerialStrDescriptor
 235              		.syntax unified
 236              		.thumb
 237              		.thumb_func
 239              	USBD_FS_SerialStrDescriptor:
 240              	.LVL17:
 241              	.LFB152:
 305:USB_DEVICE/App/usbd_desc.c ****   UNUSED(speed);
 242              		.loc 1 305 1 is_stmt 1 view -0
 243              		.cfi_startproc
 244              		@ args = 0, pretend = 0, frame = 0
 245              		@ frame_needed = 0, uses_anonymous_args = 0
 305:USB_DEVICE/App/usbd_desc.c ****   UNUSED(speed);
 246              		.loc 1 305 1 is_stmt 0 view .LVU59
 247 0000 08B5     		push	{r3, lr}
 248              		.cfi_def_cfa_offset 8
 249              		.cfi_offset 3, -8
 250              		.cfi_offset 14, -4
 306:USB_DEVICE/App/usbd_desc.c ****   *length = USB_SIZ_STRING_SERIAL;
 251              		.loc 1 306 3 is_stmt 1 view .LVU60
 307:USB_DEVICE/App/usbd_desc.c **** 
 252              		.loc 1 307 3 view .LVU61
 307:USB_DEVICE/App/usbd_desc.c **** 
 253              		.loc 1 307 11 is_stmt 0 view .LVU62
 254 0002 1A23     		movs	r3, #26
ARM GAS  C:\Users\Nathan\AppData\Local\Temp\ccAW34bj.s 			page 13


 255 0004 0B80     		strh	r3, [r1]	@ movhi
 311:USB_DEVICE/App/usbd_desc.c ****   /* USER CODE BEGIN USBD_FS_SerialStrDescriptor */
 256              		.loc 1 311 3 is_stmt 1 view .LVU63
 257 0006 FFF7FEFF 		bl	Get_SerialNum
 258              	.LVL18:
 315:USB_DEVICE/App/usbd_desc.c **** }
 259              		.loc 1 315 3 view .LVU64
 316:USB_DEVICE/App/usbd_desc.c **** 
 260              		.loc 1 316 1 is_stmt 0 view .LVU65
 261 000a 0148     		ldr	r0, .L25
 262 000c 08BD     		pop	{r3, pc}
 263              	.L26:
 264 000e 00BF     		.align	2
 265              	.L25:
 266 0010 00000000 		.word	USBD_StringSerial
 267              		.cfi_endproc
 268              	.LFE152:
 270              		.section	.rodata.USBD_FS_ProductStrDescriptor.str1.4,"aMS",%progbits,1
 271              		.align	2
 272              	.LC0:
 273 0000 53544D33 		.ascii	"STM32 Virtual ComPort\000"
 273      32205669 
 273      72747561 
 273      6C20436F 
 273      6D506F72 
 274              		.section	.text.USBD_FS_ProductStrDescriptor,"ax",%progbits
 275              		.align	1
 276              		.global	USBD_FS_ProductStrDescriptor
 277              		.syntax unified
 278              		.thumb
 279              		.thumb_func
 281              	USBD_FS_ProductStrDescriptor:
 282              	.LVL19:
 283              	.LFB150:
 273:USB_DEVICE/App/usbd_desc.c ****   if(speed == 0)
 284              		.loc 1 273 1 is_stmt 1 view -0
 285              		.cfi_startproc
 286              		@ args = 0, pretend = 0, frame = 0
 287              		@ frame_needed = 0, uses_anonymous_args = 0
 273:USB_DEVICE/App/usbd_desc.c ****   if(speed == 0)
 288              		.loc 1 273 1 is_stmt 0 view .LVU67
 289 0000 08B5     		push	{r3, lr}
 290              		.cfi_def_cfa_offset 8
 291              		.cfi_offset 3, -8
 292              		.cfi_offset 14, -4
 293 0002 0A46     		mov	r2, r1
 274:USB_DEVICE/App/usbd_desc.c ****   {
 294              		.loc 1 274 3 is_stmt 1 view .LVU68
 274:USB_DEVICE/App/usbd_desc.c ****   {
 295              		.loc 1 274 5 is_stmt 0 view .LVU69
 296 0004 28B9     		cbnz	r0, .L28
 276:USB_DEVICE/App/usbd_desc.c ****   }
 297              		.loc 1 276 5 is_stmt 1 view .LVU70
 298 0006 0549     		ldr	r1, .L31
 299              	.LVL20:
 276:USB_DEVICE/App/usbd_desc.c ****   }
 300              		.loc 1 276 5 is_stmt 0 view .LVU71
ARM GAS  C:\Users\Nathan\AppData\Local\Temp\ccAW34bj.s 			page 14


 301 0008 0548     		ldr	r0, .L31+4
 302              	.LVL21:
 276:USB_DEVICE/App/usbd_desc.c ****   }
 303              		.loc 1 276 5 view .LVU72
 304 000a FFF7FEFF 		bl	USBD_GetString
 305              	.LVL22:
 306              	.L29:
 282:USB_DEVICE/App/usbd_desc.c **** }
 307              		.loc 1 282 3 is_stmt 1 view .LVU73
 283:USB_DEVICE/App/usbd_desc.c **** 
 308              		.loc 1 283 1 is_stmt 0 view .LVU74
 309 000e 0348     		ldr	r0, .L31
 310 0010 08BD     		pop	{r3, pc}
 311              	.LVL23:
 312              	.L28:
 280:USB_DEVICE/App/usbd_desc.c ****   }
 313              		.loc 1 280 5 is_stmt 1 view .LVU75
 314 0012 0249     		ldr	r1, .L31
 315              	.LVL24:
 280:USB_DEVICE/App/usbd_desc.c ****   }
 316              		.loc 1 280 5 is_stmt 0 view .LVU76
 317 0014 0248     		ldr	r0, .L31+4
 318              	.LVL25:
 280:USB_DEVICE/App/usbd_desc.c ****   }
 319              		.loc 1 280 5 view .LVU77
 320 0016 FFF7FEFF 		bl	USBD_GetString
 321              	.LVL26:
 280:USB_DEVICE/App/usbd_desc.c ****   }
 322              		.loc 1 280 5 view .LVU78
 323 001a F8E7     		b	.L29
 324              	.L32:
 325              		.align	2
 326              	.L31:
 327 001c 00000000 		.word	USBD_StrDesc
 328 0020 00000000 		.word	.LC0
 329              		.cfi_endproc
 330              	.LFE150:
 332              		.section	.rodata.USBD_FS_ManufacturerStrDescriptor.str1.4,"aMS",%progbits,1
 333              		.align	2
 334              	.LC1:
 335 0000 53544D69 		.ascii	"STMicroelectronics\000"
 335      63726F65 
 335      6C656374 
 335      726F6E69 
 335      637300
 336              		.section	.text.USBD_FS_ManufacturerStrDescriptor,"ax",%progbits
 337              		.align	1
 338              		.global	USBD_FS_ManufacturerStrDescriptor
 339              		.syntax unified
 340              		.thumb
 341              		.thumb_func
 343              	USBD_FS_ManufacturerStrDescriptor:
 344              	.LVL27:
 345              	.LFB151:
 292:USB_DEVICE/App/usbd_desc.c ****   UNUSED(speed);
 346              		.loc 1 292 1 is_stmt 1 view -0
 347              		.cfi_startproc
ARM GAS  C:\Users\Nathan\AppData\Local\Temp\ccAW34bj.s 			page 15


 348              		@ args = 0, pretend = 0, frame = 0
 349              		@ frame_needed = 0, uses_anonymous_args = 0
 292:USB_DEVICE/App/usbd_desc.c ****   UNUSED(speed);
 350              		.loc 1 292 1 is_stmt 0 view .LVU80
 351 0000 10B5     		push	{r4, lr}
 352              		.cfi_def_cfa_offset 8
 353              		.cfi_offset 4, -8
 354              		.cfi_offset 14, -4
 355 0002 0A46     		mov	r2, r1
 293:USB_DEVICE/App/usbd_desc.c ****   USBD_GetString((uint8_t *)USBD_MANUFACTURER_STRING, USBD_StrDesc, length);
 356              		.loc 1 293 3 is_stmt 1 view .LVU81
 294:USB_DEVICE/App/usbd_desc.c ****   return USBD_StrDesc;
 357              		.loc 1 294 3 view .LVU82
 358 0004 034C     		ldr	r4, .L35
 359 0006 2146     		mov	r1, r4
 360              	.LVL28:
 294:USB_DEVICE/App/usbd_desc.c ****   return USBD_StrDesc;
 361              		.loc 1 294 3 is_stmt 0 view .LVU83
 362 0008 0348     		ldr	r0, .L35+4
 363              	.LVL29:
 294:USB_DEVICE/App/usbd_desc.c ****   return USBD_StrDesc;
 364              		.loc 1 294 3 view .LVU84
 365 000a FFF7FEFF 		bl	USBD_GetString
 366              	.LVL30:
 295:USB_DEVICE/App/usbd_desc.c **** }
 367              		.loc 1 295 3 is_stmt 1 view .LVU85
 296:USB_DEVICE/App/usbd_desc.c **** 
 368              		.loc 1 296 1 is_stmt 0 view .LVU86
 369 000e 2046     		mov	r0, r4
 370 0010 10BD     		pop	{r4, pc}
 371              	.L36:
 372 0012 00BF     		.align	2
 373              	.L35:
 374 0014 00000000 		.word	USBD_StrDesc
 375 0018 00000000 		.word	.LC1
 376              		.cfi_endproc
 377              	.LFE151:
 379              		.section	.rodata.USBD_FS_ConfigStrDescriptor.str1.4,"aMS",%progbits,1
 380              		.align	2
 381              	.LC2:
 382 0000 43444320 		.ascii	"CDC Config\000"
 382      436F6E66 
 382      696700
 383              		.section	.text.USBD_FS_ConfigStrDescriptor,"ax",%progbits
 384              		.align	1
 385              		.global	USBD_FS_ConfigStrDescriptor
 386              		.syntax unified
 387              		.thumb
 388              		.thumb_func
 390              	USBD_FS_ConfigStrDescriptor:
 391              	.LVL31:
 392              	.LFB153:
 325:USB_DEVICE/App/usbd_desc.c ****   if(speed == USBD_SPEED_HIGH)
 393              		.loc 1 325 1 is_stmt 1 view -0
 394              		.cfi_startproc
 395              		@ args = 0, pretend = 0, frame = 0
 396              		@ frame_needed = 0, uses_anonymous_args = 0
ARM GAS  C:\Users\Nathan\AppData\Local\Temp\ccAW34bj.s 			page 16


 325:USB_DEVICE/App/usbd_desc.c ****   if(speed == USBD_SPEED_HIGH)
 397              		.loc 1 325 1 is_stmt 0 view .LVU88
 398 0000 08B5     		push	{r3, lr}
 399              		.cfi_def_cfa_offset 8
 400              		.cfi_offset 3, -8
 401              		.cfi_offset 14, -4
 402 0002 0A46     		mov	r2, r1
 326:USB_DEVICE/App/usbd_desc.c ****   {
 403              		.loc 1 326 3 is_stmt 1 view .LVU89
 326:USB_DEVICE/App/usbd_desc.c ****   {
 404              		.loc 1 326 5 is_stmt 0 view .LVU90
 405 0004 28B9     		cbnz	r0, .L38
 328:USB_DEVICE/App/usbd_desc.c ****   }
 406              		.loc 1 328 5 is_stmt 1 view .LVU91
 407 0006 0549     		ldr	r1, .L41
 408              	.LVL32:
 328:USB_DEVICE/App/usbd_desc.c ****   }
 409              		.loc 1 328 5 is_stmt 0 view .LVU92
 410 0008 0548     		ldr	r0, .L41+4
 411              	.LVL33:
 328:USB_DEVICE/App/usbd_desc.c ****   }
 412              		.loc 1 328 5 view .LVU93
 413 000a FFF7FEFF 		bl	USBD_GetString
 414              	.LVL34:
 415              	.L39:
 334:USB_DEVICE/App/usbd_desc.c **** }
 416              		.loc 1 334 3 is_stmt 1 view .LVU94
 335:USB_DEVICE/App/usbd_desc.c **** 
 417              		.loc 1 335 1 is_stmt 0 view .LVU95
 418 000e 0348     		ldr	r0, .L41
 419 0010 08BD     		pop	{r3, pc}
 420              	.LVL35:
 421              	.L38:
 332:USB_DEVICE/App/usbd_desc.c ****   }
 422              		.loc 1 332 5 is_stmt 1 view .LVU96
 423 0012 0249     		ldr	r1, .L41
 424              	.LVL36:
 332:USB_DEVICE/App/usbd_desc.c ****   }
 425              		.loc 1 332 5 is_stmt 0 view .LVU97
 426 0014 0248     		ldr	r0, .L41+4
 427              	.LVL37:
 332:USB_DEVICE/App/usbd_desc.c ****   }
 428              		.loc 1 332 5 view .LVU98
 429 0016 FFF7FEFF 		bl	USBD_GetString
 430              	.LVL38:
 332:USB_DEVICE/App/usbd_desc.c ****   }
 431              		.loc 1 332 5 view .LVU99
 432 001a F8E7     		b	.L39
 433              	.L42:
 434              		.align	2
 435              	.L41:
 436 001c 00000000 		.word	USBD_StrDesc
 437 0020 00000000 		.word	.LC2
 438              		.cfi_endproc
 439              	.LFE153:
 441              		.section	.rodata.USBD_FS_InterfaceStrDescriptor.str1.4,"aMS",%progbits,1
 442              		.align	2
ARM GAS  C:\Users\Nathan\AppData\Local\Temp\ccAW34bj.s 			page 17


 443              	.LC3:
 444 0000 43444320 		.ascii	"CDC Interface\000"
 444      496E7465 
 444      72666163 
 444      6500
 445              		.section	.text.USBD_FS_InterfaceStrDescriptor,"ax",%progbits
 446              		.align	1
 447              		.global	USBD_FS_InterfaceStrDescriptor
 448              		.syntax unified
 449              		.thumb
 450              		.thumb_func
 452              	USBD_FS_InterfaceStrDescriptor:
 453              	.LVL39:
 454              	.LFB154:
 344:USB_DEVICE/App/usbd_desc.c ****   if(speed == 0)
 455              		.loc 1 344 1 is_stmt 1 view -0
 456              		.cfi_startproc
 457              		@ args = 0, pretend = 0, frame = 0
 458              		@ frame_needed = 0, uses_anonymous_args = 0
 344:USB_DEVICE/App/usbd_desc.c ****   if(speed == 0)
 459              		.loc 1 344 1 is_stmt 0 view .LVU101
 460 0000 08B5     		push	{r3, lr}
 461              		.cfi_def_cfa_offset 8
 462              		.cfi_offset 3, -8
 463              		.cfi_offset 14, -4
 464 0002 0A46     		mov	r2, r1
 345:USB_DEVICE/App/usbd_desc.c ****   {
 465              		.loc 1 345 3 is_stmt 1 view .LVU102
 345:USB_DEVICE/App/usbd_desc.c ****   {
 466              		.loc 1 345 5 is_stmt 0 view .LVU103
 467 0004 28B9     		cbnz	r0, .L44
 347:USB_DEVICE/App/usbd_desc.c ****   }
 468              		.loc 1 347 5 is_stmt 1 view .LVU104
 469 0006 0549     		ldr	r1, .L47
 470              	.LVL40:
 347:USB_DEVICE/App/usbd_desc.c ****   }
 471              		.loc 1 347 5 is_stmt 0 view .LVU105
 472 0008 0548     		ldr	r0, .L47+4
 473              	.LVL41:
 347:USB_DEVICE/App/usbd_desc.c ****   }
 474              		.loc 1 347 5 view .LVU106
 475 000a FFF7FEFF 		bl	USBD_GetString
 476              	.LVL42:
 477              	.L45:
 353:USB_DEVICE/App/usbd_desc.c **** }
 478              		.loc 1 353 3 is_stmt 1 view .LVU107
 354:USB_DEVICE/App/usbd_desc.c **** 
 479              		.loc 1 354 1 is_stmt 0 view .LVU108
 480 000e 0348     		ldr	r0, .L47
 481 0010 08BD     		pop	{r3, pc}
 482              	.LVL43:
 483              	.L44:
 351:USB_DEVICE/App/usbd_desc.c ****   }
 484              		.loc 1 351 5 is_stmt 1 view .LVU109
 485 0012 0249     		ldr	r1, .L47
 486              	.LVL44:
 351:USB_DEVICE/App/usbd_desc.c ****   }
ARM GAS  C:\Users\Nathan\AppData\Local\Temp\ccAW34bj.s 			page 18


 487              		.loc 1 351 5 is_stmt 0 view .LVU110
 488 0014 0248     		ldr	r0, .L47+4
 489              	.LVL45:
 351:USB_DEVICE/App/usbd_desc.c ****   }
 490              		.loc 1 351 5 view .LVU111
 491 0016 FFF7FEFF 		bl	USBD_GetString
 492              	.LVL46:
 351:USB_DEVICE/App/usbd_desc.c ****   }
 493              		.loc 1 351 5 view .LVU112
 494 001a F8E7     		b	.L45
 495              	.L48:
 496              		.align	2
 497              	.L47:
 498 001c 00000000 		.word	USBD_StrDesc
 499 0020 00000000 		.word	.LC3
 500              		.cfi_endproc
 501              	.LFE154:
 503              		.global	USBD_StringSerial
 504              		.section	.data.USBD_StringSerial,"aw"
 505              		.align	2
 508              	USBD_StringSerial:
 509 0000 1A0300   		.ascii	"\032\003\000"
 510 0003 00000000 		.space	23
 510      00000000 
 510      00000000 
 510      00000000 
 510      00000000 
 511              		.global	USBD_StrDesc
 512              		.section	.bss.USBD_StrDesc,"aw",%nobits
 513              		.align	2
 516              	USBD_StrDesc:
 517 0000 00000000 		.space	512
 517      00000000 
 517      00000000 
 517      00000000 
 517      00000000 
 518              		.global	USBD_LangIDDesc
 519              		.section	.data.USBD_LangIDDesc,"aw"
 520              		.align	2
 523              	USBD_LangIDDesc:
 524 0000 04030904 		.ascii	"\004\003\011\004"
 525              		.global	USBD_FS_BOSDesc
 526              		.section	.data.USBD_FS_BOSDesc,"aw"
 527              		.align	2
 530              	USBD_FS_BOSDesc:
 531 0000 050F0C00 		.ascii	"\005\017\014\000\001\007\020\002\002\000\000\000"
 531      01071002 
 531      02000000 
 532              		.global	USBD_FS_DeviceDesc
 533              		.section	.data.USBD_FS_DeviceDesc,"aw"
 534              		.align	2
 537              	USBD_FS_DeviceDesc:
 538 0000 12010002 		.ascii	"\022\001\000\002\002\002\000@\203\004@W\000\002\001"
 538      02020040 
 538      83044057 
 538      000201
 539 000f 020301   		.ascii	"\002\003\001"
ARM GAS  C:\Users\Nathan\AppData\Local\Temp\ccAW34bj.s 			page 19


 540              		.global	FS_Desc
 541              		.section	.data.FS_Desc,"aw"
 542              		.align	2
 545              	FS_Desc:
 546 0000 00000000 		.word	USBD_FS_DeviceDescriptor
 547 0004 00000000 		.word	USBD_FS_LangIDStrDescriptor
 548 0008 00000000 		.word	USBD_FS_ManufacturerStrDescriptor
 549 000c 00000000 		.word	USBD_FS_ProductStrDescriptor
 550 0010 00000000 		.word	USBD_FS_SerialStrDescriptor
 551 0014 00000000 		.word	USBD_FS_ConfigStrDescriptor
 552 0018 00000000 		.word	USBD_FS_InterfaceStrDescriptor
 553 001c 00000000 		.space	4
 554              		.text
 555              	.Letext0:
 556              		.file 2 "C:/Users/Nathan/AppData/Roaming/Code/User/globalStorage/bmd.stm32-for-vscode/@xpack-dev-t
 557              		.file 3 "C:/Users/Nathan/AppData/Roaming/Code/User/globalStorage/bmd.stm32-for-vscode/@xpack-dev-t
 558              		.file 4 "Middlewares/ST/STM32_USB_Device_Library/Core/Inc/usbd_def.h"
 559              		.file 5 "USB_DEVICE/App/usbd_desc.h"
 560              		.file 6 "Middlewares/ST/STM32_USB_Device_Library/Core/Inc/usbd_ctlreq.h"
ARM GAS  C:\Users\Nathan\AppData\Local\Temp\ccAW34bj.s 			page 20

