ARM GAS  C:\Users\Nathan\AppData\Local\Temp\ccUhihWc.s 			page 1


   1              		.cpu cortex-m7
   2              		.arch armv7e-m
   3              		.fpu fpv5-d16
   4              		.eabi_attribute 28, 1
   5              		.eabi_attribute 20, 1
   6              		.eabi_attribute 21, 1
   7              		.eabi_attribute 23, 3
   8              		.eabi_attribute 24, 1
   9              		.eabi_attribute 25, 1
  10              		.eabi_attribute 26, 1
  11              		.eabi_attribute 30, 1
  12              		.eabi_attribute 34, 1
  13              		.eabi_attribute 18, 4
  14              		.file	"driver_bmp388_interface.c"
  15              		.text
  16              	.Ltext0:
  17              		.cfi_sections	.debug_frame
  18              		.file 1 "Drivers/BMP388/driver_bmp388_interface.c"
  19              		.section	.text.bmp388_interface_iic_init,"ax",%progbits
  20              		.align	1
  21              		.global	bmp388_interface_iic_init
  22              		.syntax unified
  23              		.thumb
  24              		.thumb_func
  26              	bmp388_interface_iic_init:
  27              	.LFB148:
   1:Drivers/BMP388/driver_bmp388_interface.c **** /**
   2:Drivers/BMP388/driver_bmp388_interface.c ****  * Copyright (c) 2015 - present LibDriver All rights reserved
   3:Drivers/BMP388/driver_bmp388_interface.c ****  * 
   4:Drivers/BMP388/driver_bmp388_interface.c ****  * The MIT License (MIT)
   5:Drivers/BMP388/driver_bmp388_interface.c ****  *
   6:Drivers/BMP388/driver_bmp388_interface.c ****  * Permission is hereby granted, free of charge, to any person obtaining a copy
   7:Drivers/BMP388/driver_bmp388_interface.c ****  * of this software and associated documentation files (the "Software"), to deal
   8:Drivers/BMP388/driver_bmp388_interface.c ****  * in the Software without restriction, including without limitation the rights
   9:Drivers/BMP388/driver_bmp388_interface.c ****  * to use, copy, modify, merge, publish, distribute, sublicense, and/or sell
  10:Drivers/BMP388/driver_bmp388_interface.c ****  * copies of the Software, and to permit persons to whom the Software is
  11:Drivers/BMP388/driver_bmp388_interface.c ****  * furnished to do so, subject to the following conditions:
  12:Drivers/BMP388/driver_bmp388_interface.c ****  *
  13:Drivers/BMP388/driver_bmp388_interface.c ****  * The above copyright notice and this permission notice shall be included in all
  14:Drivers/BMP388/driver_bmp388_interface.c ****  * copies or substantial portions of the Software.
  15:Drivers/BMP388/driver_bmp388_interface.c ****  *
  16:Drivers/BMP388/driver_bmp388_interface.c ****  * THE SOFTWARE IS PROVIDED "AS IS", WITHOUT WARRANTY OF ANY KIND, EXPRESS OR
  17:Drivers/BMP388/driver_bmp388_interface.c ****  * IMPLIED, INCLUDING BUT NOT LIMITED TO THE WARRANTIES OF MERCHANTABILITY,
  18:Drivers/BMP388/driver_bmp388_interface.c ****  * FITNESS FOR A PARTICULAR PURPOSE AND NONINFRINGEMENT. IN NO EVENT SHALL THE
  19:Drivers/BMP388/driver_bmp388_interface.c ****  * AUTHORS OR COPYRIGHT HOLDERS BE LIABLE FOR ANY CLAIM, DAMAGES OR OTHER
  20:Drivers/BMP388/driver_bmp388_interface.c ****  * LIABILITY, WHETHER IN AN ACTION OF CONTRACT, TORT OR OTHERWISE, ARISING FROM,
  21:Drivers/BMP388/driver_bmp388_interface.c ****  * OUT OF OR IN CONNECTION WITH THE SOFTWARE OR THE USE OR OTHER DEALINGS IN THE
  22:Drivers/BMP388/driver_bmp388_interface.c ****  * SOFTWARE. 
  23:Drivers/BMP388/driver_bmp388_interface.c ****  *
  24:Drivers/BMP388/driver_bmp388_interface.c ****  * @file      driver_bmp388_interface_template.c
  25:Drivers/BMP388/driver_bmp388_interface.c ****  * @brief     driver bmp388 interface template source file
  26:Drivers/BMP388/driver_bmp388_interface.c ****  * @version   2.0.0
  27:Drivers/BMP388/driver_bmp388_interface.c ****  * @author    Shifeng Li
  28:Drivers/BMP388/driver_bmp388_interface.c ****  * @date      2021-04-12
  29:Drivers/BMP388/driver_bmp388_interface.c ****  *
  30:Drivers/BMP388/driver_bmp388_interface.c ****  * <h3>history</h3>
  31:Drivers/BMP388/driver_bmp388_interface.c ****  * <table>
ARM GAS  C:\Users\Nathan\AppData\Local\Temp\ccUhihWc.s 			page 2


  32:Drivers/BMP388/driver_bmp388_interface.c ****  * <tr><th>Date        <th>Version  <th>Author      <th>Description
  33:Drivers/BMP388/driver_bmp388_interface.c ****  * <tr><td>2021/04/12  <td>2.0      <td>Shifeng Li  <td>format the code
  34:Drivers/BMP388/driver_bmp388_interface.c ****  * <tr><td>2020/12/20  <td>1.0      <td>Shifeng Li  <td>first upload
  35:Drivers/BMP388/driver_bmp388_interface.c ****  * </table>
  36:Drivers/BMP388/driver_bmp388_interface.c ****  */
  37:Drivers/BMP388/driver_bmp388_interface.c **** 
  38:Drivers/BMP388/driver_bmp388_interface.c **** #include "driver_bmp388_interface.h"
  39:Drivers/BMP388/driver_bmp388_interface.c **** #include "main.h"
  40:Drivers/BMP388/driver_bmp388_interface.c **** #include "usbd_cdc_if.h"
  41:Drivers/BMP388/driver_bmp388_interface.c **** #include <stdio.h>
  42:Drivers/BMP388/driver_bmp388_interface.c **** #include <string.h>
  43:Drivers/BMP388/driver_bmp388_interface.c **** #include <stdarg.h>
  44:Drivers/BMP388/driver_bmp388_interface.c **** #include <athena.h>
  45:Drivers/BMP388/driver_bmp388_interface.c **** 
  46:Drivers/BMP388/driver_bmp388_interface.c **** // External references from main.c
  47:Drivers/BMP388/driver_bmp388_interface.c **** extern SPI_HandleTypeDef hspi4;
  48:Drivers/BMP388/driver_bmp388_interface.c **** 
  49:Drivers/BMP388/driver_bmp388_interface.c **** /**
  50:Drivers/BMP388/driver_bmp388_interface.c ****  * @brief  interface iic bus init
  51:Drivers/BMP388/driver_bmp388_interface.c ****  * @return status code
  52:Drivers/BMP388/driver_bmp388_interface.c ****  *         - 0 success
  53:Drivers/BMP388/driver_bmp388_interface.c ****  *         - 1 iic init failed
  54:Drivers/BMP388/driver_bmp388_interface.c ****  * @note   none
  55:Drivers/BMP388/driver_bmp388_interface.c ****  */
  56:Drivers/BMP388/driver_bmp388_interface.c **** uint8_t bmp388_interface_iic_init(void)
  57:Drivers/BMP388/driver_bmp388_interface.c **** {
  28              		.loc 1 57 1 view -0
  29              		.cfi_startproc
  30              		@ args = 0, pretend = 0, frame = 0
  31              		@ frame_needed = 0, uses_anonymous_args = 0
  32              		@ link register save eliminated.
  58:Drivers/BMP388/driver_bmp388_interface.c ****     return 0;
  33              		.loc 1 58 5 view .LVU1
  59:Drivers/BMP388/driver_bmp388_interface.c **** }
  34              		.loc 1 59 1 is_stmt 0 view .LVU2
  35 0000 0020     		movs	r0, #0
  36 0002 7047     		bx	lr
  37              		.cfi_endproc
  38              	.LFE148:
  40              		.section	.text.bmp388_interface_iic_deinit,"ax",%progbits
  41              		.align	1
  42              		.global	bmp388_interface_iic_deinit
  43              		.syntax unified
  44              		.thumb
  45              		.thumb_func
  47              	bmp388_interface_iic_deinit:
  48              	.LFB149:
  60:Drivers/BMP388/driver_bmp388_interface.c **** 
  61:Drivers/BMP388/driver_bmp388_interface.c **** /**
  62:Drivers/BMP388/driver_bmp388_interface.c ****  * @brief  interface iic bus deinit
  63:Drivers/BMP388/driver_bmp388_interface.c ****  * @return status code
  64:Drivers/BMP388/driver_bmp388_interface.c ****  *         - 0 success
  65:Drivers/BMP388/driver_bmp388_interface.c ****  *         - 1 iic deinit failed
  66:Drivers/BMP388/driver_bmp388_interface.c ****  * @note   none
  67:Drivers/BMP388/driver_bmp388_interface.c ****  */
  68:Drivers/BMP388/driver_bmp388_interface.c **** uint8_t bmp388_interface_iic_deinit(void)
  69:Drivers/BMP388/driver_bmp388_interface.c **** {   
ARM GAS  C:\Users\Nathan\AppData\Local\Temp\ccUhihWc.s 			page 3


  49              		.loc 1 69 1 is_stmt 1 view -0
  50              		.cfi_startproc
  51              		@ args = 0, pretend = 0, frame = 0
  52              		@ frame_needed = 0, uses_anonymous_args = 0
  53              		@ link register save eliminated.
  70:Drivers/BMP388/driver_bmp388_interface.c ****     return 0;
  54              		.loc 1 70 5 view .LVU4
  71:Drivers/BMP388/driver_bmp388_interface.c **** }
  55              		.loc 1 71 1 is_stmt 0 view .LVU5
  56 0000 0020     		movs	r0, #0
  57 0002 7047     		bx	lr
  58              		.cfi_endproc
  59              	.LFE149:
  61              		.section	.text.bmp388_interface_iic_read,"ax",%progbits
  62              		.align	1
  63              		.global	bmp388_interface_iic_read
  64              		.syntax unified
  65              		.thumb
  66              		.thumb_func
  68              	bmp388_interface_iic_read:
  69              	.LVL0:
  70              	.LFB150:
  72:Drivers/BMP388/driver_bmp388_interface.c **** 
  73:Drivers/BMP388/driver_bmp388_interface.c **** /**
  74:Drivers/BMP388/driver_bmp388_interface.c ****  * @brief      interface iic bus read
  75:Drivers/BMP388/driver_bmp388_interface.c ****  * @param[in]  addr iic device write address
  76:Drivers/BMP388/driver_bmp388_interface.c ****  * @param[in]  reg iic register address
  77:Drivers/BMP388/driver_bmp388_interface.c ****  * @param[out] *buf pointer to a data buffer
  78:Drivers/BMP388/driver_bmp388_interface.c ****  * @param[in]  len length of the data buffer
  79:Drivers/BMP388/driver_bmp388_interface.c ****  * @return     status code
  80:Drivers/BMP388/driver_bmp388_interface.c ****  *             - 0 success
  81:Drivers/BMP388/driver_bmp388_interface.c ****  *             - 1 read failed
  82:Drivers/BMP388/driver_bmp388_interface.c ****  * @note       none
  83:Drivers/BMP388/driver_bmp388_interface.c ****  */
  84:Drivers/BMP388/driver_bmp388_interface.c **** uint8_t bmp388_interface_iic_read(uint8_t addr, uint8_t reg, uint8_t *buf, uint16_t len)
  85:Drivers/BMP388/driver_bmp388_interface.c **** {
  71              		.loc 1 85 1 is_stmt 1 view -0
  72              		.cfi_startproc
  73              		@ args = 0, pretend = 0, frame = 0
  74              		@ frame_needed = 0, uses_anonymous_args = 0
  75              		@ link register save eliminated.
  86:Drivers/BMP388/driver_bmp388_interface.c ****     return 0;
  76              		.loc 1 86 5 view .LVU7
  87:Drivers/BMP388/driver_bmp388_interface.c **** }
  77              		.loc 1 87 1 is_stmt 0 view .LVU8
  78 0000 0020     		movs	r0, #0
  79              	.LVL1:
  80              		.loc 1 87 1 view .LVU9
  81 0002 7047     		bx	lr
  82              		.cfi_endproc
  83              	.LFE150:
  85              		.section	.text.bmp388_interface_iic_write,"ax",%progbits
  86              		.align	1
  87              		.global	bmp388_interface_iic_write
  88              		.syntax unified
  89              		.thumb
  90              		.thumb_func
ARM GAS  C:\Users\Nathan\AppData\Local\Temp\ccUhihWc.s 			page 4


  92              	bmp388_interface_iic_write:
  93              	.LVL2:
  94              	.LFB151:
  88:Drivers/BMP388/driver_bmp388_interface.c **** 
  89:Drivers/BMP388/driver_bmp388_interface.c **** /**
  90:Drivers/BMP388/driver_bmp388_interface.c ****  * @brief     interface iic bus write
  91:Drivers/BMP388/driver_bmp388_interface.c ****  * @param[in] addr iic device write address
  92:Drivers/BMP388/driver_bmp388_interface.c ****  * @param[in] reg iic register address
  93:Drivers/BMP388/driver_bmp388_interface.c ****  * @param[in] *buf pointer to a data buffer
  94:Drivers/BMP388/driver_bmp388_interface.c ****  * @param[in] len length of the data buffer
  95:Drivers/BMP388/driver_bmp388_interface.c ****  * @return    status code
  96:Drivers/BMP388/driver_bmp388_interface.c ****  *            - 0 success
  97:Drivers/BMP388/driver_bmp388_interface.c ****  *            - 1 write failed
  98:Drivers/BMP388/driver_bmp388_interface.c ****  * @note      none
  99:Drivers/BMP388/driver_bmp388_interface.c ****  */
 100:Drivers/BMP388/driver_bmp388_interface.c **** uint8_t bmp388_interface_iic_write(uint8_t addr, uint8_t reg, uint8_t *buf, uint16_t len)
 101:Drivers/BMP388/driver_bmp388_interface.c **** {
  95              		.loc 1 101 1 is_stmt 1 view -0
  96              		.cfi_startproc
  97              		@ args = 0, pretend = 0, frame = 0
  98              		@ frame_needed = 0, uses_anonymous_args = 0
  99              		@ link register save eliminated.
 102:Drivers/BMP388/driver_bmp388_interface.c ****     return 0;
 100              		.loc 1 102 5 view .LVU11
 103:Drivers/BMP388/driver_bmp388_interface.c **** }
 101              		.loc 1 103 1 is_stmt 0 view .LVU12
 102 0000 0020     		movs	r0, #0
 103              	.LVL3:
 104              		.loc 1 103 1 view .LVU13
 105 0002 7047     		bx	lr
 106              		.cfi_endproc
 107              	.LFE151:
 109              		.section	.rodata.bmp388_interface_spi_init.str1.4,"aMS",%progbits,1
 110              		.align	2
 111              	.LC0:
 112 0000 424D5033 		.ascii	"BMP388: SPI init\015\012\000"
 112      38383A20 
 112      53504920 
 112      696E6974 
 112      0D0A00
 113              		.section	.text.bmp388_interface_spi_init,"ax",%progbits
 114              		.align	1
 115              		.global	bmp388_interface_spi_init
 116              		.syntax unified
 117              		.thumb
 118              		.thumb_func
 120              	bmp388_interface_spi_init:
 121              	.LFB152:
 104:Drivers/BMP388/driver_bmp388_interface.c **** 
 105:Drivers/BMP388/driver_bmp388_interface.c **** /**
 106:Drivers/BMP388/driver_bmp388_interface.c ****  * @brief  interface spi bus init
 107:Drivers/BMP388/driver_bmp388_interface.c ****  * @return status code
 108:Drivers/BMP388/driver_bmp388_interface.c ****  *         - 0 success
 109:Drivers/BMP388/driver_bmp388_interface.c ****  *         - 1 spi init failed
 110:Drivers/BMP388/driver_bmp388_interface.c ****  * @note   none
 111:Drivers/BMP388/driver_bmp388_interface.c ****  */
 112:Drivers/BMP388/driver_bmp388_interface.c **** uint8_t bmp388_interface_spi_init(void)
ARM GAS  C:\Users\Nathan\AppData\Local\Temp\ccUhihWc.s 			page 5


 113:Drivers/BMP388/driver_bmp388_interface.c **** {
 122              		.loc 1 113 1 is_stmt 1 view -0
 123              		.cfi_startproc
 124              		@ args = 0, pretend = 0, frame = 64
 125              		@ frame_needed = 0, uses_anonymous_args = 0
 126 0000 30B5     		push	{r4, r5, lr}
 127              		.cfi_def_cfa_offset 12
 128              		.cfi_offset 4, -12
 129              		.cfi_offset 5, -8
 130              		.cfi_offset 14, -4
 131 0002 91B0     		sub	sp, sp, #68
 132              		.cfi_def_cfa_offset 80
 114:Drivers/BMP388/driver_bmp388_interface.c ****     char debug_msg[64];
 133              		.loc 1 114 5 view .LVU15
 115:Drivers/BMP388/driver_bmp388_interface.c ****     sprintf(debug_msg, "BMP388: SPI init\r\n");
 134              		.loc 1 115 5 view .LVU16
 135 0004 EC46     		mov	ip, sp
 136 0006 0A4C     		ldr	r4, .L7
 137 0008 0FCC     		ldmia	r4!, {r0, r1, r2, r3}
 138 000a ACE80F00 		stmia	ip!, {r0, r1, r2, r3}
 139 000e 2368     		ldr	r3, [r4]
 140 0010 2CF8023B 		strh	r3, [ip], #2	@ movhi
 141 0014 1B0C     		lsrs	r3, r3, #16
 142 0016 8CF80030 		strb	r3, [ip]
 116:Drivers/BMP388/driver_bmp388_interface.c ****     CDC_Transmit_FS((uint8_t*)debug_msg, strlen(debug_msg));
 143              		.loc 1 116 5 view .LVU17
 144              		.loc 1 116 42 is_stmt 0 view .LVU18
 145 001a 6846     		mov	r0, sp
 146 001c FFF7FEFF 		bl	strlen
 147              	.LVL4:
 148              		.loc 1 116 5 discriminator 1 view .LVU19
 149 0020 81B2     		uxth	r1, r0
 150 0022 6846     		mov	r0, sp
 151 0024 FFF7FEFF 		bl	CDC_Transmit_FS
 152              	.LVL5:
 117:Drivers/BMP388/driver_bmp388_interface.c ****     return 0;
 153              		.loc 1 117 5 is_stmt 1 view .LVU20
 118:Drivers/BMP388/driver_bmp388_interface.c **** }
 154              		.loc 1 118 1 is_stmt 0 view .LVU21
 155 0028 0020     		movs	r0, #0
 156 002a 11B0     		add	sp, sp, #68
 157              		.cfi_def_cfa_offset 12
 158              		@ sp needed
 159 002c 30BD     		pop	{r4, r5, pc}
 160              	.L8:
 161 002e 00BF     		.align	2
 162              	.L7:
 163 0030 00000000 		.word	.LC0
 164              		.cfi_endproc
 165              	.LFE152:
 167              		.section	.rodata.bmp388_interface_spi_deinit.str1.4,"aMS",%progbits,1
 168              		.align	2
 169              	.LC1:
 170 0000 424D5033 		.ascii	"BMP388: SPI deinit\015\012\000"
 170      38383A20 
 170      53504920 
 170      6465696E 
ARM GAS  C:\Users\Nathan\AppData\Local\Temp\ccUhihWc.s 			page 6


 170      69740D0A 
 171              		.section	.text.bmp388_interface_spi_deinit,"ax",%progbits
 172              		.align	1
 173              		.global	bmp388_interface_spi_deinit
 174              		.syntax unified
 175              		.thumb
 176              		.thumb_func
 178              	bmp388_interface_spi_deinit:
 179              	.LFB153:
 119:Drivers/BMP388/driver_bmp388_interface.c **** 
 120:Drivers/BMP388/driver_bmp388_interface.c **** /**
 121:Drivers/BMP388/driver_bmp388_interface.c ****  * @brief  interface spi bus deinit
 122:Drivers/BMP388/driver_bmp388_interface.c ****  * @return status code
 123:Drivers/BMP388/driver_bmp388_interface.c ****  *         - 0 success
 124:Drivers/BMP388/driver_bmp388_interface.c ****  *         - 1 spi deinit failed
 125:Drivers/BMP388/driver_bmp388_interface.c ****  * @note   none
 126:Drivers/BMP388/driver_bmp388_interface.c ****  */
 127:Drivers/BMP388/driver_bmp388_interface.c **** uint8_t bmp388_interface_spi_deinit(void)
 128:Drivers/BMP388/driver_bmp388_interface.c **** {
 180              		.loc 1 128 1 is_stmt 1 view -0
 181              		.cfi_startproc
 182              		@ args = 0, pretend = 0, frame = 64
 183              		@ frame_needed = 0, uses_anonymous_args = 0
 184 0000 30B5     		push	{r4, r5, lr}
 185              		.cfi_def_cfa_offset 12
 186              		.cfi_offset 4, -12
 187              		.cfi_offset 5, -8
 188              		.cfi_offset 14, -4
 189 0002 91B0     		sub	sp, sp, #68
 190              		.cfi_def_cfa_offset 80
 129:Drivers/BMP388/driver_bmp388_interface.c ****     char debug_msg[64];
 191              		.loc 1 129 5 view .LVU23
 130:Drivers/BMP388/driver_bmp388_interface.c ****     sprintf(debug_msg, "BMP388: SPI deinit\r\n");
 192              		.loc 1 130 5 view .LVU24
 193 0004 EC46     		mov	ip, sp
 194 0006 0A4C     		ldr	r4, .L11
 195 0008 0FCC     		ldmia	r4!, {r0, r1, r2, r3}
 196 000a ACE80F00 		stmia	ip!, {r0, r1, r2, r3}
 197 000e 94E80300 		ldm	r4, {r0, r1}
 198 0012 4CF8040B 		str	r0, [ip], #4
 199 0016 8CF80010 		strb	r1, [ip]
 131:Drivers/BMP388/driver_bmp388_interface.c ****     CDC_Transmit_FS((uint8_t*)debug_msg, strlen(debug_msg));
 200              		.loc 1 131 5 view .LVU25
 201              		.loc 1 131 42 is_stmt 0 view .LVU26
 202 001a 6846     		mov	r0, sp
 203 001c FFF7FEFF 		bl	strlen
 204              	.LVL6:
 205              		.loc 1 131 5 discriminator 1 view .LVU27
 206 0020 81B2     		uxth	r1, r0
 207 0022 6846     		mov	r0, sp
 208 0024 FFF7FEFF 		bl	CDC_Transmit_FS
 209              	.LVL7:
 132:Drivers/BMP388/driver_bmp388_interface.c ****     return 0;
 210              		.loc 1 132 5 is_stmt 1 view .LVU28
 133:Drivers/BMP388/driver_bmp388_interface.c **** }
 211              		.loc 1 133 1 is_stmt 0 view .LVU29
 212 0028 0020     		movs	r0, #0
ARM GAS  C:\Users\Nathan\AppData\Local\Temp\ccUhihWc.s 			page 7


 213 002a 11B0     		add	sp, sp, #68
 214              		.cfi_def_cfa_offset 12
 215              		@ sp needed
 216 002c 30BD     		pop	{r4, r5, pc}
 217              	.L12:
 218 002e 00BF     		.align	2
 219              	.L11:
 220 0030 00000000 		.word	.LC1
 221              		.cfi_endproc
 222              	.LFE153:
 224              		.section	.rodata.bmp388_interface_spi_read.str1.4,"aMS",%progbits,1
 225              		.align	2
 226              	.LC2:
 227 0000 424D5033 		.ascii	"BMP388: SPI transmit failed\015\012\000"
 227      38383A20 
 227      53504920 
 227      7472616E 
 227      736D6974 
 228 001e 0000     		.align	2
 229              	.LC3:
 230 0020 424D5033 		.ascii	"BMP388: SPI read failed (reg=0x%02X)\015\012\000"
 230      38383A20 
 230      53504920 
 230      72656164 
 230      20666169 
 231 0047 00       		.align	2
 232              	.LC4:
 233 0048 424D5033 		.ascii	"BMP388: Chip ID read = 0x%02X (expected 0x50)\015\012"
 233      38383A20 
 233      43686970 
 233      20494420 
 233      72656164 
 234 0077 00       		.ascii	"\000"
 235              		.section	.text.bmp388_interface_spi_read,"ax",%progbits
 236              		.align	1
 237              		.global	bmp388_interface_spi_read
 238              		.syntax unified
 239              		.thumb
 240              		.thumb_func
 242              	bmp388_interface_spi_read:
 243              	.LVL8:
 244              	.LFB154:
 134:Drivers/BMP388/driver_bmp388_interface.c **** 
 135:Drivers/BMP388/driver_bmp388_interface.c **** /**
 136:Drivers/BMP388/driver_bmp388_interface.c ****  * @brief      interface spi bus read
 137:Drivers/BMP388/driver_bmp388_interface.c ****  * @param[in]  reg register address
 138:Drivers/BMP388/driver_bmp388_interface.c ****  * @param[out] *buf pointer to a data buffer
 139:Drivers/BMP388/driver_bmp388_interface.c ****  * @param[in]  len length of data buffer
 140:Drivers/BMP388/driver_bmp388_interface.c ****  * @return     status code
 141:Drivers/BMP388/driver_bmp388_interface.c ****  *             - 0 success
 142:Drivers/BMP388/driver_bmp388_interface.c ****  *             - 1 read failed
 143:Drivers/BMP388/driver_bmp388_interface.c ****  * @note       none
 144:Drivers/BMP388/driver_bmp388_interface.c ****  */
 145:Drivers/BMP388/driver_bmp388_interface.c **** uint8_t bmp388_interface_spi_read(uint8_t reg, uint8_t *buf, uint16_t len)
 146:Drivers/BMP388/driver_bmp388_interface.c **** {
 245              		.loc 1 146 1 is_stmt 1 view -0
 246              		.cfi_startproc
ARM GAS  C:\Users\Nathan\AppData\Local\Temp\ccUhihWc.s 			page 8


 247              		@ args = 0, pretend = 0, frame = 72
 248              		@ frame_needed = 0, uses_anonymous_args = 0
 249              		.loc 1 146 1 is_stmt 0 view .LVU31
 250 0000 70B5     		push	{r4, r5, r6, lr}
 251              		.cfi_def_cfa_offset 16
 252              		.cfi_offset 4, -16
 253              		.cfi_offset 5, -12
 254              		.cfi_offset 6, -8
 255              		.cfi_offset 14, -4
 256 0002 92B0     		sub	sp, sp, #72
 257              		.cfi_def_cfa_offset 88
 258 0004 0446     		mov	r4, r0
 259 0006 0E46     		mov	r6, r1
 260 0008 1546     		mov	r5, r2
 147:Drivers/BMP388/driver_bmp388_interface.c ****     HAL_StatusTypeDef status;
 261              		.loc 1 147 5 is_stmt 1 view .LVU32
 148:Drivers/BMP388/driver_bmp388_interface.c ****     uint8_t reg_addr = reg | 0x80;  // Set MSB for read operation
 262              		.loc 1 148 5 view .LVU33
 263              		.loc 1 148 13 is_stmt 0 view .LVU34
 264 000a 60F07F03 		orn	r3, r0, #127
 265 000e 8DF84730 		strb	r3, [sp, #71]
 149:Drivers/BMP388/driver_bmp388_interface.c ****     
 150:Drivers/BMP388/driver_bmp388_interface.c ****     // Pull CS low
 151:Drivers/BMP388/driver_bmp388_interface.c ****     HAL_GPIO_WritePin(BMP_CS_GPIO_Port, BMP_CS_Pin, GPIO_PIN_RESET);
 266              		.loc 1 151 5 is_stmt 1 view .LVU35
 267 0012 0022     		movs	r2, #0
 268              	.LVL9:
 269              		.loc 1 151 5 is_stmt 0 view .LVU36
 270 0014 0821     		movs	r1, #8
 271              	.LVL10:
 272              		.loc 1 151 5 view .LVU37
 273 0016 2248     		ldr	r0, .L21
 274              	.LVL11:
 275              		.loc 1 151 5 view .LVU38
 276 0018 FFF7FEFF 		bl	HAL_GPIO_WritePin
 277              	.LVL12:
 152:Drivers/BMP388/driver_bmp388_interface.c ****     
 153:Drivers/BMP388/driver_bmp388_interface.c ****     // Transmit register address
 154:Drivers/BMP388/driver_bmp388_interface.c ****     status = HAL_SPI_Transmit(&hspi4, &reg_addr, 1, 100);
 278              		.loc 1 154 5 is_stmt 1 view .LVU39
 279              		.loc 1 154 14 is_stmt 0 view .LVU40
 280 001c 6423     		movs	r3, #100
 281 001e 0122     		movs	r2, #1
 282 0020 0DF14701 		add	r1, sp, #71
 283 0024 1F48     		ldr	r0, .L21+4
 284 0026 FFF7FEFF 		bl	HAL_SPI_Transmit
 285              	.LVL13:
 155:Drivers/BMP388/driver_bmp388_interface.c ****     if (status != HAL_OK) {
 286              		.loc 1 155 5 is_stmt 1 view .LVU41
 287              		.loc 1 155 8 is_stmt 0 view .LVU42
 288 002a 80B9     		cbnz	r0, .L18
 156:Drivers/BMP388/driver_bmp388_interface.c ****         print("BMP388: SPI transmit failed\r\n");
 157:Drivers/BMP388/driver_bmp388_interface.c ****         HAL_GPIO_WritePin(BMP_CS_GPIO_Port, BMP_CS_Pin, GPIO_PIN_SET);
 158:Drivers/BMP388/driver_bmp388_interface.c ****         return 1;
 159:Drivers/BMP388/driver_bmp388_interface.c ****     }
 160:Drivers/BMP388/driver_bmp388_interface.c ****     
 161:Drivers/BMP388/driver_bmp388_interface.c ****     // Receive data
ARM GAS  C:\Users\Nathan\AppData\Local\Temp\ccUhihWc.s 			page 9


 162:Drivers/BMP388/driver_bmp388_interface.c ****     status = HAL_SPI_Receive(&hspi4, buf, len, 100);
 289              		.loc 1 162 5 is_stmt 1 view .LVU43
 290              		.loc 1 162 14 is_stmt 0 view .LVU44
 291 002c 6423     		movs	r3, #100
 292 002e 2A46     		mov	r2, r5
 293 0030 3146     		mov	r1, r6
 294 0032 1C48     		ldr	r0, .L21+4
 295              	.LVL14:
 296              		.loc 1 162 14 view .LVU45
 297 0034 FFF7FEFF 		bl	HAL_SPI_Receive
 298              	.LVL15:
 299 0038 0546     		mov	r5, r0
 300              	.LVL16:
 163:Drivers/BMP388/driver_bmp388_interface.c ****     
 164:Drivers/BMP388/driver_bmp388_interface.c ****     // Pull CS high
 165:Drivers/BMP388/driver_bmp388_interface.c ****     HAL_GPIO_WritePin(BMP_CS_GPIO_Port, BMP_CS_Pin, GPIO_PIN_SET);
 301              		.loc 1 165 5 is_stmt 1 view .LVU46
 302 003a 0122     		movs	r2, #1
 303 003c 0821     		movs	r1, #8
 304 003e 1848     		ldr	r0, .L21
 305 0040 FFF7FEFF 		bl	HAL_GPIO_WritePin
 306              	.LVL17:
 166:Drivers/BMP388/driver_bmp388_interface.c ****     
 167:Drivers/BMP388/driver_bmp388_interface.c ****     if (status != HAL_OK) {
 307              		.loc 1 167 5 view .LVU47
 308              		.loc 1 167 8 is_stmt 0 view .LVU48
 309 0044 6DB9     		cbnz	r5, .L19
 168:Drivers/BMP388/driver_bmp388_interface.c ****         char debug_msg[64];
 169:Drivers/BMP388/driver_bmp388_interface.c ****         sprintf(debug_msg, "BMP388: SPI read failed (reg=0x%02X)\r\n", reg);
 170:Drivers/BMP388/driver_bmp388_interface.c ****         CDC_Transmit_FS((uint8_t*)debug_msg, strlen(debug_msg));
 171:Drivers/BMP388/driver_bmp388_interface.c ****         return 1;
 172:Drivers/BMP388/driver_bmp388_interface.c ****     }
 173:Drivers/BMP388/driver_bmp388_interface.c ****     
 174:Drivers/BMP388/driver_bmp388_interface.c ****     // Debug: Print chip ID read (register 0x00)
 175:Drivers/BMP388/driver_bmp388_interface.c ****     if (reg == 0x00) {
 310              		.loc 1 175 5 is_stmt 1 view .LVU49
 311              		.loc 1 175 8 is_stmt 0 view .LVU50
 312 0046 DCB1     		cbz	r4, .L20
 313              	.LVL18:
 314              	.L15:
 176:Drivers/BMP388/driver_bmp388_interface.c ****         char debug_msg[64];
 177:Drivers/BMP388/driver_bmp388_interface.c ****         sprintf(debug_msg, "BMP388: Chip ID read = 0x%02X (expected 0x50)\r\n", buf[0]);
 178:Drivers/BMP388/driver_bmp388_interface.c ****         CDC_Transmit_FS((uint8_t*)debug_msg, strlen(debug_msg));
 179:Drivers/BMP388/driver_bmp388_interface.c ****     }
 180:Drivers/BMP388/driver_bmp388_interface.c ****     
 181:Drivers/BMP388/driver_bmp388_interface.c ****     return 0;
 182:Drivers/BMP388/driver_bmp388_interface.c **** }
 315              		.loc 1 182 1 view .LVU51
 316 0048 2846     		mov	r0, r5
 317 004a 12B0     		add	sp, sp, #72
 318              		.cfi_remember_state
 319              		.cfi_def_cfa_offset 16
 320              		@ sp needed
 321 004c 70BD     		pop	{r4, r5, r6, pc}
 322              	.LVL19:
 323              	.L18:
 324              		.cfi_restore_state
ARM GAS  C:\Users\Nathan\AppData\Local\Temp\ccUhihWc.s 			page 10


 156:Drivers/BMP388/driver_bmp388_interface.c ****         HAL_GPIO_WritePin(BMP_CS_GPIO_Port, BMP_CS_Pin, GPIO_PIN_SET);
 325              		.loc 1 156 9 is_stmt 1 view .LVU52
 326 004e 1648     		ldr	r0, .L21+8
 327              	.LVL20:
 156:Drivers/BMP388/driver_bmp388_interface.c ****         HAL_GPIO_WritePin(BMP_CS_GPIO_Port, BMP_CS_Pin, GPIO_PIN_SET);
 328              		.loc 1 156 9 is_stmt 0 view .LVU53
 329 0050 FFF7FEFF 		bl	print
 330              	.LVL21:
 157:Drivers/BMP388/driver_bmp388_interface.c ****         return 1;
 331              		.loc 1 157 9 is_stmt 1 view .LVU54
 332 0054 0122     		movs	r2, #1
 333 0056 0821     		movs	r1, #8
 334 0058 1148     		ldr	r0, .L21
 335 005a FFF7FEFF 		bl	HAL_GPIO_WritePin
 336              	.LVL22:
 158:Drivers/BMP388/driver_bmp388_interface.c ****     }
 337              		.loc 1 158 9 view .LVU55
 158:Drivers/BMP388/driver_bmp388_interface.c ****     }
 338              		.loc 1 158 16 is_stmt 0 view .LVU56
 339 005e 0125     		movs	r5, #1
 340 0060 F2E7     		b	.L15
 341              	.LVL23:
 342              	.L19:
 343              	.LBB2:
 168:Drivers/BMP388/driver_bmp388_interface.c ****         sprintf(debug_msg, "BMP388: SPI read failed (reg=0x%02X)\r\n", reg);
 344              		.loc 1 168 9 is_stmt 1 view .LVU57
 169:Drivers/BMP388/driver_bmp388_interface.c ****         CDC_Transmit_FS((uint8_t*)debug_msg, strlen(debug_msg));
 345              		.loc 1 169 9 view .LVU58
 346 0062 01AD     		add	r5, sp, #4
 347              	.LVL24:
 169:Drivers/BMP388/driver_bmp388_interface.c ****         CDC_Transmit_FS((uint8_t*)debug_msg, strlen(debug_msg));
 348              		.loc 1 169 9 is_stmt 0 view .LVU59
 349 0064 2246     		mov	r2, r4
 350 0066 1149     		ldr	r1, .L21+12
 351 0068 2846     		mov	r0, r5
 352 006a FFF7FEFF 		bl	sprintf
 353              	.LVL25:
 170:Drivers/BMP388/driver_bmp388_interface.c ****         return 1;
 354              		.loc 1 170 9 is_stmt 1 view .LVU60
 170:Drivers/BMP388/driver_bmp388_interface.c ****         return 1;
 355              		.loc 1 170 46 is_stmt 0 view .LVU61
 356 006e 2846     		mov	r0, r5
 357 0070 FFF7FEFF 		bl	strlen
 358              	.LVL26:
 170:Drivers/BMP388/driver_bmp388_interface.c ****         return 1;
 359              		.loc 1 170 9 discriminator 1 view .LVU62
 360 0074 81B2     		uxth	r1, r0
 361 0076 2846     		mov	r0, r5
 362 0078 FFF7FEFF 		bl	CDC_Transmit_FS
 363              	.LVL27:
 171:Drivers/BMP388/driver_bmp388_interface.c ****     }
 364              		.loc 1 171 9 is_stmt 1 view .LVU63
 171:Drivers/BMP388/driver_bmp388_interface.c ****     }
 365              		.loc 1 171 16 is_stmt 0 view .LVU64
 366 007c 0125     		movs	r5, #1
 367 007e E3E7     		b	.L15
 368              	.LVL28:
ARM GAS  C:\Users\Nathan\AppData\Local\Temp\ccUhihWc.s 			page 11


 369              	.L20:
 171:Drivers/BMP388/driver_bmp388_interface.c ****     }
 370              		.loc 1 171 16 view .LVU65
 371              	.LBE2:
 372              	.LBB3:
 176:Drivers/BMP388/driver_bmp388_interface.c ****         sprintf(debug_msg, "BMP388: Chip ID read = 0x%02X (expected 0x50)\r\n", buf[0]);
 373              		.loc 1 176 9 is_stmt 1 view .LVU66
 177:Drivers/BMP388/driver_bmp388_interface.c ****         CDC_Transmit_FS((uint8_t*)debug_msg, strlen(debug_msg));
 374              		.loc 1 177 9 view .LVU67
 375 0080 01AD     		add	r5, sp, #4
 376              	.LVL29:
 177:Drivers/BMP388/driver_bmp388_interface.c ****         CDC_Transmit_FS((uint8_t*)debug_msg, strlen(debug_msg));
 377              		.loc 1 177 9 is_stmt 0 view .LVU68
 378 0082 3278     		ldrb	r2, [r6]	@ zero_extendqisi2
 379 0084 0A49     		ldr	r1, .L21+16
 380 0086 2846     		mov	r0, r5
 381 0088 FFF7FEFF 		bl	sprintf
 382              	.LVL30:
 178:Drivers/BMP388/driver_bmp388_interface.c ****     }
 383              		.loc 1 178 9 is_stmt 1 view .LVU69
 178:Drivers/BMP388/driver_bmp388_interface.c ****     }
 384              		.loc 1 178 46 is_stmt 0 view .LVU70
 385 008c 2846     		mov	r0, r5
 386 008e FFF7FEFF 		bl	strlen
 387              	.LVL31:
 178:Drivers/BMP388/driver_bmp388_interface.c ****     }
 388              		.loc 1 178 9 discriminator 1 view .LVU71
 389 0092 81B2     		uxth	r1, r0
 390 0094 2846     		mov	r0, r5
 391 0096 FFF7FEFF 		bl	CDC_Transmit_FS
 392              	.LVL32:
 393              	.LBE3:
 181:Drivers/BMP388/driver_bmp388_interface.c **** }
 394              		.loc 1 181 12 view .LVU72
 395 009a 2546     		mov	r5, r4
 396 009c D4E7     		b	.L15
 397              	.L22:
 398 009e 00BF     		.align	2
 399              	.L21:
 400 00a0 000C0258 		.word	1476529152
 401 00a4 00000000 		.word	hspi4
 402 00a8 00000000 		.word	.LC2
 403 00ac 20000000 		.word	.LC3
 404 00b0 48000000 		.word	.LC4
 405              		.cfi_endproc
 406              	.LFE154:
 408              		.section	.rodata.bmp388_interface_spi_write.str1.4,"aMS",%progbits,1
 409              		.align	2
 410              	.LC5:
 411 0000 424D5033 		.ascii	"BMP388: SPI write failed (reg=0x%02X)\015\012\000"
 411      38383A20 
 411      53504920 
 411      77726974 
 411      65206661 
 412              		.section	.text.bmp388_interface_spi_write,"ax",%progbits
 413              		.align	1
 414              		.global	bmp388_interface_spi_write
ARM GAS  C:\Users\Nathan\AppData\Local\Temp\ccUhihWc.s 			page 12


 415              		.syntax unified
 416              		.thumb
 417              		.thumb_func
 419              	bmp388_interface_spi_write:
 420              	.LVL33:
 421              	.LFB155:
 183:Drivers/BMP388/driver_bmp388_interface.c **** 
 184:Drivers/BMP388/driver_bmp388_interface.c **** /**
 185:Drivers/BMP388/driver_bmp388_interface.c ****  * @brief     interface spi bus write
 186:Drivers/BMP388/driver_bmp388_interface.c ****  * @param[in] reg register address
 187:Drivers/BMP388/driver_bmp388_interface.c ****  * @param[in] *buf pointer to a data buffer
 188:Drivers/BMP388/driver_bmp388_interface.c ****  * @param[in] len length of data buffer
 189:Drivers/BMP388/driver_bmp388_interface.c ****  * @return    status code
 190:Drivers/BMP388/driver_bmp388_interface.c ****  *            - 0 success
 191:Drivers/BMP388/driver_bmp388_interface.c ****  *            - 1 write failed
 192:Drivers/BMP388/driver_bmp388_interface.c ****  * @note      none
 193:Drivers/BMP388/driver_bmp388_interface.c ****  */
 194:Drivers/BMP388/driver_bmp388_interface.c **** uint8_t bmp388_interface_spi_write(uint8_t reg, uint8_t *buf, uint16_t len)
 195:Drivers/BMP388/driver_bmp388_interface.c **** {
 422              		.loc 1 195 1 is_stmt 1 view -0
 423              		.cfi_startproc
 424              		@ args = 0, pretend = 0, frame = 72
 425              		@ frame_needed = 0, uses_anonymous_args = 0
 426              		.loc 1 195 1 is_stmt 0 view .LVU74
 427 0000 70B5     		push	{r4, r5, r6, lr}
 428              		.cfi_def_cfa_offset 16
 429              		.cfi_offset 4, -16
 430              		.cfi_offset 5, -12
 431              		.cfi_offset 6, -8
 432              		.cfi_offset 14, -4
 433 0002 92B0     		sub	sp, sp, #72
 434              		.cfi_def_cfa_offset 88
 435 0004 0446     		mov	r4, r0
 436 0006 0D46     		mov	r5, r1
 437 0008 1646     		mov	r6, r2
 196:Drivers/BMP388/driver_bmp388_interface.c ****     HAL_StatusTypeDef status;
 438              		.loc 1 196 5 is_stmt 1 view .LVU75
 197:Drivers/BMP388/driver_bmp388_interface.c ****     uint8_t reg_addr = reg & 0x7F;  // Clear MSB for write operation
 439              		.loc 1 197 5 view .LVU76
 440              		.loc 1 197 28 is_stmt 0 view .LVU77
 441 000a 00F07F03 		and	r3, r0, #127
 442              		.loc 1 197 13 view .LVU78
 443 000e 8DF84730 		strb	r3, [sp, #71]
 198:Drivers/BMP388/driver_bmp388_interface.c ****     
 199:Drivers/BMP388/driver_bmp388_interface.c ****     // Pull CS low
 200:Drivers/BMP388/driver_bmp388_interface.c ****     HAL_GPIO_WritePin(BMP_CS_GPIO_Port, BMP_CS_Pin, GPIO_PIN_RESET);
 444              		.loc 1 200 5 is_stmt 1 view .LVU79
 445 0012 0022     		movs	r2, #0
 446              	.LVL34:
 447              		.loc 1 200 5 is_stmt 0 view .LVU80
 448 0014 0821     		movs	r1, #8
 449              	.LVL35:
 450              		.loc 1 200 5 view .LVU81
 451 0016 1848     		ldr	r0, .L29
 452              	.LVL36:
 453              		.loc 1 200 5 view .LVU82
 454 0018 FFF7FEFF 		bl	HAL_GPIO_WritePin
ARM GAS  C:\Users\Nathan\AppData\Local\Temp\ccUhihWc.s 			page 13


 455              	.LVL37:
 201:Drivers/BMP388/driver_bmp388_interface.c ****     
 202:Drivers/BMP388/driver_bmp388_interface.c ****     // Transmit register address
 203:Drivers/BMP388/driver_bmp388_interface.c ****     status = HAL_SPI_Transmit(&hspi4, &reg_addr, 1, 100);
 456              		.loc 1 203 5 is_stmt 1 view .LVU83
 457              		.loc 1 203 14 is_stmt 0 view .LVU84
 458 001c 6423     		movs	r3, #100
 459 001e 0122     		movs	r2, #1
 460 0020 0DF14701 		add	r1, sp, #71
 461 0024 1548     		ldr	r0, .L29+4
 462 0026 FFF7FEFF 		bl	HAL_SPI_Transmit
 463              	.LVL38:
 204:Drivers/BMP388/driver_bmp388_interface.c ****     if (status != HAL_OK) {
 464              		.loc 1 204 5 is_stmt 1 view .LVU85
 465              		.loc 1 204 8 is_stmt 0 view .LVU86
 466 002a 78B9     		cbnz	r0, .L27
 205:Drivers/BMP388/driver_bmp388_interface.c ****         HAL_GPIO_WritePin(BMP_CS_GPIO_Port, BMP_CS_Pin, GPIO_PIN_SET);
 206:Drivers/BMP388/driver_bmp388_interface.c ****         return 1;
 207:Drivers/BMP388/driver_bmp388_interface.c ****     }
 208:Drivers/BMP388/driver_bmp388_interface.c ****     
 209:Drivers/BMP388/driver_bmp388_interface.c ****     // Transmit data
 210:Drivers/BMP388/driver_bmp388_interface.c ****     status = HAL_SPI_Transmit(&hspi4, buf, len, 100);
 467              		.loc 1 210 5 is_stmt 1 view .LVU87
 468              		.loc 1 210 14 is_stmt 0 view .LVU88
 469 002c 6423     		movs	r3, #100
 470 002e 3246     		mov	r2, r6
 471 0030 2946     		mov	r1, r5
 472 0032 1248     		ldr	r0, .L29+4
 473              	.LVL39:
 474              		.loc 1 210 14 view .LVU89
 475 0034 FFF7FEFF 		bl	HAL_SPI_Transmit
 476              	.LVL40:
 477 0038 0546     		mov	r5, r0
 478              	.LVL41:
 211:Drivers/BMP388/driver_bmp388_interface.c ****     
 212:Drivers/BMP388/driver_bmp388_interface.c ****     // Pull CS high
 213:Drivers/BMP388/driver_bmp388_interface.c ****     HAL_GPIO_WritePin(BMP_CS_GPIO_Port, BMP_CS_Pin, GPIO_PIN_SET);
 479              		.loc 1 213 5 is_stmt 1 view .LVU90
 480 003a 0122     		movs	r2, #1
 481 003c 0821     		movs	r1, #8
 482 003e 0E48     		ldr	r0, .L29
 483 0040 FFF7FEFF 		bl	HAL_GPIO_WritePin
 484              	.LVL42:
 214:Drivers/BMP388/driver_bmp388_interface.c ****     
 215:Drivers/BMP388/driver_bmp388_interface.c ****     if (status != HAL_OK) {
 485              		.loc 1 215 5 view .LVU91
 486              		.loc 1 215 8 is_stmt 0 view .LVU92
 487 0044 4DB9     		cbnz	r5, .L28
 488              	.LVL43:
 489              	.L25:
 216:Drivers/BMP388/driver_bmp388_interface.c ****         char debug_msg[64];
 217:Drivers/BMP388/driver_bmp388_interface.c ****         sprintf(debug_msg, "BMP388: SPI write failed (reg=0x%02X)\r\n", reg);
 218:Drivers/BMP388/driver_bmp388_interface.c ****         CDC_Transmit_FS((uint8_t*)debug_msg, strlen(debug_msg));
 219:Drivers/BMP388/driver_bmp388_interface.c ****         return 1;
 220:Drivers/BMP388/driver_bmp388_interface.c ****     }
 221:Drivers/BMP388/driver_bmp388_interface.c ****     
 222:Drivers/BMP388/driver_bmp388_interface.c ****     return 0;
ARM GAS  C:\Users\Nathan\AppData\Local\Temp\ccUhihWc.s 			page 14


 223:Drivers/BMP388/driver_bmp388_interface.c **** }
 490              		.loc 1 223 1 view .LVU93
 491 0046 2846     		mov	r0, r5
 492 0048 12B0     		add	sp, sp, #72
 493              		.cfi_remember_state
 494              		.cfi_def_cfa_offset 16
 495              		@ sp needed
 496 004a 70BD     		pop	{r4, r5, r6, pc}
 497              	.LVL44:
 498              	.L27:
 499              		.cfi_restore_state
 205:Drivers/BMP388/driver_bmp388_interface.c ****         return 1;
 500              		.loc 1 205 9 is_stmt 1 view .LVU94
 501 004c 0122     		movs	r2, #1
 502 004e 0821     		movs	r1, #8
 503 0050 0948     		ldr	r0, .L29
 504              	.LVL45:
 205:Drivers/BMP388/driver_bmp388_interface.c ****         return 1;
 505              		.loc 1 205 9 is_stmt 0 view .LVU95
 506 0052 FFF7FEFF 		bl	HAL_GPIO_WritePin
 507              	.LVL46:
 206:Drivers/BMP388/driver_bmp388_interface.c ****     }
 508              		.loc 1 206 9 is_stmt 1 view .LVU96
 206:Drivers/BMP388/driver_bmp388_interface.c ****     }
 509              		.loc 1 206 16 is_stmt 0 view .LVU97
 510 0056 0125     		movs	r5, #1
 511              	.LVL47:
 206:Drivers/BMP388/driver_bmp388_interface.c ****     }
 512              		.loc 1 206 16 view .LVU98
 513 0058 F5E7     		b	.L25
 514              	.LVL48:
 515              	.L28:
 516              	.LBB4:
 216:Drivers/BMP388/driver_bmp388_interface.c ****         char debug_msg[64];
 517              		.loc 1 216 9 is_stmt 1 view .LVU99
 217:Drivers/BMP388/driver_bmp388_interface.c ****         CDC_Transmit_FS((uint8_t*)debug_msg, strlen(debug_msg));
 518              		.loc 1 217 9 view .LVU100
 519 005a 01AD     		add	r5, sp, #4
 520              	.LVL49:
 217:Drivers/BMP388/driver_bmp388_interface.c ****         CDC_Transmit_FS((uint8_t*)debug_msg, strlen(debug_msg));
 521              		.loc 1 217 9 is_stmt 0 view .LVU101
 522 005c 2246     		mov	r2, r4
 523 005e 0849     		ldr	r1, .L29+8
 524 0060 2846     		mov	r0, r5
 525 0062 FFF7FEFF 		bl	sprintf
 526              	.LVL50:
 218:Drivers/BMP388/driver_bmp388_interface.c ****         return 1;
 527              		.loc 1 218 9 is_stmt 1 view .LVU102
 218:Drivers/BMP388/driver_bmp388_interface.c ****         return 1;
 528              		.loc 1 218 46 is_stmt 0 view .LVU103
 529 0066 2846     		mov	r0, r5
 530 0068 FFF7FEFF 		bl	strlen
 531              	.LVL51:
 218:Drivers/BMP388/driver_bmp388_interface.c ****         return 1;
 532              		.loc 1 218 9 discriminator 1 view .LVU104
 533 006c 81B2     		uxth	r1, r0
 534 006e 2846     		mov	r0, r5
ARM GAS  C:\Users\Nathan\AppData\Local\Temp\ccUhihWc.s 			page 15


 535 0070 FFF7FEFF 		bl	CDC_Transmit_FS
 536              	.LVL52:
 219:Drivers/BMP388/driver_bmp388_interface.c ****     }
 537              		.loc 1 219 9 is_stmt 1 view .LVU105
 219:Drivers/BMP388/driver_bmp388_interface.c ****     }
 538              		.loc 1 219 16 is_stmt 0 view .LVU106
 539 0074 0125     		movs	r5, #1
 540 0076 E6E7     		b	.L25
 541              	.L30:
 542              		.align	2
 543              	.L29:
 544 0078 000C0258 		.word	1476529152
 545 007c 00000000 		.word	hspi4
 546 0080 00000000 		.word	.LC5
 547              	.LBE4:
 548              		.cfi_endproc
 549              	.LFE155:
 551              		.section	.text.bmp388_interface_delay_ms,"ax",%progbits
 552              		.align	1
 553              		.global	bmp388_interface_delay_ms
 554              		.syntax unified
 555              		.thumb
 556              		.thumb_func
 558              	bmp388_interface_delay_ms:
 559              	.LVL53:
 560              	.LFB156:
 224:Drivers/BMP388/driver_bmp388_interface.c **** 
 225:Drivers/BMP388/driver_bmp388_interface.c **** /**
 226:Drivers/BMP388/driver_bmp388_interface.c ****  * @brief     interface delay ms
 227:Drivers/BMP388/driver_bmp388_interface.c ****  * @param[in] ms time
 228:Drivers/BMP388/driver_bmp388_interface.c ****  * @note      none
 229:Drivers/BMP388/driver_bmp388_interface.c ****  */
 230:Drivers/BMP388/driver_bmp388_interface.c **** void bmp388_interface_delay_ms(uint32_t ms)
 231:Drivers/BMP388/driver_bmp388_interface.c **** {
 561              		.loc 1 231 1 is_stmt 1 view -0
 562              		.cfi_startproc
 563              		@ args = 0, pretend = 0, frame = 0
 564              		@ frame_needed = 0, uses_anonymous_args = 0
 565              		.loc 1 231 1 is_stmt 0 view .LVU108
 566 0000 08B5     		push	{r3, lr}
 567              		.cfi_def_cfa_offset 8
 568              		.cfi_offset 3, -8
 569              		.cfi_offset 14, -4
 232:Drivers/BMP388/driver_bmp388_interface.c ****     HAL_Delay(ms);
 570              		.loc 1 232 5 is_stmt 1 view .LVU109
 571 0002 FFF7FEFF 		bl	HAL_Delay
 572              	.LVL54:
 233:Drivers/BMP388/driver_bmp388_interface.c **** }
 573              		.loc 1 233 1 is_stmt 0 view .LVU110
 574 0006 08BD     		pop	{r3, pc}
 575              		.cfi_endproc
 576              	.LFE156:
 578              		.section	.text.bmp388_interface_debug_print,"ax",%progbits
 579              		.align	1
 580              		.global	bmp388_interface_debug_print
 581              		.syntax unified
 582              		.thumb
ARM GAS  C:\Users\Nathan\AppData\Local\Temp\ccUhihWc.s 			page 16


 583              		.thumb_func
 585              	bmp388_interface_debug_print:
 586              	.LVL55:
 587              	.LFB157:
 234:Drivers/BMP388/driver_bmp388_interface.c **** 
 235:Drivers/BMP388/driver_bmp388_interface.c **** /**
 236:Drivers/BMP388/driver_bmp388_interface.c ****  * @brief     interface print format data
 237:Drivers/BMP388/driver_bmp388_interface.c ****  * @param[in] fmt format data
 238:Drivers/BMP388/driver_bmp388_interface.c ****  * @note      none
 239:Drivers/BMP388/driver_bmp388_interface.c ****  */
 240:Drivers/BMP388/driver_bmp388_interface.c **** void bmp388_interface_debug_print(const char *const fmt, ...)
 241:Drivers/BMP388/driver_bmp388_interface.c **** {
 588              		.loc 1 241 1 is_stmt 1 view -0
 589              		.cfi_startproc
 590              		@ args = 4, pretend = 16, frame = 264
 591              		@ frame_needed = 0, uses_anonymous_args = 1
 592              		.loc 1 241 1 is_stmt 0 view .LVU112
 593 0000 0FB4     		push	{r0, r1, r2, r3}
 594              		.cfi_def_cfa_offset 16
 595              		.cfi_offset 0, -16
 596              		.cfi_offset 1, -12
 597              		.cfi_offset 2, -8
 598              		.cfi_offset 3, -4
 599 0002 10B5     		push	{r4, lr}
 600              		.cfi_def_cfa_offset 24
 601              		.cfi_offset 4, -24
 602              		.cfi_offset 14, -20
 603 0004 C2B0     		sub	sp, sp, #264
 604              		.cfi_def_cfa_offset 288
 605 0006 44AB     		add	r3, sp, #272
 606 0008 53F8042B 		ldr	r2, [r3], #4
 242:Drivers/BMP388/driver_bmp388_interface.c ****     char debug_buffer[256];
 607              		.loc 1 242 5 is_stmt 1 view .LVU113
 243:Drivers/BMP388/driver_bmp388_interface.c ****     va_list args;
 608              		.loc 1 243 5 view .LVU114
 244:Drivers/BMP388/driver_bmp388_interface.c ****     va_start(args, fmt);
 609              		.loc 1 244 5 view .LVU115
 610 000c 0193     		str	r3, [sp, #4]
 245:Drivers/BMP388/driver_bmp388_interface.c ****     vsnprintf(debug_buffer, sizeof(debug_buffer), fmt, args);
 611              		.loc 1 245 5 view .LVU116
 612 000e 02AC     		add	r4, sp, #8
 613 0010 4FF48071 		mov	r1, #256
 614 0014 2046     		mov	r0, r4
 615 0016 FFF7FEFF 		bl	vsnprintf
 616              	.LVL56:
 246:Drivers/BMP388/driver_bmp388_interface.c ****     va_end(args);
 617              		.loc 1 246 5 view .LVU117
 247:Drivers/BMP388/driver_bmp388_interface.c ****     
 248:Drivers/BMP388/driver_bmp388_interface.c ****     CDC_Transmit_FS((uint8_t*)debug_buffer, strlen(debug_buffer));
 618              		.loc 1 248 5 view .LVU118
 619              		.loc 1 248 45 is_stmt 0 view .LVU119
 620 001a 2046     		mov	r0, r4
 621 001c FFF7FEFF 		bl	strlen
 622              	.LVL57:
 623              		.loc 1 248 5 discriminator 1 view .LVU120
 624 0020 81B2     		uxth	r1, r0
 625 0022 2046     		mov	r0, r4
ARM GAS  C:\Users\Nathan\AppData\Local\Temp\ccUhihWc.s 			page 17


 626 0024 FFF7FEFF 		bl	CDC_Transmit_FS
 627              	.LVL58:
 249:Drivers/BMP388/driver_bmp388_interface.c **** }
 628              		.loc 1 249 1 view .LVU121
 629 0028 42B0     		add	sp, sp, #264
 630              		.cfi_def_cfa_offset 24
 631              		@ sp needed
 632 002a BDE81040 		pop	{r4, lr}
 633              		.cfi_restore 14
 634              		.cfi_restore 4
 635              		.cfi_def_cfa_offset 16
 636 002e 04B0     		add	sp, sp, #16
 637              		.cfi_restore 3
 638              		.cfi_restore 2
 639              		.cfi_restore 1
 640              		.cfi_restore 0
 641              		.cfi_def_cfa_offset 0
 642 0030 7047     		bx	lr
 643              		.cfi_endproc
 644              	.LFE157:
 646              		.section	.rodata.bmp388_interface_receive_callback.str1.4,"aMS",%progbits,1
 647              		.align	2
 648              	.LC6:
 649 0000 626D7033 		.ascii	"bmp388: irq fifo watermark.\012\000"
 649      38383A20 
 649      69727120 
 649      6669666F 
 649      20776174 
 650 001d 000000   		.align	2
 651              	.LC7:
 652 0020 626D7033 		.ascii	"bmp388: irq fifo full.\012\000"
 652      38383A20 
 652      69727120 
 652      6669666F 
 652      2066756C 
 653              		.align	2
 654              	.LC8:
 655 0038 626D7033 		.ascii	"bmp388: irq data ready.\012\000"
 655      38383A20 
 655      69727120 
 655      64617461 
 655      20726561 
 656 0051 000000   		.align	2
 657              	.LC9:
 658 0054 626D7033 		.ascii	"bmp388: unknown code.\012\000"
 658      38383A20 
 658      756E6B6E 
 658      6F776E20 
 658      636F6465 
 659              		.section	.text.bmp388_interface_receive_callback,"ax",%progbits
 660              		.align	1
 661              		.global	bmp388_interface_receive_callback
 662              		.syntax unified
 663              		.thumb
 664              		.thumb_func
 666              	bmp388_interface_receive_callback:
 667              	.LVL59:
ARM GAS  C:\Users\Nathan\AppData\Local\Temp\ccUhihWc.s 			page 18


 668              	.LFB158:
 250:Drivers/BMP388/driver_bmp388_interface.c **** 
 251:Drivers/BMP388/driver_bmp388_interface.c **** /**
 252:Drivers/BMP388/driver_bmp388_interface.c ****  * @brief     interface receive callback
 253:Drivers/BMP388/driver_bmp388_interface.c ****  * @param[in] type interrupt type
 254:Drivers/BMP388/driver_bmp388_interface.c ****  * @note      none
 255:Drivers/BMP388/driver_bmp388_interface.c ****  */
 256:Drivers/BMP388/driver_bmp388_interface.c **** void bmp388_interface_receive_callback(uint8_t type)
 257:Drivers/BMP388/driver_bmp388_interface.c **** {
 669              		.loc 1 257 1 is_stmt 1 view -0
 670              		.cfi_startproc
 671              		@ args = 0, pretend = 0, frame = 0
 672              		@ frame_needed = 0, uses_anonymous_args = 0
 673              		.loc 1 257 1 is_stmt 0 view .LVU123
 674 0000 08B5     		push	{r3, lr}
 675              		.cfi_def_cfa_offset 8
 676              		.cfi_offset 3, -8
 677              		.cfi_offset 14, -4
 258:Drivers/BMP388/driver_bmp388_interface.c ****     switch (type)
 678              		.loc 1 258 5 is_stmt 1 view .LVU124
 679 0002 0228     		cmp	r0, #2
 680 0004 07D0     		beq	.L36
 681 0006 0828     		cmp	r0, #8
 682 0008 09D0     		beq	.L37
 683 000a 0128     		cmp	r0, #1
 684 000c 0BD1     		bne	.L38
 259:Drivers/BMP388/driver_bmp388_interface.c ****     {
 260:Drivers/BMP388/driver_bmp388_interface.c ****         case BMP388_INTERRUPT_STATUS_FIFO_WATERMARK :
 261:Drivers/BMP388/driver_bmp388_interface.c ****         {
 262:Drivers/BMP388/driver_bmp388_interface.c ****             bmp388_interface_debug_print("bmp388: irq fifo watermark.\n");
 685              		.loc 1 262 13 view .LVU125
 686 000e 0848     		ldr	r0, .L41
 687              	.LVL60:
 688              		.loc 1 262 13 is_stmt 0 view .LVU126
 689 0010 FFF7FEFF 		bl	bmp388_interface_debug_print
 690              	.LVL61:
 263:Drivers/BMP388/driver_bmp388_interface.c ****             
 264:Drivers/BMP388/driver_bmp388_interface.c ****             break;
 691              		.loc 1 264 13 is_stmt 1 view .LVU127
 692              	.L35:
 265:Drivers/BMP388/driver_bmp388_interface.c ****         }
 266:Drivers/BMP388/driver_bmp388_interface.c ****         case BMP388_INTERRUPT_STATUS_FIFO_FULL :
 267:Drivers/BMP388/driver_bmp388_interface.c ****         {
 268:Drivers/BMP388/driver_bmp388_interface.c ****             bmp388_interface_debug_print("bmp388: irq fifo full.\n");
 269:Drivers/BMP388/driver_bmp388_interface.c ****             
 270:Drivers/BMP388/driver_bmp388_interface.c ****             break;
 271:Drivers/BMP388/driver_bmp388_interface.c ****         }
 272:Drivers/BMP388/driver_bmp388_interface.c ****         case BMP388_INTERRUPT_STATUS_DATA_READY :
 273:Drivers/BMP388/driver_bmp388_interface.c ****         {
 274:Drivers/BMP388/driver_bmp388_interface.c ****             bmp388_interface_debug_print("bmp388: irq data ready.\n");
 275:Drivers/BMP388/driver_bmp388_interface.c ****             
 276:Drivers/BMP388/driver_bmp388_interface.c ****             break;
 277:Drivers/BMP388/driver_bmp388_interface.c ****         }
 278:Drivers/BMP388/driver_bmp388_interface.c ****         default :
 279:Drivers/BMP388/driver_bmp388_interface.c ****         {
 280:Drivers/BMP388/driver_bmp388_interface.c ****             bmp388_interface_debug_print("bmp388: unknown code.\n");
 281:Drivers/BMP388/driver_bmp388_interface.c ****             
ARM GAS  C:\Users\Nathan\AppData\Local\Temp\ccUhihWc.s 			page 19


 282:Drivers/BMP388/driver_bmp388_interface.c ****             break;
 283:Drivers/BMP388/driver_bmp388_interface.c ****         }
 284:Drivers/BMP388/driver_bmp388_interface.c ****     }
 285:Drivers/BMP388/driver_bmp388_interface.c **** }...
 693              		.loc 1 285 1 is_stmt 0 view .LVU128
 694 0014 08BD     		pop	{r3, pc}
 695              	.LVL62:
 696              	.L36:
 268:Drivers/BMP388/driver_bmp388_interface.c ****             bmp388_interface_debug_print("bmp388: irq fifo full.\n");
 697              		.loc 1 268 13 is_stmt 1 view .LVU129
 698 0016 0748     		ldr	r0, .L41+4
 699              	.LVL63:
 268:Drivers/BMP388/driver_bmp388_interface.c ****             bmp388_interface_debug_print("bmp388: irq fifo full.\n");
 700              		.loc 1 268 13 is_stmt 0 view .LVU130
 701 0018 FFF7FEFF 		bl	bmp388_interface_debug_print
 702              	.LVL64:
 270:Drivers/BMP388/driver_bmp388_interface.c ****             break;
 703              		.loc 1 270 13 is_stmt 1 view .LVU131
 704 001c FAE7     		b	.L35
 705              	.LVL65:
 706              	.L37:
 274:Drivers/BMP388/driver_bmp388_interface.c ****             bmp388_interface_debug_print("bmp388: irq data ready.\n");
 707              		.loc 1 274 13 view .LVU132
 708 001e 0648     		ldr	r0, .L41+8
 709              	.LVL66:
 274:Drivers/BMP388/driver_bmp388_interface.c ****             bmp388_interface_debug_print("bmp388: irq data ready.\n");
 710              		.loc 1 274 13 is_stmt 0 view .LVU133
 711 0020 FFF7FEFF 		bl	bmp388_interface_debug_print
 712              	.LVL67:
 276:Drivers/BMP388/driver_bmp388_interface.c ****             break;
 713              		.loc 1 276 13 is_stmt 1 view .LVU134
 714 0024 F6E7     		b	.L35
 715              	.LVL68:
 716              	.L38:
 280:Drivers/BMP388/driver_bmp388_interface.c ****             bmp388_interface_debug_print("bmp388: unknown code.\n");
 717              		.loc 1 280 13 view .LVU135
 718 0026 0548     		ldr	r0, .L41+12
 719              	.LVL69:
 280:Drivers/BMP388/driver_bmp388_interface.c ****             bmp388_interface_debug_print("bmp388: unknown code.\n");
 720              		.loc 1 280 13 is_stmt 0 view .LVU136
 721 0028 FFF7FEFF 		bl	bmp388_interface_debug_print
 722              	.LVL70:
 282:Drivers/BMP388/driver_bmp388_interface.c ****             break;
 723              		.loc 1 282 13 is_stmt 1 view .LVU137
 724              		.loc 1 285 1 is_stmt 0 view .LVU138
 725 002c F2E7     		b	.L35
 726              	.L42:
 727 002e 00BF     		.align	2
 728              	.L41:
 729 0030 00000000 		.word	.LC6
 730 0034 20000000 		.word	.LC7
 731 0038 38000000 		.word	.LC8
 732 003c 54000000 		.word	.LC9
 733              		.cfi_endproc
 734              	.LFE158:
 736              		.text
 737              	.Letext0:
ARM GAS  C:\Users\Nathan\AppData\Local\Temp\ccUhihWc.s 			page 20


 738              		.file 2 "C:/Users/Nathan/AppData/Roaming/Code/User/globalStorage/bmd.stm32-for-vscode/@xpack-dev-t
 739              		.file 3 "C:/Users/Nathan/AppData/Roaming/Code/User/globalStorage/bmd.stm32-for-vscode/@xpack-dev-t
 740              		.file 4 "C:/Users/Nathan/AppData/Roaming/Code/User/globalStorage/bmd.stm32-for-vscode/@xpack-dev-t
 741              		.file 5 "C:/Users/Nathan/AppData/Roaming/Code/User/globalStorage/bmd.stm32-for-vscode/@xpack-dev-t
 742              		.file 6 "C:/Users/Nathan/AppData/Roaming/Code/User/globalStorage/bmd.stm32-for-vscode/@xpack-dev-t
 743              		.file 7 "Drivers/CMSIS/Device/ST/STM32H7xx/Include/stm32h753xx.h"
 744              		.file 8 "Drivers/BMP388/driver_bmp388.h"
 745              		.file 9 "Drivers/STM32H7xx_HAL_Driver/Inc/stm32h7xx_hal_def.h"
 746              		.file 10 "Drivers/STM32H7xx_HAL_Driver/Inc/stm32h7xx_hal_gpio.h"
 747              		.file 11 "Drivers/STM32H7xx_HAL_Driver/Inc/stm32h7xx_hal_dma.h"
 748              		.file 12 "Drivers/STM32H7xx_HAL_Driver/Inc/stm32h7xx_hal_spi.h"
 749              		.file 13 "Drivers/STM32H7xx_HAL_Driver/Inc/stm32h7xx_hal.h"
 750              		.file 14 "../Athena/athena.h"
 751              		.file 15 "USB_DEVICE/App/usbd_cdc_if.h"
 752              		.file 16 "C:/Users/Nathan/AppData/Roaming/Code/User/globalStorage/bmd.stm32-for-vscode/@xpack-dev-
 753              		.file 17 "<built-in>"
ARM GAS  C:\Users\Nathan\AppData\Local\Temp\ccUhihWc.s 			page 21

