ARM GAS  C:\Users\Nathan\AppData\Local\Temp\ccMZZe9L.s 			page 1


   1              		.cpu cortex-m7
   2              		.arch armv7e-m
   3              		.fpu fpv5-d16
   4              		.eabi_attribute 28, 1
   5              		.eabi_attribute 20, 1
   6              		.eabi_attribute 21, 1
   7              		.eabi_attribute 23, 3
   8              		.eabi_attribute 24, 1
   9              		.eabi_attribute 25, 1
  10              		.eabi_attribute 26, 1
  11              		.eabi_attribute 30, 1
  12              		.eabi_attribute 34, 1
  13              		.eabi_attribute 18, 4
  14              		.file	"Icp201xxDriver.c"
  15              		.text
  16              	.Ltext0:
  17              		.cfi_sections	.debug_frame
  18              		.file 1 "Drivers/ICP201xx/Icp201xxDriver.c"
  19              		.section	.text.inv_icp201xx_rd_reg,"ax",%progbits
  20              		.align	1
  21              		.global	inv_icp201xx_rd_reg
  22              		.syntax unified
  23              		.thumb
  24              		.thumb_func
  26              	inv_icp201xx_rd_reg:
  27              	.LVL0:
  28              	.LFB0:
   1:Drivers/ICP201xx/Icp201xxDriver.c **** /*
   2:Drivers/ICP201xx/Icp201xxDriver.c ****  *
   3:Drivers/ICP201xx/Icp201xxDriver.c ****  * Copyright (c) [2020] by InvenSense, Inc.
   4:Drivers/ICP201xx/Icp201xxDriver.c ****  * 
   5:Drivers/ICP201xx/Icp201xxDriver.c ****  * Permission to use, copy, modify, and/or distribute this software for any
   6:Drivers/ICP201xx/Icp201xxDriver.c ****  * purpose with or without fee is hereby granted.
   7:Drivers/ICP201xx/Icp201xxDriver.c ****  * 
   8:Drivers/ICP201xx/Icp201xxDriver.c ****  * THE SOFTWARE IS PROVIDED "AS IS" AND THE AUTHOR DISCLAIMS ALL WARRANTIES
   9:Drivers/ICP201xx/Icp201xxDriver.c ****  * WITH REGARD TO THIS SOFTWARE INCLUDING ALL IMPLIED WARRANTIES OF
  10:Drivers/ICP201xx/Icp201xxDriver.c ****  * MERCHANTABILITY AND FITNESS. IN NO EVENT SHALL THE AUTHOR BE LIABLE FOR ANY
  11:Drivers/ICP201xx/Icp201xxDriver.c ****  * SPECIAL, DIRECT, INDIRECT, OR CONSEQUENTIAL DAMAGES OR ANY DAMAGES
  12:Drivers/ICP201xx/Icp201xxDriver.c ****  * WHATSOEVER RESULTING FROM LOSS OF USE, DATA OR PROFITS, WHETHER IN AN ACTION
  13:Drivers/ICP201xx/Icp201xxDriver.c ****  * OF CONTRACT, NEGLIGENCE OR OTHER TORTIOUS ACTION, ARISING OUT OF OR IN
  14:Drivers/ICP201xx/Icp201xxDriver.c ****  * CONNECTION WITH THE USE OR PERFORMANCE OF THIS SOFTWARE.
  15:Drivers/ICP201xx/Icp201xxDriver.c ****  *
  16:Drivers/ICP201xx/Icp201xxDriver.c ****  */
  17:Drivers/ICP201xx/Icp201xxDriver.c **** 
  18:Drivers/ICP201xx/Icp201xxDriver.c **** /** @defgroup DriverIcp201xx Icp201xx driver
  19:Drivers/ICP201xx/Icp201xxDriver.c ****  *  @brief    Low-level driver for Icp201xx devices
  20:Drivers/ICP201xx/Icp201xxDriver.c ****  *  @ingroup  DriverIcp201xx
  21:Drivers/ICP201xx/Icp201xxDriver.c ****  *  @{
  22:Drivers/ICP201xx/Icp201xxDriver.c ****  */
  23:Drivers/ICP201xx/Icp201xxDriver.c **** 
  24:Drivers/ICP201xx/Icp201xxDriver.c **** 
  25:Drivers/ICP201xx/Icp201xxDriver.c **** #include "Icp201xxDefs.h"
  26:Drivers/ICP201xx/Icp201xxDriver.c **** #include "Icp201xxSerif.h"
  27:Drivers/ICP201xx/Icp201xxDriver.c **** #include "Icp201xxDriver.h"
  28:Drivers/ICP201xx/Icp201xxDriver.c **** #include "Icp201xxExtFunc.h"
  29:Drivers/ICP201xx/Icp201xxDriver.c **** 
  30:Drivers/ICP201xx/Icp201xxDriver.c **** #include "InvError.h"
ARM GAS  C:\Users\Nathan\AppData\Local\Temp\ccMZZe9L.s 			page 2


  31:Drivers/ICP201xx/Icp201xxDriver.c **** 
  32:Drivers/ICP201xx/Icp201xxDriver.c **** /*********************** Generic reg read/write ***********************************/
  33:Drivers/ICP201xx/Icp201xxDriver.c **** int inv_icp201xx_rd_reg(inv_icp201xx_serif_t  * s, uint8_t reg, uint8_t *value)
  34:Drivers/ICP201xx/Icp201xxDriver.c **** {
  29              		.loc 1 34 1 view -0
  30              		.cfi_startproc
  31              		@ args = 0, pretend = 0, frame = 0
  32              		@ frame_needed = 0, uses_anonymous_args = 0
  33              		.loc 1 34 1 is_stmt 0 view .LVU1
  34 0000 08B5     		push	{r3, lr}
  35              		.cfi_def_cfa_offset 8
  36              		.cfi_offset 3, -8
  37              		.cfi_offset 14, -4
  38 0002 1346     		mov	r3, r2
  35:Drivers/ICP201xx/Icp201xxDriver.c **** 	return inv_icp201xx_serif_read_reg(s, reg, 1, value);
  39              		.loc 1 35 2 is_stmt 1 view .LVU2
  40              		.loc 1 35 9 is_stmt 0 view .LVU3
  41 0004 0122     		movs	r2, #1
  42              	.LVL1:
  43              		.loc 1 35 9 view .LVU4
  44 0006 FFF7FEFF 		bl	inv_icp201xx_serif_read_reg
  45              	.LVL2:
  36:Drivers/ICP201xx/Icp201xxDriver.c **** }
  46              		.loc 1 36 1 view .LVU5
  47 000a 08BD     		pop	{r3, pc}
  48              		.cfi_endproc
  49              	.LFE0:
  51              		.section	.text.inv_icp201xx_wr_reg,"ax",%progbits
  52              		.align	1
  53              		.global	inv_icp201xx_wr_reg
  54              		.syntax unified
  55              		.thumb
  56              		.thumb_func
  58              	inv_icp201xx_wr_reg:
  59              	.LVL3:
  60              	.LFB1:
  37:Drivers/ICP201xx/Icp201xxDriver.c **** int inv_icp201xx_wr_reg(inv_icp201xx_serif_t  * s, uint8_t reg, uint8_t new_value)
  38:Drivers/ICP201xx/Icp201xxDriver.c **** {
  61              		.loc 1 38 1 is_stmt 1 view -0
  62              		.cfi_startproc
  63              		@ args = 0, pretend = 0, frame = 8
  64              		@ frame_needed = 0, uses_anonymous_args = 0
  65              		.loc 1 38 1 is_stmt 0 view .LVU7
  66 0000 00B5     		push	{lr}
  67              		.cfi_def_cfa_offset 4
  68              		.cfi_offset 14, -4
  69 0002 83B0     		sub	sp, sp, #12
  70              		.cfi_def_cfa_offset 16
  71 0004 8DF80720 		strb	r2, [sp, #7]
  39:Drivers/ICP201xx/Icp201xxDriver.c **** 	return inv_icp201xx_serif_write_reg(s, reg, 1, &new_value);
  72              		.loc 1 39 2 is_stmt 1 view .LVU8
  73              		.loc 1 39 9 is_stmt 0 view .LVU9
  74 0008 0DF10703 		add	r3, sp, #7
  75 000c 0122     		movs	r2, #1
  76              	.LVL4:
  77              		.loc 1 39 9 view .LVU10
  78 000e FFF7FEFF 		bl	inv_icp201xx_serif_write_reg
ARM GAS  C:\Users\Nathan\AppData\Local\Temp\ccMZZe9L.s 			page 3


  79              	.LVL5:
  40:Drivers/ICP201xx/Icp201xxDriver.c **** }
  80              		.loc 1 40 1 view .LVU11
  81 0012 03B0     		add	sp, sp, #12
  82              		.cfi_def_cfa_offset 4
  83              		@ sp needed
  84 0014 5DF804FB 		ldr	pc, [sp], #4
  85              		.cfi_endproc
  86              	.LFE1:
  88              		.section	.text.inv_icp201xx_wr_pefe_offset_trim,"ax",%progbits
  89              		.align	1
  90              		.global	inv_icp201xx_wr_pefe_offset_trim
  91              		.syntax unified
  92              		.thumb
  93              		.thumb_func
  95              	inv_icp201xx_wr_pefe_offset_trim:
  96              	.LVL6:
  97              	.LFB2:
  41:Drivers/ICP201xx/Icp201xxDriver.c **** 
  42:Drivers/ICP201xx/Icp201xxDriver.c **** 
  43:Drivers/ICP201xx/Icp201xxDriver.c **** int inv_icp201xx_wr_pefe_offset_trim(inv_icp201xx_serif_t  * s,uint8_t new_value)
  44:Drivers/ICP201xx/Icp201xxDriver.c **** {
  98              		.loc 1 44 1 is_stmt 1 view -0
  99              		.cfi_startproc
 100              		@ args = 0, pretend = 0, frame = 8
 101              		@ frame_needed = 0, uses_anonymous_args = 0
 102              		.loc 1 44 1 is_stmt 0 view .LVU13
 103 0000 30B5     		push	{r4, r5, lr}
 104              		.cfi_def_cfa_offset 12
 105              		.cfi_offset 4, -12
 106              		.cfi_offset 5, -8
 107              		.cfi_offset 14, -4
 108 0002 83B0     		sub	sp, sp, #12
 109              		.cfi_def_cfa_offset 24
 110 0004 0546     		mov	r5, r0
 111 0006 0C46     		mov	r4, r1
  45:Drivers/ICP201xx/Icp201xxDriver.c **** 	int status;
 112              		.loc 1 45 2 is_stmt 1 view .LVU14
  46:Drivers/ICP201xx/Icp201xxDriver.c **** 	uint8_t reg_value;
 113              		.loc 1 46 2 view .LVU15
  47:Drivers/ICP201xx/Icp201xxDriver.c **** 	status = inv_icp201xx_serif_read_reg(s, MPUREG_TRIM1_MSB, 1, &reg_value);
 114              		.loc 1 47 2 view .LVU16
 115              		.loc 1 47 11 is_stmt 0 view .LVU17
 116 0008 0DF10703 		add	r3, sp, #7
 117 000c 0122     		movs	r2, #1
 118 000e 0521     		movs	r1, #5
 119              	.LVL7:
 120              		.loc 1 47 11 view .LVU18
 121 0010 FFF7FEFF 		bl	inv_icp201xx_serif_read_reg
 122              	.LVL8:
  48:Drivers/ICP201xx/Icp201xxDriver.c **** 
  49:Drivers/ICP201xx/Icp201xxDriver.c **** 	if(status)
 123              		.loc 1 49 2 is_stmt 1 view .LVU19
 124              		.loc 1 49 4 is_stmt 0 view .LVU20
 125 0014 08B1     		cbz	r0, .L8
 126              	.LVL9:
 127              	.L5:
ARM GAS  C:\Users\Nathan\AppData\Local\Temp\ccMZZe9L.s 			page 4


  50:Drivers/ICP201xx/Icp201xxDriver.c **** 	return status;
  51:Drivers/ICP201xx/Icp201xxDriver.c **** 
  52:Drivers/ICP201xx/Icp201xxDriver.c **** 	reg_value = ( reg_value & (~BIT_PEFE_OFFSET_TRIM_MASK) ) | ( new_value  ) ;
  53:Drivers/ICP201xx/Icp201xxDriver.c **** 
  54:Drivers/ICP201xx/Icp201xxDriver.c **** 	status = inv_icp201xx_serif_write_reg(s, MPUREG_TRIM1_MSB, 1, &reg_value);
  55:Drivers/ICP201xx/Icp201xxDriver.c **** 
  56:Drivers/ICP201xx/Icp201xxDriver.c **** 	return status;
  57:Drivers/ICP201xx/Icp201xxDriver.c **** }
 128              		.loc 1 57 1 view .LVU21
 129 0016 03B0     		add	sp, sp, #12
 130              		.cfi_remember_state
 131              		.cfi_def_cfa_offset 12
 132              		@ sp needed
 133 0018 30BD     		pop	{r4, r5, pc}
 134              	.LVL10:
 135              	.L8:
 136              		.cfi_restore_state
  52:Drivers/ICP201xx/Icp201xxDriver.c **** 
 137              		.loc 1 52 2 is_stmt 1 view .LVU22
  52:Drivers/ICP201xx/Icp201xxDriver.c **** 
 138              		.loc 1 52 26 is_stmt 0 view .LVU23
 139 001a 9DF80730 		ldrb	r3, [sp, #7]	@ zero_extendqisi2
  52:Drivers/ICP201xx/Icp201xxDriver.c **** 
 140              		.loc 1 52 12 view .LVU24
 141 001e 23F03F03 		bic	r3, r3, #63
 142 0022 44EA0301 		orr	r1, r4, r3
 143 0026 8DF80710 		strb	r1, [sp, #7]
  54:Drivers/ICP201xx/Icp201xxDriver.c **** 
 144              		.loc 1 54 2 is_stmt 1 view .LVU25
  54:Drivers/ICP201xx/Icp201xxDriver.c **** 
 145              		.loc 1 54 11 is_stmt 0 view .LVU26
 146 002a 0DF10703 		add	r3, sp, #7
 147              	.LVL11:
  54:Drivers/ICP201xx/Icp201xxDriver.c **** 
 148              		.loc 1 54 11 view .LVU27
 149 002e 0122     		movs	r2, #1
 150 0030 0521     		movs	r1, #5
 151 0032 2846     		mov	r0, r5
 152 0034 FFF7FEFF 		bl	inv_icp201xx_serif_write_reg
 153              	.LVL12:
  56:Drivers/ICP201xx/Icp201xxDriver.c **** }
 154              		.loc 1 56 2 is_stmt 1 view .LVU28
  56:Drivers/ICP201xx/Icp201xxDriver.c **** }
 155              		.loc 1 56 9 is_stmt 0 view .LVU29
 156 0038 EDE7     		b	.L5
 157              		.cfi_endproc
 158              	.LFE2:
 160              		.section	.text.inv_icp201xx_wr_pefe_gain_trim,"ax",%progbits
 161              		.align	1
 162              		.global	inv_icp201xx_wr_pefe_gain_trim
 163              		.syntax unified
 164              		.thumb
 165              		.thumb_func
 167              	inv_icp201xx_wr_pefe_gain_trim:
 168              	.LVL13:
 169              	.LFB3:
  58:Drivers/ICP201xx/Icp201xxDriver.c **** 
ARM GAS  C:\Users\Nathan\AppData\Local\Temp\ccMZZe9L.s 			page 5


  59:Drivers/ICP201xx/Icp201xxDriver.c **** int inv_icp201xx_wr_pefe_gain_trim(inv_icp201xx_serif_t  * s,uint8_t new_value)
  60:Drivers/ICP201xx/Icp201xxDriver.c **** {
 170              		.loc 1 60 1 is_stmt 1 view -0
 171              		.cfi_startproc
 172              		@ args = 0, pretend = 0, frame = 8
 173              		@ frame_needed = 0, uses_anonymous_args = 0
 174              		.loc 1 60 1 is_stmt 0 view .LVU31
 175 0000 30B5     		push	{r4, r5, lr}
 176              		.cfi_def_cfa_offset 12
 177              		.cfi_offset 4, -12
 178              		.cfi_offset 5, -8
 179              		.cfi_offset 14, -4
 180 0002 83B0     		sub	sp, sp, #12
 181              		.cfi_def_cfa_offset 24
 182 0004 0446     		mov	r4, r0
 183 0006 0D46     		mov	r5, r1
  61:Drivers/ICP201xx/Icp201xxDriver.c **** 	int status;
 184              		.loc 1 61 2 is_stmt 1 view .LVU32
  62:Drivers/ICP201xx/Icp201xxDriver.c **** 	uint8_t reg_value;
 185              		.loc 1 62 2 view .LVU33
  63:Drivers/ICP201xx/Icp201xxDriver.c **** 	status = inv_icp201xx_serif_read_reg(s, MPUREG_TRIM2_MSB, 1, &reg_value);
 186              		.loc 1 63 2 view .LVU34
 187              		.loc 1 63 11 is_stmt 0 view .LVU35
 188 0008 0DF10703 		add	r3, sp, #7
 189 000c 0122     		movs	r2, #1
 190 000e 0721     		movs	r1, #7
 191              	.LVL14:
 192              		.loc 1 63 11 view .LVU36
 193 0010 FFF7FEFF 		bl	inv_icp201xx_serif_read_reg
 194              	.LVL15:
  64:Drivers/ICP201xx/Icp201xxDriver.c **** 
  65:Drivers/ICP201xx/Icp201xxDriver.c **** 	if(status)
 195              		.loc 1 65 2 is_stmt 1 view .LVU37
 196              		.loc 1 65 4 is_stmt 0 view .LVU38
 197 0014 08B1     		cbz	r0, .L12
 198              	.LVL16:
 199              	.L9:
  66:Drivers/ICP201xx/Icp201xxDriver.c **** 	return status;
  67:Drivers/ICP201xx/Icp201xxDriver.c **** 
  68:Drivers/ICP201xx/Icp201xxDriver.c **** 	reg_value = ( reg_value & (~BIT_PEFE_GAIN_TRIM_MASK) ) | ( new_value <<BIT_PEFE_GAIN_TRIM_POS ) ;
  69:Drivers/ICP201xx/Icp201xxDriver.c **** 
  70:Drivers/ICP201xx/Icp201xxDriver.c **** 	status = inv_icp201xx_serif_write_reg(s, MPUREG_TRIM2_MSB, 1, &reg_value);
  71:Drivers/ICP201xx/Icp201xxDriver.c **** 
  72:Drivers/ICP201xx/Icp201xxDriver.c **** 	return status;
  73:Drivers/ICP201xx/Icp201xxDriver.c **** }
 200              		.loc 1 73 1 view .LVU39
 201 0016 03B0     		add	sp, sp, #12
 202              		.cfi_remember_state
 203              		.cfi_def_cfa_offset 12
 204              		@ sp needed
 205 0018 30BD     		pop	{r4, r5, pc}
 206              	.LVL17:
 207              	.L12:
 208              		.cfi_restore_state
  68:Drivers/ICP201xx/Icp201xxDriver.c **** 
 209              		.loc 1 68 2 is_stmt 1 view .LVU40
  68:Drivers/ICP201xx/Icp201xxDriver.c **** 
ARM GAS  C:\Users\Nathan\AppData\Local\Temp\ccMZZe9L.s 			page 6


 210              		.loc 1 68 26 is_stmt 0 view .LVU41
 211 001a 9DF80730 		ldrb	r3, [sp, #7]	@ zero_extendqisi2
  68:Drivers/ICP201xx/Icp201xxDriver.c **** 
 212              		.loc 1 68 57 view .LVU42
 213 001e 23F07003 		bic	r3, r3, #112
 214 0022 43EA0513 		orr	r3, r3, r5, lsl #4
  68:Drivers/ICP201xx/Icp201xxDriver.c **** 
 215              		.loc 1 68 12 view .LVU43
 216 0026 8DF80730 		strb	r3, [sp, #7]
  70:Drivers/ICP201xx/Icp201xxDriver.c **** 
 217              		.loc 1 70 2 is_stmt 1 view .LVU44
  70:Drivers/ICP201xx/Icp201xxDriver.c **** 
 218              		.loc 1 70 11 is_stmt 0 view .LVU45
 219 002a 0DF10703 		add	r3, sp, #7
 220              	.LVL18:
  70:Drivers/ICP201xx/Icp201xxDriver.c **** 
 221              		.loc 1 70 11 view .LVU46
 222 002e 0122     		movs	r2, #1
 223 0030 0721     		movs	r1, #7
 224 0032 2046     		mov	r0, r4
 225 0034 FFF7FEFF 		bl	inv_icp201xx_serif_write_reg
 226              	.LVL19:
  72:Drivers/ICP201xx/Icp201xxDriver.c **** }
 227              		.loc 1 72 2 is_stmt 1 view .LVU47
  72:Drivers/ICP201xx/Icp201xxDriver.c **** }
 228              		.loc 1 72 9 is_stmt 0 view .LVU48
 229 0038 EDE7     		b	.L9
 230              		.cfi_endproc
 231              	.LFE3:
 233              		.section	.text.inv_icp201xx_wr_hfosc_trim,"ax",%progbits
 234              		.align	1
 235              		.global	inv_icp201xx_wr_hfosc_trim
 236              		.syntax unified
 237              		.thumb
 238              		.thumb_func
 240              	inv_icp201xx_wr_hfosc_trim:
 241              	.LVL20:
 242              	.LFB4:
  74:Drivers/ICP201xx/Icp201xxDriver.c **** 
  75:Drivers/ICP201xx/Icp201xxDriver.c **** int inv_icp201xx_wr_hfosc_trim(inv_icp201xx_serif_t  * s,uint8_t new_value)
  76:Drivers/ICP201xx/Icp201xxDriver.c **** {
 243              		.loc 1 76 1 is_stmt 1 view -0
 244              		.cfi_startproc
 245              		@ args = 0, pretend = 0, frame = 8
 246              		@ frame_needed = 0, uses_anonymous_args = 0
 247              		.loc 1 76 1 is_stmt 0 view .LVU50
 248 0000 30B5     		push	{r4, r5, lr}
 249              		.cfi_def_cfa_offset 12
 250              		.cfi_offset 4, -12
 251              		.cfi_offset 5, -8
 252              		.cfi_offset 14, -4
 253 0002 83B0     		sub	sp, sp, #12
 254              		.cfi_def_cfa_offset 24
 255 0004 0546     		mov	r5, r0
 256 0006 0C46     		mov	r4, r1
  77:Drivers/ICP201xx/Icp201xxDriver.c **** 	int status;
 257              		.loc 1 77 2 is_stmt 1 view .LVU51
ARM GAS  C:\Users\Nathan\AppData\Local\Temp\ccMZZe9L.s 			page 7


  78:Drivers/ICP201xx/Icp201xxDriver.c **** 	uint8_t reg_value;
 258              		.loc 1 78 2 view .LVU52
  79:Drivers/ICP201xx/Icp201xxDriver.c **** 	status = inv_icp201xx_serif_read_reg(s, MPUREG_TRIM2_LSB, 1, &reg_value);
 259              		.loc 1 79 2 view .LVU53
 260              		.loc 1 79 11 is_stmt 0 view .LVU54
 261 0008 0DF10703 		add	r3, sp, #7
 262 000c 0122     		movs	r2, #1
 263 000e 0621     		movs	r1, #6
 264              	.LVL21:
 265              		.loc 1 79 11 view .LVU55
 266 0010 FFF7FEFF 		bl	inv_icp201xx_serif_read_reg
 267              	.LVL22:
  80:Drivers/ICP201xx/Icp201xxDriver.c **** 
  81:Drivers/ICP201xx/Icp201xxDriver.c **** 	if(status)
 268              		.loc 1 81 2 is_stmt 1 view .LVU56
 269              		.loc 1 81 4 is_stmt 0 view .LVU57
 270 0014 08B1     		cbz	r0, .L16
 271              	.LVL23:
 272              	.L13:
  82:Drivers/ICP201xx/Icp201xxDriver.c **** 	return status;
  83:Drivers/ICP201xx/Icp201xxDriver.c **** 
  84:Drivers/ICP201xx/Icp201xxDriver.c **** 	reg_value = ( reg_value & (~BIT_HFOSC_OFFSET_TRIM_MASK) ) | ( new_value  ) ;
  85:Drivers/ICP201xx/Icp201xxDriver.c **** 
  86:Drivers/ICP201xx/Icp201xxDriver.c **** 	status = inv_icp201xx_serif_write_reg(s, MPUREG_TRIM2_LSB, 1, &reg_value);
  87:Drivers/ICP201xx/Icp201xxDriver.c **** 
  88:Drivers/ICP201xx/Icp201xxDriver.c **** 	return status;
  89:Drivers/ICP201xx/Icp201xxDriver.c **** }
 273              		.loc 1 89 1 view .LVU58
 274 0016 03B0     		add	sp, sp, #12
 275              		.cfi_remember_state
 276              		.cfi_def_cfa_offset 12
 277              		@ sp needed
 278 0018 30BD     		pop	{r4, r5, pc}
 279              	.LVL24:
 280              	.L16:
 281              		.cfi_restore_state
  84:Drivers/ICP201xx/Icp201xxDriver.c **** 
 282              		.loc 1 84 2 is_stmt 1 view .LVU59
  84:Drivers/ICP201xx/Icp201xxDriver.c **** 
 283              		.loc 1 84 26 is_stmt 0 view .LVU60
 284 001a 9DF80730 		ldrb	r3, [sp, #7]	@ zero_extendqisi2
  84:Drivers/ICP201xx/Icp201xxDriver.c **** 
 285              		.loc 1 84 12 view .LVU61
 286 001e 23F07F03 		bic	r3, r3, #127
 287 0022 44EA0301 		orr	r1, r4, r3
 288 0026 8DF80710 		strb	r1, [sp, #7]
  86:Drivers/ICP201xx/Icp201xxDriver.c **** 
 289              		.loc 1 86 2 is_stmt 1 view .LVU62
  86:Drivers/ICP201xx/Icp201xxDriver.c **** 
 290              		.loc 1 86 11 is_stmt 0 view .LVU63
 291 002a 0DF10703 		add	r3, sp, #7
 292              	.LVL25:
  86:Drivers/ICP201xx/Icp201xxDriver.c **** 
 293              		.loc 1 86 11 view .LVU64
 294 002e 0122     		movs	r2, #1
 295 0030 0621     		movs	r1, #6
 296 0032 2846     		mov	r0, r5
ARM GAS  C:\Users\Nathan\AppData\Local\Temp\ccMZZe9L.s 			page 8


 297 0034 FFF7FEFF 		bl	inv_icp201xx_serif_write_reg
 298              	.LVL26:
  88:Drivers/ICP201xx/Icp201xxDriver.c **** }
 299              		.loc 1 88 2 is_stmt 1 view .LVU65
  88:Drivers/ICP201xx/Icp201xxDriver.c **** }
 300              		.loc 1 88 9 is_stmt 0 view .LVU66
 301 0038 EDE7     		b	.L13
 302              		.cfi_endproc
 303              	.LFE4:
 305              		.section	.text.inv_icp201xx_rd_device_id,"ax",%progbits
 306              		.align	1
 307              		.global	inv_icp201xx_rd_device_id
 308              		.syntax unified
 309              		.thumb
 310              		.thumb_func
 312              	inv_icp201xx_rd_device_id:
 313              	.LVL27:
 314              	.LFB5:
  90:Drivers/ICP201xx/Icp201xxDriver.c **** int inv_icp201xx_rd_device_id(inv_icp201xx_serif_t  * s, uint8_t *value)
  91:Drivers/ICP201xx/Icp201xxDriver.c **** {
 315              		.loc 1 91 1 is_stmt 1 view -0
 316              		.cfi_startproc
 317              		@ args = 0, pretend = 0, frame = 0
 318              		@ frame_needed = 0, uses_anonymous_args = 0
 319              		.loc 1 91 1 is_stmt 0 view .LVU68
 320 0000 08B5     		push	{r3, lr}
 321              		.cfi_def_cfa_offset 8
 322              		.cfi_offset 3, -8
 323              		.cfi_offset 14, -4
 324 0002 0B46     		mov	r3, r1
  92:Drivers/ICP201xx/Icp201xxDriver.c **** 	return inv_icp201xx_serif_read_reg(s, MPUREG_DEVICE_ID, 1, value);
 325              		.loc 1 92 2 is_stmt 1 view .LVU69
 326              		.loc 1 92 9 is_stmt 0 view .LVU70
 327 0004 0122     		movs	r2, #1
 328 0006 0C21     		movs	r1, #12
 329              	.LVL28:
 330              		.loc 1 92 9 view .LVU71
 331 0008 FFF7FEFF 		bl	inv_icp201xx_serif_read_reg
 332              	.LVL29:
  93:Drivers/ICP201xx/Icp201xxDriver.c **** }
 333              		.loc 1 93 1 view .LVU72
 334 000c 08BD     		pop	{r3, pc}
 335              		.cfi_endproc
 336              	.LFE5:
 338              		.section	.text.inv_icp201xx_wr_otp_write_switch,"ax",%progbits
 339              		.align	1
 340              		.global	inv_icp201xx_wr_otp_write_switch
 341              		.syntax unified
 342              		.thumb
 343              		.thumb_func
 345              	inv_icp201xx_wr_otp_write_switch:
 346              	.LVL30:
 347              	.LFB6:
  94:Drivers/ICP201xx/Icp201xxDriver.c **** 
  95:Drivers/ICP201xx/Icp201xxDriver.c **** /********************************************
  96:Drivers/ICP201xx/Icp201xxDriver.c **** Register Name: OTP Config 1
  97:Drivers/ICP201xx/Icp201xxDriver.c **** Register Type: READ/WRITE
ARM GAS  C:\Users\Nathan\AppData\Local\Temp\ccMZZe9L.s 			page 9


  98:Drivers/ICP201xx/Icp201xxDriver.c **** Register Address: 172 (Decimal); AC (Hex)
  99:Drivers/ICP201xx/Icp201xxDriver.c **** ********************************************/
 100:Drivers/ICP201xx/Icp201xxDriver.c **** int inv_icp201xx_wr_otp_write_switch(inv_icp201xx_serif_t  * s,uint8_t new_value)
 101:Drivers/ICP201xx/Icp201xxDriver.c **** {
 348              		.loc 1 101 1 is_stmt 1 view -0
 349              		.cfi_startproc
 350              		@ args = 0, pretend = 0, frame = 8
 351              		@ frame_needed = 0, uses_anonymous_args = 0
 352              		.loc 1 101 1 is_stmt 0 view .LVU74
 353 0000 30B5     		push	{r4, r5, lr}
 354              		.cfi_def_cfa_offset 12
 355              		.cfi_offset 4, -12
 356              		.cfi_offset 5, -8
 357              		.cfi_offset 14, -4
 358 0002 83B0     		sub	sp, sp, #12
 359              		.cfi_def_cfa_offset 24
 360 0004 0446     		mov	r4, r0
 361 0006 0D46     		mov	r5, r1
 102:Drivers/ICP201xx/Icp201xxDriver.c **** 	int status;
 362              		.loc 1 102 2 is_stmt 1 view .LVU75
 103:Drivers/ICP201xx/Icp201xxDriver.c **** 	uint8_t reg_value = 0;
 363              		.loc 1 103 2 view .LVU76
 364              		.loc 1 103 10 is_stmt 0 view .LVU77
 365 0008 0023     		movs	r3, #0
 366 000a 8DF80730 		strb	r3, [sp, #7]
 104:Drivers/ICP201xx/Icp201xxDriver.c **** 	status = inv_icp201xx_serif_read_reg(s, MPUREG_OTP_MTP_OTP_CFG1, 1, &reg_value);
 367              		.loc 1 104 2 is_stmt 1 view .LVU78
 368              		.loc 1 104 11 is_stmt 0 view .LVU79
 369 000e 0DF10703 		add	r3, sp, #7
 370 0012 0122     		movs	r2, #1
 371 0014 AC21     		movs	r1, #172
 372              	.LVL31:
 373              		.loc 1 104 11 view .LVU80
 374 0016 FFF7FEFF 		bl	inv_icp201xx_serif_read_reg
 375              	.LVL32:
 105:Drivers/ICP201xx/Icp201xxDriver.c **** 
 106:Drivers/ICP201xx/Icp201xxDriver.c **** 	if(status)
 376              		.loc 1 106 2 is_stmt 1 view .LVU81
 377              		.loc 1 106 4 is_stmt 0 view .LVU82
 378 001a 08B1     		cbz	r0, .L22
 379              	.LVL33:
 380              	.L19:
 107:Drivers/ICP201xx/Icp201xxDriver.c **** 	return status;
 108:Drivers/ICP201xx/Icp201xxDriver.c **** 
 109:Drivers/ICP201xx/Icp201xxDriver.c **** 	reg_value = ( reg_value & (~BIT_OTP_CONFIG1_WRITE_SWITCH_MASK) ) | ( new_value << BIT_OTP_CONFIG1_
 110:Drivers/ICP201xx/Icp201xxDriver.c **** 
 111:Drivers/ICP201xx/Icp201xxDriver.c **** 	status = inv_icp201xx_serif_write_reg(s, MPUREG_OTP_MTP_OTP_CFG1, 1, &reg_value);
 112:Drivers/ICP201xx/Icp201xxDriver.c **** 
 113:Drivers/ICP201xx/Icp201xxDriver.c **** 	return status;
 114:Drivers/ICP201xx/Icp201xxDriver.c **** 
 115:Drivers/ICP201xx/Icp201xxDriver.c **** }
 381              		.loc 1 115 1 view .LVU83
 382 001c 03B0     		add	sp, sp, #12
 383              		.cfi_remember_state
 384              		.cfi_def_cfa_offset 12
 385              		@ sp needed
 386 001e 30BD     		pop	{r4, r5, pc}
ARM GAS  C:\Users\Nathan\AppData\Local\Temp\ccMZZe9L.s 			page 10


 387              	.LVL34:
 388              	.L22:
 389              		.cfi_restore_state
 109:Drivers/ICP201xx/Icp201xxDriver.c **** 
 390              		.loc 1 109 2 is_stmt 1 view .LVU84
 109:Drivers/ICP201xx/Icp201xxDriver.c **** 
 391              		.loc 1 109 26 is_stmt 0 view .LVU85
 392 0020 9DF80730 		ldrb	r3, [sp, #7]	@ zero_extendqisi2
 109:Drivers/ICP201xx/Icp201xxDriver.c **** 
 393              		.loc 1 109 67 view .LVU86
 394 0024 23F00203 		bic	r3, r3, #2
 395 0028 43EA4503 		orr	r3, r3, r5, lsl #1
 109:Drivers/ICP201xx/Icp201xxDriver.c **** 
 396              		.loc 1 109 12 view .LVU87
 397 002c 8DF80730 		strb	r3, [sp, #7]
 111:Drivers/ICP201xx/Icp201xxDriver.c **** 
 398              		.loc 1 111 2 is_stmt 1 view .LVU88
 111:Drivers/ICP201xx/Icp201xxDriver.c **** 
 399              		.loc 1 111 11 is_stmt 0 view .LVU89
 400 0030 0DF10703 		add	r3, sp, #7
 401              	.LVL35:
 111:Drivers/ICP201xx/Icp201xxDriver.c **** 
 402              		.loc 1 111 11 view .LVU90
 403 0034 0122     		movs	r2, #1
 404 0036 AC21     		movs	r1, #172
 405 0038 2046     		mov	r0, r4
 406 003a FFF7FEFF 		bl	inv_icp201xx_serif_write_reg
 407              	.LVL36:
 113:Drivers/ICP201xx/Icp201xxDriver.c **** 
 408              		.loc 1 113 2 is_stmt 1 view .LVU91
 113:Drivers/ICP201xx/Icp201xxDriver.c **** 
 409              		.loc 1 113 9 is_stmt 0 view .LVU92
 410 003e EDE7     		b	.L19
 411              		.cfi_endproc
 412              	.LFE6:
 414              		.section	.text.inv_icp201xx_wr_otp_enable,"ax",%progbits
 415              		.align	1
 416              		.global	inv_icp201xx_wr_otp_enable
 417              		.syntax unified
 418              		.thumb
 419              		.thumb_func
 421              	inv_icp201xx_wr_otp_enable:
 422              	.LVL37:
 423              	.LFB7:
 116:Drivers/ICP201xx/Icp201xxDriver.c **** 
 117:Drivers/ICP201xx/Icp201xxDriver.c **** int inv_icp201xx_wr_otp_enable(inv_icp201xx_serif_t  * s,uint8_t new_value)
 118:Drivers/ICP201xx/Icp201xxDriver.c **** {
 424              		.loc 1 118 1 is_stmt 1 view -0
 425              		.cfi_startproc
 426              		@ args = 0, pretend = 0, frame = 8
 427              		@ frame_needed = 0, uses_anonymous_args = 0
 428              		.loc 1 118 1 is_stmt 0 view .LVU94
 429 0000 30B5     		push	{r4, r5, lr}
 430              		.cfi_def_cfa_offset 12
 431              		.cfi_offset 4, -12
 432              		.cfi_offset 5, -8
 433              		.cfi_offset 14, -4
ARM GAS  C:\Users\Nathan\AppData\Local\Temp\ccMZZe9L.s 			page 11


 434 0002 83B0     		sub	sp, sp, #12
 435              		.cfi_def_cfa_offset 24
 436 0004 0546     		mov	r5, r0
 437 0006 0C46     		mov	r4, r1
 119:Drivers/ICP201xx/Icp201xxDriver.c **** 	int status;
 438              		.loc 1 119 2 is_stmt 1 view .LVU95
 120:Drivers/ICP201xx/Icp201xxDriver.c **** 	uint8_t reg_value = 0;
 439              		.loc 1 120 2 view .LVU96
 440              		.loc 1 120 10 is_stmt 0 view .LVU97
 441 0008 0023     		movs	r3, #0
 442 000a 8DF80730 		strb	r3, [sp, #7]
 121:Drivers/ICP201xx/Icp201xxDriver.c **** 	status = inv_icp201xx_serif_read_reg(s, MPUREG_OTP_MTP_OTP_CFG1, 1, &reg_value);
 443              		.loc 1 121 2 is_stmt 1 view .LVU98
 444              		.loc 1 121 11 is_stmt 0 view .LVU99
 445 000e 0DF10703 		add	r3, sp, #7
 446 0012 0122     		movs	r2, #1
 447 0014 AC21     		movs	r1, #172
 448              	.LVL38:
 449              		.loc 1 121 11 view .LVU100
 450 0016 FFF7FEFF 		bl	inv_icp201xx_serif_read_reg
 451              	.LVL39:
 122:Drivers/ICP201xx/Icp201xxDriver.c **** 
 123:Drivers/ICP201xx/Icp201xxDriver.c **** 	if(status)
 452              		.loc 1 123 2 is_stmt 1 view .LVU101
 453              		.loc 1 123 4 is_stmt 0 view .LVU102
 454 001a 08B1     		cbz	r0, .L26
 455              	.LVL40:
 456              	.L23:
 124:Drivers/ICP201xx/Icp201xxDriver.c **** 	return status;
 125:Drivers/ICP201xx/Icp201xxDriver.c **** 
 126:Drivers/ICP201xx/Icp201xxDriver.c **** 	reg_value = ( reg_value & (~BIT_OTP_CONFIG1_OTP_ENABLE_MASK) ) | ( new_value  ) ;
 127:Drivers/ICP201xx/Icp201xxDriver.c **** 
 128:Drivers/ICP201xx/Icp201xxDriver.c **** 	status = inv_icp201xx_serif_write_reg(s, MPUREG_OTP_MTP_OTP_CFG1, 1, &reg_value);
 129:Drivers/ICP201xx/Icp201xxDriver.c **** 
 130:Drivers/ICP201xx/Icp201xxDriver.c **** 	return status;
 131:Drivers/ICP201xx/Icp201xxDriver.c **** 
 132:Drivers/ICP201xx/Icp201xxDriver.c **** }
 457              		.loc 1 132 1 view .LVU103
 458 001c 03B0     		add	sp, sp, #12
 459              		.cfi_remember_state
 460              		.cfi_def_cfa_offset 12
 461              		@ sp needed
 462 001e 30BD     		pop	{r4, r5, pc}
 463              	.LVL41:
 464              	.L26:
 465              		.cfi_restore_state
 126:Drivers/ICP201xx/Icp201xxDriver.c **** 
 466              		.loc 1 126 2 is_stmt 1 view .LVU104
 126:Drivers/ICP201xx/Icp201xxDriver.c **** 
 467              		.loc 1 126 26 is_stmt 0 view .LVU105
 468 0020 9DF80730 		ldrb	r3, [sp, #7]	@ zero_extendqisi2
 126:Drivers/ICP201xx/Icp201xxDriver.c **** 
 469              		.loc 1 126 12 view .LVU106
 470 0024 23F00103 		bic	r3, r3, #1
 471 0028 44EA0301 		orr	r1, r4, r3
 472 002c 8DF80710 		strb	r1, [sp, #7]
 128:Drivers/ICP201xx/Icp201xxDriver.c **** 
ARM GAS  C:\Users\Nathan\AppData\Local\Temp\ccMZZe9L.s 			page 12


 473              		.loc 1 128 2 is_stmt 1 view .LVU107
 128:Drivers/ICP201xx/Icp201xxDriver.c **** 
 474              		.loc 1 128 11 is_stmt 0 view .LVU108
 475 0030 0DF10703 		add	r3, sp, #7
 476              	.LVL42:
 128:Drivers/ICP201xx/Icp201xxDriver.c **** 
 477              		.loc 1 128 11 view .LVU109
 478 0034 0122     		movs	r2, #1
 479 0036 AC21     		movs	r1, #172
 480 0038 2846     		mov	r0, r5
 481 003a FFF7FEFF 		bl	inv_icp201xx_serif_write_reg
 482              	.LVL43:
 130:Drivers/ICP201xx/Icp201xxDriver.c **** 
 483              		.loc 1 130 2 is_stmt 1 view .LVU110
 130:Drivers/ICP201xx/Icp201xxDriver.c **** 
 484              		.loc 1 130 9 is_stmt 0 view .LVU111
 485 003e EDE7     		b	.L23
 486              		.cfi_endproc
 487              	.LFE7:
 489              		.section	.text.inv_icp201xx_wr_otp_mr_lsb,"ax",%progbits
 490              		.align	1
 491              		.global	inv_icp201xx_wr_otp_mr_lsb
 492              		.syntax unified
 493              		.thumb
 494              		.thumb_func
 496              	inv_icp201xx_wr_otp_mr_lsb:
 497              	.LVL44:
 498              	.LFB8:
 133:Drivers/ICP201xx/Icp201xxDriver.c **** 
 134:Drivers/ICP201xx/Icp201xxDriver.c **** 
 135:Drivers/ICP201xx/Icp201xxDriver.c **** /********************************************
 136:Drivers/ICP201xx/Icp201xxDriver.c **** Register Name: OTP MR LSB
 137:Drivers/ICP201xx/Icp201xxDriver.c **** Register Type: READ/WRITE
 138:Drivers/ICP201xx/Icp201xxDriver.c **** Register Address: 173 (Decimal); AD (Hex)
 139:Drivers/ICP201xx/Icp201xxDriver.c **** ********************************************/
 140:Drivers/ICP201xx/Icp201xxDriver.c **** int inv_icp201xx_wr_otp_mr_lsb(inv_icp201xx_serif_t  * s,uint8_t new_value)
 141:Drivers/ICP201xx/Icp201xxDriver.c **** {
 499              		.loc 1 141 1 is_stmt 1 view -0
 500              		.cfi_startproc
 501              		@ args = 0, pretend = 0, frame = 8
 502              		@ frame_needed = 0, uses_anonymous_args = 0
 503              		.loc 1 141 1 is_stmt 0 view .LVU113
 504 0000 00B5     		push	{lr}
 505              		.cfi_def_cfa_offset 4
 506              		.cfi_offset 14, -4
 507 0002 83B0     		sub	sp, sp, #12
 508              		.cfi_def_cfa_offset 16
 509 0004 8DF80710 		strb	r1, [sp, #7]
 142:Drivers/ICP201xx/Icp201xxDriver.c **** 	return inv_icp201xx_serif_write_reg(s, MPUREG_OTP_MTP_MR_LSB, 1, &new_value);
 510              		.loc 1 142 2 is_stmt 1 view .LVU114
 511              		.loc 1 142 9 is_stmt 0 view .LVU115
 512 0008 0DF10703 		add	r3, sp, #7
 513 000c 0122     		movs	r2, #1
 514 000e AD21     		movs	r1, #173
 515              	.LVL45:
 516              		.loc 1 142 9 view .LVU116
 517 0010 FFF7FEFF 		bl	inv_icp201xx_serif_write_reg
ARM GAS  C:\Users\Nathan\AppData\Local\Temp\ccMZZe9L.s 			page 13


 518              	.LVL46:
 143:Drivers/ICP201xx/Icp201xxDriver.c **** 	
 144:Drivers/ICP201xx/Icp201xxDriver.c **** }
 519              		.loc 1 144 1 view .LVU117
 520 0014 03B0     		add	sp, sp, #12
 521              		.cfi_def_cfa_offset 4
 522              		@ sp needed
 523 0016 5DF804FB 		ldr	pc, [sp], #4
 524              		.cfi_endproc
 525              	.LFE8:
 527              		.section	.text.inv_icp201xx_wr_otp_mr_msb,"ax",%progbits
 528              		.align	1
 529              		.global	inv_icp201xx_wr_otp_mr_msb
 530              		.syntax unified
 531              		.thumb
 532              		.thumb_func
 534              	inv_icp201xx_wr_otp_mr_msb:
 535              	.LVL47:
 536              	.LFB9:
 145:Drivers/ICP201xx/Icp201xxDriver.c **** 
 146:Drivers/ICP201xx/Icp201xxDriver.c **** /********************************************
 147:Drivers/ICP201xx/Icp201xxDriver.c **** Register Name: OTP MR MSB
 148:Drivers/ICP201xx/Icp201xxDriver.c **** Register Type: READ/WRITE
 149:Drivers/ICP201xx/Icp201xxDriver.c **** Register Address: 174 (Decimal); AE (Hex)
 150:Drivers/ICP201xx/Icp201xxDriver.c **** ********************************************/
 151:Drivers/ICP201xx/Icp201xxDriver.c **** int inv_icp201xx_wr_otp_mr_msb(inv_icp201xx_serif_t  * s,uint8_t new_value)
 152:Drivers/ICP201xx/Icp201xxDriver.c **** {
 537              		.loc 1 152 1 is_stmt 1 view -0
 538              		.cfi_startproc
 539              		@ args = 0, pretend = 0, frame = 8
 540              		@ frame_needed = 0, uses_anonymous_args = 0
 541              		.loc 1 152 1 is_stmt 0 view .LVU119
 542 0000 00B5     		push	{lr}
 543              		.cfi_def_cfa_offset 4
 544              		.cfi_offset 14, -4
 545 0002 83B0     		sub	sp, sp, #12
 546              		.cfi_def_cfa_offset 16
 547 0004 8DF80710 		strb	r1, [sp, #7]
 153:Drivers/ICP201xx/Icp201xxDriver.c **** 	return inv_icp201xx_serif_write_reg(s, MPUREG_OTP_MTP_MR_MSB, 1, &new_value);
 548              		.loc 1 153 2 is_stmt 1 view .LVU120
 549              		.loc 1 153 9 is_stmt 0 view .LVU121
 550 0008 0DF10703 		add	r3, sp, #7
 551 000c 0122     		movs	r2, #1
 552 000e AE21     		movs	r1, #174
 553              	.LVL48:
 554              		.loc 1 153 9 view .LVU122
 555 0010 FFF7FEFF 		bl	inv_icp201xx_serif_write_reg
 556              	.LVL49:
 154:Drivers/ICP201xx/Icp201xxDriver.c **** 	
 155:Drivers/ICP201xx/Icp201xxDriver.c **** }
 557              		.loc 1 155 1 view .LVU123
 558 0014 03B0     		add	sp, sp, #12
 559              		.cfi_def_cfa_offset 4
 560              		@ sp needed
 561 0016 5DF804FB 		ldr	pc, [sp], #4
 562              		.cfi_endproc
 563              	.LFE9:
ARM GAS  C:\Users\Nathan\AppData\Local\Temp\ccMZZe9L.s 			page 14


 565              		.section	.text.inv_icp201xx_wr_otp_mra_lsb,"ax",%progbits
 566              		.align	1
 567              		.global	inv_icp201xx_wr_otp_mra_lsb
 568              		.syntax unified
 569              		.thumb
 570              		.thumb_func
 572              	inv_icp201xx_wr_otp_mra_lsb:
 573              	.LVL50:
 574              	.LFB10:
 156:Drivers/ICP201xx/Icp201xxDriver.c **** 
 157:Drivers/ICP201xx/Icp201xxDriver.c **** /********************************************
 158:Drivers/ICP201xx/Icp201xxDriver.c **** Register Name: OTP MRA LSB
 159:Drivers/ICP201xx/Icp201xxDriver.c **** Register Type: READ/WRITE
 160:Drivers/ICP201xx/Icp201xxDriver.c **** Register Address: 175 (Decimal); AF (Hex)
 161:Drivers/ICP201xx/Icp201xxDriver.c **** ********************************************/
 162:Drivers/ICP201xx/Icp201xxDriver.c **** int inv_icp201xx_wr_otp_mra_lsb(inv_icp201xx_serif_t  * s,uint8_t new_value)
 163:Drivers/ICP201xx/Icp201xxDriver.c **** {
 575              		.loc 1 163 1 is_stmt 1 view -0
 576              		.cfi_startproc
 577              		@ args = 0, pretend = 0, frame = 8
 578              		@ frame_needed = 0, uses_anonymous_args = 0
 579              		.loc 1 163 1 is_stmt 0 view .LVU125
 580 0000 00B5     		push	{lr}
 581              		.cfi_def_cfa_offset 4
 582              		.cfi_offset 14, -4
 583 0002 83B0     		sub	sp, sp, #12
 584              		.cfi_def_cfa_offset 16
 585 0004 8DF80710 		strb	r1, [sp, #7]
 164:Drivers/ICP201xx/Icp201xxDriver.c **** 	return inv_icp201xx_serif_write_reg(s, MPUREG_OTP_MTP_MRA_LSB, 1, &new_value);
 586              		.loc 1 164 2 is_stmt 1 view .LVU126
 587              		.loc 1 164 9 is_stmt 0 view .LVU127
 588 0008 0DF10703 		add	r3, sp, #7
 589 000c 0122     		movs	r2, #1
 590 000e AF21     		movs	r1, #175
 591              	.LVL51:
 592              		.loc 1 164 9 view .LVU128
 593 0010 FFF7FEFF 		bl	inv_icp201xx_serif_write_reg
 594              	.LVL52:
 165:Drivers/ICP201xx/Icp201xxDriver.c **** 	
 166:Drivers/ICP201xx/Icp201xxDriver.c **** }
 595              		.loc 1 166 1 view .LVU129
 596 0014 03B0     		add	sp, sp, #12
 597              		.cfi_def_cfa_offset 4
 598              		@ sp needed
 599 0016 5DF804FB 		ldr	pc, [sp], #4
 600              		.cfi_endproc
 601              	.LFE10:
 603              		.section	.text.inv_icp201xx_rd_otp_mra_lsb,"ax",%progbits
 604              		.align	1
 605              		.global	inv_icp201xx_rd_otp_mra_lsb
 606              		.syntax unified
 607              		.thumb
 608              		.thumb_func
 610              	inv_icp201xx_rd_otp_mra_lsb:
 611              	.LVL53:
 612              	.LFB11:
 167:Drivers/ICP201xx/Icp201xxDriver.c **** int inv_icp201xx_rd_otp_mra_lsb(inv_icp201xx_serif_t  * s, uint8_t *value)
ARM GAS  C:\Users\Nathan\AppData\Local\Temp\ccMZZe9L.s 			page 15


 168:Drivers/ICP201xx/Icp201xxDriver.c **** {
 613              		.loc 1 168 1 is_stmt 1 view -0
 614              		.cfi_startproc
 615              		@ args = 0, pretend = 0, frame = 0
 616              		@ frame_needed = 0, uses_anonymous_args = 0
 617              		.loc 1 168 1 is_stmt 0 view .LVU131
 618 0000 08B5     		push	{r3, lr}
 619              		.cfi_def_cfa_offset 8
 620              		.cfi_offset 3, -8
 621              		.cfi_offset 14, -4
 622 0002 0B46     		mov	r3, r1
 169:Drivers/ICP201xx/Icp201xxDriver.c **** 	return inv_icp201xx_serif_read_reg(s, MPUREG_OTP_MTP_MRA_LSB, 1, value);
 623              		.loc 1 169 2 is_stmt 1 view .LVU132
 624              		.loc 1 169 9 is_stmt 0 view .LVU133
 625 0004 0122     		movs	r2, #1
 626 0006 AF21     		movs	r1, #175
 627              	.LVL54:
 628              		.loc 1 169 9 view .LVU134
 629 0008 FFF7FEFF 		bl	inv_icp201xx_serif_read_reg
 630              	.LVL55:
 170:Drivers/ICP201xx/Icp201xxDriver.c **** }
 631              		.loc 1 170 1 view .LVU135
 632 000c 08BD     		pop	{r3, pc}
 633              		.cfi_endproc
 634              	.LFE11:
 636              		.section	.text.inv_icp201xx_wr_otp_mra_msb,"ax",%progbits
 637              		.align	1
 638              		.global	inv_icp201xx_wr_otp_mra_msb
 639              		.syntax unified
 640              		.thumb
 641              		.thumb_func
 643              	inv_icp201xx_wr_otp_mra_msb:
 644              	.LVL56:
 645              	.LFB12:
 171:Drivers/ICP201xx/Icp201xxDriver.c **** /********************************************
 172:Drivers/ICP201xx/Icp201xxDriver.c **** Register Name: OTP MRA MSB
 173:Drivers/ICP201xx/Icp201xxDriver.c **** Register Type: READ/WRITE
 174:Drivers/ICP201xx/Icp201xxDriver.c **** Register Address: 176 (Decimal); B0 (Hex)
 175:Drivers/ICP201xx/Icp201xxDriver.c **** ********************************************/
 176:Drivers/ICP201xx/Icp201xxDriver.c **** int inv_icp201xx_wr_otp_mra_msb(inv_icp201xx_serif_t  * s,uint8_t new_value)
 177:Drivers/ICP201xx/Icp201xxDriver.c **** {
 646              		.loc 1 177 1 is_stmt 1 view -0
 647              		.cfi_startproc
 648              		@ args = 0, pretend = 0, frame = 8
 649              		@ frame_needed = 0, uses_anonymous_args = 0
 650              		.loc 1 177 1 is_stmt 0 view .LVU137
 651 0000 00B5     		push	{lr}
 652              		.cfi_def_cfa_offset 4
 653              		.cfi_offset 14, -4
 654 0002 83B0     		sub	sp, sp, #12
 655              		.cfi_def_cfa_offset 16
 656 0004 8DF80710 		strb	r1, [sp, #7]
 178:Drivers/ICP201xx/Icp201xxDriver.c **** 	return inv_icp201xx_serif_write_reg(s, MPUREG_OTP_MTP_MRA_MSB, 1, &new_value);
 657              		.loc 1 178 2 is_stmt 1 view .LVU138
 658              		.loc 1 178 9 is_stmt 0 view .LVU139
 659 0008 0DF10703 		add	r3, sp, #7
 660 000c 0122     		movs	r2, #1
ARM GAS  C:\Users\Nathan\AppData\Local\Temp\ccMZZe9L.s 			page 16


 661 000e B021     		movs	r1, #176
 662              	.LVL57:
 663              		.loc 1 178 9 view .LVU140
 664 0010 FFF7FEFF 		bl	inv_icp201xx_serif_write_reg
 665              	.LVL58:
 179:Drivers/ICP201xx/Icp201xxDriver.c **** }
 666              		.loc 1 179 1 view .LVU141
 667 0014 03B0     		add	sp, sp, #12
 668              		.cfi_def_cfa_offset 4
 669              		@ sp needed
 670 0016 5DF804FB 		ldr	pc, [sp], #4
 671              		.cfi_endproc
 672              	.LFE12:
 674              		.section	.text.inv_icp201xx_rd_otp_mra_msb,"ax",%progbits
 675              		.align	1
 676              		.global	inv_icp201xx_rd_otp_mra_msb
 677              		.syntax unified
 678              		.thumb
 679              		.thumb_func
 681              	inv_icp201xx_rd_otp_mra_msb:
 682              	.LVL59:
 683              	.LFB13:
 180:Drivers/ICP201xx/Icp201xxDriver.c **** 
 181:Drivers/ICP201xx/Icp201xxDriver.c **** int inv_icp201xx_rd_otp_mra_msb(inv_icp201xx_serif_t  * s, uint8_t *value)
 182:Drivers/ICP201xx/Icp201xxDriver.c **** {
 684              		.loc 1 182 1 is_stmt 1 view -0
 685              		.cfi_startproc
 686              		@ args = 0, pretend = 0, frame = 0
 687              		@ frame_needed = 0, uses_anonymous_args = 0
 688              		.loc 1 182 1 is_stmt 0 view .LVU143
 689 0000 08B5     		push	{r3, lr}
 690              		.cfi_def_cfa_offset 8
 691              		.cfi_offset 3, -8
 692              		.cfi_offset 14, -4
 693 0002 0B46     		mov	r3, r1
 183:Drivers/ICP201xx/Icp201xxDriver.c **** 	return inv_icp201xx_serif_read_reg(s, MPUREG_OTP_MTP_MRA_MSB, 1, value);
 694              		.loc 1 183 2 is_stmt 1 view .LVU144
 695              		.loc 1 183 9 is_stmt 0 view .LVU145
 696 0004 0122     		movs	r2, #1
 697 0006 B021     		movs	r1, #176
 698              	.LVL60:
 699              		.loc 1 183 9 view .LVU146
 700 0008 FFF7FEFF 		bl	inv_icp201xx_serif_read_reg
 701              	.LVL61:
 184:Drivers/ICP201xx/Icp201xxDriver.c **** }
 702              		.loc 1 184 1 view .LVU147
 703 000c 08BD     		pop	{r3, pc}
 704              		.cfi_endproc
 705              	.LFE13:
 707              		.section	.text.inv_icp201xx_wr_otp_mrb_lsb,"ax",%progbits
 708              		.align	1
 709              		.global	inv_icp201xx_wr_otp_mrb_lsb
 710              		.syntax unified
 711              		.thumb
 712              		.thumb_func
 714              	inv_icp201xx_wr_otp_mrb_lsb:
 715              	.LVL62:
ARM GAS  C:\Users\Nathan\AppData\Local\Temp\ccMZZe9L.s 			page 17


 716              	.LFB14:
 185:Drivers/ICP201xx/Icp201xxDriver.c **** 
 186:Drivers/ICP201xx/Icp201xxDriver.c **** 
 187:Drivers/ICP201xx/Icp201xxDriver.c **** /********************************************
 188:Drivers/ICP201xx/Icp201xxDriver.c **** Register Name: OTP MRB LSB
 189:Drivers/ICP201xx/Icp201xxDriver.c **** Register Type: READ/WRITE
 190:Drivers/ICP201xx/Icp201xxDriver.c **** Register Address: 177 (Decimal); B1 (Hex)
 191:Drivers/ICP201xx/Icp201xxDriver.c **** ********************************************/
 192:Drivers/ICP201xx/Icp201xxDriver.c **** int inv_icp201xx_wr_otp_mrb_lsb(inv_icp201xx_serif_t  * s,uint8_t new_value)
 193:Drivers/ICP201xx/Icp201xxDriver.c **** {
 717              		.loc 1 193 1 is_stmt 1 view -0
 718              		.cfi_startproc
 719              		@ args = 0, pretend = 0, frame = 8
 720              		@ frame_needed = 0, uses_anonymous_args = 0
 721              		.loc 1 193 1 is_stmt 0 view .LVU149
 722 0000 00B5     		push	{lr}
 723              		.cfi_def_cfa_offset 4
 724              		.cfi_offset 14, -4
 725 0002 83B0     		sub	sp, sp, #12
 726              		.cfi_def_cfa_offset 16
 727 0004 8DF80710 		strb	r1, [sp, #7]
 194:Drivers/ICP201xx/Icp201xxDriver.c **** 	return inv_icp201xx_serif_write_reg(s, MPUREG_OTP_MTP_MRB_LSB, 1, &new_value);
 728              		.loc 1 194 2 is_stmt 1 view .LVU150
 729              		.loc 1 194 9 is_stmt 0 view .LVU151
 730 0008 0DF10703 		add	r3, sp, #7
 731 000c 0122     		movs	r2, #1
 732 000e B121     		movs	r1, #177
 733              	.LVL63:
 734              		.loc 1 194 9 view .LVU152
 735 0010 FFF7FEFF 		bl	inv_icp201xx_serif_write_reg
 736              	.LVL64:
 195:Drivers/ICP201xx/Icp201xxDriver.c **** }
 737              		.loc 1 195 1 view .LVU153
 738 0014 03B0     		add	sp, sp, #12
 739              		.cfi_def_cfa_offset 4
 740              		@ sp needed
 741 0016 5DF804FB 		ldr	pc, [sp], #4
 742              		.cfi_endproc
 743              	.LFE14:
 745              		.section	.text.inv_icp201xx_wr_otp_mrb_msb,"ax",%progbits
 746              		.align	1
 747              		.global	inv_icp201xx_wr_otp_mrb_msb
 748              		.syntax unified
 749              		.thumb
 750              		.thumb_func
 752              	inv_icp201xx_wr_otp_mrb_msb:
 753              	.LVL65:
 754              	.LFB15:
 196:Drivers/ICP201xx/Icp201xxDriver.c **** /********************************************
 197:Drivers/ICP201xx/Icp201xxDriver.c **** Register Name: OTP MRB MSB
 198:Drivers/ICP201xx/Icp201xxDriver.c **** Register Type: READ/WRITE
 199:Drivers/ICP201xx/Icp201xxDriver.c **** Register Address: 178 (Decimal); B2 (Hex)
 200:Drivers/ICP201xx/Icp201xxDriver.c **** ********************************************/
 201:Drivers/ICP201xx/Icp201xxDriver.c **** int inv_icp201xx_wr_otp_mrb_msb(inv_icp201xx_serif_t  * s,uint8_t new_value)
 202:Drivers/ICP201xx/Icp201xxDriver.c **** {
 755              		.loc 1 202 1 is_stmt 1 view -0
 756              		.cfi_startproc
ARM GAS  C:\Users\Nathan\AppData\Local\Temp\ccMZZe9L.s 			page 18


 757              		@ args = 0, pretend = 0, frame = 8
 758              		@ frame_needed = 0, uses_anonymous_args = 0
 759              		.loc 1 202 1 is_stmt 0 view .LVU155
 760 0000 00B5     		push	{lr}
 761              		.cfi_def_cfa_offset 4
 762              		.cfi_offset 14, -4
 763 0002 83B0     		sub	sp, sp, #12
 764              		.cfi_def_cfa_offset 16
 765 0004 8DF80710 		strb	r1, [sp, #7]
 203:Drivers/ICP201xx/Icp201xxDriver.c **** 	return inv_icp201xx_serif_write_reg(s, MPUREG_OTP_MTP_MRB_MSB, 1, &new_value);
 766              		.loc 1 203 2 is_stmt 1 view .LVU156
 767              		.loc 1 203 9 is_stmt 0 view .LVU157
 768 0008 0DF10703 		add	r3, sp, #7
 769 000c 0122     		movs	r2, #1
 770 000e B221     		movs	r1, #178
 771              	.LVL66:
 772              		.loc 1 203 9 view .LVU158
 773 0010 FFF7FEFF 		bl	inv_icp201xx_serif_write_reg
 774              	.LVL67:
 204:Drivers/ICP201xx/Icp201xxDriver.c **** }
 775              		.loc 1 204 1 view .LVU159
 776 0014 03B0     		add	sp, sp, #12
 777              		.cfi_def_cfa_offset 4
 778              		@ sp needed
 779 0016 5DF804FB 		ldr	pc, [sp], #4
 780              		.cfi_endproc
 781              	.LFE15:
 783              		.section	.text.inv_icp201xx_wr_otp_addr,"ax",%progbits
 784              		.align	1
 785              		.global	inv_icp201xx_wr_otp_addr
 786              		.syntax unified
 787              		.thumb
 788              		.thumb_func
 790              	inv_icp201xx_wr_otp_addr:
 791              	.LVL68:
 792              	.LFB16:
 205:Drivers/ICP201xx/Icp201xxDriver.c **** 
 206:Drivers/ICP201xx/Icp201xxDriver.c **** /********************************************
 207:Drivers/ICP201xx/Icp201xxDriver.c **** Register Name: OTP ADDR
 208:Drivers/ICP201xx/Icp201xxDriver.c **** Register Type: READ/WRITE
 209:Drivers/ICP201xx/Icp201xxDriver.c **** Register Address: 181 (Decimal); B5 (Hex)
 210:Drivers/ICP201xx/Icp201xxDriver.c **** ********************************************/
 211:Drivers/ICP201xx/Icp201xxDriver.c **** int inv_icp201xx_wr_otp_addr(inv_icp201xx_serif_t  * s,uint8_t new_value)
 212:Drivers/ICP201xx/Icp201xxDriver.c **** {
 793              		.loc 1 212 1 is_stmt 1 view -0
 794              		.cfi_startproc
 795              		@ args = 0, pretend = 0, frame = 8
 796              		@ frame_needed = 0, uses_anonymous_args = 0
 797              		.loc 1 212 1 is_stmt 0 view .LVU161
 798 0000 00B5     		push	{lr}
 799              		.cfi_def_cfa_offset 4
 800              		.cfi_offset 14, -4
 801 0002 83B0     		sub	sp, sp, #12
 802              		.cfi_def_cfa_offset 16
 803 0004 8DF80710 		strb	r1, [sp, #7]
 213:Drivers/ICP201xx/Icp201xxDriver.c **** 	return inv_icp201xx_serif_write_reg(s, MPUREG_OTP_MTP_OTP_ADDR, 1, &new_value);
 804              		.loc 1 213 2 is_stmt 1 view .LVU162
ARM GAS  C:\Users\Nathan\AppData\Local\Temp\ccMZZe9L.s 			page 19


 805              		.loc 1 213 9 is_stmt 0 view .LVU163
 806 0008 0DF10703 		add	r3, sp, #7
 807 000c 0122     		movs	r2, #1
 808 000e B521     		movs	r1, #181
 809              	.LVL69:
 810              		.loc 1 213 9 view .LVU164
 811 0010 FFF7FEFF 		bl	inv_icp201xx_serif_write_reg
 812              	.LVL70:
 214:Drivers/ICP201xx/Icp201xxDriver.c **** }
 813              		.loc 1 214 1 view .LVU165
 814 0014 03B0     		add	sp, sp, #12
 815              		.cfi_def_cfa_offset 4
 816              		@ sp needed
 817 0016 5DF804FB 		ldr	pc, [sp], #4
 818              		.cfi_endproc
 819              	.LFE16:
 821              		.section	.text.inv_icp201xx_rd_otp_addr,"ax",%progbits
 822              		.align	1
 823              		.global	inv_icp201xx_rd_otp_addr
 824              		.syntax unified
 825              		.thumb
 826              		.thumb_func
 828              	inv_icp201xx_rd_otp_addr:
 829              	.LVL71:
 830              	.LFB17:
 215:Drivers/ICP201xx/Icp201xxDriver.c **** 
 216:Drivers/ICP201xx/Icp201xxDriver.c **** int inv_icp201xx_rd_otp_addr(inv_icp201xx_serif_t  * s, uint8_t *value)
 217:Drivers/ICP201xx/Icp201xxDriver.c **** {
 831              		.loc 1 217 1 is_stmt 1 view -0
 832              		.cfi_startproc
 833              		@ args = 0, pretend = 0, frame = 0
 834              		@ frame_needed = 0, uses_anonymous_args = 0
 835              		.loc 1 217 1 is_stmt 0 view .LVU167
 836 0000 08B5     		push	{r3, lr}
 837              		.cfi_def_cfa_offset 8
 838              		.cfi_offset 3, -8
 839              		.cfi_offset 14, -4
 840 0002 0B46     		mov	r3, r1
 218:Drivers/ICP201xx/Icp201xxDriver.c **** 	return inv_icp201xx_serif_read_reg(s, MPUREG_OTP_MTP_OTP_ADDR, 1, value);
 841              		.loc 1 218 2 is_stmt 1 view .LVU168
 842              		.loc 1 218 9 is_stmt 0 view .LVU169
 843 0004 0122     		movs	r2, #1
 844 0006 B521     		movs	r1, #181
 845              	.LVL72:
 846              		.loc 1 218 9 view .LVU170
 847 0008 FFF7FEFF 		bl	inv_icp201xx_serif_read_reg
 848              	.LVL73:
 219:Drivers/ICP201xx/Icp201xxDriver.c **** }
 849              		.loc 1 219 1 view .LVU171
 850 000c 08BD     		pop	{r3, pc}
 851              		.cfi_endproc
 852              	.LFE17:
 854              		.section	.text.inv_icp201xx_wr_otp_cmd,"ax",%progbits
 855              		.align	1
 856              		.global	inv_icp201xx_wr_otp_cmd
 857              		.syntax unified
 858              		.thumb
ARM GAS  C:\Users\Nathan\AppData\Local\Temp\ccMZZe9L.s 			page 20


 859              		.thumb_func
 861              	inv_icp201xx_wr_otp_cmd:
 862              	.LVL74:
 863              	.LFB18:
 220:Drivers/ICP201xx/Icp201xxDriver.c **** 
 221:Drivers/ICP201xx/Icp201xxDriver.c **** /********************************************
 222:Drivers/ICP201xx/Icp201xxDriver.c **** Register Name: OTP CMD
 223:Drivers/ICP201xx/Icp201xxDriver.c **** Register Type: READ/WRITE
 224:Drivers/ICP201xx/Icp201xxDriver.c **** Register Address: 182 (Decimal); B6 (Hex)
 225:Drivers/ICP201xx/Icp201xxDriver.c **** ********************************************/
 226:Drivers/ICP201xx/Icp201xxDriver.c **** int inv_icp201xx_wr_otp_cmd(inv_icp201xx_serif_t  * s,uint8_t new_value)
 227:Drivers/ICP201xx/Icp201xxDriver.c **** {
 864              		.loc 1 227 1 is_stmt 1 view -0
 865              		.cfi_startproc
 866              		@ args = 0, pretend = 0, frame = 8
 867              		@ frame_needed = 0, uses_anonymous_args = 0
 868              		.loc 1 227 1 is_stmt 0 view .LVU173
 869 0000 00B5     		push	{lr}
 870              		.cfi_def_cfa_offset 4
 871              		.cfi_offset 14, -4
 872 0002 83B0     		sub	sp, sp, #12
 873              		.cfi_def_cfa_offset 16
 874 0004 8DF80710 		strb	r1, [sp, #7]
 228:Drivers/ICP201xx/Icp201xxDriver.c **** 	return inv_icp201xx_serif_write_reg(s, MPUREG_OTP_MTP_OTP_CMD, 1, &new_value);
 875              		.loc 1 228 2 is_stmt 1 view .LVU174
 876              		.loc 1 228 9 is_stmt 0 view .LVU175
 877 0008 0DF10703 		add	r3, sp, #7
 878 000c 0122     		movs	r2, #1
 879 000e B621     		movs	r1, #182
 880              	.LVL75:
 881              		.loc 1 228 9 view .LVU176
 882 0010 FFF7FEFF 		bl	inv_icp201xx_serif_write_reg
 883              	.LVL76:
 229:Drivers/ICP201xx/Icp201xxDriver.c **** }
 884              		.loc 1 229 1 view .LVU177
 885 0014 03B0     		add	sp, sp, #12
 886              		.cfi_def_cfa_offset 4
 887              		@ sp needed
 888 0016 5DF804FB 		ldr	pc, [sp], #4
 889              		.cfi_endproc
 890              	.LFE18:
 892              		.section	.text.inv_icp201xx_rd_otp_cmd,"ax",%progbits
 893              		.align	1
 894              		.global	inv_icp201xx_rd_otp_cmd
 895              		.syntax unified
 896              		.thumb
 897              		.thumb_func
 899              	inv_icp201xx_rd_otp_cmd:
 900              	.LVL77:
 901              	.LFB19:
 230:Drivers/ICP201xx/Icp201xxDriver.c **** 
 231:Drivers/ICP201xx/Icp201xxDriver.c **** int inv_icp201xx_rd_otp_cmd(inv_icp201xx_serif_t  * s, uint8_t *value)
 232:Drivers/ICP201xx/Icp201xxDriver.c **** {
 902              		.loc 1 232 1 is_stmt 1 view -0
 903              		.cfi_startproc
 904              		@ args = 0, pretend = 0, frame = 0
 905              		@ frame_needed = 0, uses_anonymous_args = 0
ARM GAS  C:\Users\Nathan\AppData\Local\Temp\ccMZZe9L.s 			page 21


 906              		.loc 1 232 1 is_stmt 0 view .LVU179
 907 0000 08B5     		push	{r3, lr}
 908              		.cfi_def_cfa_offset 8
 909              		.cfi_offset 3, -8
 910              		.cfi_offset 14, -4
 911 0002 0B46     		mov	r3, r1
 233:Drivers/ICP201xx/Icp201xxDriver.c **** 	return inv_icp201xx_serif_read_reg(s, MPUREG_OTP_MTP_OTP_CMD, 1, value);
 912              		.loc 1 233 2 is_stmt 1 view .LVU180
 913              		.loc 1 233 9 is_stmt 0 view .LVU181
 914 0004 0122     		movs	r2, #1
 915 0006 B621     		movs	r1, #182
 916              	.LVL78:
 917              		.loc 1 233 9 view .LVU182
 918 0008 FFF7FEFF 		bl	inv_icp201xx_serif_read_reg
 919              	.LVL79:
 234:Drivers/ICP201xx/Icp201xxDriver.c **** }
 920              		.loc 1 234 1 view .LVU183
 921 000c 08BD     		pop	{r3, pc}
 922              		.cfi_endproc
 923              	.LFE19:
 925              		.section	.text.inv_icp201xx_rd_otp_reg_data,"ax",%progbits
 926              		.align	1
 927              		.global	inv_icp201xx_rd_otp_reg_data
 928              		.syntax unified
 929              		.thumb
 930              		.thumb_func
 932              	inv_icp201xx_rd_otp_reg_data:
 933              	.LVL80:
 934              	.LFB20:
 235:Drivers/ICP201xx/Icp201xxDriver.c **** 
 236:Drivers/ICP201xx/Icp201xxDriver.c **** /********************************************
 237:Drivers/ICP201xx/Icp201xxDriver.c **** Register Name: OTP Read Reg
 238:Drivers/ICP201xx/Icp201xxDriver.c **** Register Type: READ
 239:Drivers/ICP201xx/Icp201xxDriver.c **** Register Address: 184 (Decimal); B8 (Hex)
 240:Drivers/ICP201xx/Icp201xxDriver.c **** ********************************************/
 241:Drivers/ICP201xx/Icp201xxDriver.c **** 
 242:Drivers/ICP201xx/Icp201xxDriver.c **** int inv_icp201xx_rd_otp_reg_data(inv_icp201xx_serif_t  * s, uint8_t *value)
 243:Drivers/ICP201xx/Icp201xxDriver.c **** {
 935              		.loc 1 243 1 is_stmt 1 view -0
 936              		.cfi_startproc
 937              		@ args = 0, pretend = 0, frame = 0
 938              		@ frame_needed = 0, uses_anonymous_args = 0
 939              		.loc 1 243 1 is_stmt 0 view .LVU185
 940 0000 08B5     		push	{r3, lr}
 941              		.cfi_def_cfa_offset 8
 942              		.cfi_offset 3, -8
 943              		.cfi_offset 14, -4
 944 0002 0B46     		mov	r3, r1
 244:Drivers/ICP201xx/Icp201xxDriver.c **** 	return inv_icp201xx_serif_read_reg(s, MPUREG_OTP_MTP_RD_DATA, 1, value);
 945              		.loc 1 244 2 is_stmt 1 view .LVU186
 946              		.loc 1 244 9 is_stmt 0 view .LVU187
 947 0004 0122     		movs	r2, #1
 948 0006 B821     		movs	r1, #184
 949              	.LVL81:
 950              		.loc 1 244 9 view .LVU188
 951 0008 FFF7FEFF 		bl	inv_icp201xx_serif_read_reg
 952              	.LVL82:
ARM GAS  C:\Users\Nathan\AppData\Local\Temp\ccMZZe9L.s 			page 22


 245:Drivers/ICP201xx/Icp201xxDriver.c **** }
 953              		.loc 1 245 1 view .LVU189
 954 000c 08BD     		pop	{r3, pc}
 955              		.cfi_endproc
 956              	.LFE20:
 958              		.section	.text.inv_icp201xx_rd_otp_status,"ax",%progbits
 959              		.align	1
 960              		.global	inv_icp201xx_rd_otp_status
 961              		.syntax unified
 962              		.thumb
 963              		.thumb_func
 965              	inv_icp201xx_rd_otp_status:
 966              	.LVL83:
 967              	.LFB21:
 246:Drivers/ICP201xx/Icp201xxDriver.c **** 
 247:Drivers/ICP201xx/Icp201xxDriver.c **** /********************************************
 248:Drivers/ICP201xx/Icp201xxDriver.c **** Register Name: OTP status
 249:Drivers/ICP201xx/Icp201xxDriver.c **** Register Type: READ
 250:Drivers/ICP201xx/Icp201xxDriver.c **** Register Address: 185 (Decimal); B9 (Hex)
 251:Drivers/ICP201xx/Icp201xxDriver.c **** ********************************************/
 252:Drivers/ICP201xx/Icp201xxDriver.c **** int inv_icp201xx_rd_otp_status(inv_icp201xx_serif_t  * s, uint8_t *value)
 253:Drivers/ICP201xx/Icp201xxDriver.c **** {
 968              		.loc 1 253 1 is_stmt 1 view -0
 969              		.cfi_startproc
 970              		@ args = 0, pretend = 0, frame = 0
 971              		@ frame_needed = 0, uses_anonymous_args = 0
 972              		.loc 1 253 1 is_stmt 0 view .LVU191
 973 0000 08B5     		push	{r3, lr}
 974              		.cfi_def_cfa_offset 8
 975              		.cfi_offset 3, -8
 976              		.cfi_offset 14, -4
 977 0002 0B46     		mov	r3, r1
 254:Drivers/ICP201xx/Icp201xxDriver.c **** 	return inv_icp201xx_serif_read_reg(s, MPUREG_OTP_MTP_OTP_STATUS, 1, value);
 978              		.loc 1 254 2 is_stmt 1 view .LVU192
 979              		.loc 1 254 9 is_stmt 0 view .LVU193
 980 0004 0122     		movs	r2, #1
 981 0006 B921     		movs	r1, #185
 982              	.LVL84:
 983              		.loc 1 254 9 view .LVU194
 984 0008 FFF7FEFF 		bl	inv_icp201xx_serif_read_reg
 985              	.LVL85:
 255:Drivers/ICP201xx/Icp201xxDriver.c **** }
 986              		.loc 1 255 1 view .LVU195
 987 000c 08BD     		pop	{r3, pc}
 988              		.cfi_endproc
 989              	.LFE21:
 991              		.section	.text.inv_icp201xx_wr_otp_dbg2_reset,"ax",%progbits
 992              		.align	1
 993              		.global	inv_icp201xx_wr_otp_dbg2_reset
 994              		.syntax unified
 995              		.thumb
 996              		.thumb_func
 998              	inv_icp201xx_wr_otp_dbg2_reset:
 999              	.LVL86:
 1000              	.LFB22:
 256:Drivers/ICP201xx/Icp201xxDriver.c **** 
 257:Drivers/ICP201xx/Icp201xxDriver.c **** /********************************************
ARM GAS  C:\Users\Nathan\AppData\Local\Temp\ccMZZe9L.s 			page 23


 258:Drivers/ICP201xx/Icp201xxDriver.c **** Register Name: OTP Debug2
 259:Drivers/ICP201xx/Icp201xxDriver.c **** Register Type: READ/WRITE
 260:Drivers/ICP201xx/Icp201xxDriver.c **** Register Address:  180(Decimal); BC (Hex)
 261:Drivers/ICP201xx/Icp201xxDriver.c **** ********************************************/
 262:Drivers/ICP201xx/Icp201xxDriver.c **** int inv_icp201xx_wr_otp_dbg2_reset(inv_icp201xx_serif_t  * s,uint8_t new_value)
 263:Drivers/ICP201xx/Icp201xxDriver.c **** {
 1001              		.loc 1 263 1 is_stmt 1 view -0
 1002              		.cfi_startproc
 1003              		@ args = 0, pretend = 0, frame = 8
 1004              		@ frame_needed = 0, uses_anonymous_args = 0
 1005              		.loc 1 263 1 is_stmt 0 view .LVU197
 1006 0000 30B5     		push	{r4, r5, lr}
 1007              		.cfi_def_cfa_offset 12
 1008              		.cfi_offset 4, -12
 1009              		.cfi_offset 5, -8
 1010              		.cfi_offset 14, -4
 1011 0002 83B0     		sub	sp, sp, #12
 1012              		.cfi_def_cfa_offset 24
 1013 0004 0446     		mov	r4, r0
 1014 0006 0D46     		mov	r5, r1
 264:Drivers/ICP201xx/Icp201xxDriver.c **** 	int status;
 1015              		.loc 1 264 2 is_stmt 1 view .LVU198
 265:Drivers/ICP201xx/Icp201xxDriver.c **** 	uint8_t reg_value = 0;
 1016              		.loc 1 265 2 view .LVU199
 1017              		.loc 1 265 10 is_stmt 0 view .LVU200
 1018 0008 0023     		movs	r3, #0
 1019 000a 8DF80730 		strb	r3, [sp, #7]
 266:Drivers/ICP201xx/Icp201xxDriver.c **** 	status = inv_icp201xx_serif_read_reg(s, MPUREG_OTP_DEBUG2, 1, &reg_value);
 1020              		.loc 1 266 2 is_stmt 1 view .LVU201
 1021              		.loc 1 266 11 is_stmt 0 view .LVU202
 1022 000e 0DF10703 		add	r3, sp, #7
 1023 0012 0122     		movs	r2, #1
 1024 0014 BC21     		movs	r1, #188
 1025              	.LVL87:
 1026              		.loc 1 266 11 view .LVU203
 1027 0016 FFF7FEFF 		bl	inv_icp201xx_serif_read_reg
 1028              	.LVL88:
 267:Drivers/ICP201xx/Icp201xxDriver.c **** 
 268:Drivers/ICP201xx/Icp201xxDriver.c **** 	if(status)
 1029              		.loc 1 268 2 is_stmt 1 view .LVU204
 1030              		.loc 1 268 4 is_stmt 0 view .LVU205
 1031 001a 08B1     		cbz	r0, .L58
 1032              	.LVL89:
 1033              	.L55:
 269:Drivers/ICP201xx/Icp201xxDriver.c **** 	return status;
 270:Drivers/ICP201xx/Icp201xxDriver.c **** 
 271:Drivers/ICP201xx/Icp201xxDriver.c **** 	reg_value = ( reg_value & (~BIT_OTP_DBG2_RESET_MASK) ) | ( new_value << BIT_OTP_DBG2_RESET_POS  ) 
 272:Drivers/ICP201xx/Icp201xxDriver.c **** 
 273:Drivers/ICP201xx/Icp201xxDriver.c **** 	status = inv_icp201xx_serif_write_reg(s, MPUREG_OTP_DEBUG2, 1, &reg_value);
 274:Drivers/ICP201xx/Icp201xxDriver.c **** 
 275:Drivers/ICP201xx/Icp201xxDriver.c **** 	return status;
 276:Drivers/ICP201xx/Icp201xxDriver.c **** 
 277:Drivers/ICP201xx/Icp201xxDriver.c **** }
 1034              		.loc 1 277 1 view .LVU206
 1035 001c 03B0     		add	sp, sp, #12
 1036              		.cfi_remember_state
 1037              		.cfi_def_cfa_offset 12
ARM GAS  C:\Users\Nathan\AppData\Local\Temp\ccMZZe9L.s 			page 24


 1038              		@ sp needed
 1039 001e 30BD     		pop	{r4, r5, pc}
 1040              	.LVL90:
 1041              	.L58:
 1042              		.cfi_restore_state
 271:Drivers/ICP201xx/Icp201xxDriver.c **** 
 1043              		.loc 1 271 2 is_stmt 1 view .LVU207
 271:Drivers/ICP201xx/Icp201xxDriver.c **** 
 1044              		.loc 1 271 26 is_stmt 0 view .LVU208
 1045 0020 9DF80730 		ldrb	r3, [sp, #7]	@ zero_extendqisi2
 271:Drivers/ICP201xx/Icp201xxDriver.c **** 
 1046              		.loc 1 271 57 view .LVU209
 1047 0024 03F07F03 		and	r3, r3, #127
 1048 0028 43EAC513 		orr	r3, r3, r5, lsl #7
 271:Drivers/ICP201xx/Icp201xxDriver.c **** 
 1049              		.loc 1 271 12 view .LVU210
 1050 002c 8DF80730 		strb	r3, [sp, #7]
 273:Drivers/ICP201xx/Icp201xxDriver.c **** 
 1051              		.loc 1 273 2 is_stmt 1 view .LVU211
 273:Drivers/ICP201xx/Icp201xxDriver.c **** 
 1052              		.loc 1 273 11 is_stmt 0 view .LVU212
 1053 0030 0DF10703 		add	r3, sp, #7
 1054              	.LVL91:
 273:Drivers/ICP201xx/Icp201xxDriver.c **** 
 1055              		.loc 1 273 11 view .LVU213
 1056 0034 0122     		movs	r2, #1
 1057 0036 BC21     		movs	r1, #188
 1058 0038 2046     		mov	r0, r4
 1059 003a FFF7FEFF 		bl	inv_icp201xx_serif_write_reg
 1060              	.LVL92:
 275:Drivers/ICP201xx/Icp201xxDriver.c **** 
 1061              		.loc 1 275 2 is_stmt 1 view .LVU214
 275:Drivers/ICP201xx/Icp201xxDriver.c **** 
 1062              		.loc 1 275 9 is_stmt 0 view .LVU215
 1063 003e EDE7     		b	.L55
 1064              		.cfi_endproc
 1065              	.LFE22:
 1067              		.section	.text.inv_icp201xx_wr_master_lock,"ax",%progbits
 1068              		.align	1
 1069              		.global	inv_icp201xx_wr_master_lock
 1070              		.syntax unified
 1071              		.thumb
 1072              		.thumb_func
 1074              	inv_icp201xx_wr_master_lock:
 1075              	.LVL93:
 1076              	.LFB23:
 278:Drivers/ICP201xx/Icp201xxDriver.c **** 
 279:Drivers/ICP201xx/Icp201xxDriver.c **** /********************************************
 280:Drivers/ICP201xx/Icp201xxDriver.c **** Register Name: Master lock
 281:Drivers/ICP201xx/Icp201xxDriver.c **** Register Type: WRITE
 282:Drivers/ICP201xx/Icp201xxDriver.c **** Register Address:  190(Decimal); BE (Hex)
 283:Drivers/ICP201xx/Icp201xxDriver.c **** ********************************************/
 284:Drivers/ICP201xx/Icp201xxDriver.c **** int inv_icp201xx_wr_master_lock(inv_icp201xx_serif_t  * s,uint8_t new_value)
 285:Drivers/ICP201xx/Icp201xxDriver.c **** {
 1077              		.loc 1 285 1 is_stmt 1 view -0
 1078              		.cfi_startproc
 1079              		@ args = 0, pretend = 0, frame = 8
ARM GAS  C:\Users\Nathan\AppData\Local\Temp\ccMZZe9L.s 			page 25


 1080              		@ frame_needed = 0, uses_anonymous_args = 0
 1081              		.loc 1 285 1 is_stmt 0 view .LVU217
 1082 0000 00B5     		push	{lr}
 1083              		.cfi_def_cfa_offset 4
 1084              		.cfi_offset 14, -4
 1085 0002 83B0     		sub	sp, sp, #12
 1086              		.cfi_def_cfa_offset 16
 1087 0004 8DF80710 		strb	r1, [sp, #7]
 286:Drivers/ICP201xx/Icp201xxDriver.c **** 	return inv_icp201xx_serif_write_reg(s, MPUREG_MASTER_LOCK, 1, &new_value);
 1088              		.loc 1 286 2 is_stmt 1 view .LVU218
 1089              		.loc 1 286 9 is_stmt 0 view .LVU219
 1090 0008 0DF10703 		add	r3, sp, #7
 1091 000c 0122     		movs	r2, #1
 1092 000e BE21     		movs	r1, #190
 1093              	.LVL94:
 1094              		.loc 1 286 9 view .LVU220
 1095 0010 FFF7FEFF 		bl	inv_icp201xx_serif_write_reg
 1096              	.LVL95:
 287:Drivers/ICP201xx/Icp201xxDriver.c **** }
 1097              		.loc 1 287 1 view .LVU221
 1098 0014 03B0     		add	sp, sp, #12
 1099              		.cfi_def_cfa_offset 4
 1100              		@ sp needed
 1101 0016 5DF804FB 		ldr	pc, [sp], #4
 1102              		.cfi_endproc
 1103              	.LFE23:
 1105              		.section	.text.inv_icp201xx_rd_boot_up_status,"ax",%progbits
 1106              		.align	1
 1107              		.global	inv_icp201xx_rd_boot_up_status
 1108              		.syntax unified
 1109              		.thumb
 1110              		.thumb_func
 1112              	inv_icp201xx_rd_boot_up_status:
 1113              	.LVL96:
 1114              	.LFB24:
 288:Drivers/ICP201xx/Icp201xxDriver.c **** 
 289:Drivers/ICP201xx/Icp201xxDriver.c **** /********************************************
 290:Drivers/ICP201xx/Icp201xxDriver.c **** Register Name: OTP STATUS2
 291:Drivers/ICP201xx/Icp201xxDriver.c **** Register Type: WRITE
 292:Drivers/ICP201xx/Icp201xxDriver.c **** Register Address:  191(Decimal); BF (Hex)
 293:Drivers/ICP201xx/Icp201xxDriver.c **** ********************************************/
 294:Drivers/ICP201xx/Icp201xxDriver.c **** int inv_icp201xx_rd_boot_up_status (inv_icp201xx_serif_t  * s, uint8_t *value)
 295:Drivers/ICP201xx/Icp201xxDriver.c **** {
 1115              		.loc 1 295 1 is_stmt 1 view -0
 1116              		.cfi_startproc
 1117              		@ args = 0, pretend = 0, frame = 8
 1118              		@ frame_needed = 0, uses_anonymous_args = 0
 1119              		.loc 1 295 1 is_stmt 0 view .LVU223
 1120 0000 10B5     		push	{r4, lr}
 1121              		.cfi_def_cfa_offset 8
 1122              		.cfi_offset 4, -8
 1123              		.cfi_offset 14, -4
 1124 0002 82B0     		sub	sp, sp, #8
 1125              		.cfi_def_cfa_offset 16
 1126 0004 0C46     		mov	r4, r1
 296:Drivers/ICP201xx/Icp201xxDriver.c **** 	int status;
 1127              		.loc 1 296 2 is_stmt 1 view .LVU224
ARM GAS  C:\Users\Nathan\AppData\Local\Temp\ccMZZe9L.s 			page 26


 297:Drivers/ICP201xx/Icp201xxDriver.c **** 	uint8_t reg_value = 0;
 1128              		.loc 1 297 2 view .LVU225
 1129              		.loc 1 297 10 is_stmt 0 view .LVU226
 1130 0006 0023     		movs	r3, #0
 1131 0008 8DF80730 		strb	r3, [sp, #7]
 298:Drivers/ICP201xx/Icp201xxDriver.c **** 	status =  inv_icp201xx_serif_read_reg(s, MPUREG_OTP_MTP_OTP_STATUS2, 1, &reg_value);
 1132              		.loc 1 298 2 is_stmt 1 view .LVU227
 1133              		.loc 1 298 12 is_stmt 0 view .LVU228
 1134 000c 0DF10703 		add	r3, sp, #7
 1135 0010 0122     		movs	r2, #1
 1136 0012 BF21     		movs	r1, #191
 1137              	.LVL97:
 1138              		.loc 1 298 12 view .LVU229
 1139 0014 FFF7FEFF 		bl	inv_icp201xx_serif_read_reg
 1140              	.LVL98:
 299:Drivers/ICP201xx/Icp201xxDriver.c **** 	if(status)
 1141              		.loc 1 299 2 is_stmt 1 view .LVU230
 1142              		.loc 1 299 4 is_stmt 0 view .LVU231
 1143 0018 20B9     		cbnz	r0, .L61
 300:Drivers/ICP201xx/Icp201xxDriver.c **** 		return status;
 301:Drivers/ICP201xx/Icp201xxDriver.c **** 		
 302:Drivers/ICP201xx/Icp201xxDriver.c **** 	*value = reg_value & BIT_OTP_STATUS2_BOOTUP_STATUS_MASK ;
 1144              		.loc 1 302 2 is_stmt 1 view .LVU232
 1145              		.loc 1 302 21 is_stmt 0 view .LVU233
 1146 001a 9DF80730 		ldrb	r3, [sp, #7]	@ zero_extendqisi2
 1147 001e 03F00103 		and	r3, r3, #1
 1148              		.loc 1 302 9 view .LVU234
 1149 0022 2370     		strb	r3, [r4]
 303:Drivers/ICP201xx/Icp201xxDriver.c **** 	
 304:Drivers/ICP201xx/Icp201xxDriver.c **** 	return status;
 1150              		.loc 1 304 2 is_stmt 1 view .LVU235
 1151              	.L61:
 305:Drivers/ICP201xx/Icp201xxDriver.c **** }
 1152              		.loc 1 305 1 is_stmt 0 view .LVU236
 1153 0024 02B0     		add	sp, sp, #8
 1154              		.cfi_def_cfa_offset 8
 1155              		@ sp needed
 1156 0026 10BD     		pop	{r4, pc}
 1157              		.loc 1 305 1 view .LVU237
 1158              		.cfi_endproc
 1159              	.LFE24:
 1161              		.section	.text.inv_icp201xx_wr_boot_up_status,"ax",%progbits
 1162              		.align	1
 1163              		.global	inv_icp201xx_wr_boot_up_status
 1164              		.syntax unified
 1165              		.thumb
 1166              		.thumb_func
 1168              	inv_icp201xx_wr_boot_up_status:
 1169              	.LVL99:
 1170              	.LFB25:
 306:Drivers/ICP201xx/Icp201xxDriver.c **** 
 307:Drivers/ICP201xx/Icp201xxDriver.c **** int inv_icp201xx_wr_boot_up_status (inv_icp201xx_serif_t  * s,uint8_t new_value)
 308:Drivers/ICP201xx/Icp201xxDriver.c **** {
 1171              		.loc 1 308 1 is_stmt 1 view -0
 1172              		.cfi_startproc
 1173              		@ args = 0, pretend = 0, frame = 8
 1174              		@ frame_needed = 0, uses_anonymous_args = 0
ARM GAS  C:\Users\Nathan\AppData\Local\Temp\ccMZZe9L.s 			page 27


 1175              		.loc 1 308 1 is_stmt 0 view .LVU239
 1176 0000 30B5     		push	{r4, r5, lr}
 1177              		.cfi_def_cfa_offset 12
 1178              		.cfi_offset 4, -12
 1179              		.cfi_offset 5, -8
 1180              		.cfi_offset 14, -4
 1181 0002 83B0     		sub	sp, sp, #12
 1182              		.cfi_def_cfa_offset 24
 1183 0004 0546     		mov	r5, r0
 1184 0006 0C46     		mov	r4, r1
 309:Drivers/ICP201xx/Icp201xxDriver.c **** 	int status;
 1185              		.loc 1 309 2 is_stmt 1 view .LVU240
 310:Drivers/ICP201xx/Icp201xxDriver.c **** 	uint8_t reg_value = 0;
 1186              		.loc 1 310 2 view .LVU241
 1187              		.loc 1 310 10 is_stmt 0 view .LVU242
 1188 0008 0023     		movs	r3, #0
 1189 000a 8DF80730 		strb	r3, [sp, #7]
 311:Drivers/ICP201xx/Icp201xxDriver.c **** 	status =  inv_icp201xx_serif_read_reg(s, MPUREG_OTP_MTP_OTP_STATUS2, 1, &reg_value);
 1190              		.loc 1 311 2 is_stmt 1 view .LVU243
 1191              		.loc 1 311 12 is_stmt 0 view .LVU244
 1192 000e 0DF10703 		add	r3, sp, #7
 1193 0012 0122     		movs	r2, #1
 1194 0014 BF21     		movs	r1, #191
 1195              	.LVL100:
 1196              		.loc 1 311 12 view .LVU245
 1197 0016 FFF7FEFF 		bl	inv_icp201xx_serif_read_reg
 1198              	.LVL101:
 312:Drivers/ICP201xx/Icp201xxDriver.c **** 	if(status)
 1199              		.loc 1 312 2 is_stmt 1 view .LVU246
 1200              		.loc 1 312 4 is_stmt 0 view .LVU247
 1201 001a 08B1     		cbz	r0, .L67
 1202              	.L64:
 313:Drivers/ICP201xx/Icp201xxDriver.c **** 		return status;
 314:Drivers/ICP201xx/Icp201xxDriver.c **** 	
 315:Drivers/ICP201xx/Icp201xxDriver.c **** 	reg_value = reg_value & (~BIT_OTP_STATUS2_BOOTUP_STATUS_MASK) | new_value  ;
 316:Drivers/ICP201xx/Icp201xxDriver.c **** 	
 317:Drivers/ICP201xx/Icp201xxDriver.c **** 	return inv_icp201xx_serif_write_reg(s, MPUREG_OTP_MTP_OTP_STATUS2, 1, &reg_value);;
 318:Drivers/ICP201xx/Icp201xxDriver.c **** }
 1203              		.loc 1 318 1 view .LVU248
 1204 001c 03B0     		add	sp, sp, #12
 1205              		.cfi_remember_state
 1206              		.cfi_def_cfa_offset 12
 1207              		@ sp needed
 1208 001e 30BD     		pop	{r4, r5, pc}
 1209              	.LVL102:
 1210              	.L67:
 1211              		.cfi_restore_state
 315:Drivers/ICP201xx/Icp201xxDriver.c **** 	
 1212              		.loc 1 315 2 is_stmt 1 view .LVU249
 315:Drivers/ICP201xx/Icp201xxDriver.c **** 	
 1213              		.loc 1 315 24 is_stmt 0 view .LVU250
 1214 0020 9DF80730 		ldrb	r3, [sp, #7]	@ zero_extendqisi2
 315:Drivers/ICP201xx/Icp201xxDriver.c **** 	
 1215              		.loc 1 315 12 view .LVU251
 1216 0024 23F00103 		bic	r3, r3, #1
 1217 0028 44EA0301 		orr	r1, r4, r3
 1218 002c 8DF80710 		strb	r1, [sp, #7]
ARM GAS  C:\Users\Nathan\AppData\Local\Temp\ccMZZe9L.s 			page 28


 317:Drivers/ICP201xx/Icp201xxDriver.c **** }
 1219              		.loc 1 317 2 is_stmt 1 view .LVU252
 317:Drivers/ICP201xx/Icp201xxDriver.c **** }
 1220              		.loc 1 317 9 is_stmt 0 view .LVU253
 1221 0030 0DF10703 		add	r3, sp, #7
 1222              	.LVL103:
 317:Drivers/ICP201xx/Icp201xxDriver.c **** }
 1223              		.loc 1 317 9 view .LVU254
 1224 0034 0122     		movs	r2, #1
 1225 0036 BF21     		movs	r1, #191
 1226 0038 2846     		mov	r0, r5
 1227 003a FFF7FEFF 		bl	inv_icp201xx_serif_write_reg
 1228              	.LVL104:
 317:Drivers/ICP201xx/Icp201xxDriver.c **** }
 1229              		.loc 1 317 84 is_stmt 1 discriminator 1 view .LVU255
 317:Drivers/ICP201xx/Icp201xxDriver.c **** }
 1230              		.loc 1 317 9 is_stmt 0 view .LVU256
 1231 003e EDE7     		b	.L64
 1232              		.cfi_endproc
 1233              	.LFE25:
 1235              		.section	.text.inv_icp201xx_rd_mode_select,"ax",%progbits
 1236              		.align	1
 1237              		.global	inv_icp201xx_rd_mode_select
 1238              		.syntax unified
 1239              		.thumb
 1240              		.thumb_func
 1242              	inv_icp201xx_rd_mode_select:
 1243              	.LVL105:
 1244              	.LFB27:
 319:Drivers/ICP201xx/Icp201xxDriver.c **** 
 320:Drivers/ICP201xx/Icp201xxDriver.c **** /* ################################################################################################
 321:Drivers/ICP201xx/Icp201xxDriver.c **** 
 322:Drivers/ICP201xx/Icp201xxDriver.c **** 
 323:Drivers/ICP201xx/Icp201xxDriver.c **** int inv_icp201xx_wr_mode_select(inv_icp201xx_serif_t * s, uint8_t new_value)
 324:Drivers/ICP201xx/Icp201xxDriver.c **** {
 325:Drivers/ICP201xx/Icp201xxDriver.c **** 	int status;
 326:Drivers/ICP201xx/Icp201xxDriver.c **** 	uint8_t read_value=0;
 327:Drivers/ICP201xx/Icp201xxDriver.c **** 	
 328:Drivers/ICP201xx/Icp201xxDriver.c **** 	do {
 329:Drivers/ICP201xx/Icp201xxDriver.c **** 		inv_icp201xx_rd_mode_sync_status(s,&read_value);
 330:Drivers/ICP201xx/Icp201xxDriver.c **** 		if ( read_value  )
 331:Drivers/ICP201xx/Icp201xxDriver.c **** 			break;
 332:Drivers/ICP201xx/Icp201xxDriver.c **** 		inv_icp201xx_sleep_us(500);
 333:Drivers/ICP201xx/Icp201xxDriver.c **** 	}while(1);
 334:Drivers/ICP201xx/Icp201xxDriver.c **** 
 335:Drivers/ICP201xx/Icp201xxDriver.c **** 	status = inv_icp201xx_serif_write_reg(s, MPUREG_MODE_SELECT, 1, &new_value);
 336:Drivers/ICP201xx/Icp201xxDriver.c **** 
 337:Drivers/ICP201xx/Icp201xxDriver.c **** 	return status;
 338:Drivers/ICP201xx/Icp201xxDriver.c **** }
 339:Drivers/ICP201xx/Icp201xxDriver.c **** 
 340:Drivers/ICP201xx/Icp201xxDriver.c **** 
 341:Drivers/ICP201xx/Icp201xxDriver.c **** int inv_icp201xx_rd_mode_select(inv_icp201xx_serif_t * s, uint8_t *value)
 342:Drivers/ICP201xx/Icp201xxDriver.c **** {
 1245              		.loc 1 342 1 is_stmt 1 view -0
 1246              		.cfi_startproc
 1247              		@ args = 0, pretend = 0, frame = 0
 1248              		@ frame_needed = 0, uses_anonymous_args = 0
ARM GAS  C:\Users\Nathan\AppData\Local\Temp\ccMZZe9L.s 			page 29


 1249              		.loc 1 342 1 is_stmt 0 view .LVU258
 1250 0000 08B5     		push	{r3, lr}
 1251              		.cfi_def_cfa_offset 8
 1252              		.cfi_offset 3, -8
 1253              		.cfi_offset 14, -4
 1254 0002 0B46     		mov	r3, r1
 343:Drivers/ICP201xx/Icp201xxDriver.c **** 	
 344:Drivers/ICP201xx/Icp201xxDriver.c **** 	int status;
 1255              		.loc 1 344 2 is_stmt 1 view .LVU259
 345:Drivers/ICP201xx/Icp201xxDriver.c **** 	
 346:Drivers/ICP201xx/Icp201xxDriver.c **** 	status = inv_icp201xx_serif_read_reg(s, MPUREG_MODE_SELECT, 1, value);
 1256              		.loc 1 346 2 view .LVU260
 1257              		.loc 1 346 11 is_stmt 0 view .LVU261
 1258 0004 0122     		movs	r2, #1
 1259 0006 C021     		movs	r1, #192
 1260              	.LVL106:
 1261              		.loc 1 346 11 view .LVU262
 1262 0008 FFF7FEFF 		bl	inv_icp201xx_serif_read_reg
 1263              	.LVL107:
 347:Drivers/ICP201xx/Icp201xxDriver.c **** 
 348:Drivers/ICP201xx/Icp201xxDriver.c **** 	return status;
 1264              		.loc 1 348 2 is_stmt 1 view .LVU263
 349:Drivers/ICP201xx/Icp201xxDriver.c **** }
 1265              		.loc 1 349 1 is_stmt 0 view .LVU264
 1266 000c 08BD     		pop	{r3, pc}
 1267              		.cfi_endproc
 1268              	.LFE27:
 1270              		.section	.text.inv_icp201xx_rd_meas_config,"ax",%progbits
 1271              		.align	1
 1272              		.global	inv_icp201xx_rd_meas_config
 1273              		.syntax unified
 1274              		.thumb
 1275              		.thumb_func
 1277              	inv_icp201xx_rd_meas_config:
 1278              	.LVL108:
 1279              	.LFB29:
 350:Drivers/ICP201xx/Icp201xxDriver.c **** /***********************************************************************************************/
 351:Drivers/ICP201xx/Icp201xxDriver.c **** int inv_icp201xx_wr_meas_config(inv_icp201xx_serif_t  * s, icp201xx_op_mode_t new_value)
 352:Drivers/ICP201xx/Icp201xxDriver.c **** {
 353:Drivers/ICP201xx/Icp201xxDriver.c **** 	int status;
 354:Drivers/ICP201xx/Icp201xxDriver.c **** 	uint8_t reg_value = 0;
 355:Drivers/ICP201xx/Icp201xxDriver.c **** 	uint8_t read_value=0;
 356:Drivers/ICP201xx/Icp201xxDriver.c **** 	status = inv_icp201xx_serif_read_reg(s, MPUREG_MODE_SELECT, 1, &reg_value);
 357:Drivers/ICP201xx/Icp201xxDriver.c **** 
 358:Drivers/ICP201xx/Icp201xxDriver.c **** 	if(status)
 359:Drivers/ICP201xx/Icp201xxDriver.c **** 		return status;
 360:Drivers/ICP201xx/Icp201xxDriver.c **** 
 361:Drivers/ICP201xx/Icp201xxDriver.c **** 	reg_value = ( reg_value & (~BIT_MEAS_CONFIG_MASK) ) | ( new_value << BIT_MEAS_CONFIG_POS) ;
 362:Drivers/ICP201xx/Icp201xxDriver.c **** 	
 363:Drivers/ICP201xx/Icp201xxDriver.c **** 	do {
 364:Drivers/ICP201xx/Icp201xxDriver.c **** 		inv_icp201xx_rd_mode_sync_status(s,&read_value);
 365:Drivers/ICP201xx/Icp201xxDriver.c **** 		if ( read_value  )
 366:Drivers/ICP201xx/Icp201xxDriver.c **** 			break;
 367:Drivers/ICP201xx/Icp201xxDriver.c **** 
 368:Drivers/ICP201xx/Icp201xxDriver.c **** 		inv_icp201xx_sleep_us(500);
 369:Drivers/ICP201xx/Icp201xxDriver.c **** 	}while(1);
 370:Drivers/ICP201xx/Icp201xxDriver.c **** 	
ARM GAS  C:\Users\Nathan\AppData\Local\Temp\ccMZZe9L.s 			page 30


 371:Drivers/ICP201xx/Icp201xxDriver.c **** 	status = inv_icp201xx_serif_write_reg(s, MPUREG_MODE_SELECT, 1, &reg_value);
 372:Drivers/ICP201xx/Icp201xxDriver.c **** 	
 373:Drivers/ICP201xx/Icp201xxDriver.c **** 	return status;
 374:Drivers/ICP201xx/Icp201xxDriver.c **** }
 375:Drivers/ICP201xx/Icp201xxDriver.c **** 
 376:Drivers/ICP201xx/Icp201xxDriver.c **** int inv_icp201xx_rd_meas_config(inv_icp201xx_serif_t * s, icp201xx_op_mode_t *value)
 377:Drivers/ICP201xx/Icp201xxDriver.c **** {
 1280              		.loc 1 377 1 is_stmt 1 view -0
 1281              		.cfi_startproc
 1282              		@ args = 0, pretend = 0, frame = 8
 1283              		@ frame_needed = 0, uses_anonymous_args = 0
 1284              		.loc 1 377 1 is_stmt 0 view .LVU266
 1285 0000 10B5     		push	{r4, lr}
 1286              		.cfi_def_cfa_offset 8
 1287              		.cfi_offset 4, -8
 1288              		.cfi_offset 14, -4
 1289 0002 82B0     		sub	sp, sp, #8
 1290              		.cfi_def_cfa_offset 16
 1291 0004 0C46     		mov	r4, r1
 378:Drivers/ICP201xx/Icp201xxDriver.c **** 	int status;
 1292              		.loc 1 378 2 is_stmt 1 view .LVU267
 379:Drivers/ICP201xx/Icp201xxDriver.c **** 	uint8_t reg_value = 0;
 1293              		.loc 1 379 2 view .LVU268
 1294              		.loc 1 379 10 is_stmt 0 view .LVU269
 1295 0006 0023     		movs	r3, #0
 1296 0008 8DF80730 		strb	r3, [sp, #7]
 380:Drivers/ICP201xx/Icp201xxDriver.c **** 	status = inv_icp201xx_serif_read_reg(s, MPUREG_MODE_SELECT, 1, &reg_value);
 1297              		.loc 1 380 2 is_stmt 1 view .LVU270
 1298              		.loc 1 380 11 is_stmt 0 view .LVU271
 1299 000c 0DF10703 		add	r3, sp, #7
 1300 0010 0122     		movs	r2, #1
 1301 0012 C021     		movs	r1, #192
 1302              	.LVL109:
 1303              		.loc 1 380 11 view .LVU272
 1304 0014 FFF7FEFF 		bl	inv_icp201xx_serif_read_reg
 1305              	.LVL110:
 381:Drivers/ICP201xx/Icp201xxDriver.c **** 
 382:Drivers/ICP201xx/Icp201xxDriver.c **** 	if(status)
 1306              		.loc 1 382 2 is_stmt 1 view .LVU273
 1307              		.loc 1 382 4 is_stmt 0 view .LVU274
 1308 0018 18B9     		cbnz	r0, .L70
 383:Drivers/ICP201xx/Icp201xxDriver.c **** 		return status;
 384:Drivers/ICP201xx/Icp201xxDriver.c **** 
 385:Drivers/ICP201xx/Icp201xxDriver.c **** 	*value = (icp201xx_op_mode_t)(( reg_value & BIT_MEAS_CONFIG_MASK ) >> BIT_MEAS_CONFIG_POS) ;
 1309              		.loc 1 385 2 is_stmt 1 view .LVU275
 1310              		.loc 1 385 11 is_stmt 0 view .LVU276
 1311 001a 9DF80730 		ldrb	r3, [sp, #7]	@ zero_extendqisi2
 1312              		.loc 1 385 69 view .LVU277
 1313 001e 5B09     		lsrs	r3, r3, #5
 1314              		.loc 1 385 9 view .LVU278
 1315 0020 2370     		strb	r3, [r4]
 386:Drivers/ICP201xx/Icp201xxDriver.c **** 	
 387:Drivers/ICP201xx/Icp201xxDriver.c **** 	return status;
 1316              		.loc 1 387 2 is_stmt 1 view .LVU279
 1317              	.L70:
 388:Drivers/ICP201xx/Icp201xxDriver.c **** }
 1318              		.loc 1 388 1 is_stmt 0 view .LVU280
ARM GAS  C:\Users\Nathan\AppData\Local\Temp\ccMZZe9L.s 			page 31


 1319 0022 02B0     		add	sp, sp, #8
 1320              		.cfi_def_cfa_offset 8
 1321              		@ sp needed
 1322 0024 10BD     		pop	{r4, pc}
 1323              		.loc 1 388 1 view .LVU281
 1324              		.cfi_endproc
 1325              	.LFE29:
 1327              		.section	.text.inv_icp201xx_rd_forced_meas_trigger,"ax",%progbits
 1328              		.align	1
 1329              		.global	inv_icp201xx_rd_forced_meas_trigger
 1330              		.syntax unified
 1331              		.thumb
 1332              		.thumb_func
 1334              	inv_icp201xx_rd_forced_meas_trigger:
 1335              	.LVL111:
 1336              	.LFB31:
 389:Drivers/ICP201xx/Icp201xxDriver.c **** 
 390:Drivers/ICP201xx/Icp201xxDriver.c **** int inv_icp201xx_wr_forced_meas_trigger(inv_icp201xx_serif_t  * s, icp201xx_forced_meas_trigger_t n
 391:Drivers/ICP201xx/Icp201xxDriver.c **** {
 392:Drivers/ICP201xx/Icp201xxDriver.c **** 	int status;
 393:Drivers/ICP201xx/Icp201xxDriver.c **** 	uint8_t reg_value = 0, read_value =0 ;
 394:Drivers/ICP201xx/Icp201xxDriver.c **** 	status = inv_icp201xx_serif_read_reg(s, MPUREG_MODE_SELECT, 1, &reg_value);
 395:Drivers/ICP201xx/Icp201xxDriver.c **** 
 396:Drivers/ICP201xx/Icp201xxDriver.c **** 	if(status)
 397:Drivers/ICP201xx/Icp201xxDriver.c **** 	return status;
 398:Drivers/ICP201xx/Icp201xxDriver.c **** 
 399:Drivers/ICP201xx/Icp201xxDriver.c **** 	reg_value = ( reg_value & (~BIT_FORCED_MEAS_TRIGGER_MASK) ) | ( new_value << BIT_FORCED_MEAS_TRIGG
 400:Drivers/ICP201xx/Icp201xxDriver.c **** 	do {
 401:Drivers/ICP201xx/Icp201xxDriver.c **** 		inv_icp201xx_rd_mode_sync_status(s,&read_value);
 402:Drivers/ICP201xx/Icp201xxDriver.c **** 		if ( read_value  )
 403:Drivers/ICP201xx/Icp201xxDriver.c **** 			break;
 404:Drivers/ICP201xx/Icp201xxDriver.c **** 	
 405:Drivers/ICP201xx/Icp201xxDriver.c **** 		inv_icp201xx_sleep_us(500);
 406:Drivers/ICP201xx/Icp201xxDriver.c **** 	}while(1);
 407:Drivers/ICP201xx/Icp201xxDriver.c **** 	
 408:Drivers/ICP201xx/Icp201xxDriver.c **** 	status = inv_icp201xx_serif_write_reg(s, MPUREG_MODE_SELECT, 1, &reg_value);
 409:Drivers/ICP201xx/Icp201xxDriver.c **** 	
 410:Drivers/ICP201xx/Icp201xxDriver.c **** 	return status;
 411:Drivers/ICP201xx/Icp201xxDriver.c **** }
 412:Drivers/ICP201xx/Icp201xxDriver.c **** 
 413:Drivers/ICP201xx/Icp201xxDriver.c **** int inv_icp201xx_rd_forced_meas_trigger(inv_icp201xx_serif_t * s, icp201xx_forced_meas_trigger_t *v
 414:Drivers/ICP201xx/Icp201xxDriver.c **** {
 1337              		.loc 1 414 1 is_stmt 1 view -0
 1338              		.cfi_startproc
 1339              		@ args = 0, pretend = 0, frame = 8
 1340              		@ frame_needed = 0, uses_anonymous_args = 0
 1341              		.loc 1 414 1 is_stmt 0 view .LVU283
 1342 0000 10B5     		push	{r4, lr}
 1343              		.cfi_def_cfa_offset 8
 1344              		.cfi_offset 4, -8
 1345              		.cfi_offset 14, -4
 1346 0002 82B0     		sub	sp, sp, #8
 1347              		.cfi_def_cfa_offset 16
 1348 0004 0C46     		mov	r4, r1
 415:Drivers/ICP201xx/Icp201xxDriver.c **** 	int status;
 1349              		.loc 1 415 2 is_stmt 1 view .LVU284
 416:Drivers/ICP201xx/Icp201xxDriver.c **** 	uint8_t reg_value;
ARM GAS  C:\Users\Nathan\AppData\Local\Temp\ccMZZe9L.s 			page 32


 1350              		.loc 1 416 2 view .LVU285
 417:Drivers/ICP201xx/Icp201xxDriver.c **** 	status = inv_icp201xx_serif_read_reg(s, MPUREG_MODE_SELECT, 1, &reg_value);
 1351              		.loc 1 417 2 view .LVU286
 1352              		.loc 1 417 11 is_stmt 0 view .LVU287
 1353 0006 0DF10703 		add	r3, sp, #7
 1354 000a 0122     		movs	r2, #1
 1355 000c C021     		movs	r1, #192
 1356              	.LVL112:
 1357              		.loc 1 417 11 view .LVU288
 1358 000e FFF7FEFF 		bl	inv_icp201xx_serif_read_reg
 1359              	.LVL113:
 418:Drivers/ICP201xx/Icp201xxDriver.c **** 
 419:Drivers/ICP201xx/Icp201xxDriver.c **** 	if(status)
 1360              		.loc 1 419 2 is_stmt 1 view .LVU289
 1361              		.loc 1 419 4 is_stmt 0 view .LVU290
 1362 0012 20B9     		cbnz	r0, .L73
 420:Drivers/ICP201xx/Icp201xxDriver.c **** 		return status;
 421:Drivers/ICP201xx/Icp201xxDriver.c **** 	
 422:Drivers/ICP201xx/Icp201xxDriver.c **** 	*value = (icp201xx_forced_meas_trigger_t)(( reg_value & BIT_FORCED_MEAS_TRIGGER_MASK ) >> BIT_FORC
 1363              		.loc 1 422 2 is_stmt 1 view .LVU291
 1364              		.loc 1 422 89 is_stmt 0 view .LVU292
 1365 0014 9DF80730 		ldrb	r3, [sp, #7]	@ zero_extendqisi2
 1366              		.loc 1 422 11 view .LVU293
 1367 0018 C3F30013 		ubfx	r3, r3, #4, #1
 1368              		.loc 1 422 9 view .LVU294
 1369 001c 2370     		strb	r3, [r4]
 423:Drivers/ICP201xx/Icp201xxDriver.c **** 	
 424:Drivers/ICP201xx/Icp201xxDriver.c **** 	return status;
 1370              		.loc 1 424 2 is_stmt 1 view .LVU295
 1371              	.L73:
 425:Drivers/ICP201xx/Icp201xxDriver.c **** }
 1372              		.loc 1 425 1 is_stmt 0 view .LVU296
 1373 001e 02B0     		add	sp, sp, #8
 1374              		.cfi_def_cfa_offset 8
 1375              		@ sp needed
 1376 0020 10BD     		pop	{r4, pc}
 1377              		.loc 1 425 1 view .LVU297
 1378              		.cfi_endproc
 1379              	.LFE31:
 1381              		.section	.text.inv_icp201xx_rd_meas_mode,"ax",%progbits
 1382              		.align	1
 1383              		.global	inv_icp201xx_rd_meas_mode
 1384              		.syntax unified
 1385              		.thumb
 1386              		.thumb_func
 1388              	inv_icp201xx_rd_meas_mode:
 1389              	.LVL114:
 1390              	.LFB33:
 426:Drivers/ICP201xx/Icp201xxDriver.c **** 
 427:Drivers/ICP201xx/Icp201xxDriver.c **** int inv_icp201xx_wr_meas_mode(inv_icp201xx_serif_t  * s, icp201xx_meas_mode_t new_value)
 428:Drivers/ICP201xx/Icp201xxDriver.c **** {
 429:Drivers/ICP201xx/Icp201xxDriver.c **** 	int status;
 430:Drivers/ICP201xx/Icp201xxDriver.c **** 	uint8_t reg_value = 0, read_value = 0;
 431:Drivers/ICP201xx/Icp201xxDriver.c **** 	status = inv_icp201xx_serif_read_reg(s, MPUREG_MODE_SELECT, 1, &reg_value);
 432:Drivers/ICP201xx/Icp201xxDriver.c **** 
 433:Drivers/ICP201xx/Icp201xxDriver.c **** 	if(status)
 434:Drivers/ICP201xx/Icp201xxDriver.c **** 	return status;
ARM GAS  C:\Users\Nathan\AppData\Local\Temp\ccMZZe9L.s 			page 33


 435:Drivers/ICP201xx/Icp201xxDriver.c **** 
 436:Drivers/ICP201xx/Icp201xxDriver.c **** 	reg_value = ( reg_value & (~BIT_MEAS_MODE_MASK) ) | ( new_value << BIT_FORCED_MEAS_MODE_POS) ;
 437:Drivers/ICP201xx/Icp201xxDriver.c **** 	do {
 438:Drivers/ICP201xx/Icp201xxDriver.c **** 		inv_icp201xx_rd_mode_sync_status(s,&read_value);
 439:Drivers/ICP201xx/Icp201xxDriver.c **** 		if ( read_value  )
 440:Drivers/ICP201xx/Icp201xxDriver.c **** 			break;
 441:Drivers/ICP201xx/Icp201xxDriver.c **** 		inv_icp201xx_sleep_us(500);
 442:Drivers/ICP201xx/Icp201xxDriver.c **** 	}while(1);
 443:Drivers/ICP201xx/Icp201xxDriver.c **** 	
 444:Drivers/ICP201xx/Icp201xxDriver.c **** 	status = inv_icp201xx_serif_write_reg(s, MPUREG_MODE_SELECT, 1, &reg_value);
 445:Drivers/ICP201xx/Icp201xxDriver.c **** 	
 446:Drivers/ICP201xx/Icp201xxDriver.c **** 	return status;
 447:Drivers/ICP201xx/Icp201xxDriver.c **** }
 448:Drivers/ICP201xx/Icp201xxDriver.c **** 
 449:Drivers/ICP201xx/Icp201xxDriver.c **** int inv_icp201xx_rd_meas_mode(inv_icp201xx_serif_t * s, icp201xx_meas_mode_t *value)
 450:Drivers/ICP201xx/Icp201xxDriver.c **** {
 1391              		.loc 1 450 1 is_stmt 1 view -0
 1392              		.cfi_startproc
 1393              		@ args = 0, pretend = 0, frame = 8
 1394              		@ frame_needed = 0, uses_anonymous_args = 0
 1395              		.loc 1 450 1 is_stmt 0 view .LVU299
 1396 0000 10B5     		push	{r4, lr}
 1397              		.cfi_def_cfa_offset 8
 1398              		.cfi_offset 4, -8
 1399              		.cfi_offset 14, -4
 1400 0002 82B0     		sub	sp, sp, #8
 1401              		.cfi_def_cfa_offset 16
 1402 0004 0C46     		mov	r4, r1
 451:Drivers/ICP201xx/Icp201xxDriver.c **** 	int status;
 1403              		.loc 1 451 2 is_stmt 1 view .LVU300
 452:Drivers/ICP201xx/Icp201xxDriver.c **** 	uint8_t reg_value = 0;
 1404              		.loc 1 452 2 view .LVU301
 1405              		.loc 1 452 10 is_stmt 0 view .LVU302
 1406 0006 0023     		movs	r3, #0
 1407 0008 8DF80730 		strb	r3, [sp, #7]
 453:Drivers/ICP201xx/Icp201xxDriver.c **** 	status = inv_icp201xx_serif_read_reg(s, MPUREG_MODE_SELECT, 1, &reg_value);
 1408              		.loc 1 453 2 is_stmt 1 view .LVU303
 1409              		.loc 1 453 11 is_stmt 0 view .LVU304
 1410 000c 0DF10703 		add	r3, sp, #7
 1411 0010 0122     		movs	r2, #1
 1412 0012 C021     		movs	r1, #192
 1413              	.LVL115:
 1414              		.loc 1 453 11 view .LVU305
 1415 0014 FFF7FEFF 		bl	inv_icp201xx_serif_read_reg
 1416              	.LVL116:
 454:Drivers/ICP201xx/Icp201xxDriver.c **** 
 455:Drivers/ICP201xx/Icp201xxDriver.c **** 	if(status)
 1417              		.loc 1 455 2 is_stmt 1 view .LVU306
 1418              		.loc 1 455 4 is_stmt 0 view .LVU307
 1419 0018 20B9     		cbnz	r0, .L76
 456:Drivers/ICP201xx/Icp201xxDriver.c **** 		return status;
 457:Drivers/ICP201xx/Icp201xxDriver.c **** 	
 458:Drivers/ICP201xx/Icp201xxDriver.c **** 	*value = (icp201xx_meas_mode_t)(( reg_value & BIT_MEAS_MODE_MASK ) >> BIT_FORCED_MEAS_MODE_POS) ; 
 1420              		.loc 1 458 2 is_stmt 1 view .LVU308
 1421              		.loc 1 458 69 is_stmt 0 view .LVU309
 1422 001a 9DF80730 		ldrb	r3, [sp, #7]	@ zero_extendqisi2
 1423              		.loc 1 458 11 view .LVU310
ARM GAS  C:\Users\Nathan\AppData\Local\Temp\ccMZZe9L.s 			page 34


 1424 001e C3F3C003 		ubfx	r3, r3, #3, #1
 1425              		.loc 1 458 9 view .LVU311
 1426 0022 2370     		strb	r3, [r4]
 459:Drivers/ICP201xx/Icp201xxDriver.c **** 	
 460:Drivers/ICP201xx/Icp201xxDriver.c **** 	return status;
 1427              		.loc 1 460 2 is_stmt 1 view .LVU312
 1428              	.L76:
 461:Drivers/ICP201xx/Icp201xxDriver.c **** }
 1429              		.loc 1 461 1 is_stmt 0 view .LVU313
 1430 0024 02B0     		add	sp, sp, #8
 1431              		.cfi_def_cfa_offset 8
 1432              		@ sp needed
 1433 0026 10BD     		pop	{r4, pc}
 1434              		.loc 1 461 1 view .LVU314
 1435              		.cfi_endproc
 1436              	.LFE33:
 1438              		.section	.text.inv_icp201xx_rd_pow_mode,"ax",%progbits
 1439              		.align	1
 1440              		.global	inv_icp201xx_rd_pow_mode
 1441              		.syntax unified
 1442              		.thumb
 1443              		.thumb_func
 1445              	inv_icp201xx_rd_pow_mode:
 1446              	.LVL117:
 1447              	.LFB35:
 462:Drivers/ICP201xx/Icp201xxDriver.c **** 
 463:Drivers/ICP201xx/Icp201xxDriver.c **** 
 464:Drivers/ICP201xx/Icp201xxDriver.c **** int inv_icp201xx_wr_pow_mode(inv_icp201xx_serif_t  * s, icp201xx_power_mode_t new_value)
 465:Drivers/ICP201xx/Icp201xxDriver.c **** {
 466:Drivers/ICP201xx/Icp201xxDriver.c **** 	int status;
 467:Drivers/ICP201xx/Icp201xxDriver.c **** 	uint8_t reg_value = 0, read_value = 0;
 468:Drivers/ICP201xx/Icp201xxDriver.c **** 	status = inv_icp201xx_serif_read_reg(s, MPUREG_MODE_SELECT, 1, &reg_value);
 469:Drivers/ICP201xx/Icp201xxDriver.c **** 
 470:Drivers/ICP201xx/Icp201xxDriver.c **** 	if(status)
 471:Drivers/ICP201xx/Icp201xxDriver.c **** 	return status;
 472:Drivers/ICP201xx/Icp201xxDriver.c **** 
 473:Drivers/ICP201xx/Icp201xxDriver.c **** 	reg_value = ( reg_value & (~BIT_POWER_MODE_MASK) ) | ( new_value << BIT_FORCED_POW_MODE_POS) ;
 474:Drivers/ICP201xx/Icp201xxDriver.c **** 	
 475:Drivers/ICP201xx/Icp201xxDriver.c **** 	do {
 476:Drivers/ICP201xx/Icp201xxDriver.c **** 		inv_icp201xx_rd_mode_sync_status(s,&read_value);
 477:Drivers/ICP201xx/Icp201xxDriver.c **** 		if ( read_value  )
 478:Drivers/ICP201xx/Icp201xxDriver.c **** 			break;
 479:Drivers/ICP201xx/Icp201xxDriver.c **** 		inv_icp201xx_sleep_us(500);
 480:Drivers/ICP201xx/Icp201xxDriver.c **** 	}while(1);
 481:Drivers/ICP201xx/Icp201xxDriver.c **** 		
 482:Drivers/ICP201xx/Icp201xxDriver.c **** 	status = inv_icp201xx_serif_write_reg(s, MPUREG_MODE_SELECT, 1, &reg_value);
 483:Drivers/ICP201xx/Icp201xxDriver.c **** 
 484:Drivers/ICP201xx/Icp201xxDriver.c **** 	return status;
 485:Drivers/ICP201xx/Icp201xxDriver.c **** }
 486:Drivers/ICP201xx/Icp201xxDriver.c **** 
 487:Drivers/ICP201xx/Icp201xxDriver.c **** int inv_icp201xx_rd_pow_mode(inv_icp201xx_serif_t * s, icp201xx_power_mode_t *value)
 488:Drivers/ICP201xx/Icp201xxDriver.c **** {
 1448              		.loc 1 488 1 is_stmt 1 view -0
 1449              		.cfi_startproc
 1450              		@ args = 0, pretend = 0, frame = 8
 1451              		@ frame_needed = 0, uses_anonymous_args = 0
 1452              		.loc 1 488 1 is_stmt 0 view .LVU316
ARM GAS  C:\Users\Nathan\AppData\Local\Temp\ccMZZe9L.s 			page 35


 1453 0000 10B5     		push	{r4, lr}
 1454              		.cfi_def_cfa_offset 8
 1455              		.cfi_offset 4, -8
 1456              		.cfi_offset 14, -4
 1457 0002 82B0     		sub	sp, sp, #8
 1458              		.cfi_def_cfa_offset 16
 1459 0004 0C46     		mov	r4, r1
 489:Drivers/ICP201xx/Icp201xxDriver.c **** 	int status;
 1460              		.loc 1 489 2 is_stmt 1 view .LVU317
 490:Drivers/ICP201xx/Icp201xxDriver.c **** 	uint8_t reg_value = 0;
 1461              		.loc 1 490 2 view .LVU318
 1462              		.loc 1 490 10 is_stmt 0 view .LVU319
 1463 0006 0023     		movs	r3, #0
 1464 0008 8DF80730 		strb	r3, [sp, #7]
 491:Drivers/ICP201xx/Icp201xxDriver.c **** 	status = inv_icp201xx_serif_read_reg(s, MPUREG_MODE_SELECT, 1, &reg_value);
 1465              		.loc 1 491 2 is_stmt 1 view .LVU320
 1466              		.loc 1 491 11 is_stmt 0 view .LVU321
 1467 000c 0DF10703 		add	r3, sp, #7
 1468 0010 0122     		movs	r2, #1
 1469 0012 C021     		movs	r1, #192
 1470              	.LVL118:
 1471              		.loc 1 491 11 view .LVU322
 1472 0014 FFF7FEFF 		bl	inv_icp201xx_serif_read_reg
 1473              	.LVL119:
 492:Drivers/ICP201xx/Icp201xxDriver.c **** 
 493:Drivers/ICP201xx/Icp201xxDriver.c **** 	if(status)
 1474              		.loc 1 493 2 is_stmt 1 view .LVU323
 1475              		.loc 1 493 4 is_stmt 0 view .LVU324
 1476 0018 20B9     		cbnz	r0, .L79
 494:Drivers/ICP201xx/Icp201xxDriver.c **** 		return status;
 495:Drivers/ICP201xx/Icp201xxDriver.c **** 	
 496:Drivers/ICP201xx/Icp201xxDriver.c **** 	*value = (icp201xx_power_mode_t)(( reg_value & BIT_POWER_MODE_MASK ) >> BIT_FORCED_POW_MODE_POS) ;
 1477              		.loc 1 496 2 is_stmt 1 view .LVU325
 1478              		.loc 1 496 71 is_stmt 0 view .LVU326
 1479 001a 9DF80730 		ldrb	r3, [sp, #7]	@ zero_extendqisi2
 1480              		.loc 1 496 11 view .LVU327
 1481 001e C3F38003 		ubfx	r3, r3, #2, #1
 1482              		.loc 1 496 9 view .LVU328
 1483 0022 2370     		strb	r3, [r4]
 497:Drivers/ICP201xx/Icp201xxDriver.c **** 	
 498:Drivers/ICP201xx/Icp201xxDriver.c **** 	return status;
 1484              		.loc 1 498 2 is_stmt 1 view .LVU329
 1485              	.L79:
 499:Drivers/ICP201xx/Icp201xxDriver.c **** }
 1486              		.loc 1 499 1 is_stmt 0 view .LVU330
 1487 0024 02B0     		add	sp, sp, #8
 1488              		.cfi_def_cfa_offset 8
 1489              		@ sp needed
 1490 0026 10BD     		pop	{r4, pc}
 1491              		.loc 1 499 1 view .LVU331
 1492              		.cfi_endproc
 1493              	.LFE35:
 1495              		.section	.text.inv_icp201xx_rd_fifo_readout_mode,"ax",%progbits
 1496              		.align	1
 1497              		.global	inv_icp201xx_rd_fifo_readout_mode
 1498              		.syntax unified
 1499              		.thumb
ARM GAS  C:\Users\Nathan\AppData\Local\Temp\ccMZZe9L.s 			page 36


 1500              		.thumb_func
 1502              	inv_icp201xx_rd_fifo_readout_mode:
 1503              	.LVL120:
 1504              	.LFB37:
 500:Drivers/ICP201xx/Icp201xxDriver.c **** 
 501:Drivers/ICP201xx/Icp201xxDriver.c **** 
 502:Drivers/ICP201xx/Icp201xxDriver.c **** int inv_icp201xx_wr_fifo_readout_mode(inv_icp201xx_serif_t  * s, icp201xx_FIFO_readout_mode_t new_v
 503:Drivers/ICP201xx/Icp201xxDriver.c **** {
 504:Drivers/ICP201xx/Icp201xxDriver.c **** 	int status;
 505:Drivers/ICP201xx/Icp201xxDriver.c **** 	uint8_t reg_value = 0, read_value = 0;
 506:Drivers/ICP201xx/Icp201xxDriver.c **** 	status = inv_icp201xx_serif_read_reg(s, MPUREG_MODE_SELECT, 1, &reg_value);
 507:Drivers/ICP201xx/Icp201xxDriver.c **** 
 508:Drivers/ICP201xx/Icp201xxDriver.c **** 	if(status)
 509:Drivers/ICP201xx/Icp201xxDriver.c **** 	return status;
 510:Drivers/ICP201xx/Icp201xxDriver.c **** 
 511:Drivers/ICP201xx/Icp201xxDriver.c **** 	reg_value = ( reg_value & (~BIT_FIFO_READOUT_MODE_MASK) ) | ( new_value ) ;
 512:Drivers/ICP201xx/Icp201xxDriver.c **** 	
 513:Drivers/ICP201xx/Icp201xxDriver.c **** 	do {
 514:Drivers/ICP201xx/Icp201xxDriver.c **** 		inv_icp201xx_rd_mode_sync_status(s,&read_value);
 515:Drivers/ICP201xx/Icp201xxDriver.c **** 		if ( read_value  )
 516:Drivers/ICP201xx/Icp201xxDriver.c **** 			break;
 517:Drivers/ICP201xx/Icp201xxDriver.c **** 		//return 0;
 518:Drivers/ICP201xx/Icp201xxDriver.c **** 		inv_icp201xx_sleep_us(500);
 519:Drivers/ICP201xx/Icp201xxDriver.c **** 	}while(1);
 520:Drivers/ICP201xx/Icp201xxDriver.c **** 	
 521:Drivers/ICP201xx/Icp201xxDriver.c **** 	status = inv_icp201xx_serif_write_reg(s, MPUREG_MODE_SELECT, 1, &reg_value);
 522:Drivers/ICP201xx/Icp201xxDriver.c **** 	
 523:Drivers/ICP201xx/Icp201xxDriver.c **** 	return status;
 524:Drivers/ICP201xx/Icp201xxDriver.c **** }
 525:Drivers/ICP201xx/Icp201xxDriver.c **** 
 526:Drivers/ICP201xx/Icp201xxDriver.c **** 
 527:Drivers/ICP201xx/Icp201xxDriver.c **** int inv_icp201xx_rd_fifo_readout_mode(inv_icp201xx_serif_t * s, icp201xx_FIFO_readout_mode_t *value
 528:Drivers/ICP201xx/Icp201xxDriver.c **** {
 1505              		.loc 1 528 1 is_stmt 1 view -0
 1506              		.cfi_startproc
 1507              		@ args = 0, pretend = 0, frame = 8
 1508              		@ frame_needed = 0, uses_anonymous_args = 0
 1509              		.loc 1 528 1 is_stmt 0 view .LVU333
 1510 0000 10B5     		push	{r4, lr}
 1511              		.cfi_def_cfa_offset 8
 1512              		.cfi_offset 4, -8
 1513              		.cfi_offset 14, -4
 1514 0002 82B0     		sub	sp, sp, #8
 1515              		.cfi_def_cfa_offset 16
 1516 0004 0C46     		mov	r4, r1
 529:Drivers/ICP201xx/Icp201xxDriver.c **** 	int status;
 1517              		.loc 1 529 2 is_stmt 1 view .LVU334
 530:Drivers/ICP201xx/Icp201xxDriver.c **** 	uint8_t reg_value = 0;
 1518              		.loc 1 530 2 view .LVU335
 1519              		.loc 1 530 10 is_stmt 0 view .LVU336
 1520 0006 0023     		movs	r3, #0
 1521 0008 8DF80730 		strb	r3, [sp, #7]
 531:Drivers/ICP201xx/Icp201xxDriver.c **** 	status = inv_icp201xx_serif_read_reg(s, MPUREG_MODE_SELECT, 1, &reg_value);
 1522              		.loc 1 531 2 is_stmt 1 view .LVU337
 1523              		.loc 1 531 11 is_stmt 0 view .LVU338
 1524 000c 0DF10703 		add	r3, sp, #7
 1525 0010 0122     		movs	r2, #1
ARM GAS  C:\Users\Nathan\AppData\Local\Temp\ccMZZe9L.s 			page 37


 1526 0012 C021     		movs	r1, #192
 1527              	.LVL121:
 1528              		.loc 1 531 11 view .LVU339
 1529 0014 FFF7FEFF 		bl	inv_icp201xx_serif_read_reg
 1530              	.LVL122:
 532:Drivers/ICP201xx/Icp201xxDriver.c **** 
 533:Drivers/ICP201xx/Icp201xxDriver.c **** 	if(status)
 1531              		.loc 1 533 2 is_stmt 1 view .LVU340
 1532              		.loc 1 533 4 is_stmt 0 view .LVU341
 1533 0018 20B9     		cbnz	r0, .L82
 534:Drivers/ICP201xx/Icp201xxDriver.c **** 		return status;
 535:Drivers/ICP201xx/Icp201xxDriver.c **** 	
 536:Drivers/ICP201xx/Icp201xxDriver.c **** 	*value = (icp201xx_FIFO_readout_mode_t)(( reg_value & BIT_FIFO_READOUT_MODE_MASK )) ; 
 1534              		.loc 1 536 2 is_stmt 1 view .LVU342
 1535              		.loc 1 536 54 is_stmt 0 view .LVU343
 1536 001a 9DF80730 		ldrb	r3, [sp, #7]	@ zero_extendqisi2
 1537 001e 03F00303 		and	r3, r3, #3
 1538              		.loc 1 536 9 view .LVU344
 1539 0022 2370     		strb	r3, [r4]
 537:Drivers/ICP201xx/Icp201xxDriver.c **** 	
 538:Drivers/ICP201xx/Icp201xxDriver.c **** 	return status;
 1540              		.loc 1 538 2 is_stmt 1 view .LVU345
 1541              	.L82:
 539:Drivers/ICP201xx/Icp201xxDriver.c **** }
 1542              		.loc 1 539 1 is_stmt 0 view .LVU346
 1543 0024 02B0     		add	sp, sp, #8
 1544              		.cfi_def_cfa_offset 8
 1545              		@ sp needed
 1546 0026 10BD     		pop	{r4, pc}
 1547              		.loc 1 539 1 view .LVU347
 1548              		.cfi_endproc
 1549              	.LFE37:
 1551              		.section	.text.inv_icp201xx_wr_int_status,"ax",%progbits
 1552              		.align	1
 1553              		.global	inv_icp201xx_wr_int_status
 1554              		.syntax unified
 1555              		.thumb
 1556              		.thumb_func
 1558              	inv_icp201xx_wr_int_status:
 1559              	.LVL123:
 1560              	.LFB38:
 540:Drivers/ICP201xx/Icp201xxDriver.c **** 
 541:Drivers/ICP201xx/Icp201xxDriver.c **** /**************************************    End of Mode Select *************************************
 542:Drivers/ICP201xx/Icp201xxDriver.c **** 
 543:Drivers/ICP201xx/Icp201xxDriver.c **** int inv_icp201xx_wr_int_status(inv_icp201xx_serif_t * s, uint8_t new_value)
 544:Drivers/ICP201xx/Icp201xxDriver.c **** {
 1561              		.loc 1 544 1 is_stmt 1 view -0
 1562              		.cfi_startproc
 1563              		@ args = 0, pretend = 0, frame = 8
 1564              		@ frame_needed = 0, uses_anonymous_args = 0
 1565              		.loc 1 544 1 is_stmt 0 view .LVU349
 1566 0000 00B5     		push	{lr}
 1567              		.cfi_def_cfa_offset 4
 1568              		.cfi_offset 14, -4
 1569 0002 83B0     		sub	sp, sp, #12
 1570              		.cfi_def_cfa_offset 16
 1571 0004 8DF80710 		strb	r1, [sp, #7]
ARM GAS  C:\Users\Nathan\AppData\Local\Temp\ccMZZe9L.s 			page 38


 545:Drivers/ICP201xx/Icp201xxDriver.c **** 	return inv_icp201xx_serif_write_reg(s, MPUREG_INTERRUPT_STATUS, 1, &new_value);
 1572              		.loc 1 545 2 is_stmt 1 view .LVU350
 1573              		.loc 1 545 9 is_stmt 0 view .LVU351
 1574 0008 0DF10703 		add	r3, sp, #7
 1575 000c 0122     		movs	r2, #1
 1576 000e C121     		movs	r1, #193
 1577              	.LVL124:
 1578              		.loc 1 545 9 view .LVU352
 1579 0010 FFF7FEFF 		bl	inv_icp201xx_serif_write_reg
 1580              	.LVL125:
 546:Drivers/ICP201xx/Icp201xxDriver.c **** }
 1581              		.loc 1 546 1 view .LVU353
 1582 0014 03B0     		add	sp, sp, #12
 1583              		.cfi_def_cfa_offset 4
 1584              		@ sp needed
 1585 0016 5DF804FB 		ldr	pc, [sp], #4
 1586              		.cfi_endproc
 1587              	.LFE38:
 1589              		.section	.text.inv_icp201xx_rd_int_status,"ax",%progbits
 1590              		.align	1
 1591              		.global	inv_icp201xx_rd_int_status
 1592              		.syntax unified
 1593              		.thumb
 1594              		.thumb_func
 1596              	inv_icp201xx_rd_int_status:
 1597              	.LVL126:
 1598              	.LFB39:
 547:Drivers/ICP201xx/Icp201xxDriver.c **** 
 548:Drivers/ICP201xx/Icp201xxDriver.c **** int inv_icp201xx_rd_int_status(inv_icp201xx_serif_t * s, uint8_t *value)
 549:Drivers/ICP201xx/Icp201xxDriver.c **** {
 1599              		.loc 1 549 1 is_stmt 1 view -0
 1600              		.cfi_startproc
 1601              		@ args = 0, pretend = 0, frame = 0
 1602              		@ frame_needed = 0, uses_anonymous_args = 0
 1603              		.loc 1 549 1 is_stmt 0 view .LVU355
 1604 0000 08B5     		push	{r3, lr}
 1605              		.cfi_def_cfa_offset 8
 1606              		.cfi_offset 3, -8
 1607              		.cfi_offset 14, -4
 1608 0002 0B46     		mov	r3, r1
 550:Drivers/ICP201xx/Icp201xxDriver.c **** 	return inv_icp201xx_serif_read_reg(s, MPUREG_INTERRUPT_STATUS, 1, value);
 1609              		.loc 1 550 2 is_stmt 1 view .LVU356
 1610              		.loc 1 550 9 is_stmt 0 view .LVU357
 1611 0004 0122     		movs	r2, #1
 1612 0006 C121     		movs	r1, #193
 1613              	.LVL127:
 1614              		.loc 1 550 9 view .LVU358
 1615 0008 FFF7FEFF 		bl	inv_icp201xx_serif_read_reg
 1616              	.LVL128:
 551:Drivers/ICP201xx/Icp201xxDriver.c **** }
 1617              		.loc 1 551 1 view .LVU359
 1618 000c 08BD     		pop	{r3, pc}
 1619              		.cfi_endproc
 1620              	.LFE39:
 1622              		.section	.text.inv_icp201xx_wr_int_mask,"ax",%progbits
 1623              		.align	1
 1624              		.global	inv_icp201xx_wr_int_mask
ARM GAS  C:\Users\Nathan\AppData\Local\Temp\ccMZZe9L.s 			page 39


 1625              		.syntax unified
 1626              		.thumb
 1627              		.thumb_func
 1629              	inv_icp201xx_wr_int_mask:
 1630              	.LVL129:
 1631              	.LFB40:
 552:Drivers/ICP201xx/Icp201xxDriver.c **** 
 553:Drivers/ICP201xx/Icp201xxDriver.c **** 
 554:Drivers/ICP201xx/Icp201xxDriver.c **** int inv_icp201xx_wr_int_mask(inv_icp201xx_serif_t * s, uint8_t new_value)
 555:Drivers/ICP201xx/Icp201xxDriver.c **** {
 1632              		.loc 1 555 1 is_stmt 1 view -0
 1633              		.cfi_startproc
 1634              		@ args = 0, pretend = 0, frame = 8
 1635              		@ frame_needed = 0, uses_anonymous_args = 0
 1636              		.loc 1 555 1 is_stmt 0 view .LVU361
 1637 0000 00B5     		push	{lr}
 1638              		.cfi_def_cfa_offset 4
 1639              		.cfi_offset 14, -4
 1640 0002 83B0     		sub	sp, sp, #12
 1641              		.cfi_def_cfa_offset 16
 1642 0004 8DF80710 		strb	r1, [sp, #7]
 556:Drivers/ICP201xx/Icp201xxDriver.c **** 	return inv_icp201xx_serif_write_reg(s, MPUREG_INTERRUPT_MASK, 1, &new_value);
 1643              		.loc 1 556 2 is_stmt 1 view .LVU362
 1644              		.loc 1 556 9 is_stmt 0 view .LVU363
 1645 0008 0DF10703 		add	r3, sp, #7
 1646 000c 0122     		movs	r2, #1
 1647 000e C221     		movs	r1, #194
 1648              	.LVL130:
 1649              		.loc 1 556 9 view .LVU364
 1650 0010 FFF7FEFF 		bl	inv_icp201xx_serif_write_reg
 1651              	.LVL131:
 557:Drivers/ICP201xx/Icp201xxDriver.c **** }
 1652              		.loc 1 557 1 view .LVU365
 1653 0014 03B0     		add	sp, sp, #12
 1654              		.cfi_def_cfa_offset 4
 1655              		@ sp needed
 1656 0016 5DF804FB 		ldr	pc, [sp], #4
 1657              		.cfi_endproc
 1658              	.LFE40:
 1660              		.section	.text.inv_icp201xx_rd_int_mask,"ax",%progbits
 1661              		.align	1
 1662              		.global	inv_icp201xx_rd_int_mask
 1663              		.syntax unified
 1664              		.thumb
 1665              		.thumb_func
 1667              	inv_icp201xx_rd_int_mask:
 1668              	.LVL132:
 1669              	.LFB41:
 558:Drivers/ICP201xx/Icp201xxDriver.c **** 
 559:Drivers/ICP201xx/Icp201xxDriver.c **** int inv_icp201xx_rd_int_mask(inv_icp201xx_serif_t * s, uint8_t *value)
 560:Drivers/ICP201xx/Icp201xxDriver.c **** {
 1670              		.loc 1 560 1 is_stmt 1 view -0
 1671              		.cfi_startproc
 1672              		@ args = 0, pretend = 0, frame = 0
 1673              		@ frame_needed = 0, uses_anonymous_args = 0
 1674              		.loc 1 560 1 is_stmt 0 view .LVU367
 1675 0000 08B5     		push	{r3, lr}
ARM GAS  C:\Users\Nathan\AppData\Local\Temp\ccMZZe9L.s 			page 40


 1676              		.cfi_def_cfa_offset 8
 1677              		.cfi_offset 3, -8
 1678              		.cfi_offset 14, -4
 1679 0002 0B46     		mov	r3, r1
 561:Drivers/ICP201xx/Icp201xxDriver.c **** 	return inv_icp201xx_serif_read_reg(s, MPUREG_INTERRUPT_MASK, 1, value);
 1680              		.loc 1 561 2 is_stmt 1 view .LVU368
 1681              		.loc 1 561 9 is_stmt 0 view .LVU369
 1682 0004 0122     		movs	r2, #1
 1683 0006 C221     		movs	r1, #194
 1684              	.LVL133:
 1685              		.loc 1 561 9 view .LVU370
 1686 0008 FFF7FEFF 		bl	inv_icp201xx_serif_read_reg
 1687              	.LVL134:
 562:Drivers/ICP201xx/Icp201xxDriver.c **** }
 1688              		.loc 1 562 1 view .LVU371
 1689 000c 08BD     		pop	{r3, pc}
 1690              		.cfi_endproc
 1691              	.LFE41:
 1693              		.section	.text.inv_icp201xx_rd_fifo_config,"ax",%progbits
 1694              		.align	1
 1695              		.global	inv_icp201xx_rd_fifo_config
 1696              		.syntax unified
 1697              		.thumb
 1698              		.thumb_func
 1700              	inv_icp201xx_rd_fifo_config:
 1701              	.LVL135:
 1702              	.LFB42:
 563:Drivers/ICP201xx/Icp201xxDriver.c **** 
 564:Drivers/ICP201xx/Icp201xxDriver.c **** 
 565:Drivers/ICP201xx/Icp201xxDriver.c **** int inv_icp201xx_rd_fifo_config(inv_icp201xx_serif_t * s, uint8_t *value)
 566:Drivers/ICP201xx/Icp201xxDriver.c **** {
 1703              		.loc 1 566 1 is_stmt 1 view -0
 1704              		.cfi_startproc
 1705              		@ args = 0, pretend = 0, frame = 0
 1706              		@ frame_needed = 0, uses_anonymous_args = 0
 1707              		.loc 1 566 1 is_stmt 0 view .LVU373
 1708 0000 08B5     		push	{r3, lr}
 1709              		.cfi_def_cfa_offset 8
 1710              		.cfi_offset 3, -8
 1711              		.cfi_offset 14, -4
 1712 0002 0B46     		mov	r3, r1
 567:Drivers/ICP201xx/Icp201xxDriver.c **** 	return inv_icp201xx_serif_read_reg(s, MPUREG_FIFO_CONFIG, 1, value);
 1713              		.loc 1 567 2 is_stmt 1 view .LVU374
 1714              		.loc 1 567 9 is_stmt 0 view .LVU375
 1715 0004 0122     		movs	r2, #1
 1716 0006 C321     		movs	r1, #195
 1717              	.LVL136:
 1718              		.loc 1 567 9 view .LVU376
 1719 0008 FFF7FEFF 		bl	inv_icp201xx_serif_read_reg
 1720              	.LVL137:
 568:Drivers/ICP201xx/Icp201xxDriver.c **** }
 1721              		.loc 1 568 1 view .LVU377
 1722 000c 08BD     		pop	{r3, pc}
 1723              		.cfi_endproc
 1724              	.LFE42:
 1726              		.section	.text.inv_icp201xx_wr_fifo_wm_high,"ax",%progbits
 1727              		.align	1
ARM GAS  C:\Users\Nathan\AppData\Local\Temp\ccMZZe9L.s 			page 41


 1728              		.global	inv_icp201xx_wr_fifo_wm_high
 1729              		.syntax unified
 1730              		.thumb
 1731              		.thumb_func
 1733              	inv_icp201xx_wr_fifo_wm_high:
 1734              	.LVL138:
 1735              	.LFB43:
 569:Drivers/ICP201xx/Icp201xxDriver.c **** 
 570:Drivers/ICP201xx/Icp201xxDriver.c **** int inv_icp201xx_wr_fifo_wm_high(inv_icp201xx_serif_t * s, uint8_t new_value)
 571:Drivers/ICP201xx/Icp201xxDriver.c **** {
 1736              		.loc 1 571 1 is_stmt 1 view -0
 1737              		.cfi_startproc
 1738              		@ args = 0, pretend = 0, frame = 8
 1739              		@ frame_needed = 0, uses_anonymous_args = 0
 1740              		.loc 1 571 1 is_stmt 0 view .LVU379
 1741 0000 30B5     		push	{r4, r5, lr}
 1742              		.cfi_def_cfa_offset 12
 1743              		.cfi_offset 4, -12
 1744              		.cfi_offset 5, -8
 1745              		.cfi_offset 14, -4
 1746 0002 83B0     		sub	sp, sp, #12
 1747              		.cfi_def_cfa_offset 24
 1748 0004 0446     		mov	r4, r0
 1749 0006 0D46     		mov	r5, r1
 572:Drivers/ICP201xx/Icp201xxDriver.c **** 	int status;
 1750              		.loc 1 572 2 is_stmt 1 view .LVU380
 573:Drivers/ICP201xx/Icp201xxDriver.c **** 	uint8_t reg_value = 0;
 1751              		.loc 1 573 2 view .LVU381
 1752              		.loc 1 573 10 is_stmt 0 view .LVU382
 1753 0008 0023     		movs	r3, #0
 1754 000a 8DF80730 		strb	r3, [sp, #7]
 574:Drivers/ICP201xx/Icp201xxDriver.c **** 	status = inv_icp201xx_serif_read_reg(s, MPUREG_FIFO_CONFIG, 1, &reg_value);
 1755              		.loc 1 574 2 is_stmt 1 view .LVU383
 1756              		.loc 1 574 11 is_stmt 0 view .LVU384
 1757 000e 0DF10703 		add	r3, sp, #7
 1758 0012 0122     		movs	r2, #1
 1759 0014 C321     		movs	r1, #195
 1760              	.LVL139:
 1761              		.loc 1 574 11 view .LVU385
 1762 0016 FFF7FEFF 		bl	inv_icp201xx_serif_read_reg
 1763              	.LVL140:
 575:Drivers/ICP201xx/Icp201xxDriver.c **** 
 576:Drivers/ICP201xx/Icp201xxDriver.c **** 	if(status)
 1764              		.loc 1 576 2 is_stmt 1 view .LVU386
 1765              		.loc 1 576 4 is_stmt 0 view .LVU387
 1766 001a 08B1     		cbz	r0, .L98
 1767              	.L95:
 577:Drivers/ICP201xx/Icp201xxDriver.c **** 		return status;
 578:Drivers/ICP201xx/Icp201xxDriver.c **** 
 579:Drivers/ICP201xx/Icp201xxDriver.c **** 	reg_value = ( reg_value & (~BIT_FIFO_WM_HIGH_MASK) ) | ( new_value << BIT_FIFO_WM_HIGH_POS) ;
 580:Drivers/ICP201xx/Icp201xxDriver.c **** 	
 581:Drivers/ICP201xx/Icp201xxDriver.c **** 	return inv_icp201xx_serif_write_reg(s, MPUREG_FIFO_CONFIG, 1, &reg_value);
 582:Drivers/ICP201xx/Icp201xxDriver.c **** 
 583:Drivers/ICP201xx/Icp201xxDriver.c **** }
 1768              		.loc 1 583 1 view .LVU388
 1769 001c 03B0     		add	sp, sp, #12
 1770              		.cfi_remember_state
ARM GAS  C:\Users\Nathan\AppData\Local\Temp\ccMZZe9L.s 			page 42


 1771              		.cfi_def_cfa_offset 12
 1772              		@ sp needed
 1773 001e 30BD     		pop	{r4, r5, pc}
 1774              	.LVL141:
 1775              	.L98:
 1776              		.cfi_restore_state
 579:Drivers/ICP201xx/Icp201xxDriver.c **** 	
 1777              		.loc 1 579 2 is_stmt 1 view .LVU389
 579:Drivers/ICP201xx/Icp201xxDriver.c **** 	
 1778              		.loc 1 579 26 is_stmt 0 view .LVU390
 1779 0020 9DF80730 		ldrb	r3, [sp, #7]	@ zero_extendqisi2
 579:Drivers/ICP201xx/Icp201xxDriver.c **** 	
 1780              		.loc 1 579 55 view .LVU391
 1781 0024 03F00F03 		and	r3, r3, #15
 1782 0028 43EAC503 		orr	r3, r3, r5, lsl #3
 579:Drivers/ICP201xx/Icp201xxDriver.c **** 	
 1783              		.loc 1 579 12 view .LVU392
 1784 002c 8DF80730 		strb	r3, [sp, #7]
 581:Drivers/ICP201xx/Icp201xxDriver.c **** 
 1785              		.loc 1 581 2 is_stmt 1 view .LVU393
 581:Drivers/ICP201xx/Icp201xxDriver.c **** 
 1786              		.loc 1 581 9 is_stmt 0 view .LVU394
 1787 0030 0DF10703 		add	r3, sp, #7
 1788              	.LVL142:
 581:Drivers/ICP201xx/Icp201xxDriver.c **** 
 1789              		.loc 1 581 9 view .LVU395
 1790 0034 0122     		movs	r2, #1
 1791 0036 C321     		movs	r1, #195
 1792 0038 2046     		mov	r0, r4
 1793 003a FFF7FEFF 		bl	inv_icp201xx_serif_write_reg
 1794              	.LVL143:
 581:Drivers/ICP201xx/Icp201xxDriver.c **** 
 1795              		.loc 1 581 9 view .LVU396
 1796 003e EDE7     		b	.L95
 1797              		.cfi_endproc
 1798              	.LFE43:
 1800              		.section	.text.inv_icp201xx_rd_fifo_wm_high,"ax",%progbits
 1801              		.align	1
 1802              		.global	inv_icp201xx_rd_fifo_wm_high
 1803              		.syntax unified
 1804              		.thumb
 1805              		.thumb_func
 1807              	inv_icp201xx_rd_fifo_wm_high:
 1808              	.LVL144:
 1809              	.LFB44:
 584:Drivers/ICP201xx/Icp201xxDriver.c **** int inv_icp201xx_rd_fifo_wm_high(inv_icp201xx_serif_t * s, uint8_t *value)
 585:Drivers/ICP201xx/Icp201xxDriver.c **** {
 1810              		.loc 1 585 1 is_stmt 1 view -0
 1811              		.cfi_startproc
 1812              		@ args = 0, pretend = 0, frame = 8
 1813              		@ frame_needed = 0, uses_anonymous_args = 0
 1814              		.loc 1 585 1 is_stmt 0 view .LVU398
 1815 0000 10B5     		push	{r4, lr}
 1816              		.cfi_def_cfa_offset 8
 1817              		.cfi_offset 4, -8
 1818              		.cfi_offset 14, -4
 1819 0002 82B0     		sub	sp, sp, #8
ARM GAS  C:\Users\Nathan\AppData\Local\Temp\ccMZZe9L.s 			page 43


 1820              		.cfi_def_cfa_offset 16
 1821 0004 0C46     		mov	r4, r1
 586:Drivers/ICP201xx/Icp201xxDriver.c **** 	int status;
 1822              		.loc 1 586 2 is_stmt 1 view .LVU399
 587:Drivers/ICP201xx/Icp201xxDriver.c **** 	uint8_t reg_value = 0;
 1823              		.loc 1 587 2 view .LVU400
 1824              		.loc 1 587 10 is_stmt 0 view .LVU401
 1825 0006 0023     		movs	r3, #0
 1826 0008 8DF80730 		strb	r3, [sp, #7]
 588:Drivers/ICP201xx/Icp201xxDriver.c **** 	status = inv_icp201xx_serif_read_reg(s, MPUREG_FIFO_CONFIG, 1, &reg_value);
 1827              		.loc 1 588 2 is_stmt 1 view .LVU402
 1828              		.loc 1 588 11 is_stmt 0 view .LVU403
 1829 000c 0DF10703 		add	r3, sp, #7
 1830 0010 0122     		movs	r2, #1
 1831 0012 C321     		movs	r1, #195
 1832              	.LVL145:
 1833              		.loc 1 588 11 view .LVU404
 1834 0014 FFF7FEFF 		bl	inv_icp201xx_serif_read_reg
 1835              	.LVL146:
 589:Drivers/ICP201xx/Icp201xxDriver.c **** 
 590:Drivers/ICP201xx/Icp201xxDriver.c **** 	if(status)
 1836              		.loc 1 590 2 is_stmt 1 view .LVU405
 1837              		.loc 1 590 4 is_stmt 0 view .LVU406
 1838 0018 28B9     		cbnz	r0, .L99
 591:Drivers/ICP201xx/Icp201xxDriver.c **** 		return status;
 592:Drivers/ICP201xx/Icp201xxDriver.c **** 	
 593:Drivers/ICP201xx/Icp201xxDriver.c **** 	*value = ( reg_value & BIT_FIFO_WM_HIGH_MASK ) >> BIT_FIFO_WM_HIGH_POS; 
 1839              		.loc 1 593 2 is_stmt 1 view .LVU407
 1840              		.loc 1 593 49 is_stmt 0 view .LVU408
 1841 001a 9DF80730 		ldrb	r3, [sp, #7]	@ zero_extendqisi2
 1842 001e DB10     		asrs	r3, r3, #3
 1843 0020 03F01E03 		and	r3, r3, #30
 1844              		.loc 1 593 9 view .LVU409
 1845 0024 2370     		strb	r3, [r4]
 594:Drivers/ICP201xx/Icp201xxDriver.c **** 	
 595:Drivers/ICP201xx/Icp201xxDriver.c **** 	return status;
 1846              		.loc 1 595 2 is_stmt 1 view .LVU410
 1847              	.L99:
 596:Drivers/ICP201xx/Icp201xxDriver.c **** 	
 597:Drivers/ICP201xx/Icp201xxDriver.c **** }
 1848              		.loc 1 597 1 is_stmt 0 view .LVU411
 1849 0026 02B0     		add	sp, sp, #8
 1850              		.cfi_def_cfa_offset 8
 1851              		@ sp needed
 1852 0028 10BD     		pop	{r4, pc}
 1853              		.loc 1 597 1 view .LVU412
 1854              		.cfi_endproc
 1855              	.LFE44:
 1857              		.section	.text.inv_icp201xx_wr_fifo_wm_low,"ax",%progbits
 1858              		.align	1
 1859              		.global	inv_icp201xx_wr_fifo_wm_low
 1860              		.syntax unified
 1861              		.thumb
 1862              		.thumb_func
 1864              	inv_icp201xx_wr_fifo_wm_low:
 1865              	.LVL147:
 1866              	.LFB45:
ARM GAS  C:\Users\Nathan\AppData\Local\Temp\ccMZZe9L.s 			page 44


 598:Drivers/ICP201xx/Icp201xxDriver.c **** int inv_icp201xx_wr_fifo_wm_low(inv_icp201xx_serif_t * s, uint8_t new_value)
 599:Drivers/ICP201xx/Icp201xxDriver.c **** {
 1867              		.loc 1 599 1 is_stmt 1 view -0
 1868              		.cfi_startproc
 1869              		@ args = 0, pretend = 0, frame = 8
 1870              		@ frame_needed = 0, uses_anonymous_args = 0
 1871              		.loc 1 599 1 is_stmt 0 view .LVU414
 1872 0000 30B5     		push	{r4, r5, lr}
 1873              		.cfi_def_cfa_offset 12
 1874              		.cfi_offset 4, -12
 1875              		.cfi_offset 5, -8
 1876              		.cfi_offset 14, -4
 1877 0002 83B0     		sub	sp, sp, #12
 1878              		.cfi_def_cfa_offset 24
 1879 0004 0546     		mov	r5, r0
 1880 0006 0C46     		mov	r4, r1
 600:Drivers/ICP201xx/Icp201xxDriver.c **** 	int status;
 1881              		.loc 1 600 2 is_stmt 1 view .LVU415
 601:Drivers/ICP201xx/Icp201xxDriver.c **** 	uint8_t reg_value = 0;
 1882              		.loc 1 601 2 view .LVU416
 1883              		.loc 1 601 10 is_stmt 0 view .LVU417
 1884 0008 0023     		movs	r3, #0
 1885 000a 8DF80730 		strb	r3, [sp, #7]
 602:Drivers/ICP201xx/Icp201xxDriver.c **** 	status = inv_icp201xx_serif_read_reg(s, MPUREG_FIFO_CONFIG, 1, &reg_value);
 1886              		.loc 1 602 2 is_stmt 1 view .LVU418
 1887              		.loc 1 602 11 is_stmt 0 view .LVU419
 1888 000e 0DF10703 		add	r3, sp, #7
 1889 0012 0122     		movs	r2, #1
 1890 0014 C321     		movs	r1, #195
 1891              	.LVL148:
 1892              		.loc 1 602 11 view .LVU420
 1893 0016 FFF7FEFF 		bl	inv_icp201xx_serif_read_reg
 1894              	.LVL149:
 603:Drivers/ICP201xx/Icp201xxDriver.c **** 
 604:Drivers/ICP201xx/Icp201xxDriver.c **** 	if(status)
 1895              		.loc 1 604 2 is_stmt 1 view .LVU421
 1896              		.loc 1 604 4 is_stmt 0 view .LVU422
 1897 001a 08B1     		cbz	r0, .L105
 1898              	.LVL150:
 1899              	.L102:
 605:Drivers/ICP201xx/Icp201xxDriver.c **** 	return status;
 606:Drivers/ICP201xx/Icp201xxDriver.c **** 
 607:Drivers/ICP201xx/Icp201xxDriver.c **** 	reg_value = ( reg_value & (~BIT_FIFO_WM_LOW_MASK) ) | ( new_value ) ;
 608:Drivers/ICP201xx/Icp201xxDriver.c **** 	
 609:Drivers/ICP201xx/Icp201xxDriver.c **** 	status = inv_icp201xx_serif_write_reg(s, MPUREG_FIFO_CONFIG, 1, &reg_value);
 610:Drivers/ICP201xx/Icp201xxDriver.c **** 	
 611:Drivers/ICP201xx/Icp201xxDriver.c **** 	return status;
 612:Drivers/ICP201xx/Icp201xxDriver.c **** }
 1900              		.loc 1 612 1 view .LVU423
 1901 001c 03B0     		add	sp, sp, #12
 1902              		.cfi_remember_state
 1903              		.cfi_def_cfa_offset 12
 1904              		@ sp needed
 1905 001e 30BD     		pop	{r4, r5, pc}
 1906              	.LVL151:
 1907              	.L105:
 1908              		.cfi_restore_state
ARM GAS  C:\Users\Nathan\AppData\Local\Temp\ccMZZe9L.s 			page 45


 607:Drivers/ICP201xx/Icp201xxDriver.c **** 	
 1909              		.loc 1 607 2 is_stmt 1 view .LVU424
 607:Drivers/ICP201xx/Icp201xxDriver.c **** 	
 1910              		.loc 1 607 26 is_stmt 0 view .LVU425
 1911 0020 9DF80730 		ldrb	r3, [sp, #7]	@ zero_extendqisi2
 607:Drivers/ICP201xx/Icp201xxDriver.c **** 	
 1912              		.loc 1 607 12 view .LVU426
 1913 0024 23F00F03 		bic	r3, r3, #15
 1914 0028 44EA0301 		orr	r1, r4, r3
 1915 002c 8DF80710 		strb	r1, [sp, #7]
 609:Drivers/ICP201xx/Icp201xxDriver.c **** 	
 1916              		.loc 1 609 2 is_stmt 1 view .LVU427
 609:Drivers/ICP201xx/Icp201xxDriver.c **** 	
 1917              		.loc 1 609 11 is_stmt 0 view .LVU428
 1918 0030 0DF10703 		add	r3, sp, #7
 1919              	.LVL152:
 609:Drivers/ICP201xx/Icp201xxDriver.c **** 	
 1920              		.loc 1 609 11 view .LVU429
 1921 0034 0122     		movs	r2, #1
 1922 0036 C321     		movs	r1, #195
 1923 0038 2846     		mov	r0, r5
 1924 003a FFF7FEFF 		bl	inv_icp201xx_serif_write_reg
 1925              	.LVL153:
 611:Drivers/ICP201xx/Icp201xxDriver.c **** }
 1926              		.loc 1 611 2 is_stmt 1 view .LVU430
 611:Drivers/ICP201xx/Icp201xxDriver.c **** }
 1927              		.loc 1 611 9 is_stmt 0 view .LVU431
 1928 003e EDE7     		b	.L102
 1929              		.cfi_endproc
 1930              	.LFE45:
 1932              		.section	.text.inv_icp201xx_rd_fifo_wm_low,"ax",%progbits
 1933              		.align	1
 1934              		.global	inv_icp201xx_rd_fifo_wm_low
 1935              		.syntax unified
 1936              		.thumb
 1937              		.thumb_func
 1939              	inv_icp201xx_rd_fifo_wm_low:
 1940              	.LVL154:
 1941              	.LFB46:
 613:Drivers/ICP201xx/Icp201xxDriver.c **** 
 614:Drivers/ICP201xx/Icp201xxDriver.c **** int inv_icp201xx_rd_fifo_wm_low(inv_icp201xx_serif_t * s, uint8_t  *value)
 615:Drivers/ICP201xx/Icp201xxDriver.c **** {
 1942              		.loc 1 615 1 is_stmt 1 view -0
 1943              		.cfi_startproc
 1944              		@ args = 0, pretend = 0, frame = 8
 1945              		@ frame_needed = 0, uses_anonymous_args = 0
 1946              		.loc 1 615 1 is_stmt 0 view .LVU433
 1947 0000 10B5     		push	{r4, lr}
 1948              		.cfi_def_cfa_offset 8
 1949              		.cfi_offset 4, -8
 1950              		.cfi_offset 14, -4
 1951 0002 82B0     		sub	sp, sp, #8
 1952              		.cfi_def_cfa_offset 16
 1953 0004 0C46     		mov	r4, r1
 616:Drivers/ICP201xx/Icp201xxDriver.c **** 	int status;
 1954              		.loc 1 616 2 is_stmt 1 view .LVU434
 617:Drivers/ICP201xx/Icp201xxDriver.c **** 	uint8_t reg_value = 0;
ARM GAS  C:\Users\Nathan\AppData\Local\Temp\ccMZZe9L.s 			page 46


 1955              		.loc 1 617 2 view .LVU435
 1956              		.loc 1 617 10 is_stmt 0 view .LVU436
 1957 0006 0023     		movs	r3, #0
 1958 0008 8DF80730 		strb	r3, [sp, #7]
 618:Drivers/ICP201xx/Icp201xxDriver.c **** 	status = inv_icp201xx_serif_read_reg(s, MPUREG_FIFO_CONFIG, 1, &reg_value);
 1959              		.loc 1 618 2 is_stmt 1 view .LVU437
 1960              		.loc 1 618 11 is_stmt 0 view .LVU438
 1961 000c 0DF10703 		add	r3, sp, #7
 1962 0010 0122     		movs	r2, #1
 1963 0012 C321     		movs	r1, #195
 1964              	.LVL155:
 1965              		.loc 1 618 11 view .LVU439
 1966 0014 FFF7FEFF 		bl	inv_icp201xx_serif_read_reg
 1967              	.LVL156:
 619:Drivers/ICP201xx/Icp201xxDriver.c **** 
 620:Drivers/ICP201xx/Icp201xxDriver.c **** 	if(status)
 1968              		.loc 1 620 2 is_stmt 1 view .LVU440
 1969              		.loc 1 620 4 is_stmt 0 view .LVU441
 1970 0018 20B9     		cbnz	r0, .L106
 621:Drivers/ICP201xx/Icp201xxDriver.c **** 		return status;
 622:Drivers/ICP201xx/Icp201xxDriver.c **** 	
 623:Drivers/ICP201xx/Icp201xxDriver.c **** 	*value = ( reg_value & BIT_FIFO_WM_LOW_MASK ); 
 1971              		.loc 1 623 2 is_stmt 1 view .LVU442
 1972              		.loc 1 623 23 is_stmt 0 view .LVU443
 1973 001a 9DF80730 		ldrb	r3, [sp, #7]	@ zero_extendqisi2
 1974 001e 03F00F03 		and	r3, r3, #15
 1975              		.loc 1 623 9 view .LVU444
 1976 0022 2370     		strb	r3, [r4]
 624:Drivers/ICP201xx/Icp201xxDriver.c **** 	
 625:Drivers/ICP201xx/Icp201xxDriver.c **** 	return status;
 1977              		.loc 1 625 2 is_stmt 1 view .LVU445
 1978              	.L106:
 626:Drivers/ICP201xx/Icp201xxDriver.c **** }
 1979              		.loc 1 626 1 is_stmt 0 view .LVU446
 1980 0024 02B0     		add	sp, sp, #8
 1981              		.cfi_def_cfa_offset 8
 1982              		@ sp needed
 1983 0026 10BD     		pop	{r4, pc}
 1984              		.loc 1 626 1 view .LVU447
 1985              		.cfi_endproc
 1986              	.LFE46:
 1988              		.section	.text.inv_icp201xx_wr_fifo_config,"ax",%progbits
 1989              		.align	1
 1990              		.global	inv_icp201xx_wr_fifo_config
 1991              		.syntax unified
 1992              		.thumb
 1993              		.thumb_func
 1995              	inv_icp201xx_wr_fifo_config:
 1996              	.LVL157:
 1997              	.LFB47:
 627:Drivers/ICP201xx/Icp201xxDriver.c **** 
 628:Drivers/ICP201xx/Icp201xxDriver.c **** 
 629:Drivers/ICP201xx/Icp201xxDriver.c **** int inv_icp201xx_wr_fifo_config(inv_icp201xx_serif_t * s, uint8_t new_value)
 630:Drivers/ICP201xx/Icp201xxDriver.c **** {
 1998              		.loc 1 630 1 is_stmt 1 view -0
 1999              		.cfi_startproc
 2000              		@ args = 0, pretend = 0, frame = 8
ARM GAS  C:\Users\Nathan\AppData\Local\Temp\ccMZZe9L.s 			page 47


 2001              		@ frame_needed = 0, uses_anonymous_args = 0
 2002              		.loc 1 630 1 is_stmt 0 view .LVU449
 2003 0000 00B5     		push	{lr}
 2004              		.cfi_def_cfa_offset 4
 2005              		.cfi_offset 14, -4
 2006 0002 83B0     		sub	sp, sp, #12
 2007              		.cfi_def_cfa_offset 16
 2008 0004 8DF80710 		strb	r1, [sp, #7]
 631:Drivers/ICP201xx/Icp201xxDriver.c **** 	return inv_icp201xx_serif_write_reg(s, MPUREG_FIFO_CONFIG, 1, &new_value);
 2009              		.loc 1 631 2 is_stmt 1 view .LVU450
 2010              		.loc 1 631 9 is_stmt 0 view .LVU451
 2011 0008 0DF10703 		add	r3, sp, #7
 2012 000c 0122     		movs	r2, #1
 2013 000e C321     		movs	r1, #195
 2014              	.LVL158:
 2015              		.loc 1 631 9 view .LVU452
 2016 0010 FFF7FEFF 		bl	inv_icp201xx_serif_write_reg
 2017              	.LVL159:
 632:Drivers/ICP201xx/Icp201xxDriver.c **** }
 2018              		.loc 1 632 1 view .LVU453
 2019 0014 03B0     		add	sp, sp, #12
 2020              		.cfi_def_cfa_offset 4
 2021              		@ sp needed
 2022 0016 5DF804FB 		ldr	pc, [sp], #4
 2023              		.cfi_endproc
 2024              	.LFE47:
 2026              		.section	.text.inv_icp201xx_wr_spi_mode,"ax",%progbits
 2027              		.align	1
 2028              		.global	inv_icp201xx_wr_spi_mode
 2029              		.syntax unified
 2030              		.thumb
 2031              		.thumb_func
 2033              	inv_icp201xx_wr_spi_mode:
 2034              	.LVL160:
 2035              	.LFB48:
 633:Drivers/ICP201xx/Icp201xxDriver.c **** 
 634:Drivers/ICP201xx/Icp201xxDriver.c **** 
 635:Drivers/ICP201xx/Icp201xxDriver.c **** int inv_icp201xx_wr_spi_mode(inv_icp201xx_serif_t * s, icp201xx_spi_mode_t new_value)
 636:Drivers/ICP201xx/Icp201xxDriver.c **** {
 2036              		.loc 1 636 1 is_stmt 1 view -0
 2037              		.cfi_startproc
 2038              		@ args = 0, pretend = 0, frame = 8
 2039              		@ frame_needed = 0, uses_anonymous_args = 0
 2040              		.loc 1 636 1 is_stmt 0 view .LVU455
 2041 0000 30B5     		push	{r4, r5, lr}
 2042              		.cfi_def_cfa_offset 12
 2043              		.cfi_offset 4, -12
 2044              		.cfi_offset 5, -8
 2045              		.cfi_offset 14, -4
 2046 0002 83B0     		sub	sp, sp, #12
 2047              		.cfi_def_cfa_offset 24
 2048 0004 0546     		mov	r5, r0
 2049 0006 0C46     		mov	r4, r1
 637:Drivers/ICP201xx/Icp201xxDriver.c **** 	int status;
 2050              		.loc 1 637 2 is_stmt 1 view .LVU456
 638:Drivers/ICP201xx/Icp201xxDriver.c **** 	uint8_t reg_value = 0;
 2051              		.loc 1 638 2 view .LVU457
ARM GAS  C:\Users\Nathan\AppData\Local\Temp\ccMZZe9L.s 			page 48


 2052              		.loc 1 638 10 is_stmt 0 view .LVU458
 2053 0008 0023     		movs	r3, #0
 2054 000a 8DF80730 		strb	r3, [sp, #7]
 639:Drivers/ICP201xx/Icp201xxDriver.c **** 	status = inv_icp201xx_serif_read_reg(s, MPUREG_SPI_MODE, 1, &reg_value);
 2055              		.loc 1 639 2 is_stmt 1 view .LVU459
 2056              		.loc 1 639 11 is_stmt 0 view .LVU460
 2057 000e 0DF10703 		add	r3, sp, #7
 2058 0012 0122     		movs	r2, #1
 2059 0014 C521     		movs	r1, #197
 2060              	.LVL161:
 2061              		.loc 1 639 11 view .LVU461
 2062 0016 FFF7FEFF 		bl	inv_icp201xx_serif_read_reg
 2063              	.LVL162:
 640:Drivers/ICP201xx/Icp201xxDriver.c **** 
 641:Drivers/ICP201xx/Icp201xxDriver.c **** 	if(status)
 2064              		.loc 1 641 2 is_stmt 1 view .LVU462
 2065              		.loc 1 641 4 is_stmt 0 view .LVU463
 2066 001a 08B1     		cbz	r0, .L114
 2067              	.LVL163:
 2068              	.L111:
 642:Drivers/ICP201xx/Icp201xxDriver.c **** 		return status;
 643:Drivers/ICP201xx/Icp201xxDriver.c **** 
 644:Drivers/ICP201xx/Icp201xxDriver.c **** 	reg_value = ( reg_value & (~BIT_FIFO_SPI_MODE_MASK) ) | ( new_value ) ;
 645:Drivers/ICP201xx/Icp201xxDriver.c **** 	
 646:Drivers/ICP201xx/Icp201xxDriver.c **** 	status = inv_icp201xx_serif_write_reg(s, MPUREG_SPI_MODE, 1, &reg_value);
 647:Drivers/ICP201xx/Icp201xxDriver.c **** 	
 648:Drivers/ICP201xx/Icp201xxDriver.c **** 	return status;
 649:Drivers/ICP201xx/Icp201xxDriver.c **** }
 2069              		.loc 1 649 1 view .LVU464
 2070 001c 03B0     		add	sp, sp, #12
 2071              		.cfi_remember_state
 2072              		.cfi_def_cfa_offset 12
 2073              		@ sp needed
 2074 001e 30BD     		pop	{r4, r5, pc}
 2075              	.LVL164:
 2076              	.L114:
 2077              		.cfi_restore_state
 644:Drivers/ICP201xx/Icp201xxDriver.c **** 	
 2078              		.loc 1 644 2 is_stmt 1 view .LVU465
 644:Drivers/ICP201xx/Icp201xxDriver.c **** 	
 2079              		.loc 1 644 26 is_stmt 0 view .LVU466
 2080 0020 9DF80730 		ldrb	r3, [sp, #7]	@ zero_extendqisi2
 644:Drivers/ICP201xx/Icp201xxDriver.c **** 	
 2081              		.loc 1 644 12 view .LVU467
 2082 0024 23F00103 		bic	r3, r3, #1
 2083 0028 44EA0301 		orr	r1, r4, r3
 2084 002c 8DF80710 		strb	r1, [sp, #7]
 646:Drivers/ICP201xx/Icp201xxDriver.c **** 	
 2085              		.loc 1 646 2 is_stmt 1 view .LVU468
 646:Drivers/ICP201xx/Icp201xxDriver.c **** 	
 2086              		.loc 1 646 11 is_stmt 0 view .LVU469
 2087 0030 0DF10703 		add	r3, sp, #7
 2088              	.LVL165:
 646:Drivers/ICP201xx/Icp201xxDriver.c **** 	
 2089              		.loc 1 646 11 view .LVU470
 2090 0034 0122     		movs	r2, #1
 2091 0036 C521     		movs	r1, #197
ARM GAS  C:\Users\Nathan\AppData\Local\Temp\ccMZZe9L.s 			page 49


 2092 0038 2846     		mov	r0, r5
 2093 003a FFF7FEFF 		bl	inv_icp201xx_serif_write_reg
 2094              	.LVL166:
 648:Drivers/ICP201xx/Icp201xxDriver.c **** }
 2095              		.loc 1 648 2 is_stmt 1 view .LVU471
 648:Drivers/ICP201xx/Icp201xxDriver.c **** }
 2096              		.loc 1 648 9 is_stmt 0 view .LVU472
 2097 003e EDE7     		b	.L111
 2098              		.cfi_endproc
 2099              	.LFE48:
 2101              		.section	.text.inv_icp201xx_rd_spi_mode,"ax",%progbits
 2102              		.align	1
 2103              		.global	inv_icp201xx_rd_spi_mode
 2104              		.syntax unified
 2105              		.thumb
 2106              		.thumb_func
 2108              	inv_icp201xx_rd_spi_mode:
 2109              	.LVL167:
 2110              	.LFB49:
 650:Drivers/ICP201xx/Icp201xxDriver.c **** 
 651:Drivers/ICP201xx/Icp201xxDriver.c **** int inv_icp201xx_rd_spi_mode(inv_icp201xx_serif_t * s, icp201xx_spi_mode_t *value)
 652:Drivers/ICP201xx/Icp201xxDriver.c **** {
 2111              		.loc 1 652 1 is_stmt 1 view -0
 2112              		.cfi_startproc
 2113              		@ args = 0, pretend = 0, frame = 8
 2114              		@ frame_needed = 0, uses_anonymous_args = 0
 2115              		.loc 1 652 1 is_stmt 0 view .LVU474
 2116 0000 10B5     		push	{r4, lr}
 2117              		.cfi_def_cfa_offset 8
 2118              		.cfi_offset 4, -8
 2119              		.cfi_offset 14, -4
 2120 0002 82B0     		sub	sp, sp, #8
 2121              		.cfi_def_cfa_offset 16
 2122 0004 0C46     		mov	r4, r1
 653:Drivers/ICP201xx/Icp201xxDriver.c **** 	int status;
 2123              		.loc 1 653 2 is_stmt 1 view .LVU475
 654:Drivers/ICP201xx/Icp201xxDriver.c **** 	uint8_t reg_value = 0;
 2124              		.loc 1 654 2 view .LVU476
 2125              		.loc 1 654 10 is_stmt 0 view .LVU477
 2126 0006 0023     		movs	r3, #0
 2127 0008 8DF80730 		strb	r3, [sp, #7]
 655:Drivers/ICP201xx/Icp201xxDriver.c **** 	status = inv_icp201xx_serif_read_reg(s, MPUREG_SPI_MODE, 1, &reg_value);
 2128              		.loc 1 655 2 is_stmt 1 view .LVU478
 2129              		.loc 1 655 11 is_stmt 0 view .LVU479
 2130 000c 0DF10703 		add	r3, sp, #7
 2131 0010 0122     		movs	r2, #1
 2132 0012 C521     		movs	r1, #197
 2133              	.LVL168:
 2134              		.loc 1 655 11 view .LVU480
 2135 0014 FFF7FEFF 		bl	inv_icp201xx_serif_read_reg
 2136              	.LVL169:
 656:Drivers/ICP201xx/Icp201xxDriver.c **** 
 657:Drivers/ICP201xx/Icp201xxDriver.c **** 	if(status)
 2137              		.loc 1 657 2 is_stmt 1 view .LVU481
 2138              		.loc 1 657 4 is_stmt 0 view .LVU482
 2139 0018 20B9     		cbnz	r0, .L115
 658:Drivers/ICP201xx/Icp201xxDriver.c **** 		return status;
ARM GAS  C:\Users\Nathan\AppData\Local\Temp\ccMZZe9L.s 			page 50


 659:Drivers/ICP201xx/Icp201xxDriver.c **** 	
 660:Drivers/ICP201xx/Icp201xxDriver.c **** 	*value = (icp201xx_spi_mode_t)( reg_value & BIT_FIFO_SPI_MODE_MASK ); 
 2140              		.loc 1 660 2 is_stmt 1 view .LVU483
 2141              		.loc 1 660 44 is_stmt 0 view .LVU484
 2142 001a 9DF80730 		ldrb	r3, [sp, #7]	@ zero_extendqisi2
 2143 001e 03F00103 		and	r3, r3, #1
 2144              		.loc 1 660 9 view .LVU485
 2145 0022 2370     		strb	r3, [r4]
 661:Drivers/ICP201xx/Icp201xxDriver.c **** 	
 662:Drivers/ICP201xx/Icp201xxDriver.c **** 	return status;
 2146              		.loc 1 662 2 is_stmt 1 view .LVU486
 2147              	.L115:
 663:Drivers/ICP201xx/Icp201xxDriver.c **** 	
 664:Drivers/ICP201xx/Icp201xxDriver.c **** }
 2148              		.loc 1 664 1 is_stmt 0 view .LVU487
 2149 0024 02B0     		add	sp, sp, #8
 2150              		.cfi_def_cfa_offset 8
 2151              		@ sp needed
 2152 0026 10BD     		pop	{r4, pc}
 2153              		.loc 1 664 1 view .LVU488
 2154              		.cfi_endproc
 2155              	.LFE49:
 2157              		.section	.text.inv_icp201xx_rd_fifo_fill,"ax",%progbits
 2158              		.align	1
 2159              		.global	inv_icp201xx_rd_fifo_fill
 2160              		.syntax unified
 2161              		.thumb
 2162              		.thumb_func
 2164              	inv_icp201xx_rd_fifo_fill:
 2165              	.LVL170:
 2166              	.LFB50:
 665:Drivers/ICP201xx/Icp201xxDriver.c **** 
 666:Drivers/ICP201xx/Icp201xxDriver.c **** 
 667:Drivers/ICP201xx/Icp201xxDriver.c **** 
 668:Drivers/ICP201xx/Icp201xxDriver.c **** 
 669:Drivers/ICP201xx/Icp201xxDriver.c **** /********************************************************** FIFO FILL *****************************
 670:Drivers/ICP201xx/Icp201xxDriver.c **** 
 671:Drivers/ICP201xx/Icp201xxDriver.c **** int inv_icp201xx_rd_fifo_fill(inv_icp201xx_serif_t * s, uint8_t *value)
 672:Drivers/ICP201xx/Icp201xxDriver.c **** {
 2167              		.loc 1 672 1 is_stmt 1 view -0
 2168              		.cfi_startproc
 2169              		@ args = 0, pretend = 0, frame = 0
 2170              		@ frame_needed = 0, uses_anonymous_args = 0
 2171              		.loc 1 672 1 is_stmt 0 view .LVU490
 2172 0000 08B5     		push	{r3, lr}
 2173              		.cfi_def_cfa_offset 8
 2174              		.cfi_offset 3, -8
 2175              		.cfi_offset 14, -4
 2176 0002 0B46     		mov	r3, r1
 673:Drivers/ICP201xx/Icp201xxDriver.c **** 	int status;
 2177              		.loc 1 673 2 is_stmt 1 view .LVU491
 674:Drivers/ICP201xx/Icp201xxDriver.c **** 	
 675:Drivers/ICP201xx/Icp201xxDriver.c **** 	status = inv_icp201xx_serif_read_reg(s, MPUREG_FIFO_FILL, 1, value);
 2178              		.loc 1 675 2 view .LVU492
 2179              		.loc 1 675 11 is_stmt 0 view .LVU493
 2180 0004 0122     		movs	r2, #1
 2181 0006 C421     		movs	r1, #196
ARM GAS  C:\Users\Nathan\AppData\Local\Temp\ccMZZe9L.s 			page 51


 2182              	.LVL171:
 2183              		.loc 1 675 11 view .LVU494
 2184 0008 FFF7FEFF 		bl	inv_icp201xx_serif_read_reg
 2185              	.LVL172:
 676:Drivers/ICP201xx/Icp201xxDriver.c **** 
 677:Drivers/ICP201xx/Icp201xxDriver.c **** 	return status;
 2186              		.loc 1 677 2 is_stmt 1 view .LVU495
 678:Drivers/ICP201xx/Icp201xxDriver.c **** }
 2187              		.loc 1 678 1 is_stmt 0 view .LVU496
 2188 000c 08BD     		pop	{r3, pc}
 2189              		.cfi_endproc
 2190              	.LFE50:
 2192              		.section	.text.inv_icp201xx_wr_flush_fifo,"ax",%progbits
 2193              		.align	1
 2194              		.global	inv_icp201xx_wr_flush_fifo
 2195              		.syntax unified
 2196              		.thumb
 2197              		.thumb_func
 2199              	inv_icp201xx_wr_flush_fifo:
 2200              	.LVL173:
 2201              	.LFB51:
 679:Drivers/ICP201xx/Icp201xxDriver.c **** 
 680:Drivers/ICP201xx/Icp201xxDriver.c **** int inv_icp201xx_wr_flush_fifo(inv_icp201xx_serif_t * s)
 681:Drivers/ICP201xx/Icp201xxDriver.c **** {
 2202              		.loc 1 681 1 is_stmt 1 view -0
 2203              		.cfi_startproc
 2204              		@ args = 0, pretend = 0, frame = 8
 2205              		@ frame_needed = 0, uses_anonymous_args = 0
 2206              		.loc 1 681 1 is_stmt 0 view .LVU498
 2207 0000 10B5     		push	{r4, lr}
 2208              		.cfi_def_cfa_offset 8
 2209              		.cfi_offset 4, -8
 2210              		.cfi_offset 14, -4
 2211 0002 82B0     		sub	sp, sp, #8
 2212              		.cfi_def_cfa_offset 16
 2213 0004 0446     		mov	r4, r0
 682:Drivers/ICP201xx/Icp201xxDriver.c **** 	int status;
 2214              		.loc 1 682 2 is_stmt 1 view .LVU499
 683:Drivers/ICP201xx/Icp201xxDriver.c **** 	uint8_t read_val = 0;
 2215              		.loc 1 683 2 view .LVU500
 2216              		.loc 1 683 10 is_stmt 0 view .LVU501
 2217 0006 0023     		movs	r3, #0
 2218 0008 8DF80730 		strb	r3, [sp, #7]
 684:Drivers/ICP201xx/Icp201xxDriver.c **** 	
 685:Drivers/ICP201xx/Icp201xxDriver.c **** 	status = inv_icp201xx_serif_read_reg(s, MPUREG_FIFO_FILL, 1, &read_val);
 2219              		.loc 1 685 2 is_stmt 1 view .LVU502
 2220              		.loc 1 685 11 is_stmt 0 view .LVU503
 2221 000c 0DF10703 		add	r3, sp, #7
 2222 0010 0122     		movs	r2, #1
 2223 0012 C421     		movs	r1, #196
 2224 0014 FFF7FEFF 		bl	inv_icp201xx_serif_read_reg
 2225              	.LVL174:
 686:Drivers/ICP201xx/Icp201xxDriver.c **** 	if ( status )
 2226              		.loc 1 686 2 is_stmt 1 view .LVU504
 2227              		.loc 1 686 5 is_stmt 0 view .LVU505
 2228 0018 08B1     		cbz	r0, .L123
 2229              	.LVL175:
ARM GAS  C:\Users\Nathan\AppData\Local\Temp\ccMZZe9L.s 			page 52


 2230              	.L120:
 687:Drivers/ICP201xx/Icp201xxDriver.c **** 		return status;
 688:Drivers/ICP201xx/Icp201xxDriver.c **** 	read_val |= 0x80;
 689:Drivers/ICP201xx/Icp201xxDriver.c **** 
 690:Drivers/ICP201xx/Icp201xxDriver.c ****     status = inv_icp201xx_serif_write_reg(s, MPUREG_FIFO_FILL, 1, &read_val);
 691:Drivers/ICP201xx/Icp201xxDriver.c **** 
 692:Drivers/ICP201xx/Icp201xxDriver.c **** 	return status;
 693:Drivers/ICP201xx/Icp201xxDriver.c **** }
 2231              		.loc 1 693 1 view .LVU506
 2232 001a 02B0     		add	sp, sp, #8
 2233              		.cfi_remember_state
 2234              		.cfi_def_cfa_offset 8
 2235              		@ sp needed
 2236 001c 10BD     		pop	{r4, pc}
 2237              	.LVL176:
 2238              	.L123:
 2239              		.cfi_restore_state
 688:Drivers/ICP201xx/Icp201xxDriver.c **** 
 2240              		.loc 1 688 2 is_stmt 1 view .LVU507
 688:Drivers/ICP201xx/Icp201xxDriver.c **** 
 2241              		.loc 1 688 11 is_stmt 0 view .LVU508
 2242 001e 9DF80730 		ldrb	r3, [sp, #7]	@ zero_extendqisi2
 2243 0022 63F07F03 		orn	r3, r3, #127
 2244 0026 8DF80730 		strb	r3, [sp, #7]
 690:Drivers/ICP201xx/Icp201xxDriver.c **** 
 2245              		.loc 1 690 5 is_stmt 1 view .LVU509
 690:Drivers/ICP201xx/Icp201xxDriver.c **** 
 2246              		.loc 1 690 14 is_stmt 0 view .LVU510
 2247 002a 0DF10703 		add	r3, sp, #7
 2248              	.LVL177:
 690:Drivers/ICP201xx/Icp201xxDriver.c **** 
 2249              		.loc 1 690 14 view .LVU511
 2250 002e 0122     		movs	r2, #1
 2251 0030 C421     		movs	r1, #196
 2252 0032 2046     		mov	r0, r4
 2253 0034 FFF7FEFF 		bl	inv_icp201xx_serif_write_reg
 2254              	.LVL178:
 692:Drivers/ICP201xx/Icp201xxDriver.c **** }
 2255              		.loc 1 692 2 is_stmt 1 view .LVU512
 692:Drivers/ICP201xx/Icp201xxDriver.c **** }
 2256              		.loc 1 692 9 is_stmt 0 view .LVU513
 2257 0038 EFE7     		b	.L120
 2258              		.cfi_endproc
 2259              	.LFE51:
 2261              		.section	.text.inv_icp201xx_rd_fifo_empty_status,"ax",%progbits
 2262              		.align	1
 2263              		.global	inv_icp201xx_rd_fifo_empty_status
 2264              		.syntax unified
 2265              		.thumb
 2266              		.thumb_func
 2268              	inv_icp201xx_rd_fifo_empty_status:
 2269              	.LVL179:
 2270              	.LFB52:
 694:Drivers/ICP201xx/Icp201xxDriver.c **** 
 695:Drivers/ICP201xx/Icp201xxDriver.c **** int inv_icp201xx_rd_fifo_empty_status(inv_icp201xx_serif_t * s, uint8_t *value)
 696:Drivers/ICP201xx/Icp201xxDriver.c **** {
 2271              		.loc 1 696 1 is_stmt 1 view -0
ARM GAS  C:\Users\Nathan\AppData\Local\Temp\ccMZZe9L.s 			page 53


 2272              		.cfi_startproc
 2273              		@ args = 0, pretend = 0, frame = 8
 2274              		@ frame_needed = 0, uses_anonymous_args = 0
 2275              		.loc 1 696 1 is_stmt 0 view .LVU515
 2276 0000 10B5     		push	{r4, lr}
 2277              		.cfi_def_cfa_offset 8
 2278              		.cfi_offset 4, -8
 2279              		.cfi_offset 14, -4
 2280 0002 82B0     		sub	sp, sp, #8
 2281              		.cfi_def_cfa_offset 16
 2282 0004 0C46     		mov	r4, r1
 697:Drivers/ICP201xx/Icp201xxDriver.c **** 	int status;
 2283              		.loc 1 697 2 is_stmt 1 view .LVU516
 698:Drivers/ICP201xx/Icp201xxDriver.c **** 	uint8_t read_val = 0;
 2284              		.loc 1 698 2 view .LVU517
 2285              		.loc 1 698 10 is_stmt 0 view .LVU518
 2286 0006 0023     		movs	r3, #0
 2287 0008 8DF80730 		strb	r3, [sp, #7]
 699:Drivers/ICP201xx/Icp201xxDriver.c **** 	
 700:Drivers/ICP201xx/Icp201xxDriver.c **** 	status = inv_icp201xx_serif_read_reg(s, MPUREG_FIFO_FILL, 1, &read_val);
 2288              		.loc 1 700 2 is_stmt 1 view .LVU519
 2289              		.loc 1 700 11 is_stmt 0 view .LVU520
 2290 000c 0DF10703 		add	r3, sp, #7
 2291 0010 0122     		movs	r2, #1
 2292 0012 C421     		movs	r1, #196
 2293              	.LVL180:
 2294              		.loc 1 700 11 view .LVU521
 2295 0014 FFF7FEFF 		bl	inv_icp201xx_serif_read_reg
 2296              	.LVL181:
 701:Drivers/ICP201xx/Icp201xxDriver.c **** 	if ( status )
 2297              		.loc 1 701 2 is_stmt 1 view .LVU522
 2298              		.loc 1 701 5 is_stmt 0 view .LVU523
 2299 0018 20B9     		cbnz	r0, .L124
 702:Drivers/ICP201xx/Icp201xxDriver.c **** 		return status;
 703:Drivers/ICP201xx/Icp201xxDriver.c **** 	*value = ( read_val & BIT_FIFO_EMPTY_STATUS_MASK ) >>  BIT_FIFO_EMPTY_POS;
 2300              		.loc 1 703 2 is_stmt 1 view .LVU524
 2301              		.loc 1 703 53 is_stmt 0 view .LVU525
 2302 001a 9DF80730 		ldrb	r3, [sp, #7]	@ zero_extendqisi2
 2303 001e C3F38013 		ubfx	r3, r3, #6, #1
 2304              		.loc 1 703 9 view .LVU526
 2305 0022 2370     		strb	r3, [r4]
 704:Drivers/ICP201xx/Icp201xxDriver.c **** 	
 705:Drivers/ICP201xx/Icp201xxDriver.c **** 	return status;
 2306              		.loc 1 705 2 is_stmt 1 view .LVU527
 2307              	.L124:
 706:Drivers/ICP201xx/Icp201xxDriver.c **** }
 2308              		.loc 1 706 1 is_stmt 0 view .LVU528
 2309 0024 02B0     		add	sp, sp, #8
 2310              		.cfi_def_cfa_offset 8
 2311              		@ sp needed
 2312 0026 10BD     		pop	{r4, pc}
 2313              		.loc 1 706 1 view .LVU529
 2314              		.cfi_endproc
 2315              	.LFE52:
 2317              		.section	.text.inv_icp201xx_rd_fifo_full_status,"ax",%progbits
 2318              		.align	1
 2319              		.global	inv_icp201xx_rd_fifo_full_status
ARM GAS  C:\Users\Nathan\AppData\Local\Temp\ccMZZe9L.s 			page 54


 2320              		.syntax unified
 2321              		.thumb
 2322              		.thumb_func
 2324              	inv_icp201xx_rd_fifo_full_status:
 2325              	.LVL182:
 2326              	.LFB53:
 707:Drivers/ICP201xx/Icp201xxDriver.c **** 
 708:Drivers/ICP201xx/Icp201xxDriver.c **** int inv_icp201xx_rd_fifo_full_status(inv_icp201xx_serif_t * s, uint8_t *value)
 709:Drivers/ICP201xx/Icp201xxDriver.c **** {
 2327              		.loc 1 709 1 is_stmt 1 view -0
 2328              		.cfi_startproc
 2329              		@ args = 0, pretend = 0, frame = 8
 2330              		@ frame_needed = 0, uses_anonymous_args = 0
 2331              		.loc 1 709 1 is_stmt 0 view .LVU531
 2332 0000 10B5     		push	{r4, lr}
 2333              		.cfi_def_cfa_offset 8
 2334              		.cfi_offset 4, -8
 2335              		.cfi_offset 14, -4
 2336 0002 82B0     		sub	sp, sp, #8
 2337              		.cfi_def_cfa_offset 16
 2338 0004 0C46     		mov	r4, r1
 710:Drivers/ICP201xx/Icp201xxDriver.c **** 	int status;
 2339              		.loc 1 710 2 is_stmt 1 view .LVU532
 711:Drivers/ICP201xx/Icp201xxDriver.c **** 	uint8_t read_val = 0;
 2340              		.loc 1 711 2 view .LVU533
 2341              		.loc 1 711 10 is_stmt 0 view .LVU534
 2342 0006 0023     		movs	r3, #0
 2343 0008 8DF80730 		strb	r3, [sp, #7]
 712:Drivers/ICP201xx/Icp201xxDriver.c **** 	
 713:Drivers/ICP201xx/Icp201xxDriver.c **** 	status = inv_icp201xx_serif_read_reg(s, MPUREG_FIFO_FILL, 1, &read_val);
 2344              		.loc 1 713 2 is_stmt 1 view .LVU535
 2345              		.loc 1 713 11 is_stmt 0 view .LVU536
 2346 000c 0DF10703 		add	r3, sp, #7
 2347 0010 0122     		movs	r2, #1
 2348 0012 C421     		movs	r1, #196
 2349              	.LVL183:
 2350              		.loc 1 713 11 view .LVU537
 2351 0014 FFF7FEFF 		bl	inv_icp201xx_serif_read_reg
 2352              	.LVL184:
 714:Drivers/ICP201xx/Icp201xxDriver.c **** 	if ( status )
 2353              		.loc 1 714 2 is_stmt 1 view .LVU538
 2354              		.loc 1 714 5 is_stmt 0 view .LVU539
 2355 0018 20B9     		cbnz	r0, .L127
 715:Drivers/ICP201xx/Icp201xxDriver.c **** 		return status;
 716:Drivers/ICP201xx/Icp201xxDriver.c **** 	*value = ( read_val & BIT_FIFO_FULL_STATUS_MASK ) >>  BIT_FIFO_FULL_POS;
 2356              		.loc 1 716 2 is_stmt 1 view .LVU540
 2357              		.loc 1 716 52 is_stmt 0 view .LVU541
 2358 001a 9DF80730 		ldrb	r3, [sp, #7]	@ zero_extendqisi2
 2359 001e C3F34013 		ubfx	r3, r3, #5, #1
 2360              		.loc 1 716 9 view .LVU542
 2361 0022 2370     		strb	r3, [r4]
 717:Drivers/ICP201xx/Icp201xxDriver.c **** 	
 718:Drivers/ICP201xx/Icp201xxDriver.c **** 	return status;
 2362              		.loc 1 718 2 is_stmt 1 view .LVU543
 2363              	.L127:
 719:Drivers/ICP201xx/Icp201xxDriver.c **** }
 2364              		.loc 1 719 1 is_stmt 0 view .LVU544
ARM GAS  C:\Users\Nathan\AppData\Local\Temp\ccMZZe9L.s 			page 55


 2365 0024 02B0     		add	sp, sp, #8
 2366              		.cfi_def_cfa_offset 8
 2367              		@ sp needed
 2368 0026 10BD     		pop	{r4, pc}
 2369              		.loc 1 719 1 view .LVU545
 2370              		.cfi_endproc
 2371              	.LFE53:
 2373              		.section	.text.inv_icp201xx_rd_fifo_level,"ax",%progbits
 2374              		.align	1
 2375              		.global	inv_icp201xx_rd_fifo_level
 2376              		.syntax unified
 2377              		.thumb
 2378              		.thumb_func
 2380              	inv_icp201xx_rd_fifo_level:
 2381              	.LVL185:
 2382              	.LFB54:
 720:Drivers/ICP201xx/Icp201xxDriver.c **** 
 721:Drivers/ICP201xx/Icp201xxDriver.c **** int inv_icp201xx_rd_fifo_level(inv_icp201xx_serif_t * s, uint8_t *value)
 722:Drivers/ICP201xx/Icp201xxDriver.c **** {
 2383              		.loc 1 722 1 is_stmt 1 view -0
 2384              		.cfi_startproc
 2385              		@ args = 0, pretend = 0, frame = 8
 2386              		@ frame_needed = 0, uses_anonymous_args = 0
 2387              		.loc 1 722 1 is_stmt 0 view .LVU547
 2388 0000 10B5     		push	{r4, lr}
 2389              		.cfi_def_cfa_offset 8
 2390              		.cfi_offset 4, -8
 2391              		.cfi_offset 14, -4
 2392 0002 82B0     		sub	sp, sp, #8
 2393              		.cfi_def_cfa_offset 16
 2394 0004 0C46     		mov	r4, r1
 723:Drivers/ICP201xx/Icp201xxDriver.c **** 	int status;
 2395              		.loc 1 723 2 is_stmt 1 view .LVU548
 724:Drivers/ICP201xx/Icp201xxDriver.c **** 	uint8_t read_val = 0;
 2396              		.loc 1 724 2 view .LVU549
 2397              		.loc 1 724 10 is_stmt 0 view .LVU550
 2398 0006 0023     		movs	r3, #0
 2399 0008 8DF80730 		strb	r3, [sp, #7]
 725:Drivers/ICP201xx/Icp201xxDriver.c **** 	
 726:Drivers/ICP201xx/Icp201xxDriver.c **** 	status = inv_icp201xx_serif_read_reg(s, MPUREG_FIFO_FILL, 1, &read_val);
 2400              		.loc 1 726 2 is_stmt 1 view .LVU551
 2401              		.loc 1 726 11 is_stmt 0 view .LVU552
 2402 000c 0DF10703 		add	r3, sp, #7
 2403 0010 0122     		movs	r2, #1
 2404 0012 C421     		movs	r1, #196
 2405              	.LVL186:
 2406              		.loc 1 726 11 view .LVU553
 2407 0014 FFF7FEFF 		bl	inv_icp201xx_serif_read_reg
 2408              	.LVL187:
 727:Drivers/ICP201xx/Icp201xxDriver.c **** 	if ( status )
 2409              		.loc 1 727 2 is_stmt 1 view .LVU554
 2410              		.loc 1 727 5 is_stmt 0 view .LVU555
 2411 0018 50B9     		cbnz	r0, .L130
 728:Drivers/ICP201xx/Icp201xxDriver.c **** 		return status;
 729:Drivers/ICP201xx/Icp201xxDriver.c **** 	*value = (uint8_t)( read_val & BIT_FIFO_LEVEL_MASK ) ;
 2412              		.loc 1 729 2 is_stmt 1 view .LVU556
 2413              		.loc 1 729 31 is_stmt 0 view .LVU557
ARM GAS  C:\Users\Nathan\AppData\Local\Temp\ccMZZe9L.s 			page 56


 2414 001a 9DF80730 		ldrb	r3, [sp, #7]	@ zero_extendqisi2
 2415              		.loc 1 729 11 view .LVU558
 2416 001e 03F01F02 		and	r2, r3, #31
 2417              		.loc 1 729 9 view .LVU559
 2418 0022 2270     		strb	r2, [r4]
 730:Drivers/ICP201xx/Icp201xxDriver.c **** 	/* Max value for fifo level is 0x10 for any values higher than 0x10 function should return error *
 731:Drivers/ICP201xx/Icp201xxDriver.c **** 	if (( *value & 0x10 )  && ( *value & 0x0F) )
 2419              		.loc 1 731 2 is_stmt 1 view .LVU560
 2420              		.loc 1 731 5 is_stmt 0 view .LVU561
 2421 0024 13F0100F 		tst	r3, #16
 2422 0028 02D0     		beq	.L130
 2423              		.loc 1 731 25 discriminator 1 view .LVU562
 2424 002a 13F00F0F 		tst	r3, #15
 2425 002e 01D1     		bne	.L134
 2426              	.LVL188:
 2427              	.L130:
 732:Drivers/ICP201xx/Icp201xxDriver.c **** 		status = INV_ERROR_TRANSPORT;
 733:Drivers/ICP201xx/Icp201xxDriver.c **** 	return status;
 734:Drivers/ICP201xx/Icp201xxDriver.c **** }
 2428              		.loc 1 734 1 view .LVU563
 2429 0030 02B0     		add	sp, sp, #8
 2430              		.cfi_remember_state
 2431              		.cfi_def_cfa_offset 8
 2432              		@ sp needed
 2433 0032 10BD     		pop	{r4, pc}
 2434              	.LVL189:
 2435              	.L134:
 2436              		.cfi_restore_state
 732:Drivers/ICP201xx/Icp201xxDriver.c **** 		status = INV_ERROR_TRANSPORT;
 2437              		.loc 1 732 10 view .LVU564
 2438 0034 6FF00200 		mvn	r0, #2
 2439              	.LVL190:
 732:Drivers/ICP201xx/Icp201xxDriver.c **** 		status = INV_ERROR_TRANSPORT;
 2440              		.loc 1 732 10 view .LVU565
 2441 0038 FAE7     		b	.L130
 2442              		.cfi_endproc
 2443              	.LFE54:
 2445              		.section	.text.inv_icp201xx_rd_fifo,"ax",%progbits
 2446              		.align	1
 2447              		.global	inv_icp201xx_rd_fifo
 2448              		.syntax unified
 2449              		.thumb
 2450              		.thumb_func
 2452              	inv_icp201xx_rd_fifo:
 2453              	.LVL191:
 2454              	.LFB55:
 735:Drivers/ICP201xx/Icp201xxDriver.c **** 
 736:Drivers/ICP201xx/Icp201xxDriver.c **** /************************************** End of FIFO FILL ******************************************
 737:Drivers/ICP201xx/Icp201xxDriver.c **** 
 738:Drivers/ICP201xx/Icp201xxDriver.c **** int inv_icp201xx_rd_fifo(inv_icp201xx_serif_t * s, uint8_t len, uint8_t* value,uint8_t fifo_read_of
 739:Drivers/ICP201xx/Icp201xxDriver.c **** {
 2455              		.loc 1 739 1 is_stmt 1 view -0
 2456              		.cfi_startproc
 2457              		@ args = 0, pretend = 0, frame = 0
 2458              		@ frame_needed = 0, uses_anonymous_args = 0
 2459              		.loc 1 739 1 is_stmt 0 view .LVU567
 2460 0000 08B5     		push	{r3, lr}
ARM GAS  C:\Users\Nathan\AppData\Local\Temp\ccMZZe9L.s 			page 57


 2461              		.cfi_def_cfa_offset 8
 2462              		.cfi_offset 3, -8
 2463              		.cfi_offset 14, -4
 740:Drivers/ICP201xx/Icp201xxDriver.c **** 	return (inv_icp201xx_serif_read_reg(s, (MPUREG_FIFO_BASE+fifo_read_offset), len, value));
 2464              		.loc 1 740 2 is_stmt 1 view .LVU568
 2465              		.loc 1 740 10 is_stmt 0 view .LVU569
 2466 0002 A3F1060C 		sub	ip, r3, #6
 2467 0006 1346     		mov	r3, r2
 2468              	.LVL192:
 2469              		.loc 1 740 10 view .LVU570
 2470 0008 0A46     		mov	r2, r1
 2471              	.LVL193:
 2472              		.loc 1 740 10 view .LVU571
 2473 000a 5FFA8CF1 		uxtb	r1, ip
 2474              	.LVL194:
 2475              		.loc 1 740 10 view .LVU572
 2476 000e FFF7FEFF 		bl	inv_icp201xx_serif_read_reg
 2477              	.LVL195:
 741:Drivers/ICP201xx/Icp201xxDriver.c **** 	
 742:Drivers/ICP201xx/Icp201xxDriver.c **** }
 2478              		.loc 1 742 1 view .LVU573
 2479 0012 08BD     		pop	{r3, pc}
 2480              		.cfi_endproc
 2481              	.LFE55:
 2483              		.section	.text.inv_icp201xx_wr_press_abs_lsb,"ax",%progbits
 2484              		.align	1
 2485              		.global	inv_icp201xx_wr_press_abs_lsb
 2486              		.syntax unified
 2487              		.thumb
 2488              		.thumb_func
 2490              	inv_icp201xx_wr_press_abs_lsb:
 2491              	.LVL196:
 2492              	.LFB56:
 743:Drivers/ICP201xx/Icp201xxDriver.c **** 
 744:Drivers/ICP201xx/Icp201xxDriver.c **** 
 745:Drivers/ICP201xx/Icp201xxDriver.c **** int inv_icp201xx_wr_press_abs_lsb(inv_icp201xx_serif_t * s, uint8_t new_value)
 746:Drivers/ICP201xx/Icp201xxDriver.c **** {
 2493              		.loc 1 746 1 is_stmt 1 view -0
 2494              		.cfi_startproc
 2495              		@ args = 0, pretend = 0, frame = 8
 2496              		@ frame_needed = 0, uses_anonymous_args = 0
 2497              		.loc 1 746 1 is_stmt 0 view .LVU575
 2498 0000 00B5     		push	{lr}
 2499              		.cfi_def_cfa_offset 4
 2500              		.cfi_offset 14, -4
 2501 0002 83B0     		sub	sp, sp, #12
 2502              		.cfi_def_cfa_offset 16
 2503 0004 8DF80710 		strb	r1, [sp, #7]
 747:Drivers/ICP201xx/Icp201xxDriver.c **** 	return inv_icp201xx_serif_write_reg(s, MPUREG_PRESS_ABS_LSB, 1, &new_value);
 2504              		.loc 1 747 2 is_stmt 1 view .LVU576
 2505              		.loc 1 747 9 is_stmt 0 view .LVU577
 2506 0008 0DF10703 		add	r3, sp, #7
 2507 000c 0122     		movs	r2, #1
 2508 000e C721     		movs	r1, #199
 2509              	.LVL197:
 2510              		.loc 1 747 9 view .LVU578
 2511 0010 FFF7FEFF 		bl	inv_icp201xx_serif_write_reg
ARM GAS  C:\Users\Nathan\AppData\Local\Temp\ccMZZe9L.s 			page 58


 2512              	.LVL198:
 748:Drivers/ICP201xx/Icp201xxDriver.c **** }
 2513              		.loc 1 748 1 view .LVU579
 2514 0014 03B0     		add	sp, sp, #12
 2515              		.cfi_def_cfa_offset 4
 2516              		@ sp needed
 2517 0016 5DF804FB 		ldr	pc, [sp], #4
 2518              		.cfi_endproc
 2519              	.LFE56:
 2521              		.section	.text.inv_icp201xx_rd_press_abs_lsb,"ax",%progbits
 2522              		.align	1
 2523              		.global	inv_icp201xx_rd_press_abs_lsb
 2524              		.syntax unified
 2525              		.thumb
 2526              		.thumb_func
 2528              	inv_icp201xx_rd_press_abs_lsb:
 2529              	.LVL199:
 2530              	.LFB57:
 749:Drivers/ICP201xx/Icp201xxDriver.c **** int inv_icp201xx_rd_press_abs_lsb(inv_icp201xx_serif_t * s, uint8_t *value)
 750:Drivers/ICP201xx/Icp201xxDriver.c **** {
 2531              		.loc 1 750 1 is_stmt 1 view -0
 2532              		.cfi_startproc
 2533              		@ args = 0, pretend = 0, frame = 0
 2534              		@ frame_needed = 0, uses_anonymous_args = 0
 2535              		.loc 1 750 1 is_stmt 0 view .LVU581
 2536 0000 08B5     		push	{r3, lr}
 2537              		.cfi_def_cfa_offset 8
 2538              		.cfi_offset 3, -8
 2539              		.cfi_offset 14, -4
 2540 0002 0B46     		mov	r3, r1
 751:Drivers/ICP201xx/Icp201xxDriver.c **** 	return (inv_icp201xx_serif_read_reg(s, MPUREG_PRESS_ABS_LSB, 1, value));
 2541              		.loc 1 751 2 is_stmt 1 view .LVU582
 2542              		.loc 1 751 10 is_stmt 0 view .LVU583
 2543 0004 0122     		movs	r2, #1
 2544 0006 C721     		movs	r1, #199
 2545              	.LVL200:
 2546              		.loc 1 751 10 view .LVU584
 2547 0008 FFF7FEFF 		bl	inv_icp201xx_serif_read_reg
 2548              	.LVL201:
 752:Drivers/ICP201xx/Icp201xxDriver.c **** }
 2549              		.loc 1 752 1 view .LVU585
 2550 000c 08BD     		pop	{r3, pc}
 2551              		.cfi_endproc
 2552              	.LFE57:
 2554              		.section	.text.inv_icp201xx_wr_press_abs_msb,"ax",%progbits
 2555              		.align	1
 2556              		.global	inv_icp201xx_wr_press_abs_msb
 2557              		.syntax unified
 2558              		.thumb
 2559              		.thumb_func
 2561              	inv_icp201xx_wr_press_abs_msb:
 2562              	.LVL202:
 2563              	.LFB58:
 753:Drivers/ICP201xx/Icp201xxDriver.c **** 
 754:Drivers/ICP201xx/Icp201xxDriver.c **** int inv_icp201xx_wr_press_abs_msb(inv_icp201xx_serif_t * s, uint8_t new_value)
 755:Drivers/ICP201xx/Icp201xxDriver.c **** {
 2564              		.loc 1 755 1 is_stmt 1 view -0
ARM GAS  C:\Users\Nathan\AppData\Local\Temp\ccMZZe9L.s 			page 59


 2565              		.cfi_startproc
 2566              		@ args = 0, pretend = 0, frame = 8
 2567              		@ frame_needed = 0, uses_anonymous_args = 0
 2568              		.loc 1 755 1 is_stmt 0 view .LVU587
 2569 0000 00B5     		push	{lr}
 2570              		.cfi_def_cfa_offset 4
 2571              		.cfi_offset 14, -4
 2572 0002 83B0     		sub	sp, sp, #12
 2573              		.cfi_def_cfa_offset 16
 2574 0004 8DF80710 		strb	r1, [sp, #7]
 756:Drivers/ICP201xx/Icp201xxDriver.c **** 	return inv_icp201xx_serif_write_reg(s, MPUREG_PRESS_ABS_MSB, 1, &new_value);
 2575              		.loc 1 756 2 is_stmt 1 view .LVU588
 2576              		.loc 1 756 9 is_stmt 0 view .LVU589
 2577 0008 0DF10703 		add	r3, sp, #7
 2578 000c 0122     		movs	r2, #1
 2579 000e C821     		movs	r1, #200
 2580              	.LVL203:
 2581              		.loc 1 756 9 view .LVU590
 2582 0010 FFF7FEFF 		bl	inv_icp201xx_serif_write_reg
 2583              	.LVL204:
 757:Drivers/ICP201xx/Icp201xxDriver.c **** }
 2584              		.loc 1 757 1 view .LVU591
 2585 0014 03B0     		add	sp, sp, #12
 2586              		.cfi_def_cfa_offset 4
 2587              		@ sp needed
 2588 0016 5DF804FB 		ldr	pc, [sp], #4
 2589              		.cfi_endproc
 2590              	.LFE58:
 2592              		.section	.text.inv_icp201xx_rd_press_abs_msb,"ax",%progbits
 2593              		.align	1
 2594              		.global	inv_icp201xx_rd_press_abs_msb
 2595              		.syntax unified
 2596              		.thumb
 2597              		.thumb_func
 2599              	inv_icp201xx_rd_press_abs_msb:
 2600              	.LVL205:
 2601              	.LFB59:
 758:Drivers/ICP201xx/Icp201xxDriver.c **** int inv_icp201xx_rd_press_abs_msb(inv_icp201xx_serif_t * s, uint8_t *value)
 759:Drivers/ICP201xx/Icp201xxDriver.c **** {
 2602              		.loc 1 759 1 is_stmt 1 view -0
 2603              		.cfi_startproc
 2604              		@ args = 0, pretend = 0, frame = 0
 2605              		@ frame_needed = 0, uses_anonymous_args = 0
 2606              		.loc 1 759 1 is_stmt 0 view .LVU593
 2607 0000 08B5     		push	{r3, lr}
 2608              		.cfi_def_cfa_offset 8
 2609              		.cfi_offset 3, -8
 2610              		.cfi_offset 14, -4
 2611 0002 0B46     		mov	r3, r1
 760:Drivers/ICP201xx/Icp201xxDriver.c **** 	return (inv_icp201xx_serif_read_reg(s, MPUREG_PRESS_ABS_MSB, 1, value));
 2612              		.loc 1 760 2 is_stmt 1 view .LVU594
 2613              		.loc 1 760 10 is_stmt 0 view .LVU595
 2614 0004 0122     		movs	r2, #1
 2615 0006 C821     		movs	r1, #200
 2616              	.LVL206:
 2617              		.loc 1 760 10 view .LVU596
 2618 0008 FFF7FEFF 		bl	inv_icp201xx_serif_read_reg
ARM GAS  C:\Users\Nathan\AppData\Local\Temp\ccMZZe9L.s 			page 60


 2619              	.LVL207:
 761:Drivers/ICP201xx/Icp201xxDriver.c **** }
 2620              		.loc 1 761 1 view .LVU597
 2621 000c 08BD     		pop	{r3, pc}
 2622              		.cfi_endproc
 2623              	.LFE59:
 2625              		.section	.text.inv_icp201xx_wr_press_delta_lsb,"ax",%progbits
 2626              		.align	1
 2627              		.global	inv_icp201xx_wr_press_delta_lsb
 2628              		.syntax unified
 2629              		.thumb
 2630              		.thumb_func
 2632              	inv_icp201xx_wr_press_delta_lsb:
 2633              	.LVL208:
 2634              	.LFB60:
 762:Drivers/ICP201xx/Icp201xxDriver.c **** 
 763:Drivers/ICP201xx/Icp201xxDriver.c **** int inv_icp201xx_wr_press_delta_lsb(inv_icp201xx_serif_t * s, uint8_t new_value)
 764:Drivers/ICP201xx/Icp201xxDriver.c **** {
 2635              		.loc 1 764 1 is_stmt 1 view -0
 2636              		.cfi_startproc
 2637              		@ args = 0, pretend = 0, frame = 8
 2638              		@ frame_needed = 0, uses_anonymous_args = 0
 2639              		.loc 1 764 1 is_stmt 0 view .LVU599
 2640 0000 00B5     		push	{lr}
 2641              		.cfi_def_cfa_offset 4
 2642              		.cfi_offset 14, -4
 2643 0002 83B0     		sub	sp, sp, #12
 2644              		.cfi_def_cfa_offset 16
 2645 0004 8DF80710 		strb	r1, [sp, #7]
 765:Drivers/ICP201xx/Icp201xxDriver.c **** 	return inv_icp201xx_serif_write_reg(s, MPUREG_PRESS_DELTA_LSB, 1, &new_value);
 2646              		.loc 1 765 2 is_stmt 1 view .LVU600
 2647              		.loc 1 765 9 is_stmt 0 view .LVU601
 2648 0008 0DF10703 		add	r3, sp, #7
 2649 000c 0122     		movs	r2, #1
 2650 000e C921     		movs	r1, #201
 2651              	.LVL209:
 2652              		.loc 1 765 9 view .LVU602
 2653 0010 FFF7FEFF 		bl	inv_icp201xx_serif_write_reg
 2654              	.LVL210:
 766:Drivers/ICP201xx/Icp201xxDriver.c **** }
 2655              		.loc 1 766 1 view .LVU603
 2656 0014 03B0     		add	sp, sp, #12
 2657              		.cfi_def_cfa_offset 4
 2658              		@ sp needed
 2659 0016 5DF804FB 		ldr	pc, [sp], #4
 2660              		.cfi_endproc
 2661              	.LFE60:
 2663              		.section	.text.inv_icp201xx_rd_press_delta_lsb,"ax",%progbits
 2664              		.align	1
 2665              		.global	inv_icp201xx_rd_press_delta_lsb
 2666              		.syntax unified
 2667              		.thumb
 2668              		.thumb_func
 2670              	inv_icp201xx_rd_press_delta_lsb:
 2671              	.LVL211:
 2672              	.LFB61:
 767:Drivers/ICP201xx/Icp201xxDriver.c **** int inv_icp201xx_rd_press_delta_lsb(inv_icp201xx_serif_t * s, uint8_t *value)
ARM GAS  C:\Users\Nathan\AppData\Local\Temp\ccMZZe9L.s 			page 61


 768:Drivers/ICP201xx/Icp201xxDriver.c **** {
 2673              		.loc 1 768 1 is_stmt 1 view -0
 2674              		.cfi_startproc
 2675              		@ args = 0, pretend = 0, frame = 0
 2676              		@ frame_needed = 0, uses_anonymous_args = 0
 2677              		.loc 1 768 1 is_stmt 0 view .LVU605
 2678 0000 08B5     		push	{r3, lr}
 2679              		.cfi_def_cfa_offset 8
 2680              		.cfi_offset 3, -8
 2681              		.cfi_offset 14, -4
 2682 0002 0B46     		mov	r3, r1
 769:Drivers/ICP201xx/Icp201xxDriver.c **** 	return (inv_icp201xx_serif_read_reg(s, MPUREG_PRESS_DELTA_LSB, 1, value));
 2683              		.loc 1 769 2 is_stmt 1 view .LVU606
 2684              		.loc 1 769 10 is_stmt 0 view .LVU607
 2685 0004 0122     		movs	r2, #1
 2686 0006 C921     		movs	r1, #201
 2687              	.LVL212:
 2688              		.loc 1 769 10 view .LVU608
 2689 0008 FFF7FEFF 		bl	inv_icp201xx_serif_read_reg
 2690              	.LVL213:
 770:Drivers/ICP201xx/Icp201xxDriver.c **** }
 2691              		.loc 1 770 1 view .LVU609
 2692 000c 08BD     		pop	{r3, pc}
 2693              		.cfi_endproc
 2694              	.LFE61:
 2696              		.section	.text.inv_icp201xx_wr_press_delta_msb,"ax",%progbits
 2697              		.align	1
 2698              		.global	inv_icp201xx_wr_press_delta_msb
 2699              		.syntax unified
 2700              		.thumb
 2701              		.thumb_func
 2703              	inv_icp201xx_wr_press_delta_msb:
 2704              	.LVL214:
 2705              	.LFB62:
 771:Drivers/ICP201xx/Icp201xxDriver.c **** 
 772:Drivers/ICP201xx/Icp201xxDriver.c **** int inv_icp201xx_wr_press_delta_msb(inv_icp201xx_serif_t * s, uint8_t new_value)
 773:Drivers/ICP201xx/Icp201xxDriver.c **** {
 2706              		.loc 1 773 1 is_stmt 1 view -0
 2707              		.cfi_startproc
 2708              		@ args = 0, pretend = 0, frame = 8
 2709              		@ frame_needed = 0, uses_anonymous_args = 0
 2710              		.loc 1 773 1 is_stmt 0 view .LVU611
 2711 0000 00B5     		push	{lr}
 2712              		.cfi_def_cfa_offset 4
 2713              		.cfi_offset 14, -4
 2714 0002 83B0     		sub	sp, sp, #12
 2715              		.cfi_def_cfa_offset 16
 2716 0004 8DF80710 		strb	r1, [sp, #7]
 774:Drivers/ICP201xx/Icp201xxDriver.c **** 	return inv_icp201xx_serif_write_reg(s, MPUREG_PRESS_DELTA_MSB, 1, &new_value);
 2717              		.loc 1 774 2 is_stmt 1 view .LVU612
 2718              		.loc 1 774 9 is_stmt 0 view .LVU613
 2719 0008 0DF10703 		add	r3, sp, #7
 2720 000c 0122     		movs	r2, #1
 2721 000e CA21     		movs	r1, #202
 2722              	.LVL215:
 2723              		.loc 1 774 9 view .LVU614
 2724 0010 FFF7FEFF 		bl	inv_icp201xx_serif_write_reg
ARM GAS  C:\Users\Nathan\AppData\Local\Temp\ccMZZe9L.s 			page 62


 2725              	.LVL216:
 775:Drivers/ICP201xx/Icp201xxDriver.c **** }
 2726              		.loc 1 775 1 view .LVU615
 2727 0014 03B0     		add	sp, sp, #12
 2728              		.cfi_def_cfa_offset 4
 2729              		@ sp needed
 2730 0016 5DF804FB 		ldr	pc, [sp], #4
 2731              		.cfi_endproc
 2732              	.LFE62:
 2734              		.section	.text.inv_icp201xx_rd_press_delta_msb,"ax",%progbits
 2735              		.align	1
 2736              		.global	inv_icp201xx_rd_press_delta_msb
 2737              		.syntax unified
 2738              		.thumb
 2739              		.thumb_func
 2741              	inv_icp201xx_rd_press_delta_msb:
 2742              	.LVL217:
 2743              	.LFB63:
 776:Drivers/ICP201xx/Icp201xxDriver.c **** int inv_icp201xx_rd_press_delta_msb(inv_icp201xx_serif_t * s, uint8_t *value)
 777:Drivers/ICP201xx/Icp201xxDriver.c **** {
 2744              		.loc 1 777 1 is_stmt 1 view -0
 2745              		.cfi_startproc
 2746              		@ args = 0, pretend = 0, frame = 0
 2747              		@ frame_needed = 0, uses_anonymous_args = 0
 2748              		.loc 1 777 1 is_stmt 0 view .LVU617
 2749 0000 08B5     		push	{r3, lr}
 2750              		.cfi_def_cfa_offset 8
 2751              		.cfi_offset 3, -8
 2752              		.cfi_offset 14, -4
 2753 0002 0B46     		mov	r3, r1
 778:Drivers/ICP201xx/Icp201xxDriver.c **** 	return (inv_icp201xx_serif_read_reg(s, MPUREG_PRESS_DELTA_MSB, 1, value));
 2754              		.loc 1 778 2 is_stmt 1 view .LVU618
 2755              		.loc 1 778 10 is_stmt 0 view .LVU619
 2756 0004 0122     		movs	r2, #1
 2757 0006 CA21     		movs	r1, #202
 2758              	.LVL218:
 2759              		.loc 1 778 10 view .LVU620
 2760 0008 FFF7FEFF 		bl	inv_icp201xx_serif_read_reg
 2761              	.LVL219:
 779:Drivers/ICP201xx/Icp201xxDriver.c **** }
 2762              		.loc 1 779 1 view .LVU621
 2763 000c 08BD     		pop	{r3, pc}
 2764              		.cfi_endproc
 2765              	.LFE63:
 2767              		.section	.text.inv_icp201xx_rd_device_status,"ax",%progbits
 2768              		.align	1
 2769              		.global	inv_icp201xx_rd_device_status
 2770              		.syntax unified
 2771              		.thumb
 2772              		.thumb_func
 2774              	inv_icp201xx_rd_device_status:
 2775              	.LVL220:
 2776              	.LFB64:
 780:Drivers/ICP201xx/Icp201xxDriver.c **** 
 781:Drivers/ICP201xx/Icp201xxDriver.c **** 
 782:Drivers/ICP201xx/Icp201xxDriver.c **** int inv_icp201xx_rd_device_status(inv_icp201xx_serif_t * s, uint8_t *value)
 783:Drivers/ICP201xx/Icp201xxDriver.c **** {
ARM GAS  C:\Users\Nathan\AppData\Local\Temp\ccMZZe9L.s 			page 63


 2777              		.loc 1 783 1 is_stmt 1 view -0
 2778              		.cfi_startproc
 2779              		@ args = 0, pretend = 0, frame = 8
 2780              		@ frame_needed = 0, uses_anonymous_args = 0
 2781              		.loc 1 783 1 is_stmt 0 view .LVU623
 2782 0000 00B5     		push	{lr}
 2783              		.cfi_def_cfa_offset 4
 2784              		.cfi_offset 14, -4
 2785 0002 83B0     		sub	sp, sp, #12
 2786              		.cfi_def_cfa_offset 16
 784:Drivers/ICP201xx/Icp201xxDriver.c **** 	int status;
 2787              		.loc 1 784 2 is_stmt 1 view .LVU624
 785:Drivers/ICP201xx/Icp201xxDriver.c **** 	uint8_t read_val;
 2788              		.loc 1 785 2 view .LVU625
 786:Drivers/ICP201xx/Icp201xxDriver.c **** 	
 787:Drivers/ICP201xx/Icp201xxDriver.c **** 	status = inv_icp201xx_serif_read_reg(s, MPUREG_DEVICE_STATUS, 1, &read_val);
 2789              		.loc 1 787 2 view .LVU626
 2790              		.loc 1 787 11 is_stmt 0 view .LVU627
 2791 0004 0DF10703 		add	r3, sp, #7
 2792 0008 0122     		movs	r2, #1
 2793 000a CD21     		movs	r1, #205
 2794              	.LVL221:
 2795              		.loc 1 787 11 view .LVU628
 2796 000c FFF7FEFF 		bl	inv_icp201xx_serif_read_reg
 2797              	.LVL222:
 788:Drivers/ICP201xx/Icp201xxDriver.c **** 	
 789:Drivers/ICP201xx/Icp201xxDriver.c **** 	return status;
 2798              		.loc 1 789 2 is_stmt 1 view .LVU629
 790:Drivers/ICP201xx/Icp201xxDriver.c **** }
 2799              		.loc 1 790 1 is_stmt 0 view .LVU630
 2800 0010 03B0     		add	sp, sp, #12
 2801              		.cfi_def_cfa_offset 4
 2802              		@ sp needed
 2803 0012 5DF804FB 		ldr	pc, [sp], #4
 2804              		.cfi_endproc
 2805              	.LFE64:
 2807              		.section	.text.inv_icp201xx_rd_mode_sync_status,"ax",%progbits
 2808              		.align	1
 2809              		.global	inv_icp201xx_rd_mode_sync_status
 2810              		.syntax unified
 2811              		.thumb
 2812              		.thumb_func
 2814              	inv_icp201xx_rd_mode_sync_status:
 2815              	.LVL223:
 2816              	.LFB65:
 791:Drivers/ICP201xx/Icp201xxDriver.c **** 
 792:Drivers/ICP201xx/Icp201xxDriver.c **** 
 793:Drivers/ICP201xx/Icp201xxDriver.c **** int inv_icp201xx_rd_mode_sync_status(inv_icp201xx_serif_t * s, uint8_t *value)
 794:Drivers/ICP201xx/Icp201xxDriver.c **** {
 2817              		.loc 1 794 1 is_stmt 1 view -0
 2818              		.cfi_startproc
 2819              		@ args = 0, pretend = 0, frame = 8
 2820              		@ frame_needed = 0, uses_anonymous_args = 0
 2821              		.loc 1 794 1 is_stmt 0 view .LVU632
 2822 0000 10B5     		push	{r4, lr}
 2823              		.cfi_def_cfa_offset 8
 2824              		.cfi_offset 4, -8
ARM GAS  C:\Users\Nathan\AppData\Local\Temp\ccMZZe9L.s 			page 64


 2825              		.cfi_offset 14, -4
 2826 0002 82B0     		sub	sp, sp, #8
 2827              		.cfi_def_cfa_offset 16
 2828 0004 0C46     		mov	r4, r1
 795:Drivers/ICP201xx/Icp201xxDriver.c **** 	int status;
 2829              		.loc 1 795 2 is_stmt 1 view .LVU633
 796:Drivers/ICP201xx/Icp201xxDriver.c **** 	uint8_t read_val;
 2830              		.loc 1 796 2 view .LVU634
 797:Drivers/ICP201xx/Icp201xxDriver.c **** 	
 798:Drivers/ICP201xx/Icp201xxDriver.c **** 	status = inv_icp201xx_serif_read_reg(s, MPUREG_DEVICE_STATUS, 1, &read_val);
 2831              		.loc 1 798 2 view .LVU635
 2832              		.loc 1 798 11 is_stmt 0 view .LVU636
 2833 0006 0DF10703 		add	r3, sp, #7
 2834 000a 0122     		movs	r2, #1
 2835 000c CD21     		movs	r1, #205
 2836              	.LVL224:
 2837              		.loc 1 798 11 view .LVU637
 2838 000e FFF7FEFF 		bl	inv_icp201xx_serif_read_reg
 2839              	.LVL225:
 799:Drivers/ICP201xx/Icp201xxDriver.c **** 	
 800:Drivers/ICP201xx/Icp201xxDriver.c **** 	if ( status )
 2840              		.loc 1 800 2 is_stmt 1 view .LVU638
 2841              		.loc 1 800 5 is_stmt 0 view .LVU639
 2842 0012 20B9     		cbnz	r0, .L155
 801:Drivers/ICP201xx/Icp201xxDriver.c **** 		return status;
 802:Drivers/ICP201xx/Icp201xxDriver.c **** 	
 803:Drivers/ICP201xx/Icp201xxDriver.c **** 	*value = read_val & BIT_DEVICE_STATUS_MODE_SYNC_STATUS_MASK ;
 2843              		.loc 1 803 2 is_stmt 1 view .LVU640
 2844              		.loc 1 803 20 is_stmt 0 view .LVU641
 2845 0014 9DF80730 		ldrb	r3, [sp, #7]	@ zero_extendqisi2
 2846 0018 03F00103 		and	r3, r3, #1
 2847              		.loc 1 803 9 view .LVU642
 2848 001c 2370     		strb	r3, [r4]
 804:Drivers/ICP201xx/Icp201xxDriver.c **** 	
 805:Drivers/ICP201xx/Icp201xxDriver.c **** 	return status;
 2849              		.loc 1 805 2 is_stmt 1 view .LVU643
 2850              	.L155:
 806:Drivers/ICP201xx/Icp201xxDriver.c **** }
 2851              		.loc 1 806 1 is_stmt 0 view .LVU644
 2852 001e 02B0     		add	sp, sp, #8
 2853              		.cfi_def_cfa_offset 8
 2854              		@ sp needed
 2855 0020 10BD     		pop	{r4, pc}
 2856              		.loc 1 806 1 view .LVU645
 2857              		.cfi_endproc
 2858              	.LFE65:
 2860              		.section	.text.inv_icp201xx_wr_mode_select,"ax",%progbits
 2861              		.align	1
 2862              		.global	inv_icp201xx_wr_mode_select
 2863              		.syntax unified
 2864              		.thumb
 2865              		.thumb_func
 2867              	inv_icp201xx_wr_mode_select:
 2868              	.LVL226:
 2869              	.LFB26:
 324:Drivers/ICP201xx/Icp201xxDriver.c **** 	int status;
 2870              		.loc 1 324 1 is_stmt 1 view -0
ARM GAS  C:\Users\Nathan\AppData\Local\Temp\ccMZZe9L.s 			page 65


 2871              		.cfi_startproc
 2872              		@ args = 0, pretend = 0, frame = 16
 2873              		@ frame_needed = 0, uses_anonymous_args = 0
 324:Drivers/ICP201xx/Icp201xxDriver.c **** 	int status;
 2874              		.loc 1 324 1 is_stmt 0 view .LVU647
 2875 0000 10B5     		push	{r4, lr}
 2876              		.cfi_def_cfa_offset 8
 2877              		.cfi_offset 4, -8
 2878              		.cfi_offset 14, -4
 2879 0002 84B0     		sub	sp, sp, #16
 2880              		.cfi_def_cfa_offset 24
 2881 0004 0446     		mov	r4, r0
 2882 0006 8DF80710 		strb	r1, [sp, #7]
 325:Drivers/ICP201xx/Icp201xxDriver.c **** 	uint8_t read_value=0;
 2883              		.loc 1 325 2 is_stmt 1 view .LVU648
 326:Drivers/ICP201xx/Icp201xxDriver.c **** 	
 2884              		.loc 1 326 2 view .LVU649
 326:Drivers/ICP201xx/Icp201xxDriver.c **** 	
 2885              		.loc 1 326 10 is_stmt 0 view .LVU650
 2886 000a 0023     		movs	r3, #0
 2887 000c 8DF80F30 		strb	r3, [sp, #15]
 2888              	.LVL227:
 2889              	.L160:
 328:Drivers/ICP201xx/Icp201xxDriver.c **** 		inv_icp201xx_rd_mode_sync_status(s,&read_value);
 2890              		.loc 1 328 2 is_stmt 1 view .LVU651
 329:Drivers/ICP201xx/Icp201xxDriver.c **** 		if ( read_value  )
 2891              		.loc 1 329 3 view .LVU652
 2892 0010 0DF10F01 		add	r1, sp, #15
 2893 0014 2046     		mov	r0, r4
 2894 0016 FFF7FEFF 		bl	inv_icp201xx_rd_mode_sync_status
 2895              	.LVL228:
 330:Drivers/ICP201xx/Icp201xxDriver.c **** 			break;
 2896              		.loc 1 330 3 view .LVU653
 330:Drivers/ICP201xx/Icp201xxDriver.c **** 			break;
 2897              		.loc 1 330 8 is_stmt 0 view .LVU654
 2898 001a 9DF80F30 		ldrb	r3, [sp, #15]	@ zero_extendqisi2
 330:Drivers/ICP201xx/Icp201xxDriver.c **** 			break;
 2899              		.loc 1 330 6 view .LVU655
 2900 001e 23B9     		cbnz	r3, .L159
 332:Drivers/ICP201xx/Icp201xxDriver.c **** 	}while(1);
 2901              		.loc 1 332 3 is_stmt 1 view .LVU656
 2902 0020 4FF4FA70 		mov	r0, #500
 2903 0024 FFF7FEFF 		bl	inv_icp201xx_sleep_us
 2904              	.LVL229:
 328:Drivers/ICP201xx/Icp201xxDriver.c **** 		inv_icp201xx_rd_mode_sync_status(s,&read_value);
 2905              		.loc 1 328 5 view .LVU657
 329:Drivers/ICP201xx/Icp201xxDriver.c **** 		if ( read_value  )
 2906              		.loc 1 329 3 is_stmt 0 view .LVU658
 2907 0028 F2E7     		b	.L160
 2908              	.L159:
 335:Drivers/ICP201xx/Icp201xxDriver.c **** 
 2909              		.loc 1 335 2 is_stmt 1 view .LVU659
 335:Drivers/ICP201xx/Icp201xxDriver.c **** 
 2910              		.loc 1 335 11 is_stmt 0 view .LVU660
 2911 002a 0DF10703 		add	r3, sp, #7
 2912 002e 0122     		movs	r2, #1
 2913 0030 C021     		movs	r1, #192
ARM GAS  C:\Users\Nathan\AppData\Local\Temp\ccMZZe9L.s 			page 66


 2914 0032 2046     		mov	r0, r4
 2915 0034 FFF7FEFF 		bl	inv_icp201xx_serif_write_reg
 2916              	.LVL230:
 337:Drivers/ICP201xx/Icp201xxDriver.c **** }
 2917              		.loc 1 337 2 is_stmt 1 view .LVU661
 338:Drivers/ICP201xx/Icp201xxDriver.c **** 
 2918              		.loc 1 338 1 is_stmt 0 view .LVU662
 2919 0038 04B0     		add	sp, sp, #16
 2920              		.cfi_def_cfa_offset 8
 2921              		@ sp needed
 2922 003a 10BD     		pop	{r4, pc}
 338:Drivers/ICP201xx/Icp201xxDriver.c **** 
 2923              		.loc 1 338 1 view .LVU663
 2924              		.cfi_endproc
 2925              	.LFE26:
 2927              		.section	.text.inv_icp201xx_wr_meas_config,"ax",%progbits
 2928              		.align	1
 2929              		.global	inv_icp201xx_wr_meas_config
 2930              		.syntax unified
 2931              		.thumb
 2932              		.thumb_func
 2934              	inv_icp201xx_wr_meas_config:
 2935              	.LVL231:
 2936              	.LFB28:
 352:Drivers/ICP201xx/Icp201xxDriver.c **** 	int status;
 2937              		.loc 1 352 1 is_stmt 1 view -0
 2938              		.cfi_startproc
 2939              		@ args = 0, pretend = 0, frame = 8
 2940              		@ frame_needed = 0, uses_anonymous_args = 0
 352:Drivers/ICP201xx/Icp201xxDriver.c **** 	int status;
 2941              		.loc 1 352 1 is_stmt 0 view .LVU665
 2942 0000 30B5     		push	{r4, r5, lr}
 2943              		.cfi_def_cfa_offset 12
 2944              		.cfi_offset 4, -12
 2945              		.cfi_offset 5, -8
 2946              		.cfi_offset 14, -4
 2947 0002 83B0     		sub	sp, sp, #12
 2948              		.cfi_def_cfa_offset 24
 2949 0004 0446     		mov	r4, r0
 2950 0006 0D46     		mov	r5, r1
 353:Drivers/ICP201xx/Icp201xxDriver.c **** 	uint8_t reg_value = 0;
 2951              		.loc 1 353 2 is_stmt 1 view .LVU666
 354:Drivers/ICP201xx/Icp201xxDriver.c **** 	uint8_t read_value=0;
 2952              		.loc 1 354 2 view .LVU667
 354:Drivers/ICP201xx/Icp201xxDriver.c **** 	uint8_t read_value=0;
 2953              		.loc 1 354 10 is_stmt 0 view .LVU668
 2954 0008 0023     		movs	r3, #0
 2955 000a 8DF80730 		strb	r3, [sp, #7]
 355:Drivers/ICP201xx/Icp201xxDriver.c **** 	status = inv_icp201xx_serif_read_reg(s, MPUREG_MODE_SELECT, 1, &reg_value);
 2956              		.loc 1 355 2 is_stmt 1 view .LVU669
 355:Drivers/ICP201xx/Icp201xxDriver.c **** 	status = inv_icp201xx_serif_read_reg(s, MPUREG_MODE_SELECT, 1, &reg_value);
 2957              		.loc 1 355 10 is_stmt 0 view .LVU670
 2958 000e 8DF80630 		strb	r3, [sp, #6]
 356:Drivers/ICP201xx/Icp201xxDriver.c **** 
 2959              		.loc 1 356 2 is_stmt 1 view .LVU671
 356:Drivers/ICP201xx/Icp201xxDriver.c **** 
 2960              		.loc 1 356 11 is_stmt 0 view .LVU672
ARM GAS  C:\Users\Nathan\AppData\Local\Temp\ccMZZe9L.s 			page 67


 2961 0012 0DF10703 		add	r3, sp, #7
 2962 0016 0122     		movs	r2, #1
 2963 0018 C021     		movs	r1, #192
 2964              	.LVL232:
 356:Drivers/ICP201xx/Icp201xxDriver.c **** 
 2965              		.loc 1 356 11 view .LVU673
 2966 001a FFF7FEFF 		bl	inv_icp201xx_serif_read_reg
 2967              	.LVL233:
 358:Drivers/ICP201xx/Icp201xxDriver.c **** 		return status;
 2968              		.loc 1 358 2 is_stmt 1 view .LVU674
 358:Drivers/ICP201xx/Icp201xxDriver.c **** 		return status;
 2969              		.loc 1 358 4 is_stmt 0 view .LVU675
 2970 001e D8B9     		cbnz	r0, .L162
 361:Drivers/ICP201xx/Icp201xxDriver.c **** 	
 2971              		.loc 1 361 2 is_stmt 1 view .LVU676
 361:Drivers/ICP201xx/Icp201xxDriver.c **** 	
 2972              		.loc 1 361 26 is_stmt 0 view .LVU677
 2973 0020 9DF80730 		ldrb	r3, [sp, #7]	@ zero_extendqisi2
 361:Drivers/ICP201xx/Icp201xxDriver.c **** 	
 2974              		.loc 1 361 54 view .LVU678
 2975 0024 03F01F03 		and	r3, r3, #31
 2976 0028 43EA4513 		orr	r3, r3, r5, lsl #5
 361:Drivers/ICP201xx/Icp201xxDriver.c **** 	
 2977              		.loc 1 361 12 view .LVU679
 2978 002c 8DF80730 		strb	r3, [sp, #7]
 2979              	.L165:
 363:Drivers/ICP201xx/Icp201xxDriver.c **** 		inv_icp201xx_rd_mode_sync_status(s,&read_value);
 2980              		.loc 1 363 2 is_stmt 1 view .LVU680
 364:Drivers/ICP201xx/Icp201xxDriver.c **** 		if ( read_value  )
 2981              		.loc 1 364 3 view .LVU681
 2982 0030 0DF10601 		add	r1, sp, #6
 2983 0034 2046     		mov	r0, r4
 2984 0036 FFF7FEFF 		bl	inv_icp201xx_rd_mode_sync_status
 2985              	.LVL234:
 365:Drivers/ICP201xx/Icp201xxDriver.c **** 			break;
 2986              		.loc 1 365 3 view .LVU682
 365:Drivers/ICP201xx/Icp201xxDriver.c **** 			break;
 2987              		.loc 1 365 8 is_stmt 0 view .LVU683
 2988 003a 9DF80630 		ldrb	r3, [sp, #6]	@ zero_extendqisi2
 365:Drivers/ICP201xx/Icp201xxDriver.c **** 			break;
 2989              		.loc 1 365 6 view .LVU684
 2990 003e 23B9     		cbnz	r3, .L164
 368:Drivers/ICP201xx/Icp201xxDriver.c **** 	}while(1);
 2991              		.loc 1 368 3 is_stmt 1 view .LVU685
 2992 0040 4FF4FA70 		mov	r0, #500
 2993 0044 FFF7FEFF 		bl	inv_icp201xx_sleep_us
 2994              	.LVL235:
 363:Drivers/ICP201xx/Icp201xxDriver.c **** 		inv_icp201xx_rd_mode_sync_status(s,&read_value);
 2995              		.loc 1 363 5 view .LVU686
 364:Drivers/ICP201xx/Icp201xxDriver.c **** 		if ( read_value  )
 2996              		.loc 1 364 3 is_stmt 0 view .LVU687
 2997 0048 F2E7     		b	.L165
 2998              	.L164:
 371:Drivers/ICP201xx/Icp201xxDriver.c **** 	
 2999              		.loc 1 371 2 is_stmt 1 view .LVU688
 371:Drivers/ICP201xx/Icp201xxDriver.c **** 	
 3000              		.loc 1 371 11 is_stmt 0 view .LVU689
ARM GAS  C:\Users\Nathan\AppData\Local\Temp\ccMZZe9L.s 			page 68


 3001 004a 0DF10703 		add	r3, sp, #7
 3002              	.LVL236:
 371:Drivers/ICP201xx/Icp201xxDriver.c **** 	
 3003              		.loc 1 371 11 view .LVU690
 3004 004e 0122     		movs	r2, #1
 3005 0050 C021     		movs	r1, #192
 3006 0052 2046     		mov	r0, r4
 3007 0054 FFF7FEFF 		bl	inv_icp201xx_serif_write_reg
 3008              	.LVL237:
 373:Drivers/ICP201xx/Icp201xxDriver.c **** }
 3009              		.loc 1 373 2 is_stmt 1 view .LVU691
 3010              	.L162:
 374:Drivers/ICP201xx/Icp201xxDriver.c **** 
 3011              		.loc 1 374 1 is_stmt 0 view .LVU692
 3012 0058 03B0     		add	sp, sp, #12
 3013              		.cfi_def_cfa_offset 12
 3014              		@ sp needed
 3015 005a 30BD     		pop	{r4, r5, pc}
 374:Drivers/ICP201xx/Icp201xxDriver.c **** 
 3016              		.loc 1 374 1 view .LVU693
 3017              		.cfi_endproc
 3018              	.LFE28:
 3020              		.section	.text.inv_icp201xx_wr_forced_meas_trigger,"ax",%progbits
 3021              		.align	1
 3022              		.global	inv_icp201xx_wr_forced_meas_trigger
 3023              		.syntax unified
 3024              		.thumb
 3025              		.thumb_func
 3027              	inv_icp201xx_wr_forced_meas_trigger:
 3028              	.LVL238:
 3029              	.LFB30:
 391:Drivers/ICP201xx/Icp201xxDriver.c **** 	int status;
 3030              		.loc 1 391 1 is_stmt 1 view -0
 3031              		.cfi_startproc
 3032              		@ args = 0, pretend = 0, frame = 8
 3033              		@ frame_needed = 0, uses_anonymous_args = 0
 391:Drivers/ICP201xx/Icp201xxDriver.c **** 	int status;
 3034              		.loc 1 391 1 is_stmt 0 view .LVU695
 3035 0000 30B5     		push	{r4, r5, lr}
 3036              		.cfi_def_cfa_offset 12
 3037              		.cfi_offset 4, -12
 3038              		.cfi_offset 5, -8
 3039              		.cfi_offset 14, -4
 3040 0002 83B0     		sub	sp, sp, #12
 3041              		.cfi_def_cfa_offset 24
 3042 0004 0446     		mov	r4, r0
 3043 0006 0D46     		mov	r5, r1
 392:Drivers/ICP201xx/Icp201xxDriver.c **** 	uint8_t reg_value = 0, read_value =0 ;
 3044              		.loc 1 392 2 is_stmt 1 view .LVU696
 393:Drivers/ICP201xx/Icp201xxDriver.c **** 	status = inv_icp201xx_serif_read_reg(s, MPUREG_MODE_SELECT, 1, &reg_value);
 3045              		.loc 1 393 2 view .LVU697
 393:Drivers/ICP201xx/Icp201xxDriver.c **** 	status = inv_icp201xx_serif_read_reg(s, MPUREG_MODE_SELECT, 1, &reg_value);
 3046              		.loc 1 393 10 is_stmt 0 view .LVU698
 3047 0008 0023     		movs	r3, #0
 3048 000a 8DF80730 		strb	r3, [sp, #7]
 393:Drivers/ICP201xx/Icp201xxDriver.c **** 	status = inv_icp201xx_serif_read_reg(s, MPUREG_MODE_SELECT, 1, &reg_value);
 3049              		.loc 1 393 25 view .LVU699
ARM GAS  C:\Users\Nathan\AppData\Local\Temp\ccMZZe9L.s 			page 69


 3050 000e 8DF80630 		strb	r3, [sp, #6]
 394:Drivers/ICP201xx/Icp201xxDriver.c **** 
 3051              		.loc 1 394 2 is_stmt 1 view .LVU700
 394:Drivers/ICP201xx/Icp201xxDriver.c **** 
 3052              		.loc 1 394 11 is_stmt 0 view .LVU701
 3053 0012 0DF10703 		add	r3, sp, #7
 3054 0016 0122     		movs	r2, #1
 3055 0018 C021     		movs	r1, #192
 3056              	.LVL239:
 394:Drivers/ICP201xx/Icp201xxDriver.c **** 
 3057              		.loc 1 394 11 view .LVU702
 3058 001a FFF7FEFF 		bl	inv_icp201xx_serif_read_reg
 3059              	.LVL240:
 396:Drivers/ICP201xx/Icp201xxDriver.c **** 	return status;
 3060              		.loc 1 396 2 is_stmt 1 view .LVU703
 396:Drivers/ICP201xx/Icp201xxDriver.c **** 	return status;
 3061              		.loc 1 396 4 is_stmt 0 view .LVU704
 3062 001e D8B9     		cbnz	r0, .L167
 399:Drivers/ICP201xx/Icp201xxDriver.c **** 	do {
 3063              		.loc 1 399 2 is_stmt 1 view .LVU705
 399:Drivers/ICP201xx/Icp201xxDriver.c **** 	do {
 3064              		.loc 1 399 26 is_stmt 0 view .LVU706
 3065 0020 9DF80730 		ldrb	r3, [sp, #7]	@ zero_extendqisi2
 399:Drivers/ICP201xx/Icp201xxDriver.c **** 	do {
 3066              		.loc 1 399 62 view .LVU707
 3067 0024 23F01003 		bic	r3, r3, #16
 3068 0028 43EA0513 		orr	r3, r3, r5, lsl #4
 399:Drivers/ICP201xx/Icp201xxDriver.c **** 	do {
 3069              		.loc 1 399 12 view .LVU708
 3070 002c 8DF80730 		strb	r3, [sp, #7]
 3071              	.L170:
 400:Drivers/ICP201xx/Icp201xxDriver.c **** 		inv_icp201xx_rd_mode_sync_status(s,&read_value);
 3072              		.loc 1 400 2 is_stmt 1 view .LVU709
 401:Drivers/ICP201xx/Icp201xxDriver.c **** 		if ( read_value  )
 3073              		.loc 1 401 3 view .LVU710
 3074 0030 0DF10601 		add	r1, sp, #6
 3075 0034 2046     		mov	r0, r4
 3076 0036 FFF7FEFF 		bl	inv_icp201xx_rd_mode_sync_status
 3077              	.LVL241:
 402:Drivers/ICP201xx/Icp201xxDriver.c **** 			break;
 3078              		.loc 1 402 3 view .LVU711
 402:Drivers/ICP201xx/Icp201xxDriver.c **** 			break;
 3079              		.loc 1 402 8 is_stmt 0 view .LVU712
 3080 003a 9DF80630 		ldrb	r3, [sp, #6]	@ zero_extendqisi2
 402:Drivers/ICP201xx/Icp201xxDriver.c **** 			break;
 3081              		.loc 1 402 6 view .LVU713
 3082 003e 23B9     		cbnz	r3, .L169
 405:Drivers/ICP201xx/Icp201xxDriver.c **** 	}while(1);
 3083              		.loc 1 405 3 is_stmt 1 view .LVU714
 3084 0040 4FF4FA70 		mov	r0, #500
 3085 0044 FFF7FEFF 		bl	inv_icp201xx_sleep_us
 3086              	.LVL242:
 400:Drivers/ICP201xx/Icp201xxDriver.c **** 		inv_icp201xx_rd_mode_sync_status(s,&read_value);
 3087              		.loc 1 400 5 view .LVU715
 401:Drivers/ICP201xx/Icp201xxDriver.c **** 		if ( read_value  )
 3088              		.loc 1 401 3 is_stmt 0 view .LVU716
 3089 0048 F2E7     		b	.L170
ARM GAS  C:\Users\Nathan\AppData\Local\Temp\ccMZZe9L.s 			page 70


 3090              	.L169:
 408:Drivers/ICP201xx/Icp201xxDriver.c **** 	
 3091              		.loc 1 408 2 is_stmt 1 view .LVU717
 408:Drivers/ICP201xx/Icp201xxDriver.c **** 	
 3092              		.loc 1 408 11 is_stmt 0 view .LVU718
 3093 004a 0DF10703 		add	r3, sp, #7
 3094              	.LVL243:
 408:Drivers/ICP201xx/Icp201xxDriver.c **** 	
 3095              		.loc 1 408 11 view .LVU719
 3096 004e 0122     		movs	r2, #1
 3097 0050 C021     		movs	r1, #192
 3098 0052 2046     		mov	r0, r4
 3099 0054 FFF7FEFF 		bl	inv_icp201xx_serif_write_reg
 3100              	.LVL244:
 410:Drivers/ICP201xx/Icp201xxDriver.c **** }
 3101              		.loc 1 410 2 is_stmt 1 view .LVU720
 3102              	.L167:
 411:Drivers/ICP201xx/Icp201xxDriver.c **** 
 3103              		.loc 1 411 1 is_stmt 0 view .LVU721
 3104 0058 03B0     		add	sp, sp, #12
 3105              		.cfi_def_cfa_offset 12
 3106              		@ sp needed
 3107 005a 30BD     		pop	{r4, r5, pc}
 411:Drivers/ICP201xx/Icp201xxDriver.c **** 
 3108              		.loc 1 411 1 view .LVU722
 3109              		.cfi_endproc
 3110              	.LFE30:
 3112              		.section	.text.inv_icp201xx_wr_meas_mode,"ax",%progbits
 3113              		.align	1
 3114              		.global	inv_icp201xx_wr_meas_mode
 3115              		.syntax unified
 3116              		.thumb
 3117              		.thumb_func
 3119              	inv_icp201xx_wr_meas_mode:
 3120              	.LVL245:
 3121              	.LFB32:
 428:Drivers/ICP201xx/Icp201xxDriver.c **** 	int status;
 3122              		.loc 1 428 1 is_stmt 1 view -0
 3123              		.cfi_startproc
 3124              		@ args = 0, pretend = 0, frame = 8
 3125              		@ frame_needed = 0, uses_anonymous_args = 0
 428:Drivers/ICP201xx/Icp201xxDriver.c **** 	int status;
 3126              		.loc 1 428 1 is_stmt 0 view .LVU724
 3127 0000 30B5     		push	{r4, r5, lr}
 3128              		.cfi_def_cfa_offset 12
 3129              		.cfi_offset 4, -12
 3130              		.cfi_offset 5, -8
 3131              		.cfi_offset 14, -4
 3132 0002 83B0     		sub	sp, sp, #12
 3133              		.cfi_def_cfa_offset 24
 3134 0004 0446     		mov	r4, r0
 3135 0006 0D46     		mov	r5, r1
 429:Drivers/ICP201xx/Icp201xxDriver.c **** 	uint8_t reg_value = 0, read_value = 0;
 3136              		.loc 1 429 2 is_stmt 1 view .LVU725
 430:Drivers/ICP201xx/Icp201xxDriver.c **** 	status = inv_icp201xx_serif_read_reg(s, MPUREG_MODE_SELECT, 1, &reg_value);
 3137              		.loc 1 430 2 view .LVU726
 430:Drivers/ICP201xx/Icp201xxDriver.c **** 	status = inv_icp201xx_serif_read_reg(s, MPUREG_MODE_SELECT, 1, &reg_value);
ARM GAS  C:\Users\Nathan\AppData\Local\Temp\ccMZZe9L.s 			page 71


 3138              		.loc 1 430 10 is_stmt 0 view .LVU727
 3139 0008 0023     		movs	r3, #0
 3140 000a 8DF80730 		strb	r3, [sp, #7]
 430:Drivers/ICP201xx/Icp201xxDriver.c **** 	status = inv_icp201xx_serif_read_reg(s, MPUREG_MODE_SELECT, 1, &reg_value);
 3141              		.loc 1 430 25 view .LVU728
 3142 000e 8DF80630 		strb	r3, [sp, #6]
 431:Drivers/ICP201xx/Icp201xxDriver.c **** 
 3143              		.loc 1 431 2 is_stmt 1 view .LVU729
 431:Drivers/ICP201xx/Icp201xxDriver.c **** 
 3144              		.loc 1 431 11 is_stmt 0 view .LVU730
 3145 0012 0DF10703 		add	r3, sp, #7
 3146 0016 0122     		movs	r2, #1
 3147 0018 C021     		movs	r1, #192
 3148              	.LVL246:
 431:Drivers/ICP201xx/Icp201xxDriver.c **** 
 3149              		.loc 1 431 11 view .LVU731
 3150 001a FFF7FEFF 		bl	inv_icp201xx_serif_read_reg
 3151              	.LVL247:
 433:Drivers/ICP201xx/Icp201xxDriver.c **** 	return status;
 3152              		.loc 1 433 2 is_stmt 1 view .LVU732
 433:Drivers/ICP201xx/Icp201xxDriver.c **** 	return status;
 3153              		.loc 1 433 4 is_stmt 0 view .LVU733
 3154 001e D8B9     		cbnz	r0, .L172
 436:Drivers/ICP201xx/Icp201xxDriver.c **** 	do {
 3155              		.loc 1 436 2 is_stmt 1 view .LVU734
 436:Drivers/ICP201xx/Icp201xxDriver.c **** 	do {
 3156              		.loc 1 436 26 is_stmt 0 view .LVU735
 3157 0020 9DF80730 		ldrb	r3, [sp, #7]	@ zero_extendqisi2
 436:Drivers/ICP201xx/Icp201xxDriver.c **** 	do {
 3158              		.loc 1 436 52 view .LVU736
 3159 0024 23F00803 		bic	r3, r3, #8
 3160 0028 43EAC503 		orr	r3, r3, r5, lsl #3
 436:Drivers/ICP201xx/Icp201xxDriver.c **** 	do {
 3161              		.loc 1 436 12 view .LVU737
 3162 002c 8DF80730 		strb	r3, [sp, #7]
 3163              	.L175:
 437:Drivers/ICP201xx/Icp201xxDriver.c **** 		inv_icp201xx_rd_mode_sync_status(s,&read_value);
 3164              		.loc 1 437 2 is_stmt 1 view .LVU738
 438:Drivers/ICP201xx/Icp201xxDriver.c **** 		if ( read_value  )
 3165              		.loc 1 438 3 view .LVU739
 3166 0030 0DF10601 		add	r1, sp, #6
 3167 0034 2046     		mov	r0, r4
 3168 0036 FFF7FEFF 		bl	inv_icp201xx_rd_mode_sync_status
 3169              	.LVL248:
 439:Drivers/ICP201xx/Icp201xxDriver.c **** 			break;
 3170              		.loc 1 439 3 view .LVU740
 439:Drivers/ICP201xx/Icp201xxDriver.c **** 			break;
 3171              		.loc 1 439 8 is_stmt 0 view .LVU741
 3172 003a 9DF80630 		ldrb	r3, [sp, #6]	@ zero_extendqisi2
 439:Drivers/ICP201xx/Icp201xxDriver.c **** 			break;
 3173              		.loc 1 439 6 view .LVU742
 3174 003e 23B9     		cbnz	r3, .L174
 441:Drivers/ICP201xx/Icp201xxDriver.c **** 	}while(1);
 3175              		.loc 1 441 3 is_stmt 1 view .LVU743
 3176 0040 4FF4FA70 		mov	r0, #500
 3177 0044 FFF7FEFF 		bl	inv_icp201xx_sleep_us
 3178              	.LVL249:
ARM GAS  C:\Users\Nathan\AppData\Local\Temp\ccMZZe9L.s 			page 72


 437:Drivers/ICP201xx/Icp201xxDriver.c **** 		inv_icp201xx_rd_mode_sync_status(s,&read_value);
 3179              		.loc 1 437 5 view .LVU744
 438:Drivers/ICP201xx/Icp201xxDriver.c **** 		if ( read_value  )
 3180              		.loc 1 438 3 is_stmt 0 view .LVU745
 3181 0048 F2E7     		b	.L175
 3182              	.L174:
 444:Drivers/ICP201xx/Icp201xxDriver.c **** 	
 3183              		.loc 1 444 2 is_stmt 1 view .LVU746
 444:Drivers/ICP201xx/Icp201xxDriver.c **** 	
 3184              		.loc 1 444 11 is_stmt 0 view .LVU747
 3185 004a 0DF10703 		add	r3, sp, #7
 3186              	.LVL250:
 444:Drivers/ICP201xx/Icp201xxDriver.c **** 	
 3187              		.loc 1 444 11 view .LVU748
 3188 004e 0122     		movs	r2, #1
 3189 0050 C021     		movs	r1, #192
 3190 0052 2046     		mov	r0, r4
 3191 0054 FFF7FEFF 		bl	inv_icp201xx_serif_write_reg
 3192              	.LVL251:
 446:Drivers/ICP201xx/Icp201xxDriver.c **** }
 3193              		.loc 1 446 2 is_stmt 1 view .LVU749
 3194              	.L172:
 447:Drivers/ICP201xx/Icp201xxDriver.c **** 
 3195              		.loc 1 447 1 is_stmt 0 view .LVU750
 3196 0058 03B0     		add	sp, sp, #12
 3197              		.cfi_def_cfa_offset 12
 3198              		@ sp needed
 3199 005a 30BD     		pop	{r4, r5, pc}
 447:Drivers/ICP201xx/Icp201xxDriver.c **** 
 3200              		.loc 1 447 1 view .LVU751
 3201              		.cfi_endproc
 3202              	.LFE32:
 3204              		.section	.text.inv_icp201xx_wr_pow_mode,"ax",%progbits
 3205              		.align	1
 3206              		.global	inv_icp201xx_wr_pow_mode
 3207              		.syntax unified
 3208              		.thumb
 3209              		.thumb_func
 3211              	inv_icp201xx_wr_pow_mode:
 3212              	.LVL252:
 3213              	.LFB34:
 465:Drivers/ICP201xx/Icp201xxDriver.c **** 	int status;
 3214              		.loc 1 465 1 is_stmt 1 view -0
 3215              		.cfi_startproc
 3216              		@ args = 0, pretend = 0, frame = 8
 3217              		@ frame_needed = 0, uses_anonymous_args = 0
 465:Drivers/ICP201xx/Icp201xxDriver.c **** 	int status;
 3218              		.loc 1 465 1 is_stmt 0 view .LVU753
 3219 0000 30B5     		push	{r4, r5, lr}
 3220              		.cfi_def_cfa_offset 12
 3221              		.cfi_offset 4, -12
 3222              		.cfi_offset 5, -8
 3223              		.cfi_offset 14, -4
 3224 0002 83B0     		sub	sp, sp, #12
 3225              		.cfi_def_cfa_offset 24
 3226 0004 0446     		mov	r4, r0
 3227 0006 0D46     		mov	r5, r1
ARM GAS  C:\Users\Nathan\AppData\Local\Temp\ccMZZe9L.s 			page 73


 466:Drivers/ICP201xx/Icp201xxDriver.c **** 	uint8_t reg_value = 0, read_value = 0;
 3228              		.loc 1 466 2 is_stmt 1 view .LVU754
 467:Drivers/ICP201xx/Icp201xxDriver.c **** 	status = inv_icp201xx_serif_read_reg(s, MPUREG_MODE_SELECT, 1, &reg_value);
 3229              		.loc 1 467 2 view .LVU755
 467:Drivers/ICP201xx/Icp201xxDriver.c **** 	status = inv_icp201xx_serif_read_reg(s, MPUREG_MODE_SELECT, 1, &reg_value);
 3230              		.loc 1 467 10 is_stmt 0 view .LVU756
 3231 0008 0023     		movs	r3, #0
 3232 000a 8DF80730 		strb	r3, [sp, #7]
 467:Drivers/ICP201xx/Icp201xxDriver.c **** 	status = inv_icp201xx_serif_read_reg(s, MPUREG_MODE_SELECT, 1, &reg_value);
 3233              		.loc 1 467 25 view .LVU757
 3234 000e 8DF80630 		strb	r3, [sp, #6]
 468:Drivers/ICP201xx/Icp201xxDriver.c **** 
 3235              		.loc 1 468 2 is_stmt 1 view .LVU758
 468:Drivers/ICP201xx/Icp201xxDriver.c **** 
 3236              		.loc 1 468 11 is_stmt 0 view .LVU759
 3237 0012 0DF10703 		add	r3, sp, #7
 3238 0016 0122     		movs	r2, #1
 3239 0018 C021     		movs	r1, #192
 3240              	.LVL253:
 468:Drivers/ICP201xx/Icp201xxDriver.c **** 
 3241              		.loc 1 468 11 view .LVU760
 3242 001a FFF7FEFF 		bl	inv_icp201xx_serif_read_reg
 3243              	.LVL254:
 470:Drivers/ICP201xx/Icp201xxDriver.c **** 	return status;
 3244              		.loc 1 470 2 is_stmt 1 view .LVU761
 470:Drivers/ICP201xx/Icp201xxDriver.c **** 	return status;
 3245              		.loc 1 470 4 is_stmt 0 view .LVU762
 3246 001e D8B9     		cbnz	r0, .L177
 473:Drivers/ICP201xx/Icp201xxDriver.c **** 	
 3247              		.loc 1 473 2 is_stmt 1 view .LVU763
 473:Drivers/ICP201xx/Icp201xxDriver.c **** 	
 3248              		.loc 1 473 26 is_stmt 0 view .LVU764
 3249 0020 9DF80730 		ldrb	r3, [sp, #7]	@ zero_extendqisi2
 473:Drivers/ICP201xx/Icp201xxDriver.c **** 	
 3250              		.loc 1 473 53 view .LVU765
 3251 0024 23F00403 		bic	r3, r3, #4
 3252 0028 43EA8503 		orr	r3, r3, r5, lsl #2
 473:Drivers/ICP201xx/Icp201xxDriver.c **** 	
 3253              		.loc 1 473 12 view .LVU766
 3254 002c 8DF80730 		strb	r3, [sp, #7]
 3255              	.L180:
 475:Drivers/ICP201xx/Icp201xxDriver.c **** 		inv_icp201xx_rd_mode_sync_status(s,&read_value);
 3256              		.loc 1 475 2 is_stmt 1 view .LVU767
 476:Drivers/ICP201xx/Icp201xxDriver.c **** 		if ( read_value  )
 3257              		.loc 1 476 3 view .LVU768
 3258 0030 0DF10601 		add	r1, sp, #6
 3259 0034 2046     		mov	r0, r4
 3260 0036 FFF7FEFF 		bl	inv_icp201xx_rd_mode_sync_status
 3261              	.LVL255:
 477:Drivers/ICP201xx/Icp201xxDriver.c **** 			break;
 3262              		.loc 1 477 3 view .LVU769
 477:Drivers/ICP201xx/Icp201xxDriver.c **** 			break;
 3263              		.loc 1 477 8 is_stmt 0 view .LVU770
 3264 003a 9DF80630 		ldrb	r3, [sp, #6]	@ zero_extendqisi2
 477:Drivers/ICP201xx/Icp201xxDriver.c **** 			break;
 3265              		.loc 1 477 6 view .LVU771
 3266 003e 23B9     		cbnz	r3, .L179
ARM GAS  C:\Users\Nathan\AppData\Local\Temp\ccMZZe9L.s 			page 74


 479:Drivers/ICP201xx/Icp201xxDriver.c **** 	}while(1);
 3267              		.loc 1 479 3 is_stmt 1 view .LVU772
 3268 0040 4FF4FA70 		mov	r0, #500
 3269 0044 FFF7FEFF 		bl	inv_icp201xx_sleep_us
 3270              	.LVL256:
 475:Drivers/ICP201xx/Icp201xxDriver.c **** 		inv_icp201xx_rd_mode_sync_status(s,&read_value);
 3271              		.loc 1 475 5 view .LVU773
 476:Drivers/ICP201xx/Icp201xxDriver.c **** 		if ( read_value  )
 3272              		.loc 1 476 3 is_stmt 0 view .LVU774
 3273 0048 F2E7     		b	.L180
 3274              	.L179:
 482:Drivers/ICP201xx/Icp201xxDriver.c **** 
 3275              		.loc 1 482 2 is_stmt 1 view .LVU775
 482:Drivers/ICP201xx/Icp201xxDriver.c **** 
 3276              		.loc 1 482 11 is_stmt 0 view .LVU776
 3277 004a 0DF10703 		add	r3, sp, #7
 3278              	.LVL257:
 482:Drivers/ICP201xx/Icp201xxDriver.c **** 
 3279              		.loc 1 482 11 view .LVU777
 3280 004e 0122     		movs	r2, #1
 3281 0050 C021     		movs	r1, #192
 3282 0052 2046     		mov	r0, r4
 3283 0054 FFF7FEFF 		bl	inv_icp201xx_serif_write_reg
 3284              	.LVL258:
 484:Drivers/ICP201xx/Icp201xxDriver.c **** }
 3285              		.loc 1 484 2 is_stmt 1 view .LVU778
 3286              	.L177:
 485:Drivers/ICP201xx/Icp201xxDriver.c **** 
 3287              		.loc 1 485 1 is_stmt 0 view .LVU779
 3288 0058 03B0     		add	sp, sp, #12
 3289              		.cfi_def_cfa_offset 12
 3290              		@ sp needed
 3291 005a 30BD     		pop	{r4, r5, pc}
 485:Drivers/ICP201xx/Icp201xxDriver.c **** 
 3292              		.loc 1 485 1 view .LVU780
 3293              		.cfi_endproc
 3294              	.LFE34:
 3296              		.section	.text.inv_icp201xx_wr_fifo_readout_mode,"ax",%progbits
 3297              		.align	1
 3298              		.global	inv_icp201xx_wr_fifo_readout_mode
 3299              		.syntax unified
 3300              		.thumb
 3301              		.thumb_func
 3303              	inv_icp201xx_wr_fifo_readout_mode:
 3304              	.LVL259:
 3305              	.LFB36:
 503:Drivers/ICP201xx/Icp201xxDriver.c **** 	int status;
 3306              		.loc 1 503 1 is_stmt 1 view -0
 3307              		.cfi_startproc
 3308              		@ args = 0, pretend = 0, frame = 8
 3309              		@ frame_needed = 0, uses_anonymous_args = 0
 503:Drivers/ICP201xx/Icp201xxDriver.c **** 	int status;
 3310              		.loc 1 503 1 is_stmt 0 view .LVU782
 3311 0000 30B5     		push	{r4, r5, lr}
 3312              		.cfi_def_cfa_offset 12
 3313              		.cfi_offset 4, -12
 3314              		.cfi_offset 5, -8
ARM GAS  C:\Users\Nathan\AppData\Local\Temp\ccMZZe9L.s 			page 75


 3315              		.cfi_offset 14, -4
 3316 0002 83B0     		sub	sp, sp, #12
 3317              		.cfi_def_cfa_offset 24
 3318 0004 0446     		mov	r4, r0
 3319 0006 0D46     		mov	r5, r1
 504:Drivers/ICP201xx/Icp201xxDriver.c **** 	uint8_t reg_value = 0, read_value = 0;
 3320              		.loc 1 504 2 is_stmt 1 view .LVU783
 505:Drivers/ICP201xx/Icp201xxDriver.c **** 	status = inv_icp201xx_serif_read_reg(s, MPUREG_MODE_SELECT, 1, &reg_value);
 3321              		.loc 1 505 2 view .LVU784
 505:Drivers/ICP201xx/Icp201xxDriver.c **** 	status = inv_icp201xx_serif_read_reg(s, MPUREG_MODE_SELECT, 1, &reg_value);
 3322              		.loc 1 505 10 is_stmt 0 view .LVU785
 3323 0008 0023     		movs	r3, #0
 3324 000a 8DF80730 		strb	r3, [sp, #7]
 505:Drivers/ICP201xx/Icp201xxDriver.c **** 	status = inv_icp201xx_serif_read_reg(s, MPUREG_MODE_SELECT, 1, &reg_value);
 3325              		.loc 1 505 25 view .LVU786
 3326 000e 8DF80630 		strb	r3, [sp, #6]
 506:Drivers/ICP201xx/Icp201xxDriver.c **** 
 3327              		.loc 1 506 2 is_stmt 1 view .LVU787
 506:Drivers/ICP201xx/Icp201xxDriver.c **** 
 3328              		.loc 1 506 11 is_stmt 0 view .LVU788
 3329 0012 0DF10703 		add	r3, sp, #7
 3330 0016 0122     		movs	r2, #1
 3331 0018 C021     		movs	r1, #192
 3332              	.LVL260:
 506:Drivers/ICP201xx/Icp201xxDriver.c **** 
 3333              		.loc 1 506 11 view .LVU789
 3334 001a FFF7FEFF 		bl	inv_icp201xx_serif_read_reg
 3335              	.LVL261:
 508:Drivers/ICP201xx/Icp201xxDriver.c **** 	return status;
 3336              		.loc 1 508 2 is_stmt 1 view .LVU790
 508:Drivers/ICP201xx/Icp201xxDriver.c **** 	return status;
 3337              		.loc 1 508 4 is_stmt 0 view .LVU791
 3338 001e D8B9     		cbnz	r0, .L182
 511:Drivers/ICP201xx/Icp201xxDriver.c **** 	
 3339              		.loc 1 511 2 is_stmt 1 view .LVU792
 511:Drivers/ICP201xx/Icp201xxDriver.c **** 	
 3340              		.loc 1 511 26 is_stmt 0 view .LVU793
 3341 0020 9DF80730 		ldrb	r3, [sp, #7]	@ zero_extendqisi2
 511:Drivers/ICP201xx/Icp201xxDriver.c **** 	
 3342              		.loc 1 511 12 view .LVU794
 3343 0024 23F00303 		bic	r3, r3, #3
 3344 0028 45EA0301 		orr	r1, r5, r3
 3345 002c 8DF80710 		strb	r1, [sp, #7]
 3346              	.L185:
 513:Drivers/ICP201xx/Icp201xxDriver.c **** 		inv_icp201xx_rd_mode_sync_status(s,&read_value);
 3347              		.loc 1 513 2 is_stmt 1 view .LVU795
 514:Drivers/ICP201xx/Icp201xxDriver.c **** 		if ( read_value  )
 3348              		.loc 1 514 3 view .LVU796
 3349 0030 0DF10601 		add	r1, sp, #6
 3350 0034 2046     		mov	r0, r4
 3351 0036 FFF7FEFF 		bl	inv_icp201xx_rd_mode_sync_status
 3352              	.LVL262:
 515:Drivers/ICP201xx/Icp201xxDriver.c **** 			break;
 3353              		.loc 1 515 3 view .LVU797
 515:Drivers/ICP201xx/Icp201xxDriver.c **** 			break;
 3354              		.loc 1 515 8 is_stmt 0 view .LVU798
 3355 003a 9DF80630 		ldrb	r3, [sp, #6]	@ zero_extendqisi2
ARM GAS  C:\Users\Nathan\AppData\Local\Temp\ccMZZe9L.s 			page 76


 515:Drivers/ICP201xx/Icp201xxDriver.c **** 			break;
 3356              		.loc 1 515 6 view .LVU799
 3357 003e 23B9     		cbnz	r3, .L184
 518:Drivers/ICP201xx/Icp201xxDriver.c **** 	}while(1);
 3358              		.loc 1 518 3 is_stmt 1 view .LVU800
 3359 0040 4FF4FA70 		mov	r0, #500
 3360 0044 FFF7FEFF 		bl	inv_icp201xx_sleep_us
 3361              	.LVL263:
 513:Drivers/ICP201xx/Icp201xxDriver.c **** 		inv_icp201xx_rd_mode_sync_status(s,&read_value);
 3362              		.loc 1 513 5 view .LVU801
 514:Drivers/ICP201xx/Icp201xxDriver.c **** 		if ( read_value  )
 3363              		.loc 1 514 3 is_stmt 0 view .LVU802
 3364 0048 F2E7     		b	.L185
 3365              	.L184:
 521:Drivers/ICP201xx/Icp201xxDriver.c **** 	
 3366              		.loc 1 521 2 is_stmt 1 view .LVU803
 521:Drivers/ICP201xx/Icp201xxDriver.c **** 	
 3367              		.loc 1 521 11 is_stmt 0 view .LVU804
 3368 004a 0DF10703 		add	r3, sp, #7
 3369              	.LVL264:
 521:Drivers/ICP201xx/Icp201xxDriver.c **** 	
 3370              		.loc 1 521 11 view .LVU805
 3371 004e 0122     		movs	r2, #1
 3372 0050 C021     		movs	r1, #192
 3373 0052 2046     		mov	r0, r4
 3374 0054 FFF7FEFF 		bl	inv_icp201xx_serif_write_reg
 3375              	.LVL265:
 523:Drivers/ICP201xx/Icp201xxDriver.c **** }
 3376              		.loc 1 523 2 is_stmt 1 view .LVU806
 3377              	.L182:
 524:Drivers/ICP201xx/Icp201xxDriver.c **** 
 3378              		.loc 1 524 1 is_stmt 0 view .LVU807
 3379 0058 03B0     		add	sp, sp, #12
 3380              		.cfi_def_cfa_offset 12
 3381              		@ sp needed
 3382 005a 30BD     		pop	{r4, r5, pc}
 524:Drivers/ICP201xx/Icp201xxDriver.c **** 
 3383              		.loc 1 524 1 view .LVU808
 3384              		.cfi_endproc
 3385              	.LFE36:
 3387              		.section	.text.inv_icp201xx_rd_lp_seq_sync_status,"ax",%progbits
 3388              		.align	1
 3389              		.global	inv_icp201xx_rd_lp_seq_sync_status
 3390              		.syntax unified
 3391              		.thumb
 3392              		.thumb_func
 3394              	inv_icp201xx_rd_lp_seq_sync_status:
 3395              	.LVL266:
 3396              	.LFB66:
 807:Drivers/ICP201xx/Icp201xxDriver.c **** 
 808:Drivers/ICP201xx/Icp201xxDriver.c **** int inv_icp201xx_rd_lp_seq_sync_status(inv_icp201xx_serif_t * s, uint8_t *value)
 809:Drivers/ICP201xx/Icp201xxDriver.c **** {
 3397              		.loc 1 809 1 is_stmt 1 view -0
 3398              		.cfi_startproc
 3399              		@ args = 0, pretend = 0, frame = 8
 3400              		@ frame_needed = 0, uses_anonymous_args = 0
 3401              		.loc 1 809 1 is_stmt 0 view .LVU810
ARM GAS  C:\Users\Nathan\AppData\Local\Temp\ccMZZe9L.s 			page 77


 3402 0000 10B5     		push	{r4, lr}
 3403              		.cfi_def_cfa_offset 8
 3404              		.cfi_offset 4, -8
 3405              		.cfi_offset 14, -4
 3406 0002 82B0     		sub	sp, sp, #8
 3407              		.cfi_def_cfa_offset 16
 3408 0004 0C46     		mov	r4, r1
 810:Drivers/ICP201xx/Icp201xxDriver.c **** 	int status;
 3409              		.loc 1 810 2 is_stmt 1 view .LVU811
 811:Drivers/ICP201xx/Icp201xxDriver.c **** 	uint8_t read_val;
 3410              		.loc 1 811 2 view .LVU812
 812:Drivers/ICP201xx/Icp201xxDriver.c **** 	
 813:Drivers/ICP201xx/Icp201xxDriver.c **** 	status = inv_icp201xx_serif_read_reg(s, MPUREG_DEVICE_STATUS, 1, &read_val);
 3411              		.loc 1 813 2 view .LVU813
 3412              		.loc 1 813 11 is_stmt 0 view .LVU814
 3413 0006 0DF10703 		add	r3, sp, #7
 3414 000a 0122     		movs	r2, #1
 3415 000c CD21     		movs	r1, #205
 3416              	.LVL267:
 3417              		.loc 1 813 11 view .LVU815
 3418 000e FFF7FEFF 		bl	inv_icp201xx_serif_read_reg
 3419              	.LVL268:
 814:Drivers/ICP201xx/Icp201xxDriver.c **** 	
 815:Drivers/ICP201xx/Icp201xxDriver.c **** 	if ( status )
 3420              		.loc 1 815 2 is_stmt 1 view .LVU816
 3421              		.loc 1 815 5 is_stmt 0 view .LVU817
 3422 0012 20B9     		cbnz	r0, .L187
 816:Drivers/ICP201xx/Icp201xxDriver.c **** 		return status;
 817:Drivers/ICP201xx/Icp201xxDriver.c **** 	
 818:Drivers/ICP201xx/Icp201xxDriver.c **** 	*value = (read_val & BIT_DEVICE_STATUS_LP_SEQ_STATE_MASK) >> BIT_DEVICE_STATUS_LP_SEQ_STATE_POS ;
 3423              		.loc 1 818 2 is_stmt 1 view .LVU818
 3424              		.loc 1 818 60 is_stmt 0 view .LVU819
 3425 0014 9DF80730 		ldrb	r3, [sp, #7]	@ zero_extendqisi2
 3426 0018 C3F34103 		ubfx	r3, r3, #1, #2
 3427              		.loc 1 818 9 view .LVU820
 3428 001c 2370     		strb	r3, [r4]
 819:Drivers/ICP201xx/Icp201xxDriver.c **** 	
 820:Drivers/ICP201xx/Icp201xxDriver.c **** 	return status;
 3429              		.loc 1 820 2 is_stmt 1 view .LVU821
 3430              	.L187:
 821:Drivers/ICP201xx/Icp201xxDriver.c **** }
 3431              		.loc 1 821 1 is_stmt 0 view .LVU822
 3432 001e 02B0     		add	sp, sp, #8
 3433              		.cfi_def_cfa_offset 8
 3434              		@ sp needed
 3435 0020 10BD     		pop	{r4, pc}
 3436              		.loc 1 821 1 view .LVU823
 3437              		.cfi_endproc
 3438              	.LFE66:
 3440              		.section	.text.inv_icp201xx_rd_version,"ax",%progbits
 3441              		.align	1
 3442              		.global	inv_icp201xx_rd_version
 3443              		.syntax unified
 3444              		.thumb
 3445              		.thumb_func
 3447              	inv_icp201xx_rd_version:
 3448              	.LVL269:
ARM GAS  C:\Users\Nathan\AppData\Local\Temp\ccMZZe9L.s 			page 78


 3449              	.LFB67:
 822:Drivers/ICP201xx/Icp201xxDriver.c **** 
 823:Drivers/ICP201xx/Icp201xxDriver.c **** int inv_icp201xx_rd_version(inv_icp201xx_serif_t  * s, uint8_t *value)
 824:Drivers/ICP201xx/Icp201xxDriver.c **** {
 3450              		.loc 1 824 1 is_stmt 1 view -0
 3451              		.cfi_startproc
 3452              		@ args = 0, pretend = 0, frame = 0
 3453              		@ frame_needed = 0, uses_anonymous_args = 0
 3454              		.loc 1 824 1 is_stmt 0 view .LVU825
 3455 0000 08B5     		push	{r3, lr}
 3456              		.cfi_def_cfa_offset 8
 3457              		.cfi_offset 3, -8
 3458              		.cfi_offset 14, -4
 3459 0002 0B46     		mov	r3, r1
 825:Drivers/ICP201xx/Icp201xxDriver.c **** 	return inv_icp201xx_serif_read_reg(s, MPUREG_VERSION, 1, value);
 3460              		.loc 1 825 2 is_stmt 1 view .LVU826
 3461              		.loc 1 825 9 is_stmt 0 view .LVU827
 3462 0004 0122     		movs	r2, #1
 3463 0006 D321     		movs	r1, #211
 3464              	.LVL270:
 3465              		.loc 1 825 9 view .LVU828
 3466 0008 FFF7FEFF 		bl	inv_icp201xx_serif_read_reg
 3467              	.LVL271:
 826:Drivers/ICP201xx/Icp201xxDriver.c **** }
 3468              		.loc 1 826 1 view .LVU829
 3469 000c 08BD     		pop	{r3, pc}
 3470              		.cfi_endproc
 3471              	.LFE67:
 3473              		.text
 3474              	.Letext0:
 3475              		.file 2 "C:/Users/Nathan/AppData/Roaming/Code/User/globalStorage/bmd.stm32-for-vscode/@xpack-dev-t
 3476              		.file 3 "C:/Users/Nathan/AppData/Roaming/Code/User/globalStorage/bmd.stm32-for-vscode/@xpack-dev-t
 3477              		.file 4 "Drivers/ICP201xx/InvError.h"
 3478              		.file 5 "Drivers/ICP201xx/Icp201xxSerif.h"
 3479              		.file 6 "Drivers/ICP201xx/Icp201xxDefs.h"
 3480              		.file 7 "Drivers/ICP201xx/Icp201xxDriver.h"
 3481              		.file 8 "Drivers/ICP201xx/Icp201xxExtFunc.h"
ARM GAS  C:\Users\Nathan\AppData\Local\Temp\ccMZZe9L.s 			page 79

