ARM GAS  C:\Users\Nathan\AppData\Local\Temp\cc4vJDVg.s 			page 1


   1              		.cpu cortex-m4
   2              		.arch armv7e-m
   3              		.fpu fpv4-sp-d16
   4              		.eabi_attribute 27, 1
   5              		.eabi_attribute 28, 1
   6              		.eabi_attribute 20, 1
   7              		.eabi_attribute 21, 1
   8              		.eabi_attribute 23, 3
   9              		.eabi_attribute 24, 1
  10              		.eabi_attribute 25, 1
  11              		.eabi_attribute 26, 1
  12              		.eabi_attribute 30, 1
  13              		.eabi_attribute 34, 1
  14              		.eabi_attribute 18, 4
  15              		.file	"stm32g4xx_hal_rcc_ex.c"
  16              		.text
  17              	.Ltext0:
  18              		.cfi_sections	.debug_frame
  19              		.file 1 "Drivers/STM32G4xx_HAL_Driver/Src/stm32g4xx_hal_rcc_ex.c"
  20              		.section	.text.HAL_RCCEx_PeriphCLKConfig,"ax",%progbits
  21              		.align	1
  22              		.global	HAL_RCCEx_PeriphCLKConfig
  23              		.syntax unified
  24              		.thumb
  25              		.thumb_func
  27              	HAL_RCCEx_PeriphCLKConfig:
  28              	.LVL0:
  29              	.LFB132:
   1:Drivers/STM32G4xx_HAL_Driver/Src/stm32g4xx_hal_rcc_ex.c **** /**
   2:Drivers/STM32G4xx_HAL_Driver/Src/stm32g4xx_hal_rcc_ex.c ****   ******************************************************************************
   3:Drivers/STM32G4xx_HAL_Driver/Src/stm32g4xx_hal_rcc_ex.c ****   * @file    stm32g4xx_hal_rcc_ex.c
   4:Drivers/STM32G4xx_HAL_Driver/Src/stm32g4xx_hal_rcc_ex.c ****   * @author  MCD Application Team
   5:Drivers/STM32G4xx_HAL_Driver/Src/stm32g4xx_hal_rcc_ex.c ****   * @brief   Extended RCC HAL module driver.
   6:Drivers/STM32G4xx_HAL_Driver/Src/stm32g4xx_hal_rcc_ex.c ****   *          This file provides firmware functions to manage the following
   7:Drivers/STM32G4xx_HAL_Driver/Src/stm32g4xx_hal_rcc_ex.c ****   *          functionalities RCC extended peripheral:
   8:Drivers/STM32G4xx_HAL_Driver/Src/stm32g4xx_hal_rcc_ex.c ****   *           + Extended Peripheral Control functions
   9:Drivers/STM32G4xx_HAL_Driver/Src/stm32g4xx_hal_rcc_ex.c ****   *           + Extended Clock management functions
  10:Drivers/STM32G4xx_HAL_Driver/Src/stm32g4xx_hal_rcc_ex.c ****   *           + Extended Clock Recovery System Control functions
  11:Drivers/STM32G4xx_HAL_Driver/Src/stm32g4xx_hal_rcc_ex.c ****   *
  12:Drivers/STM32G4xx_HAL_Driver/Src/stm32g4xx_hal_rcc_ex.c ****   ******************************************************************************
  13:Drivers/STM32G4xx_HAL_Driver/Src/stm32g4xx_hal_rcc_ex.c ****   * @attention
  14:Drivers/STM32G4xx_HAL_Driver/Src/stm32g4xx_hal_rcc_ex.c ****   *
  15:Drivers/STM32G4xx_HAL_Driver/Src/stm32g4xx_hal_rcc_ex.c ****   * Copyright (c) 2019 STMicroelectronics.
  16:Drivers/STM32G4xx_HAL_Driver/Src/stm32g4xx_hal_rcc_ex.c ****   * All rights reserved.
  17:Drivers/STM32G4xx_HAL_Driver/Src/stm32g4xx_hal_rcc_ex.c ****   *
  18:Drivers/STM32G4xx_HAL_Driver/Src/stm32g4xx_hal_rcc_ex.c ****   * This software is licensed under terms that can be found in the LICENSE file in
  19:Drivers/STM32G4xx_HAL_Driver/Src/stm32g4xx_hal_rcc_ex.c ****   * the root directory of this software component.
  20:Drivers/STM32G4xx_HAL_Driver/Src/stm32g4xx_hal_rcc_ex.c ****   * If no LICENSE file comes with this software, it is provided AS-IS.
  21:Drivers/STM32G4xx_HAL_Driver/Src/stm32g4xx_hal_rcc_ex.c ****   ******************************************************************************
  22:Drivers/STM32G4xx_HAL_Driver/Src/stm32g4xx_hal_rcc_ex.c ****   */
  23:Drivers/STM32G4xx_HAL_Driver/Src/stm32g4xx_hal_rcc_ex.c **** 
  24:Drivers/STM32G4xx_HAL_Driver/Src/stm32g4xx_hal_rcc_ex.c **** /* Includes ------------------------------------------------------------------*/
  25:Drivers/STM32G4xx_HAL_Driver/Src/stm32g4xx_hal_rcc_ex.c **** #include "stm32g4xx_hal.h"
  26:Drivers/STM32G4xx_HAL_Driver/Src/stm32g4xx_hal_rcc_ex.c **** 
  27:Drivers/STM32G4xx_HAL_Driver/Src/stm32g4xx_hal_rcc_ex.c **** /** @addtogroup STM32G4xx_HAL_Driver
  28:Drivers/STM32G4xx_HAL_Driver/Src/stm32g4xx_hal_rcc_ex.c ****   * @{
  29:Drivers/STM32G4xx_HAL_Driver/Src/stm32g4xx_hal_rcc_ex.c ****   */
ARM GAS  C:\Users\Nathan\AppData\Local\Temp\cc4vJDVg.s 			page 2


  30:Drivers/STM32G4xx_HAL_Driver/Src/stm32g4xx_hal_rcc_ex.c **** 
  31:Drivers/STM32G4xx_HAL_Driver/Src/stm32g4xx_hal_rcc_ex.c **** /** @defgroup RCCEx RCCEx
  32:Drivers/STM32G4xx_HAL_Driver/Src/stm32g4xx_hal_rcc_ex.c ****   * @brief RCC Extended HAL module driver
  33:Drivers/STM32G4xx_HAL_Driver/Src/stm32g4xx_hal_rcc_ex.c ****   * @{
  34:Drivers/STM32G4xx_HAL_Driver/Src/stm32g4xx_hal_rcc_ex.c ****   */
  35:Drivers/STM32G4xx_HAL_Driver/Src/stm32g4xx_hal_rcc_ex.c **** 
  36:Drivers/STM32G4xx_HAL_Driver/Src/stm32g4xx_hal_rcc_ex.c **** #ifdef HAL_RCC_MODULE_ENABLED
  37:Drivers/STM32G4xx_HAL_Driver/Src/stm32g4xx_hal_rcc_ex.c **** 
  38:Drivers/STM32G4xx_HAL_Driver/Src/stm32g4xx_hal_rcc_ex.c **** /* Private typedef -----------------------------------------------------------*/
  39:Drivers/STM32G4xx_HAL_Driver/Src/stm32g4xx_hal_rcc_ex.c **** /* Private defines -----------------------------------------------------------*/
  40:Drivers/STM32G4xx_HAL_Driver/Src/stm32g4xx_hal_rcc_ex.c **** /** @defgroup RCCEx_Private_Constants RCCEx Private Constants
  41:Drivers/STM32G4xx_HAL_Driver/Src/stm32g4xx_hal_rcc_ex.c ****  * @{
  42:Drivers/STM32G4xx_HAL_Driver/Src/stm32g4xx_hal_rcc_ex.c ****  */
  43:Drivers/STM32G4xx_HAL_Driver/Src/stm32g4xx_hal_rcc_ex.c **** #define PLL_TIMEOUT_VALUE        2U                /* 2 ms (minimum Tick + 1) */
  44:Drivers/STM32G4xx_HAL_Driver/Src/stm32g4xx_hal_rcc_ex.c **** 
  45:Drivers/STM32G4xx_HAL_Driver/Src/stm32g4xx_hal_rcc_ex.c **** #define DIVIDER_P_UPDATE          0U
  46:Drivers/STM32G4xx_HAL_Driver/Src/stm32g4xx_hal_rcc_ex.c **** #define DIVIDER_Q_UPDATE          1U
  47:Drivers/STM32G4xx_HAL_Driver/Src/stm32g4xx_hal_rcc_ex.c **** #define DIVIDER_R_UPDATE          2U
  48:Drivers/STM32G4xx_HAL_Driver/Src/stm32g4xx_hal_rcc_ex.c **** 
  49:Drivers/STM32G4xx_HAL_Driver/Src/stm32g4xx_hal_rcc_ex.c **** #define __LSCO_CLK_ENABLE()       __HAL_RCC_GPIOA_CLK_ENABLE()
  50:Drivers/STM32G4xx_HAL_Driver/Src/stm32g4xx_hal_rcc_ex.c **** #define LSCO_GPIO_PORT            GPIOA
  51:Drivers/STM32G4xx_HAL_Driver/Src/stm32g4xx_hal_rcc_ex.c **** #define LSCO_PIN                  GPIO_PIN_2
  52:Drivers/STM32G4xx_HAL_Driver/Src/stm32g4xx_hal_rcc_ex.c **** /**
  53:Drivers/STM32G4xx_HAL_Driver/Src/stm32g4xx_hal_rcc_ex.c ****   * @}
  54:Drivers/STM32G4xx_HAL_Driver/Src/stm32g4xx_hal_rcc_ex.c ****   */
  55:Drivers/STM32G4xx_HAL_Driver/Src/stm32g4xx_hal_rcc_ex.c **** 
  56:Drivers/STM32G4xx_HAL_Driver/Src/stm32g4xx_hal_rcc_ex.c **** /* Private macros ------------------------------------------------------------*/
  57:Drivers/STM32G4xx_HAL_Driver/Src/stm32g4xx_hal_rcc_ex.c **** /* Private variables ---------------------------------------------------------*/
  58:Drivers/STM32G4xx_HAL_Driver/Src/stm32g4xx_hal_rcc_ex.c **** /* Private function prototypes -----------------------------------------------*/
  59:Drivers/STM32G4xx_HAL_Driver/Src/stm32g4xx_hal_rcc_ex.c **** /** @defgroup RCCEx_Private_Functions RCCEx Private Functions
  60:Drivers/STM32G4xx_HAL_Driver/Src/stm32g4xx_hal_rcc_ex.c ****  * @{
  61:Drivers/STM32G4xx_HAL_Driver/Src/stm32g4xx_hal_rcc_ex.c ****  */
  62:Drivers/STM32G4xx_HAL_Driver/Src/stm32g4xx_hal_rcc_ex.c **** 
  63:Drivers/STM32G4xx_HAL_Driver/Src/stm32g4xx_hal_rcc_ex.c **** /**
  64:Drivers/STM32G4xx_HAL_Driver/Src/stm32g4xx_hal_rcc_ex.c ****   * @}
  65:Drivers/STM32G4xx_HAL_Driver/Src/stm32g4xx_hal_rcc_ex.c ****   */
  66:Drivers/STM32G4xx_HAL_Driver/Src/stm32g4xx_hal_rcc_ex.c **** 
  67:Drivers/STM32G4xx_HAL_Driver/Src/stm32g4xx_hal_rcc_ex.c **** /* Exported functions --------------------------------------------------------*/
  68:Drivers/STM32G4xx_HAL_Driver/Src/stm32g4xx_hal_rcc_ex.c **** 
  69:Drivers/STM32G4xx_HAL_Driver/Src/stm32g4xx_hal_rcc_ex.c **** /** @defgroup RCCEx_Exported_Functions RCCEx Exported Functions
  70:Drivers/STM32G4xx_HAL_Driver/Src/stm32g4xx_hal_rcc_ex.c ****   * @{
  71:Drivers/STM32G4xx_HAL_Driver/Src/stm32g4xx_hal_rcc_ex.c ****   */
  72:Drivers/STM32G4xx_HAL_Driver/Src/stm32g4xx_hal_rcc_ex.c **** 
  73:Drivers/STM32G4xx_HAL_Driver/Src/stm32g4xx_hal_rcc_ex.c **** /** @defgroup RCCEx_Exported_Functions_Group1 Extended Peripheral Control functions
  74:Drivers/STM32G4xx_HAL_Driver/Src/stm32g4xx_hal_rcc_ex.c ****  *  @brief  Extended Peripheral Control functions
  75:Drivers/STM32G4xx_HAL_Driver/Src/stm32g4xx_hal_rcc_ex.c ****  *
  76:Drivers/STM32G4xx_HAL_Driver/Src/stm32g4xx_hal_rcc_ex.c **** @verbatim
  77:Drivers/STM32G4xx_HAL_Driver/Src/stm32g4xx_hal_rcc_ex.c ****  ===============================================================================
  78:Drivers/STM32G4xx_HAL_Driver/Src/stm32g4xx_hal_rcc_ex.c ****                 ##### Extended Peripheral Control functions  #####
  79:Drivers/STM32G4xx_HAL_Driver/Src/stm32g4xx_hal_rcc_ex.c ****  ===============================================================================
  80:Drivers/STM32G4xx_HAL_Driver/Src/stm32g4xx_hal_rcc_ex.c ****     [..]
  81:Drivers/STM32G4xx_HAL_Driver/Src/stm32g4xx_hal_rcc_ex.c ****     This subsection provides a set of functions allowing to control the RCC Clocks
  82:Drivers/STM32G4xx_HAL_Driver/Src/stm32g4xx_hal_rcc_ex.c ****     frequencies.
  83:Drivers/STM32G4xx_HAL_Driver/Src/stm32g4xx_hal_rcc_ex.c ****     [..]
  84:Drivers/STM32G4xx_HAL_Driver/Src/stm32g4xx_hal_rcc_ex.c ****     (@) Important note: Care must be taken when HAL_RCCEx_PeriphCLKConfig() is used to
  85:Drivers/STM32G4xx_HAL_Driver/Src/stm32g4xx_hal_rcc_ex.c ****         select the RTC clock source; in this case the Backup domain will be reset in
  86:Drivers/STM32G4xx_HAL_Driver/Src/stm32g4xx_hal_rcc_ex.c ****         order to modify the RTC Clock source, as consequence RTC registers (including
ARM GAS  C:\Users\Nathan\AppData\Local\Temp\cc4vJDVg.s 			page 3


  87:Drivers/STM32G4xx_HAL_Driver/Src/stm32g4xx_hal_rcc_ex.c ****         the backup registers) are set to their reset values.
  88:Drivers/STM32G4xx_HAL_Driver/Src/stm32g4xx_hal_rcc_ex.c **** 
  89:Drivers/STM32G4xx_HAL_Driver/Src/stm32g4xx_hal_rcc_ex.c **** @endverbatim
  90:Drivers/STM32G4xx_HAL_Driver/Src/stm32g4xx_hal_rcc_ex.c ****   * @{
  91:Drivers/STM32G4xx_HAL_Driver/Src/stm32g4xx_hal_rcc_ex.c ****   */
  92:Drivers/STM32G4xx_HAL_Driver/Src/stm32g4xx_hal_rcc_ex.c **** /**
  93:Drivers/STM32G4xx_HAL_Driver/Src/stm32g4xx_hal_rcc_ex.c ****   * @brief  Initialize the RCC extended peripherals clocks according to the specified
  94:Drivers/STM32G4xx_HAL_Driver/Src/stm32g4xx_hal_rcc_ex.c ****   *         parameters in the RCC_PeriphCLKInitTypeDef.
  95:Drivers/STM32G4xx_HAL_Driver/Src/stm32g4xx_hal_rcc_ex.c ****   * @param  PeriphClkInit  pointer to an RCC_PeriphCLKInitTypeDef structure that
  96:Drivers/STM32G4xx_HAL_Driver/Src/stm32g4xx_hal_rcc_ex.c ****   *         contains a field PeriphClockSelection which can be a combination of the following value
  97:Drivers/STM32G4xx_HAL_Driver/Src/stm32g4xx_hal_rcc_ex.c ****   *            @arg @ref RCC_PERIPHCLK_RTC  RTC peripheral clock
  98:Drivers/STM32G4xx_HAL_Driver/Src/stm32g4xx_hal_rcc_ex.c ****   *            @arg @ref RCC_PERIPHCLK_USART1  USART1 peripheral clock
  99:Drivers/STM32G4xx_HAL_Driver/Src/stm32g4xx_hal_rcc_ex.c ****   *            @arg @ref RCC_PERIPHCLK_USART2  USART2 peripheral clock
 100:Drivers/STM32G4xx_HAL_Driver/Src/stm32g4xx_hal_rcc_ex.c ****   *            @arg @ref RCC_PERIPHCLK_USART3  USART3 peripheral clock
 101:Drivers/STM32G4xx_HAL_Driver/Src/stm32g4xx_hal_rcc_ex.c ****   *            @arg @ref RCC_PERIPHCLK_UART4  UART4 peripheral clock (only for devices with UART4)
 102:Drivers/STM32G4xx_HAL_Driver/Src/stm32g4xx_hal_rcc_ex.c ****   *            @arg @ref RCC_PERIPHCLK_UART5  UART5 peripheral clock (only for devices with UART5)
 103:Drivers/STM32G4xx_HAL_Driver/Src/stm32g4xx_hal_rcc_ex.c ****   *            @arg @ref RCC_PERIPHCLK_LPUART1  LPUART1 peripheral clock
 104:Drivers/STM32G4xx_HAL_Driver/Src/stm32g4xx_hal_rcc_ex.c ****   *            @arg @ref RCC_PERIPHCLK_I2C1  I2C1 peripheral clock
 105:Drivers/STM32G4xx_HAL_Driver/Src/stm32g4xx_hal_rcc_ex.c ****   *            @arg @ref RCC_PERIPHCLK_I2C2  I2C2 peripheral clock
 106:Drivers/STM32G4xx_HAL_Driver/Src/stm32g4xx_hal_rcc_ex.c ****   *            @arg @ref RCC_PERIPHCLK_I2C3  I2C3 peripheral clock
 107:Drivers/STM32G4xx_HAL_Driver/Src/stm32g4xx_hal_rcc_ex.c ****   *            @arg @ref RCC_PERIPHCLK_I2C4  I2C4 peripheral clock (only for devices with I2C4)
 108:Drivers/STM32G4xx_HAL_Driver/Src/stm32g4xx_hal_rcc_ex.c ****   *            @arg @ref RCC_PERIPHCLK_LPTIM1  LPTIM1 peripheral clock
 109:Drivers/STM32G4xx_HAL_Driver/Src/stm32g4xx_hal_rcc_ex.c ****   *            @arg @ref RCC_PERIPHCLK_SAI1  SAI1 peripheral clock
 110:Drivers/STM32G4xx_HAL_Driver/Src/stm32g4xx_hal_rcc_ex.c ****   *            @arg @ref RCC_PERIPHCLK_I2S  I2S peripheral clock
 111:Drivers/STM32G4xx_HAL_Driver/Src/stm32g4xx_hal_rcc_ex.c ****   *            @arg @ref RCC_PERIPHCLK_FDCAN  FDCAN peripheral clock (only for devices with FDCAN)
 112:Drivers/STM32G4xx_HAL_Driver/Src/stm32g4xx_hal_rcc_ex.c ****   *            @arg @ref RCC_PERIPHCLK_RNG  RNG peripheral clock
 113:Drivers/STM32G4xx_HAL_Driver/Src/stm32g4xx_hal_rcc_ex.c ****   *            @arg @ref RCC_PERIPHCLK_USB  USB peripheral clock (only for devices with USB)
 114:Drivers/STM32G4xx_HAL_Driver/Src/stm32g4xx_hal_rcc_ex.c ****   *            @arg @ref RCC_PERIPHCLK_ADC12  ADC1 and ADC2 peripheral clock
 115:Drivers/STM32G4xx_HAL_Driver/Src/stm32g4xx_hal_rcc_ex.c ****   *            @arg @ref RCC_PERIPHCLK_ADC345  ADC3, ADC4 and ADC5 peripheral clock (only for devic
 116:Drivers/STM32G4xx_HAL_Driver/Src/stm32g4xx_hal_rcc_ex.c ****   *            @arg @ref RCC_PERIPHCLK_QSPI  QuadSPI peripheral clock (only for devices with QuadSP
 117:Drivers/STM32G4xx_HAL_Driver/Src/stm32g4xx_hal_rcc_ex.c ****   *
 118:Drivers/STM32G4xx_HAL_Driver/Src/stm32g4xx_hal_rcc_ex.c ****   * @note   Care must be taken when HAL_RCCEx_PeriphCLKConfig() is used to select
 119:Drivers/STM32G4xx_HAL_Driver/Src/stm32g4xx_hal_rcc_ex.c ****   *         the RTC clock source: in this case the access to Backup domain is enabled.
 120:Drivers/STM32G4xx_HAL_Driver/Src/stm32g4xx_hal_rcc_ex.c ****   *
 121:Drivers/STM32G4xx_HAL_Driver/Src/stm32g4xx_hal_rcc_ex.c ****   * @retval HAL status
 122:Drivers/STM32G4xx_HAL_Driver/Src/stm32g4xx_hal_rcc_ex.c ****   */
 123:Drivers/STM32G4xx_HAL_Driver/Src/stm32g4xx_hal_rcc_ex.c **** HAL_StatusTypeDef HAL_RCCEx_PeriphCLKConfig(RCC_PeriphCLKInitTypeDef  *PeriphClkInit)
 124:Drivers/STM32G4xx_HAL_Driver/Src/stm32g4xx_hal_rcc_ex.c **** {
  30              		.loc 1 124 1 view -0
  31              		.cfi_startproc
  32              		@ args = 0, pretend = 0, frame = 8
  33              		@ frame_needed = 0, uses_anonymous_args = 0
  34              		.loc 1 124 1 is_stmt 0 view .LVU1
  35 0000 F0B5     		push	{r4, r5, r6, r7, lr}
  36              		.cfi_def_cfa_offset 20
  37              		.cfi_offset 4, -20
  38              		.cfi_offset 5, -16
  39              		.cfi_offset 6, -12
  40              		.cfi_offset 7, -8
  41              		.cfi_offset 14, -4
  42 0002 83B0     		sub	sp, sp, #12
  43              		.cfi_def_cfa_offset 32
  44 0004 0446     		mov	r4, r0
 125:Drivers/STM32G4xx_HAL_Driver/Src/stm32g4xx_hal_rcc_ex.c ****   uint32_t tmpregister;
  45              		.loc 1 125 3 is_stmt 1 view .LVU2
 126:Drivers/STM32G4xx_HAL_Driver/Src/stm32g4xx_hal_rcc_ex.c ****   uint32_t tickstart;
  46              		.loc 1 126 3 view .LVU3
ARM GAS  C:\Users\Nathan\AppData\Local\Temp\cc4vJDVg.s 			page 4


 127:Drivers/STM32G4xx_HAL_Driver/Src/stm32g4xx_hal_rcc_ex.c ****   HAL_StatusTypeDef ret = HAL_OK;      /* Intermediate status */
  47              		.loc 1 127 3 view .LVU4
  48              	.LVL1:
 128:Drivers/STM32G4xx_HAL_Driver/Src/stm32g4xx_hal_rcc_ex.c ****   HAL_StatusTypeDef status = HAL_OK;   /* Final status */
  49              		.loc 1 128 3 view .LVU5
 129:Drivers/STM32G4xx_HAL_Driver/Src/stm32g4xx_hal_rcc_ex.c **** 
 130:Drivers/STM32G4xx_HAL_Driver/Src/stm32g4xx_hal_rcc_ex.c ****   /* Check the parameters */
 131:Drivers/STM32G4xx_HAL_Driver/Src/stm32g4xx_hal_rcc_ex.c ****   assert_param(IS_RCC_PERIPHCLOCK(PeriphClkInit->PeriphClockSelection));
  50              		.loc 1 131 3 view .LVU6
 132:Drivers/STM32G4xx_HAL_Driver/Src/stm32g4xx_hal_rcc_ex.c **** 
 133:Drivers/STM32G4xx_HAL_Driver/Src/stm32g4xx_hal_rcc_ex.c ****   /*-------------------------- RTC clock source configuration ----------------------*/
 134:Drivers/STM32G4xx_HAL_Driver/Src/stm32g4xx_hal_rcc_ex.c ****   if((PeriphClkInit->PeriphClockSelection & RCC_PERIPHCLK_RTC) == RCC_PERIPHCLK_RTC)
  51              		.loc 1 134 3 view .LVU7
  52              		.loc 1 134 20 is_stmt 0 view .LVU8
  53 0006 0368     		ldr	r3, [r0]
  54              		.loc 1 134 5 view .LVU9
  55 0008 13F4002F 		tst	r3, #524288
  56 000c 6ED0     		beq	.L31
  57              	.LBB2:
 135:Drivers/STM32G4xx_HAL_Driver/Src/stm32g4xx_hal_rcc_ex.c ****   {
 136:Drivers/STM32G4xx_HAL_Driver/Src/stm32g4xx_hal_rcc_ex.c ****     FlagStatus       pwrclkchanged = RESET;
  58              		.loc 1 136 5 is_stmt 1 view .LVU10
  59              	.LVL2:
 137:Drivers/STM32G4xx_HAL_Driver/Src/stm32g4xx_hal_rcc_ex.c ****     
 138:Drivers/STM32G4xx_HAL_Driver/Src/stm32g4xx_hal_rcc_ex.c ****     /* Check for RTC Parameters used to output RTCCLK */
 139:Drivers/STM32G4xx_HAL_Driver/Src/stm32g4xx_hal_rcc_ex.c ****     assert_param(IS_RCC_RTCCLKSOURCE(PeriphClkInit->RTCClockSelection));
  60              		.loc 1 139 5 view .LVU11
 140:Drivers/STM32G4xx_HAL_Driver/Src/stm32g4xx_hal_rcc_ex.c **** 
 141:Drivers/STM32G4xx_HAL_Driver/Src/stm32g4xx_hal_rcc_ex.c ****     /* Enable Power Clock */
 142:Drivers/STM32G4xx_HAL_Driver/Src/stm32g4xx_hal_rcc_ex.c ****     if(__HAL_RCC_PWR_IS_CLK_DISABLED())
  61              		.loc 1 142 5 view .LVU12
  62              		.loc 1 142 8 is_stmt 0 view .LVU13
  63 000e 354B     		ldr	r3, .L46
  64 0010 9B6D     		ldr	r3, [r3, #88]
  65              		.loc 1 142 7 view .LVU14
  66 0012 13F0805F 		tst	r3, #268435456
  67 0016 1ED1     		bne	.L32
 143:Drivers/STM32G4xx_HAL_Driver/Src/stm32g4xx_hal_rcc_ex.c ****     {
 144:Drivers/STM32G4xx_HAL_Driver/Src/stm32g4xx_hal_rcc_ex.c ****       __HAL_RCC_PWR_CLK_ENABLE();
  68              		.loc 1 144 7 is_stmt 1 view .LVU15
  69              	.LBB3:
  70              		.loc 1 144 7 view .LVU16
  71              		.loc 1 144 7 view .LVU17
  72 0018 324B     		ldr	r3, .L46
  73 001a 9A6D     		ldr	r2, [r3, #88]
  74 001c 42F08052 		orr	r2, r2, #268435456
  75 0020 9A65     		str	r2, [r3, #88]
  76              		.loc 1 144 7 view .LVU18
  77 0022 9B6D     		ldr	r3, [r3, #88]
  78 0024 03F08053 		and	r3, r3, #268435456
  79 0028 0193     		str	r3, [sp, #4]
  80              		.loc 1 144 7 view .LVU19
  81 002a 019B     		ldr	r3, [sp, #4]
  82              	.LBE3:
  83              		.loc 1 144 7 view .LVU20
 145:Drivers/STM32G4xx_HAL_Driver/Src/stm32g4xx_hal_rcc_ex.c ****       pwrclkchanged = SET;
  84              		.loc 1 145 7 view .LVU21
ARM GAS  C:\Users\Nathan\AppData\Local\Temp\cc4vJDVg.s 			page 5


  85              	.LVL3:
  86              		.loc 1 145 21 is_stmt 0 view .LVU22
  87 002c 0126     		movs	r6, #1
  88              	.LVL4:
  89              	.L3:
 146:Drivers/STM32G4xx_HAL_Driver/Src/stm32g4xx_hal_rcc_ex.c ****     }
 147:Drivers/STM32G4xx_HAL_Driver/Src/stm32g4xx_hal_rcc_ex.c ****       
 148:Drivers/STM32G4xx_HAL_Driver/Src/stm32g4xx_hal_rcc_ex.c ****     /* Enable write access to Backup domain */
 149:Drivers/STM32G4xx_HAL_Driver/Src/stm32g4xx_hal_rcc_ex.c ****     SET_BIT(PWR->CR1, PWR_CR1_DBP);
  90              		.loc 1 149 5 is_stmt 1 view .LVU23
  91 002e 2E4A     		ldr	r2, .L46+4
  92 0030 1368     		ldr	r3, [r2]
  93 0032 43F48073 		orr	r3, r3, #256
  94 0036 1360     		str	r3, [r2]
 150:Drivers/STM32G4xx_HAL_Driver/Src/stm32g4xx_hal_rcc_ex.c **** 
 151:Drivers/STM32G4xx_HAL_Driver/Src/stm32g4xx_hal_rcc_ex.c ****     /* Wait for Backup domain Write protection disable */
 152:Drivers/STM32G4xx_HAL_Driver/Src/stm32g4xx_hal_rcc_ex.c ****     tickstart = HAL_GetTick();
  95              		.loc 1 152 5 view .LVU24
  96              		.loc 1 152 17 is_stmt 0 view .LVU25
  97 0038 FFF7FEFF 		bl	HAL_GetTick
  98              	.LVL5:
  99              		.loc 1 152 17 view .LVU26
 100 003c 0546     		mov	r5, r0
 101              	.LVL6:
 153:Drivers/STM32G4xx_HAL_Driver/Src/stm32g4xx_hal_rcc_ex.c **** 
 154:Drivers/STM32G4xx_HAL_Driver/Src/stm32g4xx_hal_rcc_ex.c ****     while((PWR->CR1 & PWR_CR1_DBP) == 0U)
 102              		.loc 1 154 5 is_stmt 1 view .LVU27
 103              	.L4:
 104              		.loc 1 154 36 view .LVU28
 105              		.loc 1 154 15 is_stmt 0 view .LVU29
 106 003e 2A4B     		ldr	r3, .L46+4
 107 0040 1B68     		ldr	r3, [r3]
 108              		.loc 1 154 36 view .LVU30
 109 0042 13F4807F 		tst	r3, #256
 110 0046 08D1     		bne	.L36
 155:Drivers/STM32G4xx_HAL_Driver/Src/stm32g4xx_hal_rcc_ex.c ****     {
 156:Drivers/STM32G4xx_HAL_Driver/Src/stm32g4xx_hal_rcc_ex.c ****       if((HAL_GetTick() - tickstart) > RCC_DBP_TIMEOUT_VALUE)
 111              		.loc 1 156 7 is_stmt 1 view .LVU31
 112              		.loc 1 156 11 is_stmt 0 view .LVU32
 113 0048 FFF7FEFF 		bl	HAL_GetTick
 114              	.LVL7:
 115              		.loc 1 156 25 discriminator 1 view .LVU33
 116 004c 401B     		subs	r0, r0, r5
 117              		.loc 1 156 9 discriminator 1 view .LVU34
 118 004e 0228     		cmp	r0, #2
 119 0050 F5D9     		bls	.L4
 157:Drivers/STM32G4xx_HAL_Driver/Src/stm32g4xx_hal_rcc_ex.c ****       {
 158:Drivers/STM32G4xx_HAL_Driver/Src/stm32g4xx_hal_rcc_ex.c ****         ret = HAL_TIMEOUT;
 120              		.loc 1 158 13 view .LVU35
 121 0052 0325     		movs	r5, #3
 122              	.LVL8:
 123              		.loc 1 158 13 view .LVU36
 124 0054 02E0     		b	.L5
 125              	.LVL9:
 126              	.L32:
 136:Drivers/STM32G4xx_HAL_Driver/Src/stm32g4xx_hal_rcc_ex.c ****     
 127              		.loc 1 136 22 view .LVU37
ARM GAS  C:\Users\Nathan\AppData\Local\Temp\cc4vJDVg.s 			page 6


 128 0056 0026     		movs	r6, #0
 129 0058 E9E7     		b	.L3
 130              	.LVL10:
 131              	.L36:
 136:Drivers/STM32G4xx_HAL_Driver/Src/stm32g4xx_hal_rcc_ex.c ****     
 132              		.loc 1 136 22 view .LVU38
 133              	.LBE2:
 127:Drivers/STM32G4xx_HAL_Driver/Src/stm32g4xx_hal_rcc_ex.c ****   HAL_StatusTypeDef status = HAL_OK;   /* Final status */
 134              		.loc 1 127 21 view .LVU39
 135 005a 0025     		movs	r5, #0
 136              	.LVL11:
 137              	.L5:
 138              	.LBB4:
 159:Drivers/STM32G4xx_HAL_Driver/Src/stm32g4xx_hal_rcc_ex.c ****         break;
 160:Drivers/STM32G4xx_HAL_Driver/Src/stm32g4xx_hal_rcc_ex.c ****       }
 161:Drivers/STM32G4xx_HAL_Driver/Src/stm32g4xx_hal_rcc_ex.c ****     }
 162:Drivers/STM32G4xx_HAL_Driver/Src/stm32g4xx_hal_rcc_ex.c **** 
 163:Drivers/STM32G4xx_HAL_Driver/Src/stm32g4xx_hal_rcc_ex.c ****     if(ret == HAL_OK)
 139              		.loc 1 163 5 is_stmt 1 view .LVU40
 140              		.loc 1 163 7 is_stmt 0 view .LVU41
 141 005c 45BB     		cbnz	r5, .L7
 164:Drivers/STM32G4xx_HAL_Driver/Src/stm32g4xx_hal_rcc_ex.c ****     { 
 165:Drivers/STM32G4xx_HAL_Driver/Src/stm32g4xx_hal_rcc_ex.c ****       /* Reset the Backup domain only if the RTC Clock source selection is modified from default */
 166:Drivers/STM32G4xx_HAL_Driver/Src/stm32g4xx_hal_rcc_ex.c ****       tmpregister = READ_BIT(RCC->BDCR, RCC_BDCR_RTCSEL);
 142              		.loc 1 166 7 is_stmt 1 view .LVU42
 143              		.loc 1 166 21 is_stmt 0 view .LVU43
 144 005e 214B     		ldr	r3, .L46
 145 0060 D3F89030 		ldr	r3, [r3, #144]
 146              	.LVL12:
 167:Drivers/STM32G4xx_HAL_Driver/Src/stm32g4xx_hal_rcc_ex.c ****       
 168:Drivers/STM32G4xx_HAL_Driver/Src/stm32g4xx_hal_rcc_ex.c ****       if((tmpregister != RCC_RTCCLKSOURCE_NONE) && (tmpregister != PeriphClkInit->RTCClockSelection
 147              		.loc 1 168 7 is_stmt 1 view .LVU44
 148              		.loc 1 168 9 is_stmt 0 view .LVU45
 149 0064 13F44073 		ands	r3, r3, #768
 150              	.LVL13:
 151              		.loc 1 168 9 view .LVU46
 152 0068 18D0     		beq	.L8
 153              		.loc 1 168 81 discriminator 1 view .LVU47
 154 006a 226D     		ldr	r2, [r4, #80]
 155              		.loc 1 168 49 discriminator 1 view .LVU48
 156 006c 9A42     		cmp	r2, r3
 157 006e 12D0     		beq	.L9
 169:Drivers/STM32G4xx_HAL_Driver/Src/stm32g4xx_hal_rcc_ex.c ****       {
 170:Drivers/STM32G4xx_HAL_Driver/Src/stm32g4xx_hal_rcc_ex.c ****         /* Store the content of BDCR register before the reset of Backup Domain */
 171:Drivers/STM32G4xx_HAL_Driver/Src/stm32g4xx_hal_rcc_ex.c ****         tmpregister = READ_BIT(RCC->BDCR, ~(RCC_BDCR_RTCSEL));
 158              		.loc 1 171 9 is_stmt 1 view .LVU49
 159              		.loc 1 171 23 is_stmt 0 view .LVU50
 160 0070 1C4A     		ldr	r2, .L46
 161 0072 D2F89030 		ldr	r3, [r2, #144]
 162              	.LVL14:
 163              		.loc 1 171 21 view .LVU51
 164 0076 23F44073 		bic	r3, r3, #768
 165              	.LVL15:
 172:Drivers/STM32G4xx_HAL_Driver/Src/stm32g4xx_hal_rcc_ex.c ****         /* RTC Clock selection can be changed only if the Backup Domain is reset */
 173:Drivers/STM32G4xx_HAL_Driver/Src/stm32g4xx_hal_rcc_ex.c ****         __HAL_RCC_BACKUPRESET_FORCE();
 166              		.loc 1 173 9 is_stmt 1 view .LVU52
 167 007a D2F89010 		ldr	r1, [r2, #144]
ARM GAS  C:\Users\Nathan\AppData\Local\Temp\cc4vJDVg.s 			page 7


 168 007e 41F48031 		orr	r1, r1, #65536
 169 0082 C2F89010 		str	r1, [r2, #144]
 174:Drivers/STM32G4xx_HAL_Driver/Src/stm32g4xx_hal_rcc_ex.c ****         __HAL_RCC_BACKUPRESET_RELEASE();
 170              		.loc 1 174 9 view .LVU53
 171 0086 D2F89010 		ldr	r1, [r2, #144]
 172 008a 21F48031 		bic	r1, r1, #65536
 173 008e C2F89010 		str	r1, [r2, #144]
 175:Drivers/STM32G4xx_HAL_Driver/Src/stm32g4xx_hal_rcc_ex.c ****         /* Restore the Content of BDCR register */
 176:Drivers/STM32G4xx_HAL_Driver/Src/stm32g4xx_hal_rcc_ex.c ****         RCC->BDCR = tmpregister;
 174              		.loc 1 176 9 view .LVU54
 175              		.loc 1 176 19 is_stmt 0 view .LVU55
 176 0092 C2F89030 		str	r3, [r2, #144]
 177              	.L9:
 177:Drivers/STM32G4xx_HAL_Driver/Src/stm32g4xx_hal_rcc_ex.c ****       }
 178:Drivers/STM32G4xx_HAL_Driver/Src/stm32g4xx_hal_rcc_ex.c **** 
 179:Drivers/STM32G4xx_HAL_Driver/Src/stm32g4xx_hal_rcc_ex.c ****       /* Wait for LSE reactivation if LSE was enable prior to Backup Domain reset */
 180:Drivers/STM32G4xx_HAL_Driver/Src/stm32g4xx_hal_rcc_ex.c ****       if (HAL_IS_BIT_SET(tmpregister, RCC_BDCR_LSEON))
 178              		.loc 1 180 7 is_stmt 1 view .LVU56
 179              		.loc 1 180 10 is_stmt 0 view .LVU57
 180 0096 13F0010F 		tst	r3, #1
 181 009a 10D1     		bne	.L37
 182              	.LVL16:
 183              	.L8:
 181:Drivers/STM32G4xx_HAL_Driver/Src/stm32g4xx_hal_rcc_ex.c ****       {
 182:Drivers/STM32G4xx_HAL_Driver/Src/stm32g4xx_hal_rcc_ex.c ****         /* Get Start Tick*/
 183:Drivers/STM32G4xx_HAL_Driver/Src/stm32g4xx_hal_rcc_ex.c ****         tickstart = HAL_GetTick();
 184:Drivers/STM32G4xx_HAL_Driver/Src/stm32g4xx_hal_rcc_ex.c **** 
 185:Drivers/STM32G4xx_HAL_Driver/Src/stm32g4xx_hal_rcc_ex.c ****         /* Wait till LSE is ready */
 186:Drivers/STM32G4xx_HAL_Driver/Src/stm32g4xx_hal_rcc_ex.c ****         while(READ_BIT(RCC->BDCR, RCC_BDCR_LSERDY) == 0U)
 187:Drivers/STM32G4xx_HAL_Driver/Src/stm32g4xx_hal_rcc_ex.c ****         {
 188:Drivers/STM32G4xx_HAL_Driver/Src/stm32g4xx_hal_rcc_ex.c ****           if((HAL_GetTick() - tickstart) > RCC_LSE_TIMEOUT_VALUE)
 189:Drivers/STM32G4xx_HAL_Driver/Src/stm32g4xx_hal_rcc_ex.c ****           {
 190:Drivers/STM32G4xx_HAL_Driver/Src/stm32g4xx_hal_rcc_ex.c ****             ret = HAL_TIMEOUT;
 191:Drivers/STM32G4xx_HAL_Driver/Src/stm32g4xx_hal_rcc_ex.c ****             break;
 192:Drivers/STM32G4xx_HAL_Driver/Src/stm32g4xx_hal_rcc_ex.c ****           }
 193:Drivers/STM32G4xx_HAL_Driver/Src/stm32g4xx_hal_rcc_ex.c ****         }
 194:Drivers/STM32G4xx_HAL_Driver/Src/stm32g4xx_hal_rcc_ex.c ****       }
 195:Drivers/STM32G4xx_HAL_Driver/Src/stm32g4xx_hal_rcc_ex.c ****       
 196:Drivers/STM32G4xx_HAL_Driver/Src/stm32g4xx_hal_rcc_ex.c ****       if(ret == HAL_OK)
 184              		.loc 1 196 7 is_stmt 1 view .LVU58
 185              		.loc 1 196 9 is_stmt 0 view .LVU59
 186 009c 45B9     		cbnz	r5, .L7
 197:Drivers/STM32G4xx_HAL_Driver/Src/stm32g4xx_hal_rcc_ex.c ****       {
 198:Drivers/STM32G4xx_HAL_Driver/Src/stm32g4xx_hal_rcc_ex.c ****         /* Apply new RTC clock source selection */
 199:Drivers/STM32G4xx_HAL_Driver/Src/stm32g4xx_hal_rcc_ex.c ****         __HAL_RCC_RTC_CONFIG(PeriphClkInit->RTCClockSelection);
 187              		.loc 1 199 9 is_stmt 1 view .LVU60
 188 009e 114A     		ldr	r2, .L46
 189 00a0 D2F89030 		ldr	r3, [r2, #144]
 190 00a4 23F44073 		bic	r3, r3, #768
 191 00a8 216D     		ldr	r1, [r4, #80]
 192 00aa 0B43     		orrs	r3, r3, r1
 193 00ac C2F89030 		str	r3, [r2, #144]
 194              	.L7:
 195              	.LVL17:
 200:Drivers/STM32G4xx_HAL_Driver/Src/stm32g4xx_hal_rcc_ex.c ****       }
 201:Drivers/STM32G4xx_HAL_Driver/Src/stm32g4xx_hal_rcc_ex.c ****       else
 202:Drivers/STM32G4xx_HAL_Driver/Src/stm32g4xx_hal_rcc_ex.c ****       {
ARM GAS  C:\Users\Nathan\AppData\Local\Temp\cc4vJDVg.s 			page 8


 203:Drivers/STM32G4xx_HAL_Driver/Src/stm32g4xx_hal_rcc_ex.c ****         /* set overall return value */
 204:Drivers/STM32G4xx_HAL_Driver/Src/stm32g4xx_hal_rcc_ex.c ****         status = ret;
 205:Drivers/STM32G4xx_HAL_Driver/Src/stm32g4xx_hal_rcc_ex.c ****       }
 206:Drivers/STM32G4xx_HAL_Driver/Src/stm32g4xx_hal_rcc_ex.c ****     }
 207:Drivers/STM32G4xx_HAL_Driver/Src/stm32g4xx_hal_rcc_ex.c ****     else
 208:Drivers/STM32G4xx_HAL_Driver/Src/stm32g4xx_hal_rcc_ex.c ****     {
 209:Drivers/STM32G4xx_HAL_Driver/Src/stm32g4xx_hal_rcc_ex.c ****       /* set overall return value */
 210:Drivers/STM32G4xx_HAL_Driver/Src/stm32g4xx_hal_rcc_ex.c ****       status = ret;
 211:Drivers/STM32G4xx_HAL_Driver/Src/stm32g4xx_hal_rcc_ex.c ****     }
 212:Drivers/STM32G4xx_HAL_Driver/Src/stm32g4xx_hal_rcc_ex.c **** 
 213:Drivers/STM32G4xx_HAL_Driver/Src/stm32g4xx_hal_rcc_ex.c ****     /* Restore clock configuration if changed */
 214:Drivers/STM32G4xx_HAL_Driver/Src/stm32g4xx_hal_rcc_ex.c ****     if(pwrclkchanged == SET)
 196              		.loc 1 214 5 view .LVU61
 197              		.loc 1 214 7 is_stmt 0 view .LVU62
 198 00b0 EEB1     		cbz	r6, .L2
 215:Drivers/STM32G4xx_HAL_Driver/Src/stm32g4xx_hal_rcc_ex.c ****     {
 216:Drivers/STM32G4xx_HAL_Driver/Src/stm32g4xx_hal_rcc_ex.c ****       __HAL_RCC_PWR_CLK_DISABLE();
 199              		.loc 1 216 7 is_stmt 1 view .LVU63
 200 00b2 0C4A     		ldr	r2, .L46
 201 00b4 936D     		ldr	r3, [r2, #88]
 202 00b6 23F08053 		bic	r3, r3, #268435456
 203 00ba 9365     		str	r3, [r2, #88]
 204 00bc 17E0     		b	.L2
 205              	.LVL18:
 206              	.L37:
 183:Drivers/STM32G4xx_HAL_Driver/Src/stm32g4xx_hal_rcc_ex.c **** 
 207              		.loc 1 183 9 view .LVU64
 183:Drivers/STM32G4xx_HAL_Driver/Src/stm32g4xx_hal_rcc_ex.c **** 
 208              		.loc 1 183 21 is_stmt 0 view .LVU65
 209 00be FFF7FEFF 		bl	HAL_GetTick
 210              	.LVL19:
 183:Drivers/STM32G4xx_HAL_Driver/Src/stm32g4xx_hal_rcc_ex.c **** 
 211              		.loc 1 183 21 view .LVU66
 212 00c2 0746     		mov	r7, r0
 213              	.LVL20:
 186:Drivers/STM32G4xx_HAL_Driver/Src/stm32g4xx_hal_rcc_ex.c ****         {
 214              		.loc 1 186 9 is_stmt 1 view .LVU67
 215              	.L10:
 186:Drivers/STM32G4xx_HAL_Driver/Src/stm32g4xx_hal_rcc_ex.c ****         {
 216              		.loc 1 186 52 view .LVU68
 186:Drivers/STM32G4xx_HAL_Driver/Src/stm32g4xx_hal_rcc_ex.c ****         {
 217              		.loc 1 186 15 is_stmt 0 view .LVU69
 218 00c4 074B     		ldr	r3, .L46
 219 00c6 D3F89030 		ldr	r3, [r3, #144]
 186:Drivers/STM32G4xx_HAL_Driver/Src/stm32g4xx_hal_rcc_ex.c ****         {
 220              		.loc 1 186 52 view .LVU70
 221 00ca 13F0020F 		tst	r3, #2
 222 00ce E5D1     		bne	.L8
 188:Drivers/STM32G4xx_HAL_Driver/Src/stm32g4xx_hal_rcc_ex.c ****           {
 223              		.loc 1 188 11 is_stmt 1 view .LVU71
 188:Drivers/STM32G4xx_HAL_Driver/Src/stm32g4xx_hal_rcc_ex.c ****           {
 224              		.loc 1 188 15 is_stmt 0 view .LVU72
 225 00d0 FFF7FEFF 		bl	HAL_GetTick
 226              	.LVL21:
 188:Drivers/STM32G4xx_HAL_Driver/Src/stm32g4xx_hal_rcc_ex.c ****           {
 227              		.loc 1 188 29 discriminator 1 view .LVU73
 228 00d4 C01B     		subs	r0, r0, r7
ARM GAS  C:\Users\Nathan\AppData\Local\Temp\cc4vJDVg.s 			page 9


 188:Drivers/STM32G4xx_HAL_Driver/Src/stm32g4xx_hal_rcc_ex.c ****           {
 229              		.loc 1 188 13 discriminator 1 view .LVU74
 230 00d6 41F28833 		movw	r3, #5000
 231 00da 9842     		cmp	r0, r3
 232 00dc F2D9     		bls	.L10
 190:Drivers/STM32G4xx_HAL_Driver/Src/stm32g4xx_hal_rcc_ex.c ****             break;
 233              		.loc 1 190 17 view .LVU75
 234 00de 0325     		movs	r5, #3
 235              	.LVL22:
 190:Drivers/STM32G4xx_HAL_Driver/Src/stm32g4xx_hal_rcc_ex.c ****             break;
 236              		.loc 1 190 17 view .LVU76
 237 00e0 DCE7     		b	.L8
 238              	.L47:
 239 00e2 00BF     		.align	2
 240              	.L46:
 241 00e4 00100240 		.word	1073876992
 242 00e8 00700040 		.word	1073770496
 243              	.LVL23:
 244              	.L31:
 190:Drivers/STM32G4xx_HAL_Driver/Src/stm32g4xx_hal_rcc_ex.c ****             break;
 245              		.loc 1 190 17 view .LVU77
 246              	.LBE4:
 128:Drivers/STM32G4xx_HAL_Driver/Src/stm32g4xx_hal_rcc_ex.c **** 
 247              		.loc 1 128 21 view .LVU78
 248 00ec 0025     		movs	r5, #0
 249              	.LVL24:
 250              	.L2:
 217:Drivers/STM32G4xx_HAL_Driver/Src/stm32g4xx_hal_rcc_ex.c ****     }
 218:Drivers/STM32G4xx_HAL_Driver/Src/stm32g4xx_hal_rcc_ex.c ****   }
 219:Drivers/STM32G4xx_HAL_Driver/Src/stm32g4xx_hal_rcc_ex.c **** 
 220:Drivers/STM32G4xx_HAL_Driver/Src/stm32g4xx_hal_rcc_ex.c ****   /*-------------------------- USART1 clock source configuration -------------------*/
 221:Drivers/STM32G4xx_HAL_Driver/Src/stm32g4xx_hal_rcc_ex.c ****   if(((PeriphClkInit->PeriphClockSelection) & RCC_PERIPHCLK_USART1) == RCC_PERIPHCLK_USART1)
 251              		.loc 1 221 3 is_stmt 1 view .LVU79
 252              		.loc 1 221 21 is_stmt 0 view .LVU80
 253 00ee 2368     		ldr	r3, [r4]
 254              		.loc 1 221 5 view .LVU81
 255 00f0 13F0010F 		tst	r3, #1
 256 00f4 08D0     		beq	.L12
 222:Drivers/STM32G4xx_HAL_Driver/Src/stm32g4xx_hal_rcc_ex.c ****   {
 223:Drivers/STM32G4xx_HAL_Driver/Src/stm32g4xx_hal_rcc_ex.c ****     /* Check the parameters */
 224:Drivers/STM32G4xx_HAL_Driver/Src/stm32g4xx_hal_rcc_ex.c ****     assert_param(IS_RCC_USART1CLKSOURCE(PeriphClkInit->Usart1ClockSelection));
 257              		.loc 1 224 5 is_stmt 1 view .LVU82
 225:Drivers/STM32G4xx_HAL_Driver/Src/stm32g4xx_hal_rcc_ex.c **** 
 226:Drivers/STM32G4xx_HAL_Driver/Src/stm32g4xx_hal_rcc_ex.c ****     /* Configure the USART1 clock source */
 227:Drivers/STM32G4xx_HAL_Driver/Src/stm32g4xx_hal_rcc_ex.c ****     __HAL_RCC_USART1_CONFIG(PeriphClkInit->Usart1ClockSelection);
 258              		.loc 1 227 5 view .LVU83
 259 00f6 9F4A     		ldr	r2, .L48
 260 00f8 D2F88830 		ldr	r3, [r2, #136]
 261 00fc 23F00303 		bic	r3, r3, #3
 262 0100 6168     		ldr	r1, [r4, #4]
 263 0102 0B43     		orrs	r3, r3, r1
 264 0104 C2F88830 		str	r3, [r2, #136]
 265              	.L12:
 228:Drivers/STM32G4xx_HAL_Driver/Src/stm32g4xx_hal_rcc_ex.c ****   }
 229:Drivers/STM32G4xx_HAL_Driver/Src/stm32g4xx_hal_rcc_ex.c **** 
 230:Drivers/STM32G4xx_HAL_Driver/Src/stm32g4xx_hal_rcc_ex.c ****   /*-------------------------- USART2 clock source configuration -------------------*/
 231:Drivers/STM32G4xx_HAL_Driver/Src/stm32g4xx_hal_rcc_ex.c ****   if(((PeriphClkInit->PeriphClockSelection) & RCC_PERIPHCLK_USART2) == RCC_PERIPHCLK_USART2)
ARM GAS  C:\Users\Nathan\AppData\Local\Temp\cc4vJDVg.s 			page 10


 266              		.loc 1 231 3 view .LVU84
 267              		.loc 1 231 21 is_stmt 0 view .LVU85
 268 0108 2368     		ldr	r3, [r4]
 269              		.loc 1 231 5 view .LVU86
 270 010a 13F0020F 		tst	r3, #2
 271 010e 08D0     		beq	.L13
 232:Drivers/STM32G4xx_HAL_Driver/Src/stm32g4xx_hal_rcc_ex.c ****   {
 233:Drivers/STM32G4xx_HAL_Driver/Src/stm32g4xx_hal_rcc_ex.c ****     /* Check the parameters */
 234:Drivers/STM32G4xx_HAL_Driver/Src/stm32g4xx_hal_rcc_ex.c ****     assert_param(IS_RCC_USART2CLKSOURCE(PeriphClkInit->Usart2ClockSelection));
 272              		.loc 1 234 5 is_stmt 1 view .LVU87
 235:Drivers/STM32G4xx_HAL_Driver/Src/stm32g4xx_hal_rcc_ex.c **** 
 236:Drivers/STM32G4xx_HAL_Driver/Src/stm32g4xx_hal_rcc_ex.c ****     /* Configure the USART2 clock source */
 237:Drivers/STM32G4xx_HAL_Driver/Src/stm32g4xx_hal_rcc_ex.c ****     __HAL_RCC_USART2_CONFIG(PeriphClkInit->Usart2ClockSelection);
 273              		.loc 1 237 5 view .LVU88
 274 0110 984A     		ldr	r2, .L48
 275 0112 D2F88830 		ldr	r3, [r2, #136]
 276 0116 23F00C03 		bic	r3, r3, #12
 277 011a A168     		ldr	r1, [r4, #8]
 278 011c 0B43     		orrs	r3, r3, r1
 279 011e C2F88830 		str	r3, [r2, #136]
 280              	.L13:
 238:Drivers/STM32G4xx_HAL_Driver/Src/stm32g4xx_hal_rcc_ex.c ****   }
 239:Drivers/STM32G4xx_HAL_Driver/Src/stm32g4xx_hal_rcc_ex.c **** 
 240:Drivers/STM32G4xx_HAL_Driver/Src/stm32g4xx_hal_rcc_ex.c **** #if defined(USART3)
 241:Drivers/STM32G4xx_HAL_Driver/Src/stm32g4xx_hal_rcc_ex.c **** 
 242:Drivers/STM32G4xx_HAL_Driver/Src/stm32g4xx_hal_rcc_ex.c ****   /*-------------------------- USART3 clock source configuration -------------------*/
 243:Drivers/STM32G4xx_HAL_Driver/Src/stm32g4xx_hal_rcc_ex.c ****   if(((PeriphClkInit->PeriphClockSelection) & RCC_PERIPHCLK_USART3) == RCC_PERIPHCLK_USART3)
 281              		.loc 1 243 3 view .LVU89
 282              		.loc 1 243 21 is_stmt 0 view .LVU90
 283 0122 2368     		ldr	r3, [r4]
 284              		.loc 1 243 5 view .LVU91
 285 0124 13F0040F 		tst	r3, #4
 286 0128 08D0     		beq	.L14
 244:Drivers/STM32G4xx_HAL_Driver/Src/stm32g4xx_hal_rcc_ex.c ****   {
 245:Drivers/STM32G4xx_HAL_Driver/Src/stm32g4xx_hal_rcc_ex.c ****     /* Check the parameters */
 246:Drivers/STM32G4xx_HAL_Driver/Src/stm32g4xx_hal_rcc_ex.c ****     assert_param(IS_RCC_USART3CLKSOURCE(PeriphClkInit->Usart3ClockSelection));
 287              		.loc 1 246 5 is_stmt 1 view .LVU92
 247:Drivers/STM32G4xx_HAL_Driver/Src/stm32g4xx_hal_rcc_ex.c **** 
 248:Drivers/STM32G4xx_HAL_Driver/Src/stm32g4xx_hal_rcc_ex.c ****     /* Configure the USART3 clock source */
 249:Drivers/STM32G4xx_HAL_Driver/Src/stm32g4xx_hal_rcc_ex.c ****     __HAL_RCC_USART3_CONFIG(PeriphClkInit->Usart3ClockSelection);
 288              		.loc 1 249 5 view .LVU93
 289 012a 924A     		ldr	r2, .L48
 290 012c D2F88830 		ldr	r3, [r2, #136]
 291 0130 23F03003 		bic	r3, r3, #48
 292 0134 E168     		ldr	r1, [r4, #12]
 293 0136 0B43     		orrs	r3, r3, r1
 294 0138 C2F88830 		str	r3, [r2, #136]
 295              	.L14:
 250:Drivers/STM32G4xx_HAL_Driver/Src/stm32g4xx_hal_rcc_ex.c ****   }
 251:Drivers/STM32G4xx_HAL_Driver/Src/stm32g4xx_hal_rcc_ex.c **** 
 252:Drivers/STM32G4xx_HAL_Driver/Src/stm32g4xx_hal_rcc_ex.c **** #endif /* USART3 */
 253:Drivers/STM32G4xx_HAL_Driver/Src/stm32g4xx_hal_rcc_ex.c **** 
 254:Drivers/STM32G4xx_HAL_Driver/Src/stm32g4xx_hal_rcc_ex.c **** #if defined(UART4)
 255:Drivers/STM32G4xx_HAL_Driver/Src/stm32g4xx_hal_rcc_ex.c ****   /*-------------------------- UART4 clock source configuration --------------------*/
 256:Drivers/STM32G4xx_HAL_Driver/Src/stm32g4xx_hal_rcc_ex.c ****   if(((PeriphClkInit->PeriphClockSelection) & RCC_PERIPHCLK_UART4) == RCC_PERIPHCLK_UART4)
 296              		.loc 1 256 3 view .LVU94
 297              		.loc 1 256 21 is_stmt 0 view .LVU95
ARM GAS  C:\Users\Nathan\AppData\Local\Temp\cc4vJDVg.s 			page 11


 298 013c 2368     		ldr	r3, [r4]
 299              		.loc 1 256 5 view .LVU96
 300 013e 13F0080F 		tst	r3, #8
 301 0142 08D0     		beq	.L15
 257:Drivers/STM32G4xx_HAL_Driver/Src/stm32g4xx_hal_rcc_ex.c ****   {
 258:Drivers/STM32G4xx_HAL_Driver/Src/stm32g4xx_hal_rcc_ex.c ****     /* Check the parameters */
 259:Drivers/STM32G4xx_HAL_Driver/Src/stm32g4xx_hal_rcc_ex.c ****     assert_param(IS_RCC_UART4CLKSOURCE(PeriphClkInit->Uart4ClockSelection));
 302              		.loc 1 259 5 is_stmt 1 view .LVU97
 260:Drivers/STM32G4xx_HAL_Driver/Src/stm32g4xx_hal_rcc_ex.c **** 
 261:Drivers/STM32G4xx_HAL_Driver/Src/stm32g4xx_hal_rcc_ex.c ****     /* Configure the UART4 clock source */
 262:Drivers/STM32G4xx_HAL_Driver/Src/stm32g4xx_hal_rcc_ex.c ****     __HAL_RCC_UART4_CONFIG(PeriphClkInit->Uart4ClockSelection);
 303              		.loc 1 262 5 view .LVU98
 304 0144 8B4A     		ldr	r2, .L48
 305 0146 D2F88830 		ldr	r3, [r2, #136]
 306 014a 23F0C003 		bic	r3, r3, #192
 307 014e 2169     		ldr	r1, [r4, #16]
 308 0150 0B43     		orrs	r3, r3, r1
 309 0152 C2F88830 		str	r3, [r2, #136]
 310              	.L15:
 263:Drivers/STM32G4xx_HAL_Driver/Src/stm32g4xx_hal_rcc_ex.c ****   }
 264:Drivers/STM32G4xx_HAL_Driver/Src/stm32g4xx_hal_rcc_ex.c **** #endif /* UART4 */
 265:Drivers/STM32G4xx_HAL_Driver/Src/stm32g4xx_hal_rcc_ex.c **** 
 266:Drivers/STM32G4xx_HAL_Driver/Src/stm32g4xx_hal_rcc_ex.c **** #if defined(UART5)
 267:Drivers/STM32G4xx_HAL_Driver/Src/stm32g4xx_hal_rcc_ex.c **** 
 268:Drivers/STM32G4xx_HAL_Driver/Src/stm32g4xx_hal_rcc_ex.c ****   /*-------------------------- UART5 clock source configuration --------------------*/
 269:Drivers/STM32G4xx_HAL_Driver/Src/stm32g4xx_hal_rcc_ex.c ****   if(((PeriphClkInit->PeriphClockSelection) & RCC_PERIPHCLK_UART5) == RCC_PERIPHCLK_UART5)
 311              		.loc 1 269 3 view .LVU99
 312              		.loc 1 269 21 is_stmt 0 view .LVU100
 313 0156 2368     		ldr	r3, [r4]
 314              		.loc 1 269 5 view .LVU101
 315 0158 13F0100F 		tst	r3, #16
 316 015c 08D0     		beq	.L16
 270:Drivers/STM32G4xx_HAL_Driver/Src/stm32g4xx_hal_rcc_ex.c ****   {
 271:Drivers/STM32G4xx_HAL_Driver/Src/stm32g4xx_hal_rcc_ex.c ****     /* Check the parameters */
 272:Drivers/STM32G4xx_HAL_Driver/Src/stm32g4xx_hal_rcc_ex.c ****     assert_param(IS_RCC_UART5CLKSOURCE(PeriphClkInit->Uart5ClockSelection));
 317              		.loc 1 272 5 is_stmt 1 view .LVU102
 273:Drivers/STM32G4xx_HAL_Driver/Src/stm32g4xx_hal_rcc_ex.c **** 
 274:Drivers/STM32G4xx_HAL_Driver/Src/stm32g4xx_hal_rcc_ex.c ****     /* Configure the UART5 clock source */
 275:Drivers/STM32G4xx_HAL_Driver/Src/stm32g4xx_hal_rcc_ex.c ****     __HAL_RCC_UART5_CONFIG(PeriphClkInit->Uart5ClockSelection);
 318              		.loc 1 275 5 view .LVU103
 319 015e 854A     		ldr	r2, .L48
 320 0160 D2F88830 		ldr	r3, [r2, #136]
 321 0164 23F44073 		bic	r3, r3, #768
 322 0168 6169     		ldr	r1, [r4, #20]
 323 016a 0B43     		orrs	r3, r3, r1
 324 016c C2F88830 		str	r3, [r2, #136]
 325              	.L16:
 276:Drivers/STM32G4xx_HAL_Driver/Src/stm32g4xx_hal_rcc_ex.c ****   }
 277:Drivers/STM32G4xx_HAL_Driver/Src/stm32g4xx_hal_rcc_ex.c **** 
 278:Drivers/STM32G4xx_HAL_Driver/Src/stm32g4xx_hal_rcc_ex.c **** #endif /* UART5 */
 279:Drivers/STM32G4xx_HAL_Driver/Src/stm32g4xx_hal_rcc_ex.c **** 
 280:Drivers/STM32G4xx_HAL_Driver/Src/stm32g4xx_hal_rcc_ex.c ****   /*-------------------------- LPUART1 clock source configuration ------------------*/
 281:Drivers/STM32G4xx_HAL_Driver/Src/stm32g4xx_hal_rcc_ex.c ****   if(((PeriphClkInit->PeriphClockSelection) & RCC_PERIPHCLK_LPUART1) == RCC_PERIPHCLK_LPUART1)
 326              		.loc 1 281 3 view .LVU104
 327              		.loc 1 281 21 is_stmt 0 view .LVU105
 328 0170 2368     		ldr	r3, [r4]
 329              		.loc 1 281 5 view .LVU106
ARM GAS  C:\Users\Nathan\AppData\Local\Temp\cc4vJDVg.s 			page 12


 330 0172 13F0200F 		tst	r3, #32
 331 0176 08D0     		beq	.L17
 282:Drivers/STM32G4xx_HAL_Driver/Src/stm32g4xx_hal_rcc_ex.c ****   {
 283:Drivers/STM32G4xx_HAL_Driver/Src/stm32g4xx_hal_rcc_ex.c ****     /* Check the parameters */
 284:Drivers/STM32G4xx_HAL_Driver/Src/stm32g4xx_hal_rcc_ex.c ****     assert_param(IS_RCC_LPUART1CLKSOURCE(PeriphClkInit->Lpuart1ClockSelection));
 332              		.loc 1 284 5 is_stmt 1 view .LVU107
 285:Drivers/STM32G4xx_HAL_Driver/Src/stm32g4xx_hal_rcc_ex.c **** 
 286:Drivers/STM32G4xx_HAL_Driver/Src/stm32g4xx_hal_rcc_ex.c ****     /* Configure the LPUAR1 clock source */
 287:Drivers/STM32G4xx_HAL_Driver/Src/stm32g4xx_hal_rcc_ex.c ****     __HAL_RCC_LPUART1_CONFIG(PeriphClkInit->Lpuart1ClockSelection);
 333              		.loc 1 287 5 view .LVU108
 334 0178 7E4A     		ldr	r2, .L48
 335 017a D2F88830 		ldr	r3, [r2, #136]
 336 017e 23F44063 		bic	r3, r3, #3072
 337 0182 A169     		ldr	r1, [r4, #24]
 338 0184 0B43     		orrs	r3, r3, r1
 339 0186 C2F88830 		str	r3, [r2, #136]
 340              	.L17:
 288:Drivers/STM32G4xx_HAL_Driver/Src/stm32g4xx_hal_rcc_ex.c ****   }
 289:Drivers/STM32G4xx_HAL_Driver/Src/stm32g4xx_hal_rcc_ex.c **** 
 290:Drivers/STM32G4xx_HAL_Driver/Src/stm32g4xx_hal_rcc_ex.c ****   /*-------------------------- I2C1 clock source configuration ---------------------*/
 291:Drivers/STM32G4xx_HAL_Driver/Src/stm32g4xx_hal_rcc_ex.c ****   if(((PeriphClkInit->PeriphClockSelection) & RCC_PERIPHCLK_I2C1) == RCC_PERIPHCLK_I2C1)
 341              		.loc 1 291 3 view .LVU109
 342              		.loc 1 291 21 is_stmt 0 view .LVU110
 343 018a 2368     		ldr	r3, [r4]
 344              		.loc 1 291 5 view .LVU111
 345 018c 13F0400F 		tst	r3, #64
 346 0190 08D0     		beq	.L18
 292:Drivers/STM32G4xx_HAL_Driver/Src/stm32g4xx_hal_rcc_ex.c ****   {
 293:Drivers/STM32G4xx_HAL_Driver/Src/stm32g4xx_hal_rcc_ex.c ****     /* Check the parameters */
 294:Drivers/STM32G4xx_HAL_Driver/Src/stm32g4xx_hal_rcc_ex.c ****     assert_param(IS_RCC_I2C1CLKSOURCE(PeriphClkInit->I2c1ClockSelection));
 347              		.loc 1 294 5 is_stmt 1 view .LVU112
 295:Drivers/STM32G4xx_HAL_Driver/Src/stm32g4xx_hal_rcc_ex.c **** 
 296:Drivers/STM32G4xx_HAL_Driver/Src/stm32g4xx_hal_rcc_ex.c ****     /* Configure the I2C1 clock source */
 297:Drivers/STM32G4xx_HAL_Driver/Src/stm32g4xx_hal_rcc_ex.c ****     __HAL_RCC_I2C1_CONFIG(PeriphClkInit->I2c1ClockSelection);
 348              		.loc 1 297 5 view .LVU113
 349 0192 784A     		ldr	r2, .L48
 350 0194 D2F88830 		ldr	r3, [r2, #136]
 351 0198 23F44053 		bic	r3, r3, #12288
 352 019c E169     		ldr	r1, [r4, #28]
 353 019e 0B43     		orrs	r3, r3, r1
 354 01a0 C2F88830 		str	r3, [r2, #136]
 355              	.L18:
 298:Drivers/STM32G4xx_HAL_Driver/Src/stm32g4xx_hal_rcc_ex.c ****   }
 299:Drivers/STM32G4xx_HAL_Driver/Src/stm32g4xx_hal_rcc_ex.c **** 
 300:Drivers/STM32G4xx_HAL_Driver/Src/stm32g4xx_hal_rcc_ex.c ****   /*-------------------------- I2C2 clock source configuration ---------------------*/
 301:Drivers/STM32G4xx_HAL_Driver/Src/stm32g4xx_hal_rcc_ex.c ****   if(((PeriphClkInit->PeriphClockSelection) & RCC_PERIPHCLK_I2C2) == RCC_PERIPHCLK_I2C2)
 356              		.loc 1 301 3 view .LVU114
 357              		.loc 1 301 21 is_stmt 0 view .LVU115
 358 01a4 2368     		ldr	r3, [r4]
 359              		.loc 1 301 5 view .LVU116
 360 01a6 13F0800F 		tst	r3, #128
 361 01aa 08D0     		beq	.L19
 302:Drivers/STM32G4xx_HAL_Driver/Src/stm32g4xx_hal_rcc_ex.c ****   {
 303:Drivers/STM32G4xx_HAL_Driver/Src/stm32g4xx_hal_rcc_ex.c ****     /* Check the parameters */
 304:Drivers/STM32G4xx_HAL_Driver/Src/stm32g4xx_hal_rcc_ex.c ****     assert_param(IS_RCC_I2C2CLKSOURCE(PeriphClkInit->I2c2ClockSelection));
 362              		.loc 1 304 5 is_stmt 1 view .LVU117
 305:Drivers/STM32G4xx_HAL_Driver/Src/stm32g4xx_hal_rcc_ex.c **** 
ARM GAS  C:\Users\Nathan\AppData\Local\Temp\cc4vJDVg.s 			page 13


 306:Drivers/STM32G4xx_HAL_Driver/Src/stm32g4xx_hal_rcc_ex.c ****     /* Configure the I2C2 clock source */
 307:Drivers/STM32G4xx_HAL_Driver/Src/stm32g4xx_hal_rcc_ex.c ****     __HAL_RCC_I2C2_CONFIG(PeriphClkInit->I2c2ClockSelection);
 363              		.loc 1 307 5 view .LVU118
 364 01ac 714A     		ldr	r2, .L48
 365 01ae D2F88830 		ldr	r3, [r2, #136]
 366 01b2 23F44043 		bic	r3, r3, #49152
 367 01b6 216A     		ldr	r1, [r4, #32]
 368 01b8 0B43     		orrs	r3, r3, r1
 369 01ba C2F88830 		str	r3, [r2, #136]
 370              	.L19:
 308:Drivers/STM32G4xx_HAL_Driver/Src/stm32g4xx_hal_rcc_ex.c ****   }
 309:Drivers/STM32G4xx_HAL_Driver/Src/stm32g4xx_hal_rcc_ex.c **** #if defined(I2C3)
 310:Drivers/STM32G4xx_HAL_Driver/Src/stm32g4xx_hal_rcc_ex.c **** 
 311:Drivers/STM32G4xx_HAL_Driver/Src/stm32g4xx_hal_rcc_ex.c ****   /*-------------------------- I2C3 clock source configuration ---------------------*/
 312:Drivers/STM32G4xx_HAL_Driver/Src/stm32g4xx_hal_rcc_ex.c ****   if(((PeriphClkInit->PeriphClockSelection) & RCC_PERIPHCLK_I2C3) == RCC_PERIPHCLK_I2C3)
 371              		.loc 1 312 3 view .LVU119
 372              		.loc 1 312 21 is_stmt 0 view .LVU120
 373 01be 2368     		ldr	r3, [r4]
 374              		.loc 1 312 5 view .LVU121
 375 01c0 13F4807F 		tst	r3, #256
 376 01c4 08D0     		beq	.L20
 313:Drivers/STM32G4xx_HAL_Driver/Src/stm32g4xx_hal_rcc_ex.c ****   {
 314:Drivers/STM32G4xx_HAL_Driver/Src/stm32g4xx_hal_rcc_ex.c ****     /* Check the parameters */
 315:Drivers/STM32G4xx_HAL_Driver/Src/stm32g4xx_hal_rcc_ex.c ****     assert_param(IS_RCC_I2C3CLKSOURCE(PeriphClkInit->I2c3ClockSelection));
 377              		.loc 1 315 5 is_stmt 1 view .LVU122
 316:Drivers/STM32G4xx_HAL_Driver/Src/stm32g4xx_hal_rcc_ex.c **** 
 317:Drivers/STM32G4xx_HAL_Driver/Src/stm32g4xx_hal_rcc_ex.c ****     /* Configure the I2C3 clock source */
 318:Drivers/STM32G4xx_HAL_Driver/Src/stm32g4xx_hal_rcc_ex.c ****     __HAL_RCC_I2C3_CONFIG(PeriphClkInit->I2c3ClockSelection);
 378              		.loc 1 318 5 view .LVU123
 379 01c6 6B4A     		ldr	r2, .L48
 380 01c8 D2F88830 		ldr	r3, [r2, #136]
 381 01cc 23F44033 		bic	r3, r3, #196608
 382 01d0 616A     		ldr	r1, [r4, #36]
 383 01d2 0B43     		orrs	r3, r3, r1
 384 01d4 C2F88830 		str	r3, [r2, #136]
 385              	.L20:
 319:Drivers/STM32G4xx_HAL_Driver/Src/stm32g4xx_hal_rcc_ex.c ****   }
 320:Drivers/STM32G4xx_HAL_Driver/Src/stm32g4xx_hal_rcc_ex.c **** 
 321:Drivers/STM32G4xx_HAL_Driver/Src/stm32g4xx_hal_rcc_ex.c **** #endif /* I2C3 */
 322:Drivers/STM32G4xx_HAL_Driver/Src/stm32g4xx_hal_rcc_ex.c **** #if defined(I2C4)
 323:Drivers/STM32G4xx_HAL_Driver/Src/stm32g4xx_hal_rcc_ex.c **** 
 324:Drivers/STM32G4xx_HAL_Driver/Src/stm32g4xx_hal_rcc_ex.c ****   /*-------------------------- I2C4 clock source configuration ---------------------*/
 325:Drivers/STM32G4xx_HAL_Driver/Src/stm32g4xx_hal_rcc_ex.c ****   if(((PeriphClkInit->PeriphClockSelection) & RCC_PERIPHCLK_I2C4) == RCC_PERIPHCLK_I2C4)
 386              		.loc 1 325 3 view .LVU124
 387              		.loc 1 325 21 is_stmt 0 view .LVU125
 388 01d8 2368     		ldr	r3, [r4]
 389              		.loc 1 325 5 view .LVU126
 390 01da 13F4003F 		tst	r3, #131072
 391 01de 08D0     		beq	.L21
 326:Drivers/STM32G4xx_HAL_Driver/Src/stm32g4xx_hal_rcc_ex.c ****   {
 327:Drivers/STM32G4xx_HAL_Driver/Src/stm32g4xx_hal_rcc_ex.c ****     /* Check the parameters */
 328:Drivers/STM32G4xx_HAL_Driver/Src/stm32g4xx_hal_rcc_ex.c ****     assert_param(IS_RCC_I2C4CLKSOURCE(PeriphClkInit->I2c4ClockSelection));
 392              		.loc 1 328 5 is_stmt 1 view .LVU127
 329:Drivers/STM32G4xx_HAL_Driver/Src/stm32g4xx_hal_rcc_ex.c **** 
 330:Drivers/STM32G4xx_HAL_Driver/Src/stm32g4xx_hal_rcc_ex.c ****     /* Configure the I2C4 clock source */
 331:Drivers/STM32G4xx_HAL_Driver/Src/stm32g4xx_hal_rcc_ex.c ****     __HAL_RCC_I2C4_CONFIG(PeriphClkInit->I2c4ClockSelection);
 393              		.loc 1 331 5 view .LVU128
ARM GAS  C:\Users\Nathan\AppData\Local\Temp\cc4vJDVg.s 			page 14


 394 01e0 644A     		ldr	r2, .L48
 395 01e2 D2F89C30 		ldr	r3, [r2, #156]
 396 01e6 23F00303 		bic	r3, r3, #3
 397 01ea A16A     		ldr	r1, [r4, #40]
 398 01ec 0B43     		orrs	r3, r3, r1
 399 01ee C2F89C30 		str	r3, [r2, #156]
 400              	.L21:
 332:Drivers/STM32G4xx_HAL_Driver/Src/stm32g4xx_hal_rcc_ex.c ****   }
 333:Drivers/STM32G4xx_HAL_Driver/Src/stm32g4xx_hal_rcc_ex.c **** 
 334:Drivers/STM32G4xx_HAL_Driver/Src/stm32g4xx_hal_rcc_ex.c **** #endif /* I2C4 */
 335:Drivers/STM32G4xx_HAL_Driver/Src/stm32g4xx_hal_rcc_ex.c **** 
 336:Drivers/STM32G4xx_HAL_Driver/Src/stm32g4xx_hal_rcc_ex.c ****   /*-------------------------- LPTIM1 clock source configuration ---------------------*/
 337:Drivers/STM32G4xx_HAL_Driver/Src/stm32g4xx_hal_rcc_ex.c ****   if(((PeriphClkInit->PeriphClockSelection) & RCC_PERIPHCLK_LPTIM1) == RCC_PERIPHCLK_LPTIM1)
 401              		.loc 1 337 3 view .LVU129
 402              		.loc 1 337 21 is_stmt 0 view .LVU130
 403 01f2 2368     		ldr	r3, [r4]
 404              		.loc 1 337 5 view .LVU131
 405 01f4 13F4007F 		tst	r3, #512
 406 01f8 08D0     		beq	.L22
 338:Drivers/STM32G4xx_HAL_Driver/Src/stm32g4xx_hal_rcc_ex.c ****   {
 339:Drivers/STM32G4xx_HAL_Driver/Src/stm32g4xx_hal_rcc_ex.c ****     /* Check the parameters */
 340:Drivers/STM32G4xx_HAL_Driver/Src/stm32g4xx_hal_rcc_ex.c ****     assert_param(IS_RCC_LPTIM1CLKSOURCE(PeriphClkInit->Lptim1ClockSelection));
 407              		.loc 1 340 5 is_stmt 1 view .LVU132
 341:Drivers/STM32G4xx_HAL_Driver/Src/stm32g4xx_hal_rcc_ex.c **** 
 342:Drivers/STM32G4xx_HAL_Driver/Src/stm32g4xx_hal_rcc_ex.c ****     /* Configure the LPTIM1 clock source */
 343:Drivers/STM32G4xx_HAL_Driver/Src/stm32g4xx_hal_rcc_ex.c ****     __HAL_RCC_LPTIM1_CONFIG(PeriphClkInit->Lptim1ClockSelection);
 408              		.loc 1 343 5 view .LVU133
 409 01fa 5E4A     		ldr	r2, .L48
 410 01fc D2F88830 		ldr	r3, [r2, #136]
 411 0200 23F44023 		bic	r3, r3, #786432
 412 0204 E16A     		ldr	r1, [r4, #44]
 413 0206 0B43     		orrs	r3, r3, r1
 414 0208 C2F88830 		str	r3, [r2, #136]
 415              	.L22:
 344:Drivers/STM32G4xx_HAL_Driver/Src/stm32g4xx_hal_rcc_ex.c ****   }
 345:Drivers/STM32G4xx_HAL_Driver/Src/stm32g4xx_hal_rcc_ex.c **** 
 346:Drivers/STM32G4xx_HAL_Driver/Src/stm32g4xx_hal_rcc_ex.c **** #if defined(SAI1) 
 347:Drivers/STM32G4xx_HAL_Driver/Src/stm32g4xx_hal_rcc_ex.c ****   /*-------------------------- SAI1 clock source configuration ---------------------*/
 348:Drivers/STM32G4xx_HAL_Driver/Src/stm32g4xx_hal_rcc_ex.c ****   if(((PeriphClkInit->PeriphClockSelection) & RCC_PERIPHCLK_SAI1) == RCC_PERIPHCLK_SAI1)
 416              		.loc 1 348 3 view .LVU134
 417              		.loc 1 348 21 is_stmt 0 view .LVU135
 418 020c 2368     		ldr	r3, [r4]
 419              		.loc 1 348 5 view .LVU136
 420 020e 13F4806F 		tst	r3, #1024
 421 0212 0CD0     		beq	.L23
 349:Drivers/STM32G4xx_HAL_Driver/Src/stm32g4xx_hal_rcc_ex.c ****   {
 350:Drivers/STM32G4xx_HAL_Driver/Src/stm32g4xx_hal_rcc_ex.c ****     /* Check the parameters */
 351:Drivers/STM32G4xx_HAL_Driver/Src/stm32g4xx_hal_rcc_ex.c ****     assert_param(IS_RCC_SAI1CLKSOURCE(PeriphClkInit->Sai1ClockSelection));
 422              		.loc 1 351 5 is_stmt 1 view .LVU137
 352:Drivers/STM32G4xx_HAL_Driver/Src/stm32g4xx_hal_rcc_ex.c **** 
 353:Drivers/STM32G4xx_HAL_Driver/Src/stm32g4xx_hal_rcc_ex.c ****     /* Configure the SAI1 interface clock source */
 354:Drivers/STM32G4xx_HAL_Driver/Src/stm32g4xx_hal_rcc_ex.c ****     __HAL_RCC_SAI1_CONFIG(PeriphClkInit->Sai1ClockSelection);
 423              		.loc 1 354 5 view .LVU138
 424 0214 574A     		ldr	r2, .L48
 425 0216 D2F88830 		ldr	r3, [r2, #136]
 426 021a 23F44013 		bic	r3, r3, #3145728
 427 021e 216B     		ldr	r1, [r4, #48]
ARM GAS  C:\Users\Nathan\AppData\Local\Temp\cc4vJDVg.s 			page 15


 428 0220 0B43     		orrs	r3, r3, r1
 429 0222 C2F88830 		str	r3, [r2, #136]
 355:Drivers/STM32G4xx_HAL_Driver/Src/stm32g4xx_hal_rcc_ex.c ****     
 356:Drivers/STM32G4xx_HAL_Driver/Src/stm32g4xx_hal_rcc_ex.c ****     if(PeriphClkInit->Sai1ClockSelection == RCC_SAI1CLKSOURCE_PLL)
 430              		.loc 1 356 5 view .LVU139
 431              		.loc 1 356 21 is_stmt 0 view .LVU140
 432 0226 236B     		ldr	r3, [r4, #48]
 433              		.loc 1 356 7 view .LVU141
 434 0228 B3F5801F 		cmp	r3, #1048576
 435 022c 79D0     		beq	.L38
 436              	.L23:
 357:Drivers/STM32G4xx_HAL_Driver/Src/stm32g4xx_hal_rcc_ex.c ****     {
 358:Drivers/STM32G4xx_HAL_Driver/Src/stm32g4xx_hal_rcc_ex.c ****       /* Enable PLL48M1CLK output */
 359:Drivers/STM32G4xx_HAL_Driver/Src/stm32g4xx_hal_rcc_ex.c ****       __HAL_RCC_PLLCLKOUT_ENABLE(RCC_PLL_48M1CLK);
 360:Drivers/STM32G4xx_HAL_Driver/Src/stm32g4xx_hal_rcc_ex.c ****     }
 361:Drivers/STM32G4xx_HAL_Driver/Src/stm32g4xx_hal_rcc_ex.c ****   }
 362:Drivers/STM32G4xx_HAL_Driver/Src/stm32g4xx_hal_rcc_ex.c **** 
 363:Drivers/STM32G4xx_HAL_Driver/Src/stm32g4xx_hal_rcc_ex.c **** #endif /* SAI1 */
 364:Drivers/STM32G4xx_HAL_Driver/Src/stm32g4xx_hal_rcc_ex.c **** 
 365:Drivers/STM32G4xx_HAL_Driver/Src/stm32g4xx_hal_rcc_ex.c **** #if defined(SPI_I2S_SUPPORT)
 366:Drivers/STM32G4xx_HAL_Driver/Src/stm32g4xx_hal_rcc_ex.c ****   /*-------------------------- I2S clock source configuration ---------------------*/
 367:Drivers/STM32G4xx_HAL_Driver/Src/stm32g4xx_hal_rcc_ex.c ****   if(((PeriphClkInit->PeriphClockSelection) & RCC_PERIPHCLK_I2S) == RCC_PERIPHCLK_I2S)
 437              		.loc 1 367 3 is_stmt 1 view .LVU142
 438              		.loc 1 367 21 is_stmt 0 view .LVU143
 439 022e 2368     		ldr	r3, [r4]
 440              		.loc 1 367 5 view .LVU144
 441 0230 13F4006F 		tst	r3, #2048
 442 0234 0CD0     		beq	.L24
 368:Drivers/STM32G4xx_HAL_Driver/Src/stm32g4xx_hal_rcc_ex.c ****   {
 369:Drivers/STM32G4xx_HAL_Driver/Src/stm32g4xx_hal_rcc_ex.c ****     /* Check the parameters */
 370:Drivers/STM32G4xx_HAL_Driver/Src/stm32g4xx_hal_rcc_ex.c ****     assert_param(IS_RCC_I2SCLKSOURCE(PeriphClkInit->I2sClockSelection));
 443              		.loc 1 370 5 is_stmt 1 view .LVU145
 371:Drivers/STM32G4xx_HAL_Driver/Src/stm32g4xx_hal_rcc_ex.c **** 
 372:Drivers/STM32G4xx_HAL_Driver/Src/stm32g4xx_hal_rcc_ex.c ****     /* Configure the I2S interface clock source */
 373:Drivers/STM32G4xx_HAL_Driver/Src/stm32g4xx_hal_rcc_ex.c ****     __HAL_RCC_I2S_CONFIG(PeriphClkInit->I2sClockSelection);
 444              		.loc 1 373 5 view .LVU146
 445 0236 4F4A     		ldr	r2, .L48
 446 0238 D2F88830 		ldr	r3, [r2, #136]
 447 023c 23F44003 		bic	r3, r3, #12582912
 448 0240 616B     		ldr	r1, [r4, #52]
 449 0242 0B43     		orrs	r3, r3, r1
 450 0244 C2F88830 		str	r3, [r2, #136]
 374:Drivers/STM32G4xx_HAL_Driver/Src/stm32g4xx_hal_rcc_ex.c ****     
 375:Drivers/STM32G4xx_HAL_Driver/Src/stm32g4xx_hal_rcc_ex.c ****     if(PeriphClkInit->I2sClockSelection == RCC_I2SCLKSOURCE_PLL)
 451              		.loc 1 375 5 view .LVU147
 452              		.loc 1 375 21 is_stmt 0 view .LVU148
 453 0248 636B     		ldr	r3, [r4, #52]
 454              		.loc 1 375 7 view .LVU149
 455 024a B3F5800F 		cmp	r3, #4194304
 456 024e 6DD0     		beq	.L39
 457              	.L24:
 376:Drivers/STM32G4xx_HAL_Driver/Src/stm32g4xx_hal_rcc_ex.c ****     {
 377:Drivers/STM32G4xx_HAL_Driver/Src/stm32g4xx_hal_rcc_ex.c ****       /* Enable PLL48M1CLK output */
 378:Drivers/STM32G4xx_HAL_Driver/Src/stm32g4xx_hal_rcc_ex.c ****       __HAL_RCC_PLLCLKOUT_ENABLE(RCC_PLL_48M1CLK);
 379:Drivers/STM32G4xx_HAL_Driver/Src/stm32g4xx_hal_rcc_ex.c ****     }
 380:Drivers/STM32G4xx_HAL_Driver/Src/stm32g4xx_hal_rcc_ex.c ****   }
 381:Drivers/STM32G4xx_HAL_Driver/Src/stm32g4xx_hal_rcc_ex.c **** 
ARM GAS  C:\Users\Nathan\AppData\Local\Temp\cc4vJDVg.s 			page 16


 382:Drivers/STM32G4xx_HAL_Driver/Src/stm32g4xx_hal_rcc_ex.c **** #endif /* SPI_I2S_SUPPORT */
 383:Drivers/STM32G4xx_HAL_Driver/Src/stm32g4xx_hal_rcc_ex.c **** 
 384:Drivers/STM32G4xx_HAL_Driver/Src/stm32g4xx_hal_rcc_ex.c **** #if defined(FDCAN1)
 385:Drivers/STM32G4xx_HAL_Driver/Src/stm32g4xx_hal_rcc_ex.c ****   /*-------------------------- FDCAN clock source configuration ---------------------*/
 386:Drivers/STM32G4xx_HAL_Driver/Src/stm32g4xx_hal_rcc_ex.c ****   if(((PeriphClkInit->PeriphClockSelection) & RCC_PERIPHCLK_FDCAN) == RCC_PERIPHCLK_FDCAN)
 458              		.loc 1 386 3 is_stmt 1 view .LVU150
 459              		.loc 1 386 21 is_stmt 0 view .LVU151
 460 0250 2368     		ldr	r3, [r4]
 461              		.loc 1 386 5 view .LVU152
 462 0252 13F4805F 		tst	r3, #4096
 463 0256 0CD0     		beq	.L25
 387:Drivers/STM32G4xx_HAL_Driver/Src/stm32g4xx_hal_rcc_ex.c ****   {
 388:Drivers/STM32G4xx_HAL_Driver/Src/stm32g4xx_hal_rcc_ex.c ****     /* Check the parameters */
 389:Drivers/STM32G4xx_HAL_Driver/Src/stm32g4xx_hal_rcc_ex.c ****     assert_param(IS_RCC_FDCANCLKSOURCE(PeriphClkInit->FdcanClockSelection));
 464              		.loc 1 389 5 is_stmt 1 view .LVU153
 390:Drivers/STM32G4xx_HAL_Driver/Src/stm32g4xx_hal_rcc_ex.c **** 
 391:Drivers/STM32G4xx_HAL_Driver/Src/stm32g4xx_hal_rcc_ex.c ****     /* Configure the FDCAN interface clock source */
 392:Drivers/STM32G4xx_HAL_Driver/Src/stm32g4xx_hal_rcc_ex.c ****     __HAL_RCC_FDCAN_CONFIG(PeriphClkInit->FdcanClockSelection);
 465              		.loc 1 392 5 view .LVU154
 466 0258 464A     		ldr	r2, .L48
 467 025a D2F88830 		ldr	r3, [r2, #136]
 468 025e 23F04073 		bic	r3, r3, #50331648
 469 0262 A16B     		ldr	r1, [r4, #56]
 470 0264 0B43     		orrs	r3, r3, r1
 471 0266 C2F88830 		str	r3, [r2, #136]
 393:Drivers/STM32G4xx_HAL_Driver/Src/stm32g4xx_hal_rcc_ex.c ****     
 394:Drivers/STM32G4xx_HAL_Driver/Src/stm32g4xx_hal_rcc_ex.c ****     if(PeriphClkInit->FdcanClockSelection == RCC_FDCANCLKSOURCE_PLL)
 472              		.loc 1 394 5 view .LVU155
 473              		.loc 1 394 21 is_stmt 0 view .LVU156
 474 026a A36B     		ldr	r3, [r4, #56]
 475              		.loc 1 394 7 view .LVU157
 476 026c B3F1807F 		cmp	r3, #16777216
 477 0270 61D0     		beq	.L40
 478              	.L25:
 395:Drivers/STM32G4xx_HAL_Driver/Src/stm32g4xx_hal_rcc_ex.c ****     {
 396:Drivers/STM32G4xx_HAL_Driver/Src/stm32g4xx_hal_rcc_ex.c ****       /* Enable PLL48M1CLK output */
 397:Drivers/STM32G4xx_HAL_Driver/Src/stm32g4xx_hal_rcc_ex.c ****       __HAL_RCC_PLLCLKOUT_ENABLE(RCC_PLL_48M1CLK);
 398:Drivers/STM32G4xx_HAL_Driver/Src/stm32g4xx_hal_rcc_ex.c ****     }
 399:Drivers/STM32G4xx_HAL_Driver/Src/stm32g4xx_hal_rcc_ex.c ****   }
 400:Drivers/STM32G4xx_HAL_Driver/Src/stm32g4xx_hal_rcc_ex.c **** #endif /* FDCAN1 */
 401:Drivers/STM32G4xx_HAL_Driver/Src/stm32g4xx_hal_rcc_ex.c **** 
 402:Drivers/STM32G4xx_HAL_Driver/Src/stm32g4xx_hal_rcc_ex.c **** #if defined(USB)
 403:Drivers/STM32G4xx_HAL_Driver/Src/stm32g4xx_hal_rcc_ex.c **** 
 404:Drivers/STM32G4xx_HAL_Driver/Src/stm32g4xx_hal_rcc_ex.c ****   /*-------------------------- USB clock source configuration ----------------------*/
 405:Drivers/STM32G4xx_HAL_Driver/Src/stm32g4xx_hal_rcc_ex.c ****   if(((PeriphClkInit->PeriphClockSelection) & RCC_PERIPHCLK_USB) == (RCC_PERIPHCLK_USB))
 479              		.loc 1 405 3 is_stmt 1 view .LVU158
 480              		.loc 1 405 21 is_stmt 0 view .LVU159
 481 0272 2368     		ldr	r3, [r4]
 482              		.loc 1 405 5 view .LVU160
 483 0274 13F4005F 		tst	r3, #8192
 484 0278 0CD0     		beq	.L26
 406:Drivers/STM32G4xx_HAL_Driver/Src/stm32g4xx_hal_rcc_ex.c ****   {
 407:Drivers/STM32G4xx_HAL_Driver/Src/stm32g4xx_hal_rcc_ex.c ****     assert_param(IS_RCC_USBCLKSOURCE(PeriphClkInit->UsbClockSelection));
 485              		.loc 1 407 5 is_stmt 1 view .LVU161
 408:Drivers/STM32G4xx_HAL_Driver/Src/stm32g4xx_hal_rcc_ex.c ****     __HAL_RCC_USB_CONFIG(PeriphClkInit->UsbClockSelection);
 486              		.loc 1 408 5 view .LVU162
 487 027a 3E4A     		ldr	r2, .L48
ARM GAS  C:\Users\Nathan\AppData\Local\Temp\cc4vJDVg.s 			page 17


 488 027c D2F88830 		ldr	r3, [r2, #136]
 489 0280 23F04063 		bic	r3, r3, #201326592
 490 0284 E16B     		ldr	r1, [r4, #60]
 491 0286 0B43     		orrs	r3, r3, r1
 492 0288 C2F88830 		str	r3, [r2, #136]
 409:Drivers/STM32G4xx_HAL_Driver/Src/stm32g4xx_hal_rcc_ex.c **** 
 410:Drivers/STM32G4xx_HAL_Driver/Src/stm32g4xx_hal_rcc_ex.c ****     if(PeriphClkInit->UsbClockSelection == RCC_USBCLKSOURCE_PLL)
 493              		.loc 1 410 5 view .LVU163
 494              		.loc 1 410 21 is_stmt 0 view .LVU164
 495 028c E36B     		ldr	r3, [r4, #60]
 496              		.loc 1 410 7 view .LVU165
 497 028e B3F1006F 		cmp	r3, #134217728
 498 0292 55D0     		beq	.L41
 499              	.L26:
 411:Drivers/STM32G4xx_HAL_Driver/Src/stm32g4xx_hal_rcc_ex.c ****     {
 412:Drivers/STM32G4xx_HAL_Driver/Src/stm32g4xx_hal_rcc_ex.c ****       /* Enable PLL48M1CLK output */
 413:Drivers/STM32G4xx_HAL_Driver/Src/stm32g4xx_hal_rcc_ex.c ****       __HAL_RCC_PLLCLKOUT_ENABLE(RCC_PLL_48M1CLK);
 414:Drivers/STM32G4xx_HAL_Driver/Src/stm32g4xx_hal_rcc_ex.c ****     }
 415:Drivers/STM32G4xx_HAL_Driver/Src/stm32g4xx_hal_rcc_ex.c ****   }
 416:Drivers/STM32G4xx_HAL_Driver/Src/stm32g4xx_hal_rcc_ex.c **** 
 417:Drivers/STM32G4xx_HAL_Driver/Src/stm32g4xx_hal_rcc_ex.c **** #endif /* USB */
 418:Drivers/STM32G4xx_HAL_Driver/Src/stm32g4xx_hal_rcc_ex.c **** 
 419:Drivers/STM32G4xx_HAL_Driver/Src/stm32g4xx_hal_rcc_ex.c ****   /*-------------------------- RNG clock source configuration ----------------------*/
 420:Drivers/STM32G4xx_HAL_Driver/Src/stm32g4xx_hal_rcc_ex.c ****   if(((PeriphClkInit->PeriphClockSelection) & RCC_PERIPHCLK_RNG) == (RCC_PERIPHCLK_RNG))
 500              		.loc 1 420 3 is_stmt 1 view .LVU166
 501              		.loc 1 420 21 is_stmt 0 view .LVU167
 502 0294 2368     		ldr	r3, [r4]
 503              		.loc 1 420 5 view .LVU168
 504 0296 13F4804F 		tst	r3, #16384
 505 029a 0CD0     		beq	.L27
 421:Drivers/STM32G4xx_HAL_Driver/Src/stm32g4xx_hal_rcc_ex.c ****   {
 422:Drivers/STM32G4xx_HAL_Driver/Src/stm32g4xx_hal_rcc_ex.c ****     assert_param(IS_RCC_RNGCLKSOURCE(PeriphClkInit->RngClockSelection));
 506              		.loc 1 422 5 is_stmt 1 view .LVU169
 423:Drivers/STM32G4xx_HAL_Driver/Src/stm32g4xx_hal_rcc_ex.c ****     __HAL_RCC_RNG_CONFIG(PeriphClkInit->RngClockSelection);
 507              		.loc 1 423 5 view .LVU170
 508 029c 354A     		ldr	r2, .L48
 509 029e D2F88830 		ldr	r3, [r2, #136]
 510 02a2 23F04063 		bic	r3, r3, #201326592
 511 02a6 216C     		ldr	r1, [r4, #64]
 512 02a8 0B43     		orrs	r3, r3, r1
 513 02aa C2F88830 		str	r3, [r2, #136]
 424:Drivers/STM32G4xx_HAL_Driver/Src/stm32g4xx_hal_rcc_ex.c **** 
 425:Drivers/STM32G4xx_HAL_Driver/Src/stm32g4xx_hal_rcc_ex.c ****     if(PeriphClkInit->RngClockSelection == RCC_RNGCLKSOURCE_PLL)
 514              		.loc 1 425 5 view .LVU171
 515              		.loc 1 425 21 is_stmt 0 view .LVU172
 516 02ae 236C     		ldr	r3, [r4, #64]
 517              		.loc 1 425 7 view .LVU173
 518 02b0 B3F1006F 		cmp	r3, #134217728
 519 02b4 49D0     		beq	.L42
 520              	.L27:
 426:Drivers/STM32G4xx_HAL_Driver/Src/stm32g4xx_hal_rcc_ex.c ****     {
 427:Drivers/STM32G4xx_HAL_Driver/Src/stm32g4xx_hal_rcc_ex.c ****       /* Enable PLL48M1CLK output */
 428:Drivers/STM32G4xx_HAL_Driver/Src/stm32g4xx_hal_rcc_ex.c ****       __HAL_RCC_PLLCLKOUT_ENABLE(RCC_PLL_48M1CLK);
 429:Drivers/STM32G4xx_HAL_Driver/Src/stm32g4xx_hal_rcc_ex.c ****     }
 430:Drivers/STM32G4xx_HAL_Driver/Src/stm32g4xx_hal_rcc_ex.c ****   }
 431:Drivers/STM32G4xx_HAL_Driver/Src/stm32g4xx_hal_rcc_ex.c **** 
 432:Drivers/STM32G4xx_HAL_Driver/Src/stm32g4xx_hal_rcc_ex.c ****   /*-------------------------- ADC12 clock source configuration ----------------------*/
ARM GAS  C:\Users\Nathan\AppData\Local\Temp\cc4vJDVg.s 			page 18


 433:Drivers/STM32G4xx_HAL_Driver/Src/stm32g4xx_hal_rcc_ex.c ****   if(((PeriphClkInit->PeriphClockSelection) & RCC_PERIPHCLK_ADC12) == RCC_PERIPHCLK_ADC12)
 521              		.loc 1 433 3 is_stmt 1 view .LVU174
 522              		.loc 1 433 21 is_stmt 0 view .LVU175
 523 02b6 2368     		ldr	r3, [r4]
 524              		.loc 1 433 5 view .LVU176
 525 02b8 13F4004F 		tst	r3, #32768
 526 02bc 0CD0     		beq	.L28
 434:Drivers/STM32G4xx_HAL_Driver/Src/stm32g4xx_hal_rcc_ex.c ****   {
 435:Drivers/STM32G4xx_HAL_Driver/Src/stm32g4xx_hal_rcc_ex.c ****     /* Check the parameters */
 436:Drivers/STM32G4xx_HAL_Driver/Src/stm32g4xx_hal_rcc_ex.c ****     assert_param(IS_RCC_ADC12CLKSOURCE(PeriphClkInit->Adc12ClockSelection));
 527              		.loc 1 436 5 is_stmt 1 view .LVU177
 437:Drivers/STM32G4xx_HAL_Driver/Src/stm32g4xx_hal_rcc_ex.c **** 
 438:Drivers/STM32G4xx_HAL_Driver/Src/stm32g4xx_hal_rcc_ex.c ****     /* Configure the ADC12 interface clock source */
 439:Drivers/STM32G4xx_HAL_Driver/Src/stm32g4xx_hal_rcc_ex.c ****     __HAL_RCC_ADC12_CONFIG(PeriphClkInit->Adc12ClockSelection);
 528              		.loc 1 439 5 view .LVU178
 529 02be 2D4A     		ldr	r2, .L48
 530 02c0 D2F88830 		ldr	r3, [r2, #136]
 531 02c4 23F04053 		bic	r3, r3, #805306368
 532 02c8 616C     		ldr	r1, [r4, #68]
 533 02ca 0B43     		orrs	r3, r3, r1
 534 02cc C2F88830 		str	r3, [r2, #136]
 440:Drivers/STM32G4xx_HAL_Driver/Src/stm32g4xx_hal_rcc_ex.c ****     
 441:Drivers/STM32G4xx_HAL_Driver/Src/stm32g4xx_hal_rcc_ex.c ****     if(PeriphClkInit->Adc12ClockSelection == RCC_ADC12CLKSOURCE_PLL)
 535              		.loc 1 441 5 view .LVU179
 536              		.loc 1 441 21 is_stmt 0 view .LVU180
 537 02d0 636C     		ldr	r3, [r4, #68]
 538              		.loc 1 441 7 view .LVU181
 539 02d2 B3F1805F 		cmp	r3, #268435456
 540 02d6 3DD0     		beq	.L43
 541              	.L28:
 442:Drivers/STM32G4xx_HAL_Driver/Src/stm32g4xx_hal_rcc_ex.c ****     {
 443:Drivers/STM32G4xx_HAL_Driver/Src/stm32g4xx_hal_rcc_ex.c ****       /* Enable PLLADCCLK output */
 444:Drivers/STM32G4xx_HAL_Driver/Src/stm32g4xx_hal_rcc_ex.c ****       __HAL_RCC_PLLCLKOUT_ENABLE(RCC_PLL_ADCCLK);
 445:Drivers/STM32G4xx_HAL_Driver/Src/stm32g4xx_hal_rcc_ex.c ****     }
 446:Drivers/STM32G4xx_HAL_Driver/Src/stm32g4xx_hal_rcc_ex.c ****   }
 447:Drivers/STM32G4xx_HAL_Driver/Src/stm32g4xx_hal_rcc_ex.c ****   
 448:Drivers/STM32G4xx_HAL_Driver/Src/stm32g4xx_hal_rcc_ex.c **** #if defined(ADC345_COMMON)
 449:Drivers/STM32G4xx_HAL_Driver/Src/stm32g4xx_hal_rcc_ex.c ****   /*-------------------------- ADC345 clock source configuration ----------------------*/
 450:Drivers/STM32G4xx_HAL_Driver/Src/stm32g4xx_hal_rcc_ex.c ****   if(((PeriphClkInit->PeriphClockSelection) & RCC_PERIPHCLK_ADC345) == RCC_PERIPHCLK_ADC345)
 542              		.loc 1 450 3 is_stmt 1 view .LVU182
 543              		.loc 1 450 21 is_stmt 0 view .LVU183
 544 02d8 2368     		ldr	r3, [r4]
 545              		.loc 1 450 5 view .LVU184
 546 02da 13F4803F 		tst	r3, #65536
 547 02de 0CD0     		beq	.L29
 451:Drivers/STM32G4xx_HAL_Driver/Src/stm32g4xx_hal_rcc_ex.c ****   {
 452:Drivers/STM32G4xx_HAL_Driver/Src/stm32g4xx_hal_rcc_ex.c ****     /* Check the parameters */
 453:Drivers/STM32G4xx_HAL_Driver/Src/stm32g4xx_hal_rcc_ex.c ****     assert_param(IS_RCC_ADC345CLKSOURCE(PeriphClkInit->Adc345ClockSelection));
 548              		.loc 1 453 5 is_stmt 1 view .LVU185
 454:Drivers/STM32G4xx_HAL_Driver/Src/stm32g4xx_hal_rcc_ex.c **** 
 455:Drivers/STM32G4xx_HAL_Driver/Src/stm32g4xx_hal_rcc_ex.c ****     /* Configure the ADC345 interface clock source */
 456:Drivers/STM32G4xx_HAL_Driver/Src/stm32g4xx_hal_rcc_ex.c ****     __HAL_RCC_ADC345_CONFIG(PeriphClkInit->Adc345ClockSelection);
 549              		.loc 1 456 5 view .LVU186
 550 02e0 244A     		ldr	r2, .L48
 551 02e2 D2F88830 		ldr	r3, [r2, #136]
 552 02e6 23F04043 		bic	r3, r3, #-1073741824
 553 02ea A16C     		ldr	r1, [r4, #72]
ARM GAS  C:\Users\Nathan\AppData\Local\Temp\cc4vJDVg.s 			page 19


 554 02ec 0B43     		orrs	r3, r3, r1
 555 02ee C2F88830 		str	r3, [r2, #136]
 457:Drivers/STM32G4xx_HAL_Driver/Src/stm32g4xx_hal_rcc_ex.c ****     
 458:Drivers/STM32G4xx_HAL_Driver/Src/stm32g4xx_hal_rcc_ex.c ****     if(PeriphClkInit->Adc345ClockSelection == RCC_ADC345CLKSOURCE_PLL)
 556              		.loc 1 458 5 view .LVU187
 557              		.loc 1 458 21 is_stmt 0 view .LVU188
 558 02f2 A36C     		ldr	r3, [r4, #72]
 559              		.loc 1 458 7 view .LVU189
 560 02f4 B3F1804F 		cmp	r3, #1073741824
 561 02f8 31D0     		beq	.L44
 562              	.L29:
 459:Drivers/STM32G4xx_HAL_Driver/Src/stm32g4xx_hal_rcc_ex.c ****     {
 460:Drivers/STM32G4xx_HAL_Driver/Src/stm32g4xx_hal_rcc_ex.c ****       /* Enable PLLADCCLK output */
 461:Drivers/STM32G4xx_HAL_Driver/Src/stm32g4xx_hal_rcc_ex.c ****       __HAL_RCC_PLLCLKOUT_ENABLE(RCC_PLL_ADCCLK);
 462:Drivers/STM32G4xx_HAL_Driver/Src/stm32g4xx_hal_rcc_ex.c ****     }
 463:Drivers/STM32G4xx_HAL_Driver/Src/stm32g4xx_hal_rcc_ex.c ****   }
 464:Drivers/STM32G4xx_HAL_Driver/Src/stm32g4xx_hal_rcc_ex.c **** #endif /* ADC345_COMMON */
 465:Drivers/STM32G4xx_HAL_Driver/Src/stm32g4xx_hal_rcc_ex.c **** 
 466:Drivers/STM32G4xx_HAL_Driver/Src/stm32g4xx_hal_rcc_ex.c **** #if defined(QUADSPI)
 467:Drivers/STM32G4xx_HAL_Driver/Src/stm32g4xx_hal_rcc_ex.c **** 
 468:Drivers/STM32G4xx_HAL_Driver/Src/stm32g4xx_hal_rcc_ex.c ****   /*-------------------------- QuadSPIx clock source configuration ----------------*/
 469:Drivers/STM32G4xx_HAL_Driver/Src/stm32g4xx_hal_rcc_ex.c ****   if(((PeriphClkInit->PeriphClockSelection) & RCC_PERIPHCLK_QSPI) == RCC_PERIPHCLK_QSPI)
 563              		.loc 1 469 3 is_stmt 1 view .LVU190
 564              		.loc 1 469 21 is_stmt 0 view .LVU191
 565 02fa 2368     		ldr	r3, [r4]
 566              		.loc 1 469 5 view .LVU192
 567 02fc 13F4802F 		tst	r3, #262144
 568 0300 0CD0     		beq	.L30
 470:Drivers/STM32G4xx_HAL_Driver/Src/stm32g4xx_hal_rcc_ex.c ****   {
 471:Drivers/STM32G4xx_HAL_Driver/Src/stm32g4xx_hal_rcc_ex.c ****     /* Check the parameters */
 472:Drivers/STM32G4xx_HAL_Driver/Src/stm32g4xx_hal_rcc_ex.c ****     assert_param(IS_RCC_QSPICLKSOURCE(PeriphClkInit->QspiClockSelection));
 569              		.loc 1 472 5 is_stmt 1 view .LVU193
 473:Drivers/STM32G4xx_HAL_Driver/Src/stm32g4xx_hal_rcc_ex.c **** 
 474:Drivers/STM32G4xx_HAL_Driver/Src/stm32g4xx_hal_rcc_ex.c ****     /* Configure the QuadSPI clock source */
 475:Drivers/STM32G4xx_HAL_Driver/Src/stm32g4xx_hal_rcc_ex.c ****     __HAL_RCC_QSPI_CONFIG(PeriphClkInit->QspiClockSelection);
 570              		.loc 1 475 5 view .LVU194
 571 0302 1C4A     		ldr	r2, .L48
 572 0304 D2F89C30 		ldr	r3, [r2, #156]
 573 0308 23F44013 		bic	r3, r3, #3145728
 574 030c E16C     		ldr	r1, [r4, #76]
 575 030e 0B43     		orrs	r3, r3, r1
 576 0310 C2F89C30 		str	r3, [r2, #156]
 476:Drivers/STM32G4xx_HAL_Driver/Src/stm32g4xx_hal_rcc_ex.c **** 
 477:Drivers/STM32G4xx_HAL_Driver/Src/stm32g4xx_hal_rcc_ex.c ****     if(PeriphClkInit->QspiClockSelection == RCC_QSPICLKSOURCE_PLL)
 577              		.loc 1 477 5 view .LVU195
 578              		.loc 1 477 21 is_stmt 0 view .LVU196
 579 0314 E36C     		ldr	r3, [r4, #76]
 580              		.loc 1 477 7 view .LVU197
 581 0316 B3F5001F 		cmp	r3, #2097152
 582 031a 25D0     		beq	.L45
 583              	.L30:
 478:Drivers/STM32G4xx_HAL_Driver/Src/stm32g4xx_hal_rcc_ex.c ****     {
 479:Drivers/STM32G4xx_HAL_Driver/Src/stm32g4xx_hal_rcc_ex.c ****       /* Enable PLL48M1CLK output */
 480:Drivers/STM32G4xx_HAL_Driver/Src/stm32g4xx_hal_rcc_ex.c ****       __HAL_RCC_PLLCLKOUT_ENABLE(RCC_PLL_48M1CLK);
 481:Drivers/STM32G4xx_HAL_Driver/Src/stm32g4xx_hal_rcc_ex.c ****     }
 482:Drivers/STM32G4xx_HAL_Driver/Src/stm32g4xx_hal_rcc_ex.c ****   }
 483:Drivers/STM32G4xx_HAL_Driver/Src/stm32g4xx_hal_rcc_ex.c **** 
ARM GAS  C:\Users\Nathan\AppData\Local\Temp\cc4vJDVg.s 			page 20


 484:Drivers/STM32G4xx_HAL_Driver/Src/stm32g4xx_hal_rcc_ex.c **** #endif /* QUADSPI */
 485:Drivers/STM32G4xx_HAL_Driver/Src/stm32g4xx_hal_rcc_ex.c **** 
 486:Drivers/STM32G4xx_HAL_Driver/Src/stm32g4xx_hal_rcc_ex.c ****   return status;
 584              		.loc 1 486 3 is_stmt 1 view .LVU198
 487:Drivers/STM32G4xx_HAL_Driver/Src/stm32g4xx_hal_rcc_ex.c **** }
 585              		.loc 1 487 1 is_stmt 0 view .LVU199
 586 031c 2846     		mov	r0, r5
 587 031e 03B0     		add	sp, sp, #12
 588              		.cfi_remember_state
 589              		.cfi_def_cfa_offset 20
 590              		@ sp needed
 591 0320 F0BD     		pop	{r4, r5, r6, r7, pc}
 592              	.LVL25:
 593              	.L38:
 594              		.cfi_restore_state
 359:Drivers/STM32G4xx_HAL_Driver/Src/stm32g4xx_hal_rcc_ex.c ****     }
 595              		.loc 1 359 7 is_stmt 1 view .LVU200
 596 0322 D368     		ldr	r3, [r2, #12]
 597 0324 43F48013 		orr	r3, r3, #1048576
 598 0328 D360     		str	r3, [r2, #12]
 599 032a 80E7     		b	.L23
 600              	.L39:
 378:Drivers/STM32G4xx_HAL_Driver/Src/stm32g4xx_hal_rcc_ex.c ****     }
 601              		.loc 1 378 7 view .LVU201
 602 032c D368     		ldr	r3, [r2, #12]
 603 032e 43F48013 		orr	r3, r3, #1048576
 604 0332 D360     		str	r3, [r2, #12]
 605 0334 8CE7     		b	.L24
 606              	.L40:
 397:Drivers/STM32G4xx_HAL_Driver/Src/stm32g4xx_hal_rcc_ex.c ****     }
 607              		.loc 1 397 7 view .LVU202
 608 0336 D368     		ldr	r3, [r2, #12]
 609 0338 43F48013 		orr	r3, r3, #1048576
 610 033c D360     		str	r3, [r2, #12]
 611 033e 98E7     		b	.L25
 612              	.L41:
 413:Drivers/STM32G4xx_HAL_Driver/Src/stm32g4xx_hal_rcc_ex.c ****     }
 613              		.loc 1 413 7 view .LVU203
 614 0340 D368     		ldr	r3, [r2, #12]
 615 0342 43F48013 		orr	r3, r3, #1048576
 616 0346 D360     		str	r3, [r2, #12]
 617 0348 A4E7     		b	.L26
 618              	.L42:
 428:Drivers/STM32G4xx_HAL_Driver/Src/stm32g4xx_hal_rcc_ex.c ****     }
 619              		.loc 1 428 7 view .LVU204
 620 034a D368     		ldr	r3, [r2, #12]
 621 034c 43F48013 		orr	r3, r3, #1048576
 622 0350 D360     		str	r3, [r2, #12]
 623 0352 B0E7     		b	.L27
 624              	.L43:
 444:Drivers/STM32G4xx_HAL_Driver/Src/stm32g4xx_hal_rcc_ex.c ****     }
 625              		.loc 1 444 7 view .LVU205
 626 0354 D368     		ldr	r3, [r2, #12]
 627 0356 43F48033 		orr	r3, r3, #65536
 628 035a D360     		str	r3, [r2, #12]
 629 035c BCE7     		b	.L28
 630              	.L44:
ARM GAS  C:\Users\Nathan\AppData\Local\Temp\cc4vJDVg.s 			page 21


 461:Drivers/STM32G4xx_HAL_Driver/Src/stm32g4xx_hal_rcc_ex.c ****     }
 631              		.loc 1 461 7 view .LVU206
 632 035e D368     		ldr	r3, [r2, #12]
 633 0360 43F48033 		orr	r3, r3, #65536
 634 0364 D360     		str	r3, [r2, #12]
 635 0366 C8E7     		b	.L29
 636              	.L45:
 480:Drivers/STM32G4xx_HAL_Driver/Src/stm32g4xx_hal_rcc_ex.c ****     }
 637              		.loc 1 480 7 view .LVU207
 638 0368 D368     		ldr	r3, [r2, #12]
 639 036a 43F48013 		orr	r3, r3, #1048576
 640 036e D360     		str	r3, [r2, #12]
 641 0370 D4E7     		b	.L30
 642              	.L49:
 643 0372 00BF     		.align	2
 644              	.L48:
 645 0374 00100240 		.word	1073876992
 646              		.cfi_endproc
 647              	.LFE132:
 649              		.section	.text.HAL_RCCEx_GetPeriphCLKConfig,"ax",%progbits
 650              		.align	1
 651              		.global	HAL_RCCEx_GetPeriphCLKConfig
 652              		.syntax unified
 653              		.thumb
 654              		.thumb_func
 656              	HAL_RCCEx_GetPeriphCLKConfig:
 657              	.LVL26:
 658              	.LFB133:
 488:Drivers/STM32G4xx_HAL_Driver/Src/stm32g4xx_hal_rcc_ex.c **** 
 489:Drivers/STM32G4xx_HAL_Driver/Src/stm32g4xx_hal_rcc_ex.c **** /**
 490:Drivers/STM32G4xx_HAL_Driver/Src/stm32g4xx_hal_rcc_ex.c ****   * @brief  Get the RCC_ClkInitStruct according to the internal RCC configuration registers.
 491:Drivers/STM32G4xx_HAL_Driver/Src/stm32g4xx_hal_rcc_ex.c ****   * @param  PeriphClkInit  pointer to an RCC_PeriphCLKInitTypeDef structure that
 492:Drivers/STM32G4xx_HAL_Driver/Src/stm32g4xx_hal_rcc_ex.c ****   *         returns the configuration information for the Extended Peripherals
 493:Drivers/STM32G4xx_HAL_Driver/Src/stm32g4xx_hal_rcc_ex.c ****   *         clocks(USART1, USART2, USART3, UART4, UART5, LPUART1, I2C1, I2C2, I2C3, I2C4,
 494:Drivers/STM32G4xx_HAL_Driver/Src/stm32g4xx_hal_rcc_ex.c ****   *         LPTIM1, SAI1, I2Sx, FDCANx, USB, RNG, ADCx, RTC, QSPI).
 495:Drivers/STM32G4xx_HAL_Driver/Src/stm32g4xx_hal_rcc_ex.c ****   * @retval None
 496:Drivers/STM32G4xx_HAL_Driver/Src/stm32g4xx_hal_rcc_ex.c ****   */
 497:Drivers/STM32G4xx_HAL_Driver/Src/stm32g4xx_hal_rcc_ex.c **** void HAL_RCCEx_GetPeriphCLKConfig(RCC_PeriphCLKInitTypeDef  *PeriphClkInit)
 498:Drivers/STM32G4xx_HAL_Driver/Src/stm32g4xx_hal_rcc_ex.c **** {
 659              		.loc 1 498 1 view -0
 660              		.cfi_startproc
 661              		@ args = 0, pretend = 0, frame = 0
 662              		@ frame_needed = 0, uses_anonymous_args = 0
 663              		@ link register save eliminated.
 499:Drivers/STM32G4xx_HAL_Driver/Src/stm32g4xx_hal_rcc_ex.c ****   /* Set all possible values for the extended clock type parameter------------*/
 500:Drivers/STM32G4xx_HAL_Driver/Src/stm32g4xx_hal_rcc_ex.c **** 
 501:Drivers/STM32G4xx_HAL_Driver/Src/stm32g4xx_hal_rcc_ex.c **** #if defined(STM32G474xx) || defined(STM32G484xx)
 502:Drivers/STM32G4xx_HAL_Driver/Src/stm32g4xx_hal_rcc_ex.c **** 
 503:Drivers/STM32G4xx_HAL_Driver/Src/stm32g4xx_hal_rcc_ex.c ****   PeriphClkInit->PeriphClockSelection = RCC_PERIPHCLK_USART1  | RCC_PERIPHCLK_USART2 | RCC_PERIPHCL
 664              		.loc 1 503 3 view .LVU209
 665              		.loc 1 503 39 is_stmt 0 view .LVU210
 666 0000 334B     		ldr	r3, .L51
 667 0002 0360     		str	r3, [r0]
 504:Drivers/STM32G4xx_HAL_Driver/Src/stm32g4xx_hal_rcc_ex.c ****                                         RCC_PERIPHCLK_UART5   | \
 505:Drivers/STM32G4xx_HAL_Driver/Src/stm32g4xx_hal_rcc_ex.c ****                                         RCC_PERIPHCLK_LPUART1 | RCC_PERIPHCLK_I2C1   | RCC_PERIPHCL
 506:Drivers/STM32G4xx_HAL_Driver/Src/stm32g4xx_hal_rcc_ex.c ****                                         RCC_PERIPHCLK_I2C4    | \
 507:Drivers/STM32G4xx_HAL_Driver/Src/stm32g4xx_hal_rcc_ex.c ****                                         RCC_PERIPHCLK_LPTIM1  | RCC_PERIPHCLK_SAI1   | RCC_PERIPHCL
ARM GAS  C:\Users\Nathan\AppData\Local\Temp\cc4vJDVg.s 			page 22


 508:Drivers/STM32G4xx_HAL_Driver/Src/stm32g4xx_hal_rcc_ex.c ****                                         RCC_PERIPHCLK_RNG     | RCC_PERIPHCLK_USB    | RCC_PERIPHCL
 509:Drivers/STM32G4xx_HAL_Driver/Src/stm32g4xx_hal_rcc_ex.c ****                                         RCC_PERIPHCLK_QSPI    | \
 510:Drivers/STM32G4xx_HAL_Driver/Src/stm32g4xx_hal_rcc_ex.c ****                                         RCC_PERIPHCLK_RTC;
 511:Drivers/STM32G4xx_HAL_Driver/Src/stm32g4xx_hal_rcc_ex.c **** 
 512:Drivers/STM32G4xx_HAL_Driver/Src/stm32g4xx_hal_rcc_ex.c **** #elif defined(STM32G414xx)
 513:Drivers/STM32G4xx_HAL_Driver/Src/stm32g4xx_hal_rcc_ex.c **** 
 514:Drivers/STM32G4xx_HAL_Driver/Src/stm32g4xx_hal_rcc_ex.c ****   PeriphClkInit->PeriphClockSelection = RCC_PERIPHCLK_USART1  | RCC_PERIPHCLK_USART2  | RCC_PERIPHC
 515:Drivers/STM32G4xx_HAL_Driver/Src/stm32g4xx_hal_rcc_ex.c ****                                         RCC_PERIPHCLK_LPTIM1  | RCC_PERIPHCLK_I2S     | RCC_PERIPHC
 516:Drivers/STM32G4xx_HAL_Driver/Src/stm32g4xx_hal_rcc_ex.c ****                                         RCC_PERIPHCLK_ADC12   | RCC_PERIPHCLK_RTC;
 517:Drivers/STM32G4xx_HAL_Driver/Src/stm32g4xx_hal_rcc_ex.c **** 
 518:Drivers/STM32G4xx_HAL_Driver/Src/stm32g4xx_hal_rcc_ex.c **** #elif defined(STM32G491xx) || defined(STM32G4A1xx)
 519:Drivers/STM32G4xx_HAL_Driver/Src/stm32g4xx_hal_rcc_ex.c **** 
 520:Drivers/STM32G4xx_HAL_Driver/Src/stm32g4xx_hal_rcc_ex.c ****   PeriphClkInit->PeriphClockSelection = RCC_PERIPHCLK_USART1  | RCC_PERIPHCLK_USART2 | RCC_PERIPHCL
 521:Drivers/STM32G4xx_HAL_Driver/Src/stm32g4xx_hal_rcc_ex.c ****                                         RCC_PERIPHCLK_UART5   | \
 522:Drivers/STM32G4xx_HAL_Driver/Src/stm32g4xx_hal_rcc_ex.c ****                                         RCC_PERIPHCLK_LPUART1 | RCC_PERIPHCLK_I2C1   | RCC_PERIPHCL
 523:Drivers/STM32G4xx_HAL_Driver/Src/stm32g4xx_hal_rcc_ex.c ****                                         RCC_PERIPHCLK_LPTIM1  | RCC_PERIPHCLK_SAI1   | RCC_PERIPHCL
 524:Drivers/STM32G4xx_HAL_Driver/Src/stm32g4xx_hal_rcc_ex.c ****                                         RCC_PERIPHCLK_RNG     | RCC_PERIPHCLK_USB    | RCC_PERIPHCL
 525:Drivers/STM32G4xx_HAL_Driver/Src/stm32g4xx_hal_rcc_ex.c ****                                         RCC_PERIPHCLK_QSPI    | \
 526:Drivers/STM32G4xx_HAL_Driver/Src/stm32g4xx_hal_rcc_ex.c ****                                         RCC_PERIPHCLK_RTC;
 527:Drivers/STM32G4xx_HAL_Driver/Src/stm32g4xx_hal_rcc_ex.c **** 
 528:Drivers/STM32G4xx_HAL_Driver/Src/stm32g4xx_hal_rcc_ex.c **** #elif defined(STM32G473xx) || defined(STM32G483xx)
 529:Drivers/STM32G4xx_HAL_Driver/Src/stm32g4xx_hal_rcc_ex.c **** 
 530:Drivers/STM32G4xx_HAL_Driver/Src/stm32g4xx_hal_rcc_ex.c ****   PeriphClkInit->PeriphClockSelection = RCC_PERIPHCLK_USART1  | RCC_PERIPHCLK_USART2 | RCC_PERIPHCL
 531:Drivers/STM32G4xx_HAL_Driver/Src/stm32g4xx_hal_rcc_ex.c ****                                         RCC_PERIPHCLK_UART5   | \
 532:Drivers/STM32G4xx_HAL_Driver/Src/stm32g4xx_hal_rcc_ex.c ****                                         RCC_PERIPHCLK_LPUART1 | RCC_PERIPHCLK_I2C1   | RCC_PERIPHCL
 533:Drivers/STM32G4xx_HAL_Driver/Src/stm32g4xx_hal_rcc_ex.c ****                                         RCC_PERIPHCLK_I2C4    | \
 534:Drivers/STM32G4xx_HAL_Driver/Src/stm32g4xx_hal_rcc_ex.c ****                                         RCC_PERIPHCLK_LPTIM1  | RCC_PERIPHCLK_SAI1   | RCC_PERIPHCL
 535:Drivers/STM32G4xx_HAL_Driver/Src/stm32g4xx_hal_rcc_ex.c ****                                         RCC_PERIPHCLK_RNG     | RCC_PERIPHCLK_USB    | RCC_PERIPHCL
 536:Drivers/STM32G4xx_HAL_Driver/Src/stm32g4xx_hal_rcc_ex.c ****                                         RCC_PERIPHCLK_QSPI    | \
 537:Drivers/STM32G4xx_HAL_Driver/Src/stm32g4xx_hal_rcc_ex.c ****                                         RCC_PERIPHCLK_RTC;
 538:Drivers/STM32G4xx_HAL_Driver/Src/stm32g4xx_hal_rcc_ex.c **** 
 539:Drivers/STM32G4xx_HAL_Driver/Src/stm32g4xx_hal_rcc_ex.c **** #elif defined(STM32G471xx)
 540:Drivers/STM32G4xx_HAL_Driver/Src/stm32g4xx_hal_rcc_ex.c **** 
 541:Drivers/STM32G4xx_HAL_Driver/Src/stm32g4xx_hal_rcc_ex.c ****   PeriphClkInit->PeriphClockSelection = RCC_PERIPHCLK_USART1  | RCC_PERIPHCLK_USART2 | RCC_PERIPHCL
 542:Drivers/STM32G4xx_HAL_Driver/Src/stm32g4xx_hal_rcc_ex.c ****                                         RCC_PERIPHCLK_UART5   | \
 543:Drivers/STM32G4xx_HAL_Driver/Src/stm32g4xx_hal_rcc_ex.c ****                                         RCC_PERIPHCLK_LPUART1 | RCC_PERIPHCLK_I2C1   | RCC_PERIPHCL
 544:Drivers/STM32G4xx_HAL_Driver/Src/stm32g4xx_hal_rcc_ex.c ****                                         RCC_PERIPHCLK_I2C4    | \
 545:Drivers/STM32G4xx_HAL_Driver/Src/stm32g4xx_hal_rcc_ex.c ****                                         RCC_PERIPHCLK_LPTIM1  | RCC_PERIPHCLK_SAI1   | RCC_PERIPHCL
 546:Drivers/STM32G4xx_HAL_Driver/Src/stm32g4xx_hal_rcc_ex.c ****                                         RCC_PERIPHCLK_RNG     | RCC_PERIPHCLK_USB    | RCC_PERIPHCL
 547:Drivers/STM32G4xx_HAL_Driver/Src/stm32g4xx_hal_rcc_ex.c ****                                         RCC_PERIPHCLK_RTC;
 548:Drivers/STM32G4xx_HAL_Driver/Src/stm32g4xx_hal_rcc_ex.c **** 
 549:Drivers/STM32G4xx_HAL_Driver/Src/stm32g4xx_hal_rcc_ex.c **** #elif defined(STM32G431xx) || defined(STM32G441xx)
 550:Drivers/STM32G4xx_HAL_Driver/Src/stm32g4xx_hal_rcc_ex.c **** 
 551:Drivers/STM32G4xx_HAL_Driver/Src/stm32g4xx_hal_rcc_ex.c ****   PeriphClkInit->PeriphClockSelection = RCC_PERIPHCLK_USART1  | RCC_PERIPHCLK_USART2 | RCC_PERIPHCL
 552:Drivers/STM32G4xx_HAL_Driver/Src/stm32g4xx_hal_rcc_ex.c ****                                         RCC_PERIPHCLK_LPUART1 | RCC_PERIPHCLK_I2C1   | RCC_PERIPHCL
 553:Drivers/STM32G4xx_HAL_Driver/Src/stm32g4xx_hal_rcc_ex.c ****                                         RCC_PERIPHCLK_LPTIM1  | RCC_PERIPHCLK_SAI1   | RCC_PERIPHCL
 554:Drivers/STM32G4xx_HAL_Driver/Src/stm32g4xx_hal_rcc_ex.c ****                                         RCC_PERIPHCLK_RNG     | RCC_PERIPHCLK_USB    | RCC_PERIPHCL
 555:Drivers/STM32G4xx_HAL_Driver/Src/stm32g4xx_hal_rcc_ex.c ****                                         RCC_PERIPHCLK_RTC;
 556:Drivers/STM32G4xx_HAL_Driver/Src/stm32g4xx_hal_rcc_ex.c **** #elif defined(STM32G411xB) || defined(STM32G411xC)
 557:Drivers/STM32G4xx_HAL_Driver/Src/stm32g4xx_hal_rcc_ex.c **** 
 558:Drivers/STM32G4xx_HAL_Driver/Src/stm32g4xx_hal_rcc_ex.c ****   PeriphClkInit->PeriphClockSelection = RCC_PERIPHCLK_USART1  | RCC_PERIPHCLK_USART2 | RCC_PERIPHCL
 559:Drivers/STM32G4xx_HAL_Driver/Src/stm32g4xx_hal_rcc_ex.c ****                                         RCC_PERIPHCLK_LPUART1 | RCC_PERIPHCLK_I2C1   | RCC_PERIPHCL
 560:Drivers/STM32G4xx_HAL_Driver/Src/stm32g4xx_hal_rcc_ex.c ****                                         RCC_PERIPHCLK_LPTIM1  | RCC_PERIPHCLK_I2S    | RCC_PERIPHCL
 561:Drivers/STM32G4xx_HAL_Driver/Src/stm32g4xx_hal_rcc_ex.c ****                                         RCC_PERIPHCLK_RNG     | RCC_PERIPHCLK_ADC12  | RCC_PERIPHCL
 562:Drivers/STM32G4xx_HAL_Driver/Src/stm32g4xx_hal_rcc_ex.c **** 
 563:Drivers/STM32G4xx_HAL_Driver/Src/stm32g4xx_hal_rcc_ex.c **** #elif defined(STM32GBK1CB)
 564:Drivers/STM32G4xx_HAL_Driver/Src/stm32g4xx_hal_rcc_ex.c **** 
ARM GAS  C:\Users\Nathan\AppData\Local\Temp\cc4vJDVg.s 			page 23


 565:Drivers/STM32G4xx_HAL_Driver/Src/stm32g4xx_hal_rcc_ex.c ****   PeriphClkInit->PeriphClockSelection = RCC_PERIPHCLK_USART1  | RCC_PERIPHCLK_USART2 | RCC_PERIPHCL
 566:Drivers/STM32G4xx_HAL_Driver/Src/stm32g4xx_hal_rcc_ex.c ****                                         RCC_PERIPHCLK_LPUART1 | RCC_PERIPHCLK_I2C1   | RCC_PERIPHCL
 567:Drivers/STM32G4xx_HAL_Driver/Src/stm32g4xx_hal_rcc_ex.c ****                                         RCC_PERIPHCLK_LPTIM1  | RCC_PERIPHCLK_SAI1   | RCC_PERIPHCL
 568:Drivers/STM32G4xx_HAL_Driver/Src/stm32g4xx_hal_rcc_ex.c ****                                         RCC_PERIPHCLK_RNG     | RCC_PERIPHCLK_USB    | RCC_PERIPHCL
 569:Drivers/STM32G4xx_HAL_Driver/Src/stm32g4xx_hal_rcc_ex.c ****                                         RCC_PERIPHCLK_RTC;
 570:Drivers/STM32G4xx_HAL_Driver/Src/stm32g4xx_hal_rcc_ex.c **** 
 571:Drivers/STM32G4xx_HAL_Driver/Src/stm32g4xx_hal_rcc_ex.c **** #endif /* STM32G474xx || STM32G484xx */
 572:Drivers/STM32G4xx_HAL_Driver/Src/stm32g4xx_hal_rcc_ex.c **** 
 573:Drivers/STM32G4xx_HAL_Driver/Src/stm32g4xx_hal_rcc_ex.c **** 
 574:Drivers/STM32G4xx_HAL_Driver/Src/stm32g4xx_hal_rcc_ex.c ****   /* Get the USART1 clock source ---------------------------------------------*/
 575:Drivers/STM32G4xx_HAL_Driver/Src/stm32g4xx_hal_rcc_ex.c ****   PeriphClkInit->Usart1ClockSelection  = __HAL_RCC_GET_USART1_SOURCE();
 668              		.loc 1 575 3 is_stmt 1 view .LVU211
 669              		.loc 1 575 42 is_stmt 0 view .LVU212
 670 0004 334B     		ldr	r3, .L51+4
 671 0006 D3F88820 		ldr	r2, [r3, #136]
 672 000a 02F00302 		and	r2, r2, #3
 673              		.loc 1 575 40 view .LVU213
 674 000e 4260     		str	r2, [r0, #4]
 576:Drivers/STM32G4xx_HAL_Driver/Src/stm32g4xx_hal_rcc_ex.c ****   /* Get the USART2 clock source ---------------------------------------------*/
 577:Drivers/STM32G4xx_HAL_Driver/Src/stm32g4xx_hal_rcc_ex.c ****   PeriphClkInit->Usart2ClockSelection  = __HAL_RCC_GET_USART2_SOURCE();
 675              		.loc 1 577 3 is_stmt 1 view .LVU214
 676              		.loc 1 577 42 is_stmt 0 view .LVU215
 677 0010 D3F88820 		ldr	r2, [r3, #136]
 678 0014 02F00C02 		and	r2, r2, #12
 679              		.loc 1 577 40 view .LVU216
 680 0018 8260     		str	r2, [r0, #8]
 578:Drivers/STM32G4xx_HAL_Driver/Src/stm32g4xx_hal_rcc_ex.c **** 
 579:Drivers/STM32G4xx_HAL_Driver/Src/stm32g4xx_hal_rcc_ex.c **** #if defined(USART3)
 580:Drivers/STM32G4xx_HAL_Driver/Src/stm32g4xx_hal_rcc_ex.c ****   /* Get the USART3 clock source ---------------------------------------------*/
 581:Drivers/STM32G4xx_HAL_Driver/Src/stm32g4xx_hal_rcc_ex.c ****   PeriphClkInit->Usart3ClockSelection  = __HAL_RCC_GET_USART3_SOURCE();
 681              		.loc 1 581 3 is_stmt 1 view .LVU217
 682              		.loc 1 581 42 is_stmt 0 view .LVU218
 683 001a D3F88820 		ldr	r2, [r3, #136]
 684 001e 02F03002 		and	r2, r2, #48
 685              		.loc 1 581 40 view .LVU219
 686 0022 C260     		str	r2, [r0, #12]
 582:Drivers/STM32G4xx_HAL_Driver/Src/stm32g4xx_hal_rcc_ex.c **** #endif /* USART3 */
 583:Drivers/STM32G4xx_HAL_Driver/Src/stm32g4xx_hal_rcc_ex.c **** 
 584:Drivers/STM32G4xx_HAL_Driver/Src/stm32g4xx_hal_rcc_ex.c **** #if defined(UART4)
 585:Drivers/STM32G4xx_HAL_Driver/Src/stm32g4xx_hal_rcc_ex.c ****   /* Get the UART4 clock source ----------------------------------------------*/
 586:Drivers/STM32G4xx_HAL_Driver/Src/stm32g4xx_hal_rcc_ex.c ****   PeriphClkInit->Uart4ClockSelection   = __HAL_RCC_GET_UART4_SOURCE();
 687              		.loc 1 586 3 is_stmt 1 view .LVU220
 688              		.loc 1 586 42 is_stmt 0 view .LVU221
 689 0024 D3F88820 		ldr	r2, [r3, #136]
 690 0028 02F0C002 		and	r2, r2, #192
 691              		.loc 1 586 40 view .LVU222
 692 002c 0261     		str	r2, [r0, #16]
 587:Drivers/STM32G4xx_HAL_Driver/Src/stm32g4xx_hal_rcc_ex.c **** #endif /* UART4 */
 588:Drivers/STM32G4xx_HAL_Driver/Src/stm32g4xx_hal_rcc_ex.c **** 
 589:Drivers/STM32G4xx_HAL_Driver/Src/stm32g4xx_hal_rcc_ex.c **** #if defined(UART5)
 590:Drivers/STM32G4xx_HAL_Driver/Src/stm32g4xx_hal_rcc_ex.c ****   /* Get the UART5 clock source ----------------------------------------------*/
 591:Drivers/STM32G4xx_HAL_Driver/Src/stm32g4xx_hal_rcc_ex.c ****   PeriphClkInit->Uart5ClockSelection   = __HAL_RCC_GET_UART5_SOURCE();
 693              		.loc 1 591 3 is_stmt 1 view .LVU223
 694              		.loc 1 591 42 is_stmt 0 view .LVU224
 695 002e D3F88820 		ldr	r2, [r3, #136]
 696 0032 02F44072 		and	r2, r2, #768
 697              		.loc 1 591 40 view .LVU225
ARM GAS  C:\Users\Nathan\AppData\Local\Temp\cc4vJDVg.s 			page 24


 698 0036 4261     		str	r2, [r0, #20]
 592:Drivers/STM32G4xx_HAL_Driver/Src/stm32g4xx_hal_rcc_ex.c **** #endif /* UART5 */
 593:Drivers/STM32G4xx_HAL_Driver/Src/stm32g4xx_hal_rcc_ex.c ****   
 594:Drivers/STM32G4xx_HAL_Driver/Src/stm32g4xx_hal_rcc_ex.c ****   /* Get the LPUART1 clock source --------------------------------------------*/
 595:Drivers/STM32G4xx_HAL_Driver/Src/stm32g4xx_hal_rcc_ex.c ****   PeriphClkInit->Lpuart1ClockSelection = __HAL_RCC_GET_LPUART1_SOURCE();
 699              		.loc 1 595 3 is_stmt 1 view .LVU226
 700              		.loc 1 595 42 is_stmt 0 view .LVU227
 701 0038 D3F88820 		ldr	r2, [r3, #136]
 702 003c 02F44062 		and	r2, r2, #3072
 703              		.loc 1 595 40 view .LVU228
 704 0040 8261     		str	r2, [r0, #24]
 596:Drivers/STM32G4xx_HAL_Driver/Src/stm32g4xx_hal_rcc_ex.c **** 
 597:Drivers/STM32G4xx_HAL_Driver/Src/stm32g4xx_hal_rcc_ex.c ****   /* Get the I2C1 clock source -----------------------------------------------*/
 598:Drivers/STM32G4xx_HAL_Driver/Src/stm32g4xx_hal_rcc_ex.c ****   PeriphClkInit->I2c1ClockSelection    = __HAL_RCC_GET_I2C1_SOURCE();
 705              		.loc 1 598 3 is_stmt 1 view .LVU229
 706              		.loc 1 598 42 is_stmt 0 view .LVU230
 707 0042 D3F88820 		ldr	r2, [r3, #136]
 708 0046 02F44052 		and	r2, r2, #12288
 709              		.loc 1 598 40 view .LVU231
 710 004a C261     		str	r2, [r0, #28]
 599:Drivers/STM32G4xx_HAL_Driver/Src/stm32g4xx_hal_rcc_ex.c **** 
 600:Drivers/STM32G4xx_HAL_Driver/Src/stm32g4xx_hal_rcc_ex.c ****   /* Get the I2C2 clock source ----------------------------------------------*/
 601:Drivers/STM32G4xx_HAL_Driver/Src/stm32g4xx_hal_rcc_ex.c ****   PeriphClkInit->I2c2ClockSelection    = __HAL_RCC_GET_I2C2_SOURCE();
 711              		.loc 1 601 3 is_stmt 1 view .LVU232
 712              		.loc 1 601 42 is_stmt 0 view .LVU233
 713 004c D3F88820 		ldr	r2, [r3, #136]
 714 0050 02F44042 		and	r2, r2, #49152
 715              		.loc 1 601 40 view .LVU234
 716 0054 0262     		str	r2, [r0, #32]
 602:Drivers/STM32G4xx_HAL_Driver/Src/stm32g4xx_hal_rcc_ex.c **** 
 603:Drivers/STM32G4xx_HAL_Driver/Src/stm32g4xx_hal_rcc_ex.c **** #if defined(I2C3)
 604:Drivers/STM32G4xx_HAL_Driver/Src/stm32g4xx_hal_rcc_ex.c ****   /* Get the I2C3 clock source -----------------------------------------------*/
 605:Drivers/STM32G4xx_HAL_Driver/Src/stm32g4xx_hal_rcc_ex.c ****   PeriphClkInit->I2c3ClockSelection    = __HAL_RCC_GET_I2C3_SOURCE();
 717              		.loc 1 605 3 is_stmt 1 view .LVU235
 718              		.loc 1 605 42 is_stmt 0 view .LVU236
 719 0056 D3F88820 		ldr	r2, [r3, #136]
 720 005a 02F44032 		and	r2, r2, #196608
 721              		.loc 1 605 40 view .LVU237
 722 005e 4262     		str	r2, [r0, #36]
 606:Drivers/STM32G4xx_HAL_Driver/Src/stm32g4xx_hal_rcc_ex.c **** #endif /* I2C3 */
 607:Drivers/STM32G4xx_HAL_Driver/Src/stm32g4xx_hal_rcc_ex.c **** 
 608:Drivers/STM32G4xx_HAL_Driver/Src/stm32g4xx_hal_rcc_ex.c **** #if defined(I2C4)
 609:Drivers/STM32G4xx_HAL_Driver/Src/stm32g4xx_hal_rcc_ex.c ****   /* Get the I2C4 clock source -----------------------------------------------*/
 610:Drivers/STM32G4xx_HAL_Driver/Src/stm32g4xx_hal_rcc_ex.c ****   PeriphClkInit->I2c4ClockSelection    = __HAL_RCC_GET_I2C4_SOURCE();
 723              		.loc 1 610 3 is_stmt 1 view .LVU238
 724              		.loc 1 610 42 is_stmt 0 view .LVU239
 725 0060 D3F89C20 		ldr	r2, [r3, #156]
 726 0064 02F00302 		and	r2, r2, #3
 727              		.loc 1 610 40 view .LVU240
 728 0068 8262     		str	r2, [r0, #40]
 611:Drivers/STM32G4xx_HAL_Driver/Src/stm32g4xx_hal_rcc_ex.c **** #endif /* I2C4 */
 612:Drivers/STM32G4xx_HAL_Driver/Src/stm32g4xx_hal_rcc_ex.c **** 
 613:Drivers/STM32G4xx_HAL_Driver/Src/stm32g4xx_hal_rcc_ex.c ****   /* Get the LPTIM1 clock source ---------------------------------------------*/
 614:Drivers/STM32G4xx_HAL_Driver/Src/stm32g4xx_hal_rcc_ex.c ****   PeriphClkInit->Lptim1ClockSelection  = __HAL_RCC_GET_LPTIM1_SOURCE();
 729              		.loc 1 614 3 is_stmt 1 view .LVU241
 730              		.loc 1 614 42 is_stmt 0 view .LVU242
 731 006a D3F88820 		ldr	r2, [r3, #136]
ARM GAS  C:\Users\Nathan\AppData\Local\Temp\cc4vJDVg.s 			page 25


 732 006e 02F44022 		and	r2, r2, #786432
 733              		.loc 1 614 40 view .LVU243
 734 0072 C262     		str	r2, [r0, #44]
 615:Drivers/STM32G4xx_HAL_Driver/Src/stm32g4xx_hal_rcc_ex.c **** 
 616:Drivers/STM32G4xx_HAL_Driver/Src/stm32g4xx_hal_rcc_ex.c **** #if defined(SAI1)
 617:Drivers/STM32G4xx_HAL_Driver/Src/stm32g4xx_hal_rcc_ex.c ****   /* Get the SAI1 clock source -----------------------------------------------*/
 618:Drivers/STM32G4xx_HAL_Driver/Src/stm32g4xx_hal_rcc_ex.c ****   PeriphClkInit->Sai1ClockSelection    = __HAL_RCC_GET_SAI1_SOURCE();
 735              		.loc 1 618 3 is_stmt 1 view .LVU244
 736              		.loc 1 618 42 is_stmt 0 view .LVU245
 737 0074 D3F88820 		ldr	r2, [r3, #136]
 738 0078 02F44012 		and	r2, r2, #3145728
 739              		.loc 1 618 40 view .LVU246
 740 007c 0263     		str	r2, [r0, #48]
 619:Drivers/STM32G4xx_HAL_Driver/Src/stm32g4xx_hal_rcc_ex.c **** #endif /* SAI1 */
 620:Drivers/STM32G4xx_HAL_Driver/Src/stm32g4xx_hal_rcc_ex.c **** 
 621:Drivers/STM32G4xx_HAL_Driver/Src/stm32g4xx_hal_rcc_ex.c **** #if defined(SPI_I2S_SUPPORT)
 622:Drivers/STM32G4xx_HAL_Driver/Src/stm32g4xx_hal_rcc_ex.c ****   /* Get the I2S clock source -----------------------------------------------*/
 623:Drivers/STM32G4xx_HAL_Driver/Src/stm32g4xx_hal_rcc_ex.c ****   PeriphClkInit->I2sClockSelection    = __HAL_RCC_GET_I2S_SOURCE();
 741              		.loc 1 623 3 is_stmt 1 view .LVU247
 742              		.loc 1 623 41 is_stmt 0 view .LVU248
 743 007e D3F88820 		ldr	r2, [r3, #136]
 744 0082 02F44002 		and	r2, r2, #12582912
 745              		.loc 1 623 39 view .LVU249
 746 0086 4263     		str	r2, [r0, #52]
 624:Drivers/STM32G4xx_HAL_Driver/Src/stm32g4xx_hal_rcc_ex.c **** #endif /* SPI_I2S_SUPPORT */
 625:Drivers/STM32G4xx_HAL_Driver/Src/stm32g4xx_hal_rcc_ex.c **** 
 626:Drivers/STM32G4xx_HAL_Driver/Src/stm32g4xx_hal_rcc_ex.c **** #if defined(FDCAN1)
 627:Drivers/STM32G4xx_HAL_Driver/Src/stm32g4xx_hal_rcc_ex.c ****   /* Get the FDCAN clock source -----------------------------------------------*/
 628:Drivers/STM32G4xx_HAL_Driver/Src/stm32g4xx_hal_rcc_ex.c ****   PeriphClkInit->FdcanClockSelection    = __HAL_RCC_GET_FDCAN_SOURCE();
 747              		.loc 1 628 3 is_stmt 1 view .LVU250
 748              		.loc 1 628 43 is_stmt 0 view .LVU251
 749 0088 D3F88820 		ldr	r2, [r3, #136]
 750 008c 02F04072 		and	r2, r2, #50331648
 751              		.loc 1 628 41 view .LVU252
 752 0090 8263     		str	r2, [r0, #56]
 629:Drivers/STM32G4xx_HAL_Driver/Src/stm32g4xx_hal_rcc_ex.c **** #endif /* FDCAN1 */
 630:Drivers/STM32G4xx_HAL_Driver/Src/stm32g4xx_hal_rcc_ex.c **** 
 631:Drivers/STM32G4xx_HAL_Driver/Src/stm32g4xx_hal_rcc_ex.c **** #if defined(USB)
 632:Drivers/STM32G4xx_HAL_Driver/Src/stm32g4xx_hal_rcc_ex.c ****   /* Get the USB clock source ------------------------------------------------*/
 633:Drivers/STM32G4xx_HAL_Driver/Src/stm32g4xx_hal_rcc_ex.c ****   PeriphClkInit->UsbClockSelection   = __HAL_RCC_GET_USB_SOURCE();
 753              		.loc 1 633 3 is_stmt 1 view .LVU253
 754              		.loc 1 633 40 is_stmt 0 view .LVU254
 755 0092 D3F88820 		ldr	r2, [r3, #136]
 756 0096 02F04062 		and	r2, r2, #201326592
 757              		.loc 1 633 38 view .LVU255
 758 009a C263     		str	r2, [r0, #60]
 634:Drivers/STM32G4xx_HAL_Driver/Src/stm32g4xx_hal_rcc_ex.c **** #endif /* USB */
 635:Drivers/STM32G4xx_HAL_Driver/Src/stm32g4xx_hal_rcc_ex.c **** 
 636:Drivers/STM32G4xx_HAL_Driver/Src/stm32g4xx_hal_rcc_ex.c ****   /* Get the RNG clock source ------------------------------------------------*/
 637:Drivers/STM32G4xx_HAL_Driver/Src/stm32g4xx_hal_rcc_ex.c ****   PeriphClkInit->RngClockSelection   = __HAL_RCC_GET_RNG_SOURCE();
 759              		.loc 1 637 3 is_stmt 1 view .LVU256
 760              		.loc 1 637 40 is_stmt 0 view .LVU257
 761 009c D3F88820 		ldr	r2, [r3, #136]
 762 00a0 02F04062 		and	r2, r2, #201326592
 763              		.loc 1 637 38 view .LVU258
 764 00a4 0264     		str	r2, [r0, #64]
 638:Drivers/STM32G4xx_HAL_Driver/Src/stm32g4xx_hal_rcc_ex.c **** 
ARM GAS  C:\Users\Nathan\AppData\Local\Temp\cc4vJDVg.s 			page 26


 639:Drivers/STM32G4xx_HAL_Driver/Src/stm32g4xx_hal_rcc_ex.c ****   /* Get the ADC12 clock source -----------------------------------------------*/
 640:Drivers/STM32G4xx_HAL_Driver/Src/stm32g4xx_hal_rcc_ex.c ****   PeriphClkInit->Adc12ClockSelection     = __HAL_RCC_GET_ADC12_SOURCE();
 765              		.loc 1 640 3 is_stmt 1 view .LVU259
 766              		.loc 1 640 44 is_stmt 0 view .LVU260
 767 00a6 D3F88820 		ldr	r2, [r3, #136]
 768 00aa 02F04052 		and	r2, r2, #805306368
 769              		.loc 1 640 42 view .LVU261
 770 00ae 4264     		str	r2, [r0, #68]
 641:Drivers/STM32G4xx_HAL_Driver/Src/stm32g4xx_hal_rcc_ex.c **** 
 642:Drivers/STM32G4xx_HAL_Driver/Src/stm32g4xx_hal_rcc_ex.c **** #if defined(ADC345_COMMON)
 643:Drivers/STM32G4xx_HAL_Driver/Src/stm32g4xx_hal_rcc_ex.c ****   /* Get the ADC345 clock source ----------------------------------------------*/
 644:Drivers/STM32G4xx_HAL_Driver/Src/stm32g4xx_hal_rcc_ex.c ****   PeriphClkInit->Adc345ClockSelection     = __HAL_RCC_GET_ADC345_SOURCE();
 771              		.loc 1 644 3 is_stmt 1 view .LVU262
 772              		.loc 1 644 45 is_stmt 0 view .LVU263
 773 00b0 D3F88820 		ldr	r2, [r3, #136]
 774 00b4 02F04042 		and	r2, r2, #-1073741824
 775              		.loc 1 644 43 view .LVU264
 776 00b8 8264     		str	r2, [r0, #72]
 645:Drivers/STM32G4xx_HAL_Driver/Src/stm32g4xx_hal_rcc_ex.c **** #endif /* ADC345_COMMON */
 646:Drivers/STM32G4xx_HAL_Driver/Src/stm32g4xx_hal_rcc_ex.c **** 
 647:Drivers/STM32G4xx_HAL_Driver/Src/stm32g4xx_hal_rcc_ex.c **** #if defined(QUADSPI)
 648:Drivers/STM32G4xx_HAL_Driver/Src/stm32g4xx_hal_rcc_ex.c ****   /* Get the QuadSPIclock source --------------------------------------------*/
 649:Drivers/STM32G4xx_HAL_Driver/Src/stm32g4xx_hal_rcc_ex.c ****   PeriphClkInit->QspiClockSelection = __HAL_RCC_GET_QSPI_SOURCE();
 777              		.loc 1 649 3 is_stmt 1 view .LVU265
 778              		.loc 1 649 39 is_stmt 0 view .LVU266
 779 00ba D3F89C20 		ldr	r2, [r3, #156]
 780 00be 02F44012 		and	r2, r2, #3145728
 781              		.loc 1 649 37 view .LVU267
 782 00c2 C264     		str	r2, [r0, #76]
 650:Drivers/STM32G4xx_HAL_Driver/Src/stm32g4xx_hal_rcc_ex.c **** #endif /* QUADSPI */
 651:Drivers/STM32G4xx_HAL_Driver/Src/stm32g4xx_hal_rcc_ex.c **** 
 652:Drivers/STM32G4xx_HAL_Driver/Src/stm32g4xx_hal_rcc_ex.c ****   /* Get the RTC clock source ------------------------------------------------*/
 653:Drivers/STM32G4xx_HAL_Driver/Src/stm32g4xx_hal_rcc_ex.c ****   PeriphClkInit->RTCClockSelection     = __HAL_RCC_GET_RTC_SOURCE();
 783              		.loc 1 653 3 is_stmt 1 view .LVU268
 784              		.loc 1 653 42 is_stmt 0 view .LVU269
 785 00c4 D3F89030 		ldr	r3, [r3, #144]
 786 00c8 03F44073 		and	r3, r3, #768
 787              		.loc 1 653 40 view .LVU270
 788 00cc 0365     		str	r3, [r0, #80]
 654:Drivers/STM32G4xx_HAL_Driver/Src/stm32g4xx_hal_rcc_ex.c **** 
 655:Drivers/STM32G4xx_HAL_Driver/Src/stm32g4xx_hal_rcc_ex.c **** }
 789              		.loc 1 655 1 view .LVU271
 790 00ce 7047     		bx	lr
 791              	.L52:
 792              		.align	2
 793              	.L51:
 794 00d0 FFFF0F00 		.word	1048575
 795 00d4 00100240 		.word	1073876992
 796              		.cfi_endproc
 797              	.LFE133:
 799              		.section	.text.HAL_RCCEx_GetPeriphCLKFreq,"ax",%progbits
 800              		.align	1
 801              		.global	HAL_RCCEx_GetPeriphCLKFreq
 802              		.syntax unified
 803              		.thumb
 804              		.thumb_func
 806              	HAL_RCCEx_GetPeriphCLKFreq:
ARM GAS  C:\Users\Nathan\AppData\Local\Temp\cc4vJDVg.s 			page 27


 807              	.LVL27:
 808              	.LFB134:
 656:Drivers/STM32G4xx_HAL_Driver/Src/stm32g4xx_hal_rcc_ex.c **** 
 657:Drivers/STM32G4xx_HAL_Driver/Src/stm32g4xx_hal_rcc_ex.c **** /**
 658:Drivers/STM32G4xx_HAL_Driver/Src/stm32g4xx_hal_rcc_ex.c ****   * @brief  Return the peripheral clock frequency for peripherals with clock source from PLL
 659:Drivers/STM32G4xx_HAL_Driver/Src/stm32g4xx_hal_rcc_ex.c ****   * @note   Return 0 if peripheral clock identifier not managed by this API
 660:Drivers/STM32G4xx_HAL_Driver/Src/stm32g4xx_hal_rcc_ex.c ****   * @param  PeriphClk  Peripheral clock identifier
 661:Drivers/STM32G4xx_HAL_Driver/Src/stm32g4xx_hal_rcc_ex.c ****   *         This parameter can be one of the following values:
 662:Drivers/STM32G4xx_HAL_Driver/Src/stm32g4xx_hal_rcc_ex.c ****   *            @arg @ref RCC_PERIPHCLK_USART1  USART1 peripheral clock
 663:Drivers/STM32G4xx_HAL_Driver/Src/stm32g4xx_hal_rcc_ex.c ****   *            @arg @ref RCC_PERIPHCLK_USART2  USART2 peripheral clock
 664:Drivers/STM32G4xx_HAL_Driver/Src/stm32g4xx_hal_rcc_ex.c ****   *            @arg @ref RCC_PERIPHCLK_USART3  USART3 peripheral clock
 665:Drivers/STM32G4xx_HAL_Driver/Src/stm32g4xx_hal_rcc_ex.c ****   *            @arg @ref RCC_PERIPHCLK_UART4  UART4 peripheral clock (only for devices with UART4)
 666:Drivers/STM32G4xx_HAL_Driver/Src/stm32g4xx_hal_rcc_ex.c ****   *            @arg @ref RCC_PERIPHCLK_UART5  UART5 peripheral clock (only for devices with UART5)
 667:Drivers/STM32G4xx_HAL_Driver/Src/stm32g4xx_hal_rcc_ex.c ****   *            @arg @ref RCC_PERIPHCLK_LPUART1  LPUART1 peripheral clock
 668:Drivers/STM32G4xx_HAL_Driver/Src/stm32g4xx_hal_rcc_ex.c ****   *            @arg @ref RCC_PERIPHCLK_I2C1  I2C1 peripheral clock
 669:Drivers/STM32G4xx_HAL_Driver/Src/stm32g4xx_hal_rcc_ex.c ****   *            @arg @ref RCC_PERIPHCLK_I2C2  I2C2 peripheral clock
 670:Drivers/STM32G4xx_HAL_Driver/Src/stm32g4xx_hal_rcc_ex.c ****   *            @arg @ref RCC_PERIPHCLK_I2C3  I2C3 peripheral clock
 671:Drivers/STM32G4xx_HAL_Driver/Src/stm32g4xx_hal_rcc_ex.c ****   *            @arg @ref RCC_PERIPHCLK_I2C4  I2C4 peripheral clock (only for devices with I2C4)
 672:Drivers/STM32G4xx_HAL_Driver/Src/stm32g4xx_hal_rcc_ex.c ****   *            @arg @ref RCC_PERIPHCLK_LPTIM1  LPTIM1 peripheral clock
 673:Drivers/STM32G4xx_HAL_Driver/Src/stm32g4xx_hal_rcc_ex.c ****   *            @arg @ref RCC_PERIPHCLK_SAI1  SAI1 peripheral clock
 674:Drivers/STM32G4xx_HAL_Driver/Src/stm32g4xx_hal_rcc_ex.c ****   *            @arg @ref RCC_PERIPHCLK_I2S  SPI peripheral clock
 675:Drivers/STM32G4xx_HAL_Driver/Src/stm32g4xx_hal_rcc_ex.c ****   *            @arg @ref RCC_PERIPHCLK_FDCAN  FDCAN peripheral clock (only for devices with FDCAN)
 676:Drivers/STM32G4xx_HAL_Driver/Src/stm32g4xx_hal_rcc_ex.c ****   *            @arg @ref RCC_PERIPHCLK_RNG  RNG peripheral clock
 677:Drivers/STM32G4xx_HAL_Driver/Src/stm32g4xx_hal_rcc_ex.c ****   *            @arg @ref RCC_PERIPHCLK_USB  USB peripheral clock (only for devices with USB)
 678:Drivers/STM32G4xx_HAL_Driver/Src/stm32g4xx_hal_rcc_ex.c ****   *            @arg @ref RCC_PERIPHCLK_ADC12  ADC1 and ADC2 peripheral clock
 679:Drivers/STM32G4xx_HAL_Driver/Src/stm32g4xx_hal_rcc_ex.c ****   *            @arg @ref RCC_PERIPHCLK_ADC345  ADC3, ADC4 and ADC5 peripheral clock (only for devic
 680:Drivers/STM32G4xx_HAL_Driver/Src/stm32g4xx_hal_rcc_ex.c ****   *            @arg @ref RCC_PERIPHCLK_QSPI  QSPI peripheral clock (only for devices with QSPI)
 681:Drivers/STM32G4xx_HAL_Driver/Src/stm32g4xx_hal_rcc_ex.c ****   *            @arg @ref RCC_PERIPHCLK_RTC  RTC peripheral clock
 682:Drivers/STM32G4xx_HAL_Driver/Src/stm32g4xx_hal_rcc_ex.c ****   * @retval Frequency in Hz
 683:Drivers/STM32G4xx_HAL_Driver/Src/stm32g4xx_hal_rcc_ex.c ****   */
 684:Drivers/STM32G4xx_HAL_Driver/Src/stm32g4xx_hal_rcc_ex.c **** uint32_t HAL_RCCEx_GetPeriphCLKFreq(uint32_t PeriphClk)
 685:Drivers/STM32G4xx_HAL_Driver/Src/stm32g4xx_hal_rcc_ex.c **** {
 809              		.loc 1 685 1 is_stmt 1 view -0
 810              		.cfi_startproc
 811              		@ args = 0, pretend = 0, frame = 0
 812              		@ frame_needed = 0, uses_anonymous_args = 0
 813              		.loc 1 685 1 is_stmt 0 view .LVU273
 814 0000 08B5     		push	{r3, lr}
 815              		.cfi_def_cfa_offset 8
 816              		.cfi_offset 3, -8
 817              		.cfi_offset 14, -4
 686:Drivers/STM32G4xx_HAL_Driver/Src/stm32g4xx_hal_rcc_ex.c ****   uint32_t frequency = 0U;
 818              		.loc 1 686 3 is_stmt 1 view .LVU274
 819              	.LVL28:
 687:Drivers/STM32G4xx_HAL_Driver/Src/stm32g4xx_hal_rcc_ex.c ****   uint32_t srcclk;
 820              		.loc 1 687 3 view .LVU275
 688:Drivers/STM32G4xx_HAL_Driver/Src/stm32g4xx_hal_rcc_ex.c ****   uint32_t pllvco, plln, pllp;
 821              		.loc 1 688 3 view .LVU276
 689:Drivers/STM32G4xx_HAL_Driver/Src/stm32g4xx_hal_rcc_ex.c **** 
 690:Drivers/STM32G4xx_HAL_Driver/Src/stm32g4xx_hal_rcc_ex.c ****   /* Check the parameters */
 691:Drivers/STM32G4xx_HAL_Driver/Src/stm32g4xx_hal_rcc_ex.c ****   assert_param(IS_RCC_PERIPHCLOCK(PeriphClk));
 822              		.loc 1 691 3 view .LVU277
 692:Drivers/STM32G4xx_HAL_Driver/Src/stm32g4xx_hal_rcc_ex.c **** 
 693:Drivers/STM32G4xx_HAL_Driver/Src/stm32g4xx_hal_rcc_ex.c ****   if(PeriphClk == RCC_PERIPHCLK_RTC)
 823              		.loc 1 693 3 view .LVU278
 824              		.loc 1 693 5 is_stmt 0 view .LVU279
 825 0002 B0F5002F 		cmp	r0, #524288
ARM GAS  C:\Users\Nathan\AppData\Local\Temp\cc4vJDVg.s 			page 28


 826 0006 43D0     		beq	.L166
 694:Drivers/STM32G4xx_HAL_Driver/Src/stm32g4xx_hal_rcc_ex.c ****   {
 695:Drivers/STM32G4xx_HAL_Driver/Src/stm32g4xx_hal_rcc_ex.c ****     /* Get the current RTC source */
 696:Drivers/STM32G4xx_HAL_Driver/Src/stm32g4xx_hal_rcc_ex.c ****     srcclk = __HAL_RCC_GET_RTC_SOURCE();
 697:Drivers/STM32G4xx_HAL_Driver/Src/stm32g4xx_hal_rcc_ex.c **** 
 698:Drivers/STM32G4xx_HAL_Driver/Src/stm32g4xx_hal_rcc_ex.c ****     /* Check if LSE is ready and if RTC clock selection is LSE */
 699:Drivers/STM32G4xx_HAL_Driver/Src/stm32g4xx_hal_rcc_ex.c ****     if ((HAL_IS_BIT_SET(RCC->BDCR, RCC_BDCR_LSERDY)) && (srcclk == RCC_RTCCLKSOURCE_LSE))
 700:Drivers/STM32G4xx_HAL_Driver/Src/stm32g4xx_hal_rcc_ex.c ****     {
 701:Drivers/STM32G4xx_HAL_Driver/Src/stm32g4xx_hal_rcc_ex.c ****       frequency = LSE_VALUE;
 702:Drivers/STM32G4xx_HAL_Driver/Src/stm32g4xx_hal_rcc_ex.c ****     }
 703:Drivers/STM32G4xx_HAL_Driver/Src/stm32g4xx_hal_rcc_ex.c ****     /* Check if LSI is ready and if RTC clock selection is LSI */
 704:Drivers/STM32G4xx_HAL_Driver/Src/stm32g4xx_hal_rcc_ex.c ****     else if ((HAL_IS_BIT_SET(RCC->CSR, RCC_CSR_LSIRDY)) && (srcclk == RCC_RTCCLKSOURCE_LSI))
 705:Drivers/STM32G4xx_HAL_Driver/Src/stm32g4xx_hal_rcc_ex.c ****     {
 706:Drivers/STM32G4xx_HAL_Driver/Src/stm32g4xx_hal_rcc_ex.c ****       frequency = LSI_VALUE;
 707:Drivers/STM32G4xx_HAL_Driver/Src/stm32g4xx_hal_rcc_ex.c ****     }
 708:Drivers/STM32G4xx_HAL_Driver/Src/stm32g4xx_hal_rcc_ex.c ****     /* Check if HSE is ready  and if RTC clock selection is HSI_DIV32*/
 709:Drivers/STM32G4xx_HAL_Driver/Src/stm32g4xx_hal_rcc_ex.c ****     else if ((HAL_IS_BIT_SET(RCC->CR, RCC_CR_HSERDY)) && (srcclk == RCC_RTCCLKSOURCE_HSE_DIV32))
 710:Drivers/STM32G4xx_HAL_Driver/Src/stm32g4xx_hal_rcc_ex.c ****     {
 711:Drivers/STM32G4xx_HAL_Driver/Src/stm32g4xx_hal_rcc_ex.c ****       frequency = HSE_VALUE / 32U;
 712:Drivers/STM32G4xx_HAL_Driver/Src/stm32g4xx_hal_rcc_ex.c ****     }
 713:Drivers/STM32G4xx_HAL_Driver/Src/stm32g4xx_hal_rcc_ex.c ****     /* Clock not enabled for RTC*/
 714:Drivers/STM32G4xx_HAL_Driver/Src/stm32g4xx_hal_rcc_ex.c ****     else
 715:Drivers/STM32G4xx_HAL_Driver/Src/stm32g4xx_hal_rcc_ex.c ****     {
 716:Drivers/STM32G4xx_HAL_Driver/Src/stm32g4xx_hal_rcc_ex.c ****       /* nothing to do: frequency already initialized to 0 */
 717:Drivers/STM32G4xx_HAL_Driver/Src/stm32g4xx_hal_rcc_ex.c ****     }
 718:Drivers/STM32G4xx_HAL_Driver/Src/stm32g4xx_hal_rcc_ex.c ****   }
 719:Drivers/STM32G4xx_HAL_Driver/Src/stm32g4xx_hal_rcc_ex.c ****   else
 720:Drivers/STM32G4xx_HAL_Driver/Src/stm32g4xx_hal_rcc_ex.c ****   {
 721:Drivers/STM32G4xx_HAL_Driver/Src/stm32g4xx_hal_rcc_ex.c ****     /* Other external peripheral clock source than RTC */
 722:Drivers/STM32G4xx_HAL_Driver/Src/stm32g4xx_hal_rcc_ex.c **** 
 723:Drivers/STM32G4xx_HAL_Driver/Src/stm32g4xx_hal_rcc_ex.c ****     /* Compute PLL clock input */
 724:Drivers/STM32G4xx_HAL_Driver/Src/stm32g4xx_hal_rcc_ex.c ****     if(__HAL_RCC_GET_PLL_OSCSOURCE() == RCC_PLLSOURCE_HSI)   /* HSI ? */
 827              		.loc 1 724 5 is_stmt 1 view .LVU280
 828              		.loc 1 724 8 is_stmt 0 view .LVU281
 829 0008 A84B     		ldr	r3, .L210
 830 000a DB68     		ldr	r3, [r3, #12]
 831 000c 03F00303 		and	r3, r3, #3
 832              		.loc 1 724 7 view .LVU282
 833 0010 022B     		cmp	r3, #2
 834 0012 61D0     		beq	.L167
 725:Drivers/STM32G4xx_HAL_Driver/Src/stm32g4xx_hal_rcc_ex.c ****     {
 726:Drivers/STM32G4xx_HAL_Driver/Src/stm32g4xx_hal_rcc_ex.c ****       if(HAL_IS_BIT_SET(RCC->CR, RCC_CR_HSIRDY))
 727:Drivers/STM32G4xx_HAL_Driver/Src/stm32g4xx_hal_rcc_ex.c ****       {
 728:Drivers/STM32G4xx_HAL_Driver/Src/stm32g4xx_hal_rcc_ex.c ****         pllvco = HSI_VALUE;
 729:Drivers/STM32G4xx_HAL_Driver/Src/stm32g4xx_hal_rcc_ex.c ****       }
 730:Drivers/STM32G4xx_HAL_Driver/Src/stm32g4xx_hal_rcc_ex.c ****       else
 731:Drivers/STM32G4xx_HAL_Driver/Src/stm32g4xx_hal_rcc_ex.c ****       {
 732:Drivers/STM32G4xx_HAL_Driver/Src/stm32g4xx_hal_rcc_ex.c ****         pllvco = 0U;
 733:Drivers/STM32G4xx_HAL_Driver/Src/stm32g4xx_hal_rcc_ex.c ****       }
 734:Drivers/STM32G4xx_HAL_Driver/Src/stm32g4xx_hal_rcc_ex.c ****     }
 735:Drivers/STM32G4xx_HAL_Driver/Src/stm32g4xx_hal_rcc_ex.c ****     else if(__HAL_RCC_GET_PLL_OSCSOURCE() == RCC_PLLSOURCE_HSE)   /* HSE ? */
 835              		.loc 1 735 10 is_stmt 1 view .LVU283
 836              		.loc 1 735 13 is_stmt 0 view .LVU284
 837 0014 A54B     		ldr	r3, .L210
 838 0016 DB68     		ldr	r3, [r3, #12]
 839 0018 03F00303 		and	r3, r3, #3
 840              		.loc 1 735 12 view .LVU285
ARM GAS  C:\Users\Nathan\AppData\Local\Temp\cc4vJDVg.s 			page 29


 841 001c 032B     		cmp	r3, #3
 842 001e 62D0     		beq	.L168
 736:Drivers/STM32G4xx_HAL_Driver/Src/stm32g4xx_hal_rcc_ex.c ****     {
 737:Drivers/STM32G4xx_HAL_Driver/Src/stm32g4xx_hal_rcc_ex.c ****       if(HAL_IS_BIT_SET(RCC->CR, RCC_CR_HSERDY))
 738:Drivers/STM32G4xx_HAL_Driver/Src/stm32g4xx_hal_rcc_ex.c ****       {
 739:Drivers/STM32G4xx_HAL_Driver/Src/stm32g4xx_hal_rcc_ex.c ****         pllvco = HSE_VALUE;
 740:Drivers/STM32G4xx_HAL_Driver/Src/stm32g4xx_hal_rcc_ex.c ****       }
 741:Drivers/STM32G4xx_HAL_Driver/Src/stm32g4xx_hal_rcc_ex.c ****       else
 742:Drivers/STM32G4xx_HAL_Driver/Src/stm32g4xx_hal_rcc_ex.c ****       {
 743:Drivers/STM32G4xx_HAL_Driver/Src/stm32g4xx_hal_rcc_ex.c ****         pllvco = 0U;
 744:Drivers/STM32G4xx_HAL_Driver/Src/stm32g4xx_hal_rcc_ex.c ****       }
 745:Drivers/STM32G4xx_HAL_Driver/Src/stm32g4xx_hal_rcc_ex.c ****     }
 746:Drivers/STM32G4xx_HAL_Driver/Src/stm32g4xx_hal_rcc_ex.c ****     else /* No source */
 747:Drivers/STM32G4xx_HAL_Driver/Src/stm32g4xx_hal_rcc_ex.c ****     {
 748:Drivers/STM32G4xx_HAL_Driver/Src/stm32g4xx_hal_rcc_ex.c ****       pllvco = 0U;
 843              		.loc 1 748 14 view .LVU286
 844 0020 0022     		movs	r2, #0
 845              	.L59:
 846              	.LVL29:
 749:Drivers/STM32G4xx_HAL_Driver/Src/stm32g4xx_hal_rcc_ex.c ****     }
 750:Drivers/STM32G4xx_HAL_Driver/Src/stm32g4xx_hal_rcc_ex.c **** 
 751:Drivers/STM32G4xx_HAL_Driver/Src/stm32g4xx_hal_rcc_ex.c ****     /* f(PLL Source) / PLLM */
 752:Drivers/STM32G4xx_HAL_Driver/Src/stm32g4xx_hal_rcc_ex.c ****     pllvco = (pllvco / ((READ_BIT(RCC->PLLCFGR, RCC_PLLCFGR_PLLM) >> RCC_PLLCFGR_PLLM_Pos) + 1U));
 847              		.loc 1 752 5 is_stmt 1 view .LVU287
 848              		.loc 1 752 26 is_stmt 0 view .LVU288
 849 0022 A24B     		ldr	r3, .L210
 850 0024 DB68     		ldr	r3, [r3, #12]
 851              		.loc 1 752 67 view .LVU289
 852 0026 C3F30313 		ubfx	r3, r3, #4, #4
 853              		.loc 1 752 92 view .LVU290
 854 002a 0133     		adds	r3, r3, #1
 855              		.loc 1 752 12 view .LVU291
 856 002c B2FBF3F2 		udiv	r2, r2, r3
 857              	.LVL30:
 753:Drivers/STM32G4xx_HAL_Driver/Src/stm32g4xx_hal_rcc_ex.c **** 
 754:Drivers/STM32G4xx_HAL_Driver/Src/stm32g4xx_hal_rcc_ex.c ****     switch(PeriphClk)
 858              		.loc 1 754 5 is_stmt 1 view .LVU292
 859 0030 B0F5007F 		cmp	r0, #512
 860 0034 00F02982 		beq	.L60
 861 0038 7ED8     		bhi	.L61
 862 003a 2028     		cmp	r0, #32
 863 003c 5AD8     		bhi	.L62
 864 003e 0028     		cmp	r0, #0
 865 0040 00F05883 		beq	.L130
 866 0044 0138     		subs	r0, r0, #1
 867              	.LVL31:
 868              		.loc 1 754 5 is_stmt 0 view .LVU293
 869 0046 1F28     		cmp	r0, #31
 870 0048 00F25683 		bhi	.L131
 871 004c DFE810F0 		tbh	[pc, r0, lsl #1]
 872              	.L64:
 873 0050 F000     		.2byte	(.L69-.L64)/2
 874 0052 1201     		.2byte	(.L68-.L64)/2
 875 0054 5403     		.2byte	(.L131-.L64)/2
 876 0056 3A01     		.2byte	(.L67-.L64)/2
 877 0058 5403     		.2byte	(.L131-.L64)/2
 878 005a 5403     		.2byte	(.L131-.L64)/2
ARM GAS  C:\Users\Nathan\AppData\Local\Temp\cc4vJDVg.s 			page 30


 879 005c 5403     		.2byte	(.L131-.L64)/2
 880 005e 5C01     		.2byte	(.L66-.L64)/2
 881 0060 5403     		.2byte	(.L131-.L64)/2
 882 0062 5403     		.2byte	(.L131-.L64)/2
 883 0064 5403     		.2byte	(.L131-.L64)/2
 884 0066 5403     		.2byte	(.L131-.L64)/2
 885 0068 5403     		.2byte	(.L131-.L64)/2
 886 006a 5403     		.2byte	(.L131-.L64)/2
 887 006c 5403     		.2byte	(.L131-.L64)/2
 888 006e 7E01     		.2byte	(.L65-.L64)/2
 889 0070 5403     		.2byte	(.L131-.L64)/2
 890 0072 5403     		.2byte	(.L131-.L64)/2
 891 0074 5403     		.2byte	(.L131-.L64)/2
 892 0076 5403     		.2byte	(.L131-.L64)/2
 893 0078 5403     		.2byte	(.L131-.L64)/2
 894 007a 5403     		.2byte	(.L131-.L64)/2
 895 007c 5403     		.2byte	(.L131-.L64)/2
 896 007e 5403     		.2byte	(.L131-.L64)/2
 897 0080 5403     		.2byte	(.L131-.L64)/2
 898 0082 5403     		.2byte	(.L131-.L64)/2
 899 0084 5403     		.2byte	(.L131-.L64)/2
 900 0086 5403     		.2byte	(.L131-.L64)/2
 901 0088 5403     		.2byte	(.L131-.L64)/2
 902 008a 5403     		.2byte	(.L131-.L64)/2
 903 008c 5403     		.2byte	(.L131-.L64)/2
 904 008e A301     		.2byte	(.L63-.L64)/2
 905              	.LVL32:
 906              		.p2align 1
 907              	.L166:
 696:Drivers/STM32G4xx_HAL_Driver/Src/stm32g4xx_hal_rcc_ex.c **** 
 908              		.loc 1 696 5 is_stmt 1 view .LVU294
 696:Drivers/STM32G4xx_HAL_Driver/Src/stm32g4xx_hal_rcc_ex.c **** 
 909              		.loc 1 696 14 is_stmt 0 view .LVU295
 910 0090 864A     		ldr	r2, .L210
 911 0092 D2F89030 		ldr	r3, [r2, #144]
 696:Drivers/STM32G4xx_HAL_Driver/Src/stm32g4xx_hal_rcc_ex.c **** 
 912              		.loc 1 696 12 view .LVU296
 913 0096 03F44073 		and	r3, r3, #768
 914              	.LVL33:
 699:Drivers/STM32G4xx_HAL_Driver/Src/stm32g4xx_hal_rcc_ex.c ****     {
 915              		.loc 1 699 5 is_stmt 1 view .LVU297
 699:Drivers/STM32G4xx_HAL_Driver/Src/stm32g4xx_hal_rcc_ex.c ****     {
 916              		.loc 1 699 10 is_stmt 0 view .LVU298
 917 009a D2F89020 		ldr	r2, [r2, #144]
 699:Drivers/STM32G4xx_HAL_Driver/Src/stm32g4xx_hal_rcc_ex.c ****     {
 918              		.loc 1 699 8 view .LVU299
 919 009e 12F0020F 		tst	r2, #2
 920 00a2 03D0     		beq	.L55
 699:Drivers/STM32G4xx_HAL_Driver/Src/stm32g4xx_hal_rcc_ex.c ****     {
 921              		.loc 1 699 54 discriminator 1 view .LVU300
 922 00a4 B3F5807F 		cmp	r3, #256
 923 00a8 00F01C83 		beq	.L126
 924              	.L55:
 704:Drivers/STM32G4xx_HAL_Driver/Src/stm32g4xx_hal_rcc_ex.c ****     {
 925              		.loc 1 704 10 is_stmt 1 view .LVU301
 704:Drivers/STM32G4xx_HAL_Driver/Src/stm32g4xx_hal_rcc_ex.c ****     {
 926              		.loc 1 704 15 is_stmt 0 view .LVU302
ARM GAS  C:\Users\Nathan\AppData\Local\Temp\cc4vJDVg.s 			page 31


 927 00ac 7F4A     		ldr	r2, .L210
 928 00ae D2F89420 		ldr	r2, [r2, #148]
 704:Drivers/STM32G4xx_HAL_Driver/Src/stm32g4xx_hal_rcc_ex.c ****     {
 929              		.loc 1 704 13 view .LVU303
 930 00b2 12F0020F 		tst	r2, #2
 931 00b6 03D0     		beq	.L57
 704:Drivers/STM32G4xx_HAL_Driver/Src/stm32g4xx_hal_rcc_ex.c ****     {
 932              		.loc 1 704 57 discriminator 1 view .LVU304
 933 00b8 B3F5007F 		cmp	r3, #512
 934 00bc 00F01583 		beq	.L127
 935              	.L57:
 709:Drivers/STM32G4xx_HAL_Driver/Src/stm32g4xx_hal_rcc_ex.c ****     {
 936              		.loc 1 709 10 is_stmt 1 view .LVU305
 709:Drivers/STM32G4xx_HAL_Driver/Src/stm32g4xx_hal_rcc_ex.c ****     {
 937              		.loc 1 709 15 is_stmt 0 view .LVU306
 938 00c0 7A4A     		ldr	r2, .L210
 939 00c2 1068     		ldr	r0, [r2]
 940              	.LVL34:
 709:Drivers/STM32G4xx_HAL_Driver/Src/stm32g4xx_hal_rcc_ex.c ****     {
 941              		.loc 1 709 13 view .LVU307
 942 00c4 10F40030 		ands	r0, r0, #131072
 943 00c8 00F01783 		beq	.L53
 709:Drivers/STM32G4xx_HAL_Driver/Src/stm32g4xx_hal_rcc_ex.c ****     {
 944              		.loc 1 709 55 discriminator 1 view .LVU308
 945 00cc B3F5407F 		cmp	r3, #768
 946 00d0 00F00E83 		beq	.L128
 686:Drivers/STM32G4xx_HAL_Driver/Src/stm32g4xx_hal_rcc_ex.c ****   uint32_t srcclk;
 947              		.loc 1 686 12 view .LVU309
 948 00d4 0020     		movs	r0, #0
 949 00d6 10E3     		b	.L53
 950              	.LVL35:
 951              	.L167:
 726:Drivers/STM32G4xx_HAL_Driver/Src/stm32g4xx_hal_rcc_ex.c ****       {
 952              		.loc 1 726 7 is_stmt 1 view .LVU310
 726:Drivers/STM32G4xx_HAL_Driver/Src/stm32g4xx_hal_rcc_ex.c ****       {
 953              		.loc 1 726 10 is_stmt 0 view .LVU311
 954 00d8 744B     		ldr	r3, .L210
 955 00da 1A68     		ldr	r2, [r3]
 726:Drivers/STM32G4xx_HAL_Driver/Src/stm32g4xx_hal_rcc_ex.c ****       {
 956              		.loc 1 726 9 view .LVU312
 957 00dc 12F48062 		ands	r2, r2, #1024
 958 00e0 9FD0     		beq	.L59
 728:Drivers/STM32G4xx_HAL_Driver/Src/stm32g4xx_hal_rcc_ex.c ****       }
 959              		.loc 1 728 16 view .LVU313
 960 00e2 734A     		ldr	r2, .L210+4
 961 00e4 9DE7     		b	.L59
 962              	.L168:
 737:Drivers/STM32G4xx_HAL_Driver/Src/stm32g4xx_hal_rcc_ex.c ****       {
 963              		.loc 1 737 7 is_stmt 1 view .LVU314
 737:Drivers/STM32G4xx_HAL_Driver/Src/stm32g4xx_hal_rcc_ex.c ****       {
 964              		.loc 1 737 10 is_stmt 0 view .LVU315
 965 00e6 714B     		ldr	r3, .L210
 966 00e8 1A68     		ldr	r2, [r3]
 737:Drivers/STM32G4xx_HAL_Driver/Src/stm32g4xx_hal_rcc_ex.c ****       {
 967              		.loc 1 737 9 view .LVU316
 968 00ea 12F40032 		ands	r2, r2, #131072
 969 00ee 98D0     		beq	.L59
ARM GAS  C:\Users\Nathan\AppData\Local\Temp\cc4vJDVg.s 			page 32


 739:Drivers/STM32G4xx_HAL_Driver/Src/stm32g4xx_hal_rcc_ex.c ****       }
 970              		.loc 1 739 16 view .LVU317
 971 00f0 704A     		ldr	r2, .L210+8
 972 00f2 96E7     		b	.L59
 973              	.LVL36:
 974              	.L62:
 975              		.loc 1 754 5 view .LVU318
 976 00f4 8028     		cmp	r0, #128
 977 00f6 00F07981 		beq	.L70
 978 00fa B0F5807F 		cmp	r0, #256
 979 00fe 00F09081 		beq	.L71
 980 0102 4028     		cmp	r0, #64
 981 0104 16D1     		bne	.L169
 755:Drivers/STM32G4xx_HAL_Driver/Src/stm32g4xx_hal_rcc_ex.c ****     {
 756:Drivers/STM32G4xx_HAL_Driver/Src/stm32g4xx_hal_rcc_ex.c **** 
 757:Drivers/STM32G4xx_HAL_Driver/Src/stm32g4xx_hal_rcc_ex.c ****     case RCC_PERIPHCLK_USART1:
 758:Drivers/STM32G4xx_HAL_Driver/Src/stm32g4xx_hal_rcc_ex.c ****       /* Get the current USART1 source */
 759:Drivers/STM32G4xx_HAL_Driver/Src/stm32g4xx_hal_rcc_ex.c ****       srcclk = __HAL_RCC_GET_USART1_SOURCE();
 760:Drivers/STM32G4xx_HAL_Driver/Src/stm32g4xx_hal_rcc_ex.c **** 
 761:Drivers/STM32G4xx_HAL_Driver/Src/stm32g4xx_hal_rcc_ex.c ****       if(srcclk == RCC_USART1CLKSOURCE_PCLK2)
 762:Drivers/STM32G4xx_HAL_Driver/Src/stm32g4xx_hal_rcc_ex.c ****       {
 763:Drivers/STM32G4xx_HAL_Driver/Src/stm32g4xx_hal_rcc_ex.c ****         frequency = HAL_RCC_GetPCLK2Freq();
 764:Drivers/STM32G4xx_HAL_Driver/Src/stm32g4xx_hal_rcc_ex.c ****       }
 765:Drivers/STM32G4xx_HAL_Driver/Src/stm32g4xx_hal_rcc_ex.c ****       else if(srcclk == RCC_USART1CLKSOURCE_SYSCLK)
 766:Drivers/STM32G4xx_HAL_Driver/Src/stm32g4xx_hal_rcc_ex.c ****       {
 767:Drivers/STM32G4xx_HAL_Driver/Src/stm32g4xx_hal_rcc_ex.c ****         frequency = HAL_RCC_GetSysClockFreq();
 768:Drivers/STM32G4xx_HAL_Driver/Src/stm32g4xx_hal_rcc_ex.c ****       }
 769:Drivers/STM32G4xx_HAL_Driver/Src/stm32g4xx_hal_rcc_ex.c ****       else if((HAL_IS_BIT_SET(RCC->CR, RCC_CR_HSIRDY)) && (srcclk == RCC_USART1CLKSOURCE_HSI) )
 770:Drivers/STM32G4xx_HAL_Driver/Src/stm32g4xx_hal_rcc_ex.c ****       {
 771:Drivers/STM32G4xx_HAL_Driver/Src/stm32g4xx_hal_rcc_ex.c ****         frequency = HSI_VALUE;
 772:Drivers/STM32G4xx_HAL_Driver/Src/stm32g4xx_hal_rcc_ex.c ****       }
 773:Drivers/STM32G4xx_HAL_Driver/Src/stm32g4xx_hal_rcc_ex.c ****       else if((HAL_IS_BIT_SET(RCC->BDCR, RCC_BDCR_LSERDY)) && (srcclk == RCC_USART1CLKSOURCE_LSE))
 774:Drivers/STM32G4xx_HAL_Driver/Src/stm32g4xx_hal_rcc_ex.c ****       {
 775:Drivers/STM32G4xx_HAL_Driver/Src/stm32g4xx_hal_rcc_ex.c ****         frequency = LSE_VALUE;
 776:Drivers/STM32G4xx_HAL_Driver/Src/stm32g4xx_hal_rcc_ex.c ****       }
 777:Drivers/STM32G4xx_HAL_Driver/Src/stm32g4xx_hal_rcc_ex.c ****       /* Clock not enabled for USART1 */
 778:Drivers/STM32G4xx_HAL_Driver/Src/stm32g4xx_hal_rcc_ex.c ****       else
 779:Drivers/STM32G4xx_HAL_Driver/Src/stm32g4xx_hal_rcc_ex.c ****       {
 780:Drivers/STM32G4xx_HAL_Driver/Src/stm32g4xx_hal_rcc_ex.c ****         /* nothing to do: frequency already initialized to 0 */
 781:Drivers/STM32G4xx_HAL_Driver/Src/stm32g4xx_hal_rcc_ex.c ****       }
 782:Drivers/STM32G4xx_HAL_Driver/Src/stm32g4xx_hal_rcc_ex.c ****       break;
 783:Drivers/STM32G4xx_HAL_Driver/Src/stm32g4xx_hal_rcc_ex.c **** 
 784:Drivers/STM32G4xx_HAL_Driver/Src/stm32g4xx_hal_rcc_ex.c ****     case RCC_PERIPHCLK_USART2:
 785:Drivers/STM32G4xx_HAL_Driver/Src/stm32g4xx_hal_rcc_ex.c ****       /* Get the current USART2 source */
 786:Drivers/STM32G4xx_HAL_Driver/Src/stm32g4xx_hal_rcc_ex.c ****       srcclk = __HAL_RCC_GET_USART2_SOURCE();
 787:Drivers/STM32G4xx_HAL_Driver/Src/stm32g4xx_hal_rcc_ex.c **** 
 788:Drivers/STM32G4xx_HAL_Driver/Src/stm32g4xx_hal_rcc_ex.c ****       if(srcclk == RCC_USART2CLKSOURCE_PCLK1)
 789:Drivers/STM32G4xx_HAL_Driver/Src/stm32g4xx_hal_rcc_ex.c ****       {
 790:Drivers/STM32G4xx_HAL_Driver/Src/stm32g4xx_hal_rcc_ex.c ****         frequency = HAL_RCC_GetPCLK1Freq();
 791:Drivers/STM32G4xx_HAL_Driver/Src/stm32g4xx_hal_rcc_ex.c ****       }
 792:Drivers/STM32G4xx_HAL_Driver/Src/stm32g4xx_hal_rcc_ex.c ****       else if(srcclk == RCC_USART2CLKSOURCE_SYSCLK)
 793:Drivers/STM32G4xx_HAL_Driver/Src/stm32g4xx_hal_rcc_ex.c ****       {
 794:Drivers/STM32G4xx_HAL_Driver/Src/stm32g4xx_hal_rcc_ex.c ****         frequency = HAL_RCC_GetSysClockFreq();
 795:Drivers/STM32G4xx_HAL_Driver/Src/stm32g4xx_hal_rcc_ex.c ****       }
 796:Drivers/STM32G4xx_HAL_Driver/Src/stm32g4xx_hal_rcc_ex.c ****       else if((HAL_IS_BIT_SET(RCC->CR, RCC_CR_HSIRDY)) && (srcclk == RCC_USART2CLKSOURCE_HSI))
 797:Drivers/STM32G4xx_HAL_Driver/Src/stm32g4xx_hal_rcc_ex.c ****       {
 798:Drivers/STM32G4xx_HAL_Driver/Src/stm32g4xx_hal_rcc_ex.c ****         frequency = HSI_VALUE;
ARM GAS  C:\Users\Nathan\AppData\Local\Temp\cc4vJDVg.s 			page 33


 799:Drivers/STM32G4xx_HAL_Driver/Src/stm32g4xx_hal_rcc_ex.c ****       }
 800:Drivers/STM32G4xx_HAL_Driver/Src/stm32g4xx_hal_rcc_ex.c ****       else if((HAL_IS_BIT_SET(RCC->BDCR, RCC_BDCR_LSERDY))  && (srcclk == RCC_USART2CLKSOURCE_LSE))
 801:Drivers/STM32G4xx_HAL_Driver/Src/stm32g4xx_hal_rcc_ex.c ****       {
 802:Drivers/STM32G4xx_HAL_Driver/Src/stm32g4xx_hal_rcc_ex.c ****         frequency = LSE_VALUE;
 803:Drivers/STM32G4xx_HAL_Driver/Src/stm32g4xx_hal_rcc_ex.c ****       }
 804:Drivers/STM32G4xx_HAL_Driver/Src/stm32g4xx_hal_rcc_ex.c ****       /* Clock not enabled for USART2 */
 805:Drivers/STM32G4xx_HAL_Driver/Src/stm32g4xx_hal_rcc_ex.c ****       else
 806:Drivers/STM32G4xx_HAL_Driver/Src/stm32g4xx_hal_rcc_ex.c ****       {
 807:Drivers/STM32G4xx_HAL_Driver/Src/stm32g4xx_hal_rcc_ex.c ****         /* nothing to do: frequency already initialized to 0 */
 808:Drivers/STM32G4xx_HAL_Driver/Src/stm32g4xx_hal_rcc_ex.c ****       }
 809:Drivers/STM32G4xx_HAL_Driver/Src/stm32g4xx_hal_rcc_ex.c ****       break;
 810:Drivers/STM32G4xx_HAL_Driver/Src/stm32g4xx_hal_rcc_ex.c **** 
 811:Drivers/STM32G4xx_HAL_Driver/Src/stm32g4xx_hal_rcc_ex.c **** #if defined(USART3)
 812:Drivers/STM32G4xx_HAL_Driver/Src/stm32g4xx_hal_rcc_ex.c ****     case RCC_PERIPHCLK_USART3:
 813:Drivers/STM32G4xx_HAL_Driver/Src/stm32g4xx_hal_rcc_ex.c ****       /* Get the current USART3 source */
 814:Drivers/STM32G4xx_HAL_Driver/Src/stm32g4xx_hal_rcc_ex.c ****       srcclk = __HAL_RCC_GET_USART3_SOURCE();
 815:Drivers/STM32G4xx_HAL_Driver/Src/stm32g4xx_hal_rcc_ex.c **** 
 816:Drivers/STM32G4xx_HAL_Driver/Src/stm32g4xx_hal_rcc_ex.c ****       if(srcclk == RCC_USART3CLKSOURCE_PCLK1)
 817:Drivers/STM32G4xx_HAL_Driver/Src/stm32g4xx_hal_rcc_ex.c ****       {
 818:Drivers/STM32G4xx_HAL_Driver/Src/stm32g4xx_hal_rcc_ex.c ****         frequency = HAL_RCC_GetPCLK1Freq();
 819:Drivers/STM32G4xx_HAL_Driver/Src/stm32g4xx_hal_rcc_ex.c ****       }
 820:Drivers/STM32G4xx_HAL_Driver/Src/stm32g4xx_hal_rcc_ex.c ****       else if(srcclk == RCC_USART3CLKSOURCE_SYSCLK)
 821:Drivers/STM32G4xx_HAL_Driver/Src/stm32g4xx_hal_rcc_ex.c ****       {
 822:Drivers/STM32G4xx_HAL_Driver/Src/stm32g4xx_hal_rcc_ex.c ****         frequency = HAL_RCC_GetSysClockFreq();
 823:Drivers/STM32G4xx_HAL_Driver/Src/stm32g4xx_hal_rcc_ex.c ****       }
 824:Drivers/STM32G4xx_HAL_Driver/Src/stm32g4xx_hal_rcc_ex.c ****       else if((HAL_IS_BIT_SET(RCC->CR, RCC_CR_HSIRDY)) && (srcclk == RCC_USART3CLKSOURCE_HSI))
 825:Drivers/STM32G4xx_HAL_Driver/Src/stm32g4xx_hal_rcc_ex.c ****       {
 826:Drivers/STM32G4xx_HAL_Driver/Src/stm32g4xx_hal_rcc_ex.c ****         frequency = HSI_VALUE;
 827:Drivers/STM32G4xx_HAL_Driver/Src/stm32g4xx_hal_rcc_ex.c ****       }
 828:Drivers/STM32G4xx_HAL_Driver/Src/stm32g4xx_hal_rcc_ex.c ****       else if((HAL_IS_BIT_SET(RCC->BDCR, RCC_BDCR_LSERDY)) && (srcclk == RCC_USART3CLKSOURCE_LSE))
 829:Drivers/STM32G4xx_HAL_Driver/Src/stm32g4xx_hal_rcc_ex.c ****       {
 830:Drivers/STM32G4xx_HAL_Driver/Src/stm32g4xx_hal_rcc_ex.c ****         frequency = LSE_VALUE;
 831:Drivers/STM32G4xx_HAL_Driver/Src/stm32g4xx_hal_rcc_ex.c ****       }
 832:Drivers/STM32G4xx_HAL_Driver/Src/stm32g4xx_hal_rcc_ex.c ****       /* Clock not enabled for USART3 */
 833:Drivers/STM32G4xx_HAL_Driver/Src/stm32g4xx_hal_rcc_ex.c ****       else
 834:Drivers/STM32G4xx_HAL_Driver/Src/stm32g4xx_hal_rcc_ex.c ****       {
 835:Drivers/STM32G4xx_HAL_Driver/Src/stm32g4xx_hal_rcc_ex.c ****         /* nothing to do: frequency already initialized to 0 */
 836:Drivers/STM32G4xx_HAL_Driver/Src/stm32g4xx_hal_rcc_ex.c ****       }
 837:Drivers/STM32G4xx_HAL_Driver/Src/stm32g4xx_hal_rcc_ex.c ****       break;
 838:Drivers/STM32G4xx_HAL_Driver/Src/stm32g4xx_hal_rcc_ex.c **** #endif /* USART3 */
 839:Drivers/STM32G4xx_HAL_Driver/Src/stm32g4xx_hal_rcc_ex.c ****       
 840:Drivers/STM32G4xx_HAL_Driver/Src/stm32g4xx_hal_rcc_ex.c **** #if defined(UART4)
 841:Drivers/STM32G4xx_HAL_Driver/Src/stm32g4xx_hal_rcc_ex.c ****     case RCC_PERIPHCLK_UART4:
 842:Drivers/STM32G4xx_HAL_Driver/Src/stm32g4xx_hal_rcc_ex.c ****       /* Get the current UART4 source */
 843:Drivers/STM32G4xx_HAL_Driver/Src/stm32g4xx_hal_rcc_ex.c ****       srcclk = __HAL_RCC_GET_UART4_SOURCE();
 844:Drivers/STM32G4xx_HAL_Driver/Src/stm32g4xx_hal_rcc_ex.c **** 
 845:Drivers/STM32G4xx_HAL_Driver/Src/stm32g4xx_hal_rcc_ex.c ****       if(srcclk == RCC_UART4CLKSOURCE_PCLK1)
 846:Drivers/STM32G4xx_HAL_Driver/Src/stm32g4xx_hal_rcc_ex.c ****       {
 847:Drivers/STM32G4xx_HAL_Driver/Src/stm32g4xx_hal_rcc_ex.c ****         frequency = HAL_RCC_GetPCLK1Freq();
 848:Drivers/STM32G4xx_HAL_Driver/Src/stm32g4xx_hal_rcc_ex.c ****       }
 849:Drivers/STM32G4xx_HAL_Driver/Src/stm32g4xx_hal_rcc_ex.c ****       else if(srcclk == RCC_UART4CLKSOURCE_SYSCLK)
 850:Drivers/STM32G4xx_HAL_Driver/Src/stm32g4xx_hal_rcc_ex.c ****       {
 851:Drivers/STM32G4xx_HAL_Driver/Src/stm32g4xx_hal_rcc_ex.c ****         frequency = HAL_RCC_GetSysClockFreq();
 852:Drivers/STM32G4xx_HAL_Driver/Src/stm32g4xx_hal_rcc_ex.c ****       }
 853:Drivers/STM32G4xx_HAL_Driver/Src/stm32g4xx_hal_rcc_ex.c ****       else if((HAL_IS_BIT_SET(RCC->CR, RCC_CR_HSIRDY)) && (srcclk == RCC_UART4CLKSOURCE_HSI))
 854:Drivers/STM32G4xx_HAL_Driver/Src/stm32g4xx_hal_rcc_ex.c ****       {
 855:Drivers/STM32G4xx_HAL_Driver/Src/stm32g4xx_hal_rcc_ex.c ****         frequency = HSI_VALUE;
ARM GAS  C:\Users\Nathan\AppData\Local\Temp\cc4vJDVg.s 			page 34


 856:Drivers/STM32G4xx_HAL_Driver/Src/stm32g4xx_hal_rcc_ex.c ****       }
 857:Drivers/STM32G4xx_HAL_Driver/Src/stm32g4xx_hal_rcc_ex.c ****       else if((HAL_IS_BIT_SET(RCC->BDCR, RCC_BDCR_LSERDY)) && (srcclk == RCC_UART4CLKSOURCE_LSE))
 858:Drivers/STM32G4xx_HAL_Driver/Src/stm32g4xx_hal_rcc_ex.c ****       {
 859:Drivers/STM32G4xx_HAL_Driver/Src/stm32g4xx_hal_rcc_ex.c ****         frequency = LSE_VALUE;
 860:Drivers/STM32G4xx_HAL_Driver/Src/stm32g4xx_hal_rcc_ex.c ****       }
 861:Drivers/STM32G4xx_HAL_Driver/Src/stm32g4xx_hal_rcc_ex.c ****       /* Clock not enabled for UART4 */
 862:Drivers/STM32G4xx_HAL_Driver/Src/stm32g4xx_hal_rcc_ex.c ****       else
 863:Drivers/STM32G4xx_HAL_Driver/Src/stm32g4xx_hal_rcc_ex.c ****       {
 864:Drivers/STM32G4xx_HAL_Driver/Src/stm32g4xx_hal_rcc_ex.c ****         /* nothing to do: frequency already initialized to 0 */
 865:Drivers/STM32G4xx_HAL_Driver/Src/stm32g4xx_hal_rcc_ex.c ****       }
 866:Drivers/STM32G4xx_HAL_Driver/Src/stm32g4xx_hal_rcc_ex.c ****       break;
 867:Drivers/STM32G4xx_HAL_Driver/Src/stm32g4xx_hal_rcc_ex.c **** #endif /* UART4 */
 868:Drivers/STM32G4xx_HAL_Driver/Src/stm32g4xx_hal_rcc_ex.c **** 
 869:Drivers/STM32G4xx_HAL_Driver/Src/stm32g4xx_hal_rcc_ex.c **** #if defined(UART5)
 870:Drivers/STM32G4xx_HAL_Driver/Src/stm32g4xx_hal_rcc_ex.c ****     case RCC_PERIPHCLK_UART5:
 871:Drivers/STM32G4xx_HAL_Driver/Src/stm32g4xx_hal_rcc_ex.c ****       /* Get the current UART5 source */
 872:Drivers/STM32G4xx_HAL_Driver/Src/stm32g4xx_hal_rcc_ex.c ****       srcclk = __HAL_RCC_GET_UART5_SOURCE();
 873:Drivers/STM32G4xx_HAL_Driver/Src/stm32g4xx_hal_rcc_ex.c **** 
 874:Drivers/STM32G4xx_HAL_Driver/Src/stm32g4xx_hal_rcc_ex.c ****       if(srcclk == RCC_UART5CLKSOURCE_PCLK1)
 875:Drivers/STM32G4xx_HAL_Driver/Src/stm32g4xx_hal_rcc_ex.c ****       {
 876:Drivers/STM32G4xx_HAL_Driver/Src/stm32g4xx_hal_rcc_ex.c ****         frequency = HAL_RCC_GetPCLK1Freq();
 877:Drivers/STM32G4xx_HAL_Driver/Src/stm32g4xx_hal_rcc_ex.c ****       }
 878:Drivers/STM32G4xx_HAL_Driver/Src/stm32g4xx_hal_rcc_ex.c ****       else if(srcclk == RCC_UART5CLKSOURCE_SYSCLK)
 879:Drivers/STM32G4xx_HAL_Driver/Src/stm32g4xx_hal_rcc_ex.c ****       {
 880:Drivers/STM32G4xx_HAL_Driver/Src/stm32g4xx_hal_rcc_ex.c ****         frequency = HAL_RCC_GetSysClockFreq();
 881:Drivers/STM32G4xx_HAL_Driver/Src/stm32g4xx_hal_rcc_ex.c ****       }
 882:Drivers/STM32G4xx_HAL_Driver/Src/stm32g4xx_hal_rcc_ex.c ****       else if((HAL_IS_BIT_SET(RCC->CR, RCC_CR_HSIRDY)) && (srcclk == RCC_UART5CLKSOURCE_HSI))
 883:Drivers/STM32G4xx_HAL_Driver/Src/stm32g4xx_hal_rcc_ex.c ****       {
 884:Drivers/STM32G4xx_HAL_Driver/Src/stm32g4xx_hal_rcc_ex.c ****         frequency = HSI_VALUE;
 885:Drivers/STM32G4xx_HAL_Driver/Src/stm32g4xx_hal_rcc_ex.c ****       }
 886:Drivers/STM32G4xx_HAL_Driver/Src/stm32g4xx_hal_rcc_ex.c ****       else if((HAL_IS_BIT_SET(RCC->BDCR, RCC_BDCR_LSERDY)) && (srcclk == RCC_UART5CLKSOURCE_LSE))
 887:Drivers/STM32G4xx_HAL_Driver/Src/stm32g4xx_hal_rcc_ex.c ****       {
 888:Drivers/STM32G4xx_HAL_Driver/Src/stm32g4xx_hal_rcc_ex.c ****         frequency = LSE_VALUE;
 889:Drivers/STM32G4xx_HAL_Driver/Src/stm32g4xx_hal_rcc_ex.c ****       }
 890:Drivers/STM32G4xx_HAL_Driver/Src/stm32g4xx_hal_rcc_ex.c ****       /* Clock not enabled for UART5 */
 891:Drivers/STM32G4xx_HAL_Driver/Src/stm32g4xx_hal_rcc_ex.c ****       else
 892:Drivers/STM32G4xx_HAL_Driver/Src/stm32g4xx_hal_rcc_ex.c ****       {
 893:Drivers/STM32G4xx_HAL_Driver/Src/stm32g4xx_hal_rcc_ex.c ****         /* nothing to do: frequency already initialized to 0 */
 894:Drivers/STM32G4xx_HAL_Driver/Src/stm32g4xx_hal_rcc_ex.c ****       }
 895:Drivers/STM32G4xx_HAL_Driver/Src/stm32g4xx_hal_rcc_ex.c ****       break;
 896:Drivers/STM32G4xx_HAL_Driver/Src/stm32g4xx_hal_rcc_ex.c **** #endif /* UART5 */
 897:Drivers/STM32G4xx_HAL_Driver/Src/stm32g4xx_hal_rcc_ex.c **** 
 898:Drivers/STM32G4xx_HAL_Driver/Src/stm32g4xx_hal_rcc_ex.c ****     case RCC_PERIPHCLK_LPUART1:
 899:Drivers/STM32G4xx_HAL_Driver/Src/stm32g4xx_hal_rcc_ex.c ****       /* Get the current LPUART1 source */
 900:Drivers/STM32G4xx_HAL_Driver/Src/stm32g4xx_hal_rcc_ex.c ****       srcclk = __HAL_RCC_GET_LPUART1_SOURCE();
 901:Drivers/STM32G4xx_HAL_Driver/Src/stm32g4xx_hal_rcc_ex.c **** 
 902:Drivers/STM32G4xx_HAL_Driver/Src/stm32g4xx_hal_rcc_ex.c ****       if(srcclk == RCC_LPUART1CLKSOURCE_PCLK1)
 903:Drivers/STM32G4xx_HAL_Driver/Src/stm32g4xx_hal_rcc_ex.c ****       {
 904:Drivers/STM32G4xx_HAL_Driver/Src/stm32g4xx_hal_rcc_ex.c ****         frequency = HAL_RCC_GetPCLK1Freq();
 905:Drivers/STM32G4xx_HAL_Driver/Src/stm32g4xx_hal_rcc_ex.c ****       }
 906:Drivers/STM32G4xx_HAL_Driver/Src/stm32g4xx_hal_rcc_ex.c ****       else if(srcclk == RCC_LPUART1CLKSOURCE_SYSCLK)
 907:Drivers/STM32G4xx_HAL_Driver/Src/stm32g4xx_hal_rcc_ex.c ****       {
 908:Drivers/STM32G4xx_HAL_Driver/Src/stm32g4xx_hal_rcc_ex.c ****         frequency = HAL_RCC_GetSysClockFreq();
 909:Drivers/STM32G4xx_HAL_Driver/Src/stm32g4xx_hal_rcc_ex.c ****       }
 910:Drivers/STM32G4xx_HAL_Driver/Src/stm32g4xx_hal_rcc_ex.c ****       else if((HAL_IS_BIT_SET(RCC->CR, RCC_CR_HSIRDY)) && (srcclk == RCC_LPUART1CLKSOURCE_HSI))
 911:Drivers/STM32G4xx_HAL_Driver/Src/stm32g4xx_hal_rcc_ex.c ****       {
 912:Drivers/STM32G4xx_HAL_Driver/Src/stm32g4xx_hal_rcc_ex.c ****         frequency = HSI_VALUE;
ARM GAS  C:\Users\Nathan\AppData\Local\Temp\cc4vJDVg.s 			page 35


 913:Drivers/STM32G4xx_HAL_Driver/Src/stm32g4xx_hal_rcc_ex.c ****       }
 914:Drivers/STM32G4xx_HAL_Driver/Src/stm32g4xx_hal_rcc_ex.c ****       else if((HAL_IS_BIT_SET(RCC->BDCR, RCC_BDCR_LSERDY)) && (srcclk == RCC_LPUART1CLKSOURCE_LSE))
 915:Drivers/STM32G4xx_HAL_Driver/Src/stm32g4xx_hal_rcc_ex.c ****       {
 916:Drivers/STM32G4xx_HAL_Driver/Src/stm32g4xx_hal_rcc_ex.c ****         frequency = LSE_VALUE;
 917:Drivers/STM32G4xx_HAL_Driver/Src/stm32g4xx_hal_rcc_ex.c ****       }
 918:Drivers/STM32G4xx_HAL_Driver/Src/stm32g4xx_hal_rcc_ex.c ****       /* Clock not enabled for LPUART1 */
 919:Drivers/STM32G4xx_HAL_Driver/Src/stm32g4xx_hal_rcc_ex.c ****       else
 920:Drivers/STM32G4xx_HAL_Driver/Src/stm32g4xx_hal_rcc_ex.c ****       {
 921:Drivers/STM32G4xx_HAL_Driver/Src/stm32g4xx_hal_rcc_ex.c ****         /* nothing to do: frequency already initialized to 0 */
 922:Drivers/STM32G4xx_HAL_Driver/Src/stm32g4xx_hal_rcc_ex.c ****       }
 923:Drivers/STM32G4xx_HAL_Driver/Src/stm32g4xx_hal_rcc_ex.c ****       break;
 924:Drivers/STM32G4xx_HAL_Driver/Src/stm32g4xx_hal_rcc_ex.c **** 
 925:Drivers/STM32G4xx_HAL_Driver/Src/stm32g4xx_hal_rcc_ex.c ****     case RCC_PERIPHCLK_I2C1:
 926:Drivers/STM32G4xx_HAL_Driver/Src/stm32g4xx_hal_rcc_ex.c ****       /* Get the current I2C1 source */
 927:Drivers/STM32G4xx_HAL_Driver/Src/stm32g4xx_hal_rcc_ex.c ****       srcclk = __HAL_RCC_GET_I2C1_SOURCE();
 982              		.loc 1 927 7 is_stmt 1 view .LVU319
 983              		.loc 1 927 16 is_stmt 0 view .LVU320
 984 0106 694B     		ldr	r3, .L210
 985 0108 D3F88830 		ldr	r3, [r3, #136]
 986              	.LVL37:
 928:Drivers/STM32G4xx_HAL_Driver/Src/stm32g4xx_hal_rcc_ex.c **** 
 929:Drivers/STM32G4xx_HAL_Driver/Src/stm32g4xx_hal_rcc_ex.c ****       if(srcclk == RCC_I2C1CLKSOURCE_PCLK1)
 987              		.loc 1 929 7 is_stmt 1 view .LVU321
 988              		.loc 1 929 9 is_stmt 0 view .LVU322
 989 010c 13F44053 		ands	r3, r3, #12288
 990              	.LVL38:
 991              		.loc 1 929 9 view .LVU323
 992 0110 00F06681 		beq	.L170
 930:Drivers/STM32G4xx_HAL_Driver/Src/stm32g4xx_hal_rcc_ex.c ****       {
 931:Drivers/STM32G4xx_HAL_Driver/Src/stm32g4xx_hal_rcc_ex.c ****         frequency = HAL_RCC_GetPCLK1Freq();
 932:Drivers/STM32G4xx_HAL_Driver/Src/stm32g4xx_hal_rcc_ex.c ****       }
 933:Drivers/STM32G4xx_HAL_Driver/Src/stm32g4xx_hal_rcc_ex.c ****       else if(srcclk == RCC_I2C1CLKSOURCE_SYSCLK)
 993              		.loc 1 933 12 is_stmt 1 view .LVU324
 994              		.loc 1 933 14 is_stmt 0 view .LVU325
 995 0114 B3F5805F 		cmp	r3, #4096
 996 0118 00F06581 		beq	.L171
 934:Drivers/STM32G4xx_HAL_Driver/Src/stm32g4xx_hal_rcc_ex.c ****       {
 935:Drivers/STM32G4xx_HAL_Driver/Src/stm32g4xx_hal_rcc_ex.c ****         frequency = HAL_RCC_GetSysClockFreq();
 936:Drivers/STM32G4xx_HAL_Driver/Src/stm32g4xx_hal_rcc_ex.c ****       }
 937:Drivers/STM32G4xx_HAL_Driver/Src/stm32g4xx_hal_rcc_ex.c ****       else if((HAL_IS_BIT_SET(RCC->CR, RCC_CR_HSIRDY)) && (srcclk == RCC_I2C1CLKSOURCE_HSI))
 997              		.loc 1 937 12 is_stmt 1 view .LVU326
 998              		.loc 1 937 16 is_stmt 0 view .LVU327
 999 011c 634A     		ldr	r2, .L210
 1000              	.LVL39:
 1001              		.loc 1 937 16 view .LVU328
 1002 011e 1068     		ldr	r0, [r2]
 1003              	.LVL40:
 1004              		.loc 1 937 14 view .LVU329
 1005 0120 10F48060 		ands	r0, r0, #1024
 1006 0124 00F0E982 		beq	.L53
 1007              		.loc 1 937 56 discriminator 1 view .LVU330
 1008 0128 B3F5005F 		cmp	r3, #8192
 1009 012c 00F00483 		beq	.L144
 686:Drivers/STM32G4xx_HAL_Driver/Src/stm32g4xx_hal_rcc_ex.c ****   uint32_t srcclk;
 1010              		.loc 1 686 12 view .LVU331
 1011 0130 0020     		movs	r0, #0
 1012 0132 E2E2     		b	.L53
ARM GAS  C:\Users\Nathan\AppData\Local\Temp\cc4vJDVg.s 			page 36


 1013              	.LVL41:
 1014              	.L169:
 754:Drivers/STM32G4xx_HAL_Driver/Src/stm32g4xx_hal_rcc_ex.c ****     {
 1015              		.loc 1 754 5 view .LVU332
 1016 0134 0020     		movs	r0, #0
 1017              	.LVL42:
 754:Drivers/STM32G4xx_HAL_Driver/Src/stm32g4xx_hal_rcc_ex.c ****     {
 1018              		.loc 1 754 5 view .LVU333
 1019 0136 E0E2     		b	.L53
 1020              	.LVL43:
 1021              	.L61:
 754:Drivers/STM32G4xx_HAL_Driver/Src/stm32g4xx_hal_rcc_ex.c ****     {
 1022              		.loc 1 754 5 view .LVU334
 1023 0138 B0F5804F 		cmp	r0, #16384
 1024 013c 00F05682 		beq	.L73
 1025 0140 1AD9     		bls	.L172
 1026 0142 B0F5003F 		cmp	r0, #131072
 1027 0146 00F08781 		beq	.L80
 1028 014a 5AD8     		bhi	.L81
 1029 014c B0F5004F 		cmp	r0, #32768
 1030 0150 00F07082 		beq	.L82
 1031 0154 B0F5803F 		cmp	r0, #65536
 1032 0158 51D1     		bne	.L173
 938:Drivers/STM32G4xx_HAL_Driver/Src/stm32g4xx_hal_rcc_ex.c ****       {
 939:Drivers/STM32G4xx_HAL_Driver/Src/stm32g4xx_hal_rcc_ex.c ****         frequency = HSI_VALUE;
 940:Drivers/STM32G4xx_HAL_Driver/Src/stm32g4xx_hal_rcc_ex.c ****       }
 941:Drivers/STM32G4xx_HAL_Driver/Src/stm32g4xx_hal_rcc_ex.c ****       /* Clock not enabled for I2C1 */
 942:Drivers/STM32G4xx_HAL_Driver/Src/stm32g4xx_hal_rcc_ex.c ****       else
 943:Drivers/STM32G4xx_HAL_Driver/Src/stm32g4xx_hal_rcc_ex.c ****       {
 944:Drivers/STM32G4xx_HAL_Driver/Src/stm32g4xx_hal_rcc_ex.c ****         /* nothing to do: frequency already initialized to 0 */
 945:Drivers/STM32G4xx_HAL_Driver/Src/stm32g4xx_hal_rcc_ex.c ****       }
 946:Drivers/STM32G4xx_HAL_Driver/Src/stm32g4xx_hal_rcc_ex.c ****       break;
 947:Drivers/STM32G4xx_HAL_Driver/Src/stm32g4xx_hal_rcc_ex.c **** 
 948:Drivers/STM32G4xx_HAL_Driver/Src/stm32g4xx_hal_rcc_ex.c ****     case RCC_PERIPHCLK_I2C2:
 949:Drivers/STM32G4xx_HAL_Driver/Src/stm32g4xx_hal_rcc_ex.c ****       /* Get the current I2C2 source */
 950:Drivers/STM32G4xx_HAL_Driver/Src/stm32g4xx_hal_rcc_ex.c ****       srcclk = __HAL_RCC_GET_I2C2_SOURCE();
 951:Drivers/STM32G4xx_HAL_Driver/Src/stm32g4xx_hal_rcc_ex.c **** 
 952:Drivers/STM32G4xx_HAL_Driver/Src/stm32g4xx_hal_rcc_ex.c ****       if(srcclk == RCC_I2C2CLKSOURCE_PCLK1)
 953:Drivers/STM32G4xx_HAL_Driver/Src/stm32g4xx_hal_rcc_ex.c ****       {
 954:Drivers/STM32G4xx_HAL_Driver/Src/stm32g4xx_hal_rcc_ex.c ****         frequency = HAL_RCC_GetPCLK1Freq();
 955:Drivers/STM32G4xx_HAL_Driver/Src/stm32g4xx_hal_rcc_ex.c ****       }
 956:Drivers/STM32G4xx_HAL_Driver/Src/stm32g4xx_hal_rcc_ex.c ****       else if(srcclk == RCC_I2C2CLKSOURCE_SYSCLK)
 957:Drivers/STM32G4xx_HAL_Driver/Src/stm32g4xx_hal_rcc_ex.c ****       {
 958:Drivers/STM32G4xx_HAL_Driver/Src/stm32g4xx_hal_rcc_ex.c ****         frequency = HAL_RCC_GetSysClockFreq();
 959:Drivers/STM32G4xx_HAL_Driver/Src/stm32g4xx_hal_rcc_ex.c ****       }
 960:Drivers/STM32G4xx_HAL_Driver/Src/stm32g4xx_hal_rcc_ex.c ****       else if((HAL_IS_BIT_SET(RCC->CR, RCC_CR_HSIRDY)) && (srcclk == RCC_I2C2CLKSOURCE_HSI))
 961:Drivers/STM32G4xx_HAL_Driver/Src/stm32g4xx_hal_rcc_ex.c ****       {
 962:Drivers/STM32G4xx_HAL_Driver/Src/stm32g4xx_hal_rcc_ex.c ****         frequency = HSI_VALUE;
 963:Drivers/STM32G4xx_HAL_Driver/Src/stm32g4xx_hal_rcc_ex.c ****       }
 964:Drivers/STM32G4xx_HAL_Driver/Src/stm32g4xx_hal_rcc_ex.c ****       /* Clock not enabled for I2C2 */
 965:Drivers/STM32G4xx_HAL_Driver/Src/stm32g4xx_hal_rcc_ex.c ****       else
 966:Drivers/STM32G4xx_HAL_Driver/Src/stm32g4xx_hal_rcc_ex.c ****       {
 967:Drivers/STM32G4xx_HAL_Driver/Src/stm32g4xx_hal_rcc_ex.c ****         /* nothing to do: frequency already initialized to 0 */
 968:Drivers/STM32G4xx_HAL_Driver/Src/stm32g4xx_hal_rcc_ex.c ****       }
 969:Drivers/STM32G4xx_HAL_Driver/Src/stm32g4xx_hal_rcc_ex.c ****       break;
 970:Drivers/STM32G4xx_HAL_Driver/Src/stm32g4xx_hal_rcc_ex.c **** 
 971:Drivers/STM32G4xx_HAL_Driver/Src/stm32g4xx_hal_rcc_ex.c **** #if defined(I2C3)
ARM GAS  C:\Users\Nathan\AppData\Local\Temp\cc4vJDVg.s 			page 37


 972:Drivers/STM32G4xx_HAL_Driver/Src/stm32g4xx_hal_rcc_ex.c **** 
 973:Drivers/STM32G4xx_HAL_Driver/Src/stm32g4xx_hal_rcc_ex.c ****     case RCC_PERIPHCLK_I2C3:
 974:Drivers/STM32G4xx_HAL_Driver/Src/stm32g4xx_hal_rcc_ex.c ****       /* Get the current I2C3 source */
 975:Drivers/STM32G4xx_HAL_Driver/Src/stm32g4xx_hal_rcc_ex.c ****       srcclk = __HAL_RCC_GET_I2C3_SOURCE();
 976:Drivers/STM32G4xx_HAL_Driver/Src/stm32g4xx_hal_rcc_ex.c **** 
 977:Drivers/STM32G4xx_HAL_Driver/Src/stm32g4xx_hal_rcc_ex.c ****       if(srcclk == RCC_I2C3CLKSOURCE_PCLK1)
 978:Drivers/STM32G4xx_HAL_Driver/Src/stm32g4xx_hal_rcc_ex.c ****       {
 979:Drivers/STM32G4xx_HAL_Driver/Src/stm32g4xx_hal_rcc_ex.c ****         frequency = HAL_RCC_GetPCLK1Freq();
 980:Drivers/STM32G4xx_HAL_Driver/Src/stm32g4xx_hal_rcc_ex.c ****       }
 981:Drivers/STM32G4xx_HAL_Driver/Src/stm32g4xx_hal_rcc_ex.c ****       else if(srcclk == RCC_I2C3CLKSOURCE_SYSCLK)
 982:Drivers/STM32G4xx_HAL_Driver/Src/stm32g4xx_hal_rcc_ex.c ****       {
 983:Drivers/STM32G4xx_HAL_Driver/Src/stm32g4xx_hal_rcc_ex.c ****         frequency = HAL_RCC_GetSysClockFreq();
 984:Drivers/STM32G4xx_HAL_Driver/Src/stm32g4xx_hal_rcc_ex.c ****       }
 985:Drivers/STM32G4xx_HAL_Driver/Src/stm32g4xx_hal_rcc_ex.c ****       else if((HAL_IS_BIT_SET(RCC->CR, RCC_CR_HSIRDY)) && (srcclk == RCC_I2C3CLKSOURCE_HSI))
 986:Drivers/STM32G4xx_HAL_Driver/Src/stm32g4xx_hal_rcc_ex.c ****       {
 987:Drivers/STM32G4xx_HAL_Driver/Src/stm32g4xx_hal_rcc_ex.c ****         frequency = HSI_VALUE;
 988:Drivers/STM32G4xx_HAL_Driver/Src/stm32g4xx_hal_rcc_ex.c ****       }
 989:Drivers/STM32G4xx_HAL_Driver/Src/stm32g4xx_hal_rcc_ex.c ****       /* Clock not enabled for I2C3 */
 990:Drivers/STM32G4xx_HAL_Driver/Src/stm32g4xx_hal_rcc_ex.c ****       else
 991:Drivers/STM32G4xx_HAL_Driver/Src/stm32g4xx_hal_rcc_ex.c ****       {
 992:Drivers/STM32G4xx_HAL_Driver/Src/stm32g4xx_hal_rcc_ex.c ****         /* nothing to do: frequency already initialized to 0 */
 993:Drivers/STM32G4xx_HAL_Driver/Src/stm32g4xx_hal_rcc_ex.c ****       }
 994:Drivers/STM32G4xx_HAL_Driver/Src/stm32g4xx_hal_rcc_ex.c ****       break;
 995:Drivers/STM32G4xx_HAL_Driver/Src/stm32g4xx_hal_rcc_ex.c **** 
 996:Drivers/STM32G4xx_HAL_Driver/Src/stm32g4xx_hal_rcc_ex.c **** #endif /* I2C3 */
 997:Drivers/STM32G4xx_HAL_Driver/Src/stm32g4xx_hal_rcc_ex.c **** 
 998:Drivers/STM32G4xx_HAL_Driver/Src/stm32g4xx_hal_rcc_ex.c **** #if defined(I2C4)
 999:Drivers/STM32G4xx_HAL_Driver/Src/stm32g4xx_hal_rcc_ex.c **** 
1000:Drivers/STM32G4xx_HAL_Driver/Src/stm32g4xx_hal_rcc_ex.c ****     case RCC_PERIPHCLK_I2C4:
1001:Drivers/STM32G4xx_HAL_Driver/Src/stm32g4xx_hal_rcc_ex.c ****       /* Get the current I2C4 source */
1002:Drivers/STM32G4xx_HAL_Driver/Src/stm32g4xx_hal_rcc_ex.c ****       srcclk = __HAL_RCC_GET_I2C4_SOURCE();
1003:Drivers/STM32G4xx_HAL_Driver/Src/stm32g4xx_hal_rcc_ex.c **** 
1004:Drivers/STM32G4xx_HAL_Driver/Src/stm32g4xx_hal_rcc_ex.c ****       if(srcclk == RCC_I2C4CLKSOURCE_PCLK1)
1005:Drivers/STM32G4xx_HAL_Driver/Src/stm32g4xx_hal_rcc_ex.c ****       {
1006:Drivers/STM32G4xx_HAL_Driver/Src/stm32g4xx_hal_rcc_ex.c ****         frequency = HAL_RCC_GetPCLK1Freq();
1007:Drivers/STM32G4xx_HAL_Driver/Src/stm32g4xx_hal_rcc_ex.c ****       }
1008:Drivers/STM32G4xx_HAL_Driver/Src/stm32g4xx_hal_rcc_ex.c ****       else if(srcclk == RCC_I2C4CLKSOURCE_SYSCLK)
1009:Drivers/STM32G4xx_HAL_Driver/Src/stm32g4xx_hal_rcc_ex.c ****       {
1010:Drivers/STM32G4xx_HAL_Driver/Src/stm32g4xx_hal_rcc_ex.c ****         frequency = HAL_RCC_GetSysClockFreq();
1011:Drivers/STM32G4xx_HAL_Driver/Src/stm32g4xx_hal_rcc_ex.c ****       }
1012:Drivers/STM32G4xx_HAL_Driver/Src/stm32g4xx_hal_rcc_ex.c ****       else if((HAL_IS_BIT_SET(RCC->CR, RCC_CR_HSIRDY)) && (srcclk == RCC_I2C4CLKSOURCE_HSI))
1013:Drivers/STM32G4xx_HAL_Driver/Src/stm32g4xx_hal_rcc_ex.c ****       {
1014:Drivers/STM32G4xx_HAL_Driver/Src/stm32g4xx_hal_rcc_ex.c ****         frequency = HSI_VALUE;
1015:Drivers/STM32G4xx_HAL_Driver/Src/stm32g4xx_hal_rcc_ex.c ****       }
1016:Drivers/STM32G4xx_HAL_Driver/Src/stm32g4xx_hal_rcc_ex.c ****       /* Clock not enabled for I2C4 */
1017:Drivers/STM32G4xx_HAL_Driver/Src/stm32g4xx_hal_rcc_ex.c ****       else
1018:Drivers/STM32G4xx_HAL_Driver/Src/stm32g4xx_hal_rcc_ex.c ****       {
1019:Drivers/STM32G4xx_HAL_Driver/Src/stm32g4xx_hal_rcc_ex.c ****         /* nothing to do: frequency already initialized to 0 */
1020:Drivers/STM32G4xx_HAL_Driver/Src/stm32g4xx_hal_rcc_ex.c ****       }
1021:Drivers/STM32G4xx_HAL_Driver/Src/stm32g4xx_hal_rcc_ex.c ****       break;
1022:Drivers/STM32G4xx_HAL_Driver/Src/stm32g4xx_hal_rcc_ex.c **** 
1023:Drivers/STM32G4xx_HAL_Driver/Src/stm32g4xx_hal_rcc_ex.c **** #endif /* I2C4 */
1024:Drivers/STM32G4xx_HAL_Driver/Src/stm32g4xx_hal_rcc_ex.c **** 
1025:Drivers/STM32G4xx_HAL_Driver/Src/stm32g4xx_hal_rcc_ex.c ****     case RCC_PERIPHCLK_LPTIM1:
1026:Drivers/STM32G4xx_HAL_Driver/Src/stm32g4xx_hal_rcc_ex.c ****       /* Get the current LPTIM1 source */
1027:Drivers/STM32G4xx_HAL_Driver/Src/stm32g4xx_hal_rcc_ex.c ****       srcclk = __HAL_RCC_GET_LPTIM1_SOURCE();
1028:Drivers/STM32G4xx_HAL_Driver/Src/stm32g4xx_hal_rcc_ex.c **** 
ARM GAS  C:\Users\Nathan\AppData\Local\Temp\cc4vJDVg.s 			page 38


1029:Drivers/STM32G4xx_HAL_Driver/Src/stm32g4xx_hal_rcc_ex.c ****       if(srcclk == RCC_LPTIM1CLKSOURCE_PCLK1)
1030:Drivers/STM32G4xx_HAL_Driver/Src/stm32g4xx_hal_rcc_ex.c ****       {
1031:Drivers/STM32G4xx_HAL_Driver/Src/stm32g4xx_hal_rcc_ex.c ****         frequency = HAL_RCC_GetPCLK1Freq();
1032:Drivers/STM32G4xx_HAL_Driver/Src/stm32g4xx_hal_rcc_ex.c ****       }
1033:Drivers/STM32G4xx_HAL_Driver/Src/stm32g4xx_hal_rcc_ex.c ****       else if((HAL_IS_BIT_SET(RCC->CSR, RCC_CSR_LSIRDY)) && (srcclk == RCC_LPTIM1CLKSOURCE_LSI))
1034:Drivers/STM32G4xx_HAL_Driver/Src/stm32g4xx_hal_rcc_ex.c ****       {
1035:Drivers/STM32G4xx_HAL_Driver/Src/stm32g4xx_hal_rcc_ex.c ****         frequency = LSI_VALUE;
1036:Drivers/STM32G4xx_HAL_Driver/Src/stm32g4xx_hal_rcc_ex.c ****       }
1037:Drivers/STM32G4xx_HAL_Driver/Src/stm32g4xx_hal_rcc_ex.c ****       else if((HAL_IS_BIT_SET(RCC->CR, RCC_CR_HSIRDY)) && (srcclk == RCC_LPTIM1CLKSOURCE_HSI))
1038:Drivers/STM32G4xx_HAL_Driver/Src/stm32g4xx_hal_rcc_ex.c ****       {
1039:Drivers/STM32G4xx_HAL_Driver/Src/stm32g4xx_hal_rcc_ex.c ****         frequency = HSI_VALUE;
1040:Drivers/STM32G4xx_HAL_Driver/Src/stm32g4xx_hal_rcc_ex.c ****       }
1041:Drivers/STM32G4xx_HAL_Driver/Src/stm32g4xx_hal_rcc_ex.c ****       else if ((HAL_IS_BIT_SET(RCC->BDCR, RCC_BDCR_LSERDY)) && (srcclk == RCC_LPTIM1CLKSOURCE_LSE))
1042:Drivers/STM32G4xx_HAL_Driver/Src/stm32g4xx_hal_rcc_ex.c ****       {
1043:Drivers/STM32G4xx_HAL_Driver/Src/stm32g4xx_hal_rcc_ex.c ****         frequency = LSE_VALUE;
1044:Drivers/STM32G4xx_HAL_Driver/Src/stm32g4xx_hal_rcc_ex.c ****       }
1045:Drivers/STM32G4xx_HAL_Driver/Src/stm32g4xx_hal_rcc_ex.c ****       /* Clock not enabled for LPTIM1 */
1046:Drivers/STM32G4xx_HAL_Driver/Src/stm32g4xx_hal_rcc_ex.c ****       else
1047:Drivers/STM32G4xx_HAL_Driver/Src/stm32g4xx_hal_rcc_ex.c ****       {
1048:Drivers/STM32G4xx_HAL_Driver/Src/stm32g4xx_hal_rcc_ex.c ****         /* nothing to do: frequency already initialized to 0 */
1049:Drivers/STM32G4xx_HAL_Driver/Src/stm32g4xx_hal_rcc_ex.c ****       }
1050:Drivers/STM32G4xx_HAL_Driver/Src/stm32g4xx_hal_rcc_ex.c ****       break;
1051:Drivers/STM32G4xx_HAL_Driver/Src/stm32g4xx_hal_rcc_ex.c **** 
1052:Drivers/STM32G4xx_HAL_Driver/Src/stm32g4xx_hal_rcc_ex.c **** #if defined(SAI1)
1053:Drivers/STM32G4xx_HAL_Driver/Src/stm32g4xx_hal_rcc_ex.c **** 
1054:Drivers/STM32G4xx_HAL_Driver/Src/stm32g4xx_hal_rcc_ex.c ****     case RCC_PERIPHCLK_SAI1:
1055:Drivers/STM32G4xx_HAL_Driver/Src/stm32g4xx_hal_rcc_ex.c ****       /* Get the current SAI1 source */
1056:Drivers/STM32G4xx_HAL_Driver/Src/stm32g4xx_hal_rcc_ex.c ****       srcclk = __HAL_RCC_GET_SAI1_SOURCE();
1057:Drivers/STM32G4xx_HAL_Driver/Src/stm32g4xx_hal_rcc_ex.c **** 
1058:Drivers/STM32G4xx_HAL_Driver/Src/stm32g4xx_hal_rcc_ex.c ****       if(srcclk == RCC_SAI1CLKSOURCE_SYSCLK)
1059:Drivers/STM32G4xx_HAL_Driver/Src/stm32g4xx_hal_rcc_ex.c ****       {
1060:Drivers/STM32G4xx_HAL_Driver/Src/stm32g4xx_hal_rcc_ex.c ****         frequency = HAL_RCC_GetSysClockFreq();
1061:Drivers/STM32G4xx_HAL_Driver/Src/stm32g4xx_hal_rcc_ex.c ****       }
1062:Drivers/STM32G4xx_HAL_Driver/Src/stm32g4xx_hal_rcc_ex.c ****       else if(srcclk == RCC_SAI1CLKSOURCE_PLL)
1063:Drivers/STM32G4xx_HAL_Driver/Src/stm32g4xx_hal_rcc_ex.c ****       {
1064:Drivers/STM32G4xx_HAL_Driver/Src/stm32g4xx_hal_rcc_ex.c ****         if(__HAL_RCC_GET_PLLCLKOUT_CONFIG(RCC_PLL_48M1CLK) != 0U)
1065:Drivers/STM32G4xx_HAL_Driver/Src/stm32g4xx_hal_rcc_ex.c ****         {
1066:Drivers/STM32G4xx_HAL_Driver/Src/stm32g4xx_hal_rcc_ex.c ****           /* f(PLLQ) = f(VCO input) * PLLN / PLLQ */
1067:Drivers/STM32G4xx_HAL_Driver/Src/stm32g4xx_hal_rcc_ex.c ****           plln = READ_BIT(RCC->PLLCFGR, RCC_PLLCFGR_PLLN) >> RCC_PLLCFGR_PLLN_Pos;
1068:Drivers/STM32G4xx_HAL_Driver/Src/stm32g4xx_hal_rcc_ex.c ****           frequency = (pllvco * plln) / (((READ_BIT(RCC->PLLCFGR, RCC_PLLCFGR_PLLQ) >> RCC_PLLCFGR_
1069:Drivers/STM32G4xx_HAL_Driver/Src/stm32g4xx_hal_rcc_ex.c ****         }
1070:Drivers/STM32G4xx_HAL_Driver/Src/stm32g4xx_hal_rcc_ex.c ****       }
1071:Drivers/STM32G4xx_HAL_Driver/Src/stm32g4xx_hal_rcc_ex.c ****       else if(srcclk == RCC_SAI1CLKSOURCE_EXT)
1072:Drivers/STM32G4xx_HAL_Driver/Src/stm32g4xx_hal_rcc_ex.c ****       {
1073:Drivers/STM32G4xx_HAL_Driver/Src/stm32g4xx_hal_rcc_ex.c ****         /* External clock used.*/
1074:Drivers/STM32G4xx_HAL_Driver/Src/stm32g4xx_hal_rcc_ex.c ****         frequency = EXTERNAL_CLOCK_VALUE;
1075:Drivers/STM32G4xx_HAL_Driver/Src/stm32g4xx_hal_rcc_ex.c ****       }
1076:Drivers/STM32G4xx_HAL_Driver/Src/stm32g4xx_hal_rcc_ex.c ****       else if((HAL_IS_BIT_SET(RCC->CR, RCC_CR_HSIRDY)) && (srcclk == RCC_SAI1CLKSOURCE_HSI))
1077:Drivers/STM32G4xx_HAL_Driver/Src/stm32g4xx_hal_rcc_ex.c ****       {
1078:Drivers/STM32G4xx_HAL_Driver/Src/stm32g4xx_hal_rcc_ex.c ****         frequency = HSI_VALUE;
1079:Drivers/STM32G4xx_HAL_Driver/Src/stm32g4xx_hal_rcc_ex.c ****       }
1080:Drivers/STM32G4xx_HAL_Driver/Src/stm32g4xx_hal_rcc_ex.c ****       /* Clock not enabled for SAI1 */
1081:Drivers/STM32G4xx_HAL_Driver/Src/stm32g4xx_hal_rcc_ex.c ****       else
1082:Drivers/STM32G4xx_HAL_Driver/Src/stm32g4xx_hal_rcc_ex.c ****       {
1083:Drivers/STM32G4xx_HAL_Driver/Src/stm32g4xx_hal_rcc_ex.c ****         /* nothing to do: frequency already initialized to 0 */
1084:Drivers/STM32G4xx_HAL_Driver/Src/stm32g4xx_hal_rcc_ex.c ****       }
1085:Drivers/STM32G4xx_HAL_Driver/Src/stm32g4xx_hal_rcc_ex.c ****       break;
ARM GAS  C:\Users\Nathan\AppData\Local\Temp\cc4vJDVg.s 			page 39


1086:Drivers/STM32G4xx_HAL_Driver/Src/stm32g4xx_hal_rcc_ex.c **** 
1087:Drivers/STM32G4xx_HAL_Driver/Src/stm32g4xx_hal_rcc_ex.c **** #endif /* SAI1 */
1088:Drivers/STM32G4xx_HAL_Driver/Src/stm32g4xx_hal_rcc_ex.c **** 
1089:Drivers/STM32G4xx_HAL_Driver/Src/stm32g4xx_hal_rcc_ex.c **** #if defined(SPI_I2S_SUPPORT)
1090:Drivers/STM32G4xx_HAL_Driver/Src/stm32g4xx_hal_rcc_ex.c ****     case RCC_PERIPHCLK_I2S:
1091:Drivers/STM32G4xx_HAL_Driver/Src/stm32g4xx_hal_rcc_ex.c ****       /* Get the current I2Sx source */
1092:Drivers/STM32G4xx_HAL_Driver/Src/stm32g4xx_hal_rcc_ex.c ****       srcclk = __HAL_RCC_GET_I2S_SOURCE();
1093:Drivers/STM32G4xx_HAL_Driver/Src/stm32g4xx_hal_rcc_ex.c **** 
1094:Drivers/STM32G4xx_HAL_Driver/Src/stm32g4xx_hal_rcc_ex.c ****       if(srcclk == RCC_I2SCLKSOURCE_SYSCLK)
1095:Drivers/STM32G4xx_HAL_Driver/Src/stm32g4xx_hal_rcc_ex.c ****       {
1096:Drivers/STM32G4xx_HAL_Driver/Src/stm32g4xx_hal_rcc_ex.c ****         frequency = HAL_RCC_GetSysClockFreq();
1097:Drivers/STM32G4xx_HAL_Driver/Src/stm32g4xx_hal_rcc_ex.c ****       }
1098:Drivers/STM32G4xx_HAL_Driver/Src/stm32g4xx_hal_rcc_ex.c ****       else if(srcclk == RCC_I2SCLKSOURCE_PLL)
1099:Drivers/STM32G4xx_HAL_Driver/Src/stm32g4xx_hal_rcc_ex.c ****       {
1100:Drivers/STM32G4xx_HAL_Driver/Src/stm32g4xx_hal_rcc_ex.c ****         if(__HAL_RCC_GET_PLLCLKOUT_CONFIG(RCC_PLL_48M1CLK) != 0U)
1101:Drivers/STM32G4xx_HAL_Driver/Src/stm32g4xx_hal_rcc_ex.c ****         {
1102:Drivers/STM32G4xx_HAL_Driver/Src/stm32g4xx_hal_rcc_ex.c ****           /* f(PLLQ) = f(VCO input) * PLLN / PLLQ */
1103:Drivers/STM32G4xx_HAL_Driver/Src/stm32g4xx_hal_rcc_ex.c ****           plln = READ_BIT(RCC->PLLCFGR, RCC_PLLCFGR_PLLN) >> RCC_PLLCFGR_PLLN_Pos;
1104:Drivers/STM32G4xx_HAL_Driver/Src/stm32g4xx_hal_rcc_ex.c ****           frequency = (pllvco * plln) / (((READ_BIT(RCC->PLLCFGR, RCC_PLLCFGR_PLLQ) >> RCC_PLLCFGR_
1105:Drivers/STM32G4xx_HAL_Driver/Src/stm32g4xx_hal_rcc_ex.c ****         }
1106:Drivers/STM32G4xx_HAL_Driver/Src/stm32g4xx_hal_rcc_ex.c ****       }
1107:Drivers/STM32G4xx_HAL_Driver/Src/stm32g4xx_hal_rcc_ex.c ****       else if(srcclk == RCC_I2SCLKSOURCE_EXT)
1108:Drivers/STM32G4xx_HAL_Driver/Src/stm32g4xx_hal_rcc_ex.c ****       {
1109:Drivers/STM32G4xx_HAL_Driver/Src/stm32g4xx_hal_rcc_ex.c ****         /* External clock used.*/
1110:Drivers/STM32G4xx_HAL_Driver/Src/stm32g4xx_hal_rcc_ex.c ****         frequency = EXTERNAL_CLOCK_VALUE;
1111:Drivers/STM32G4xx_HAL_Driver/Src/stm32g4xx_hal_rcc_ex.c ****       }      
1112:Drivers/STM32G4xx_HAL_Driver/Src/stm32g4xx_hal_rcc_ex.c ****       else if((HAL_IS_BIT_SET(RCC->CR, RCC_CR_HSIRDY)) && (srcclk == RCC_I2SCLKSOURCE_HSI))
1113:Drivers/STM32G4xx_HAL_Driver/Src/stm32g4xx_hal_rcc_ex.c ****       {
1114:Drivers/STM32G4xx_HAL_Driver/Src/stm32g4xx_hal_rcc_ex.c ****         frequency = HSI_VALUE;
1115:Drivers/STM32G4xx_HAL_Driver/Src/stm32g4xx_hal_rcc_ex.c ****       }
1116:Drivers/STM32G4xx_HAL_Driver/Src/stm32g4xx_hal_rcc_ex.c ****       /* Clock not enabled for I2S */
1117:Drivers/STM32G4xx_HAL_Driver/Src/stm32g4xx_hal_rcc_ex.c ****       else
1118:Drivers/STM32G4xx_HAL_Driver/Src/stm32g4xx_hal_rcc_ex.c ****       {
1119:Drivers/STM32G4xx_HAL_Driver/Src/stm32g4xx_hal_rcc_ex.c ****         /* nothing to do: frequency already initialized to 0 */
1120:Drivers/STM32G4xx_HAL_Driver/Src/stm32g4xx_hal_rcc_ex.c ****       }
1121:Drivers/STM32G4xx_HAL_Driver/Src/stm32g4xx_hal_rcc_ex.c ****       break;
1122:Drivers/STM32G4xx_HAL_Driver/Src/stm32g4xx_hal_rcc_ex.c **** #endif /* SPI_I2S_SUPPORT */
1123:Drivers/STM32G4xx_HAL_Driver/Src/stm32g4xx_hal_rcc_ex.c **** 
1124:Drivers/STM32G4xx_HAL_Driver/Src/stm32g4xx_hal_rcc_ex.c **** #if defined(FDCAN1)
1125:Drivers/STM32G4xx_HAL_Driver/Src/stm32g4xx_hal_rcc_ex.c ****     case RCC_PERIPHCLK_FDCAN:
1126:Drivers/STM32G4xx_HAL_Driver/Src/stm32g4xx_hal_rcc_ex.c ****       /* Get the current FDCANx source */
1127:Drivers/STM32G4xx_HAL_Driver/Src/stm32g4xx_hal_rcc_ex.c ****       srcclk = __HAL_RCC_GET_FDCAN_SOURCE();
1128:Drivers/STM32G4xx_HAL_Driver/Src/stm32g4xx_hal_rcc_ex.c **** 
1129:Drivers/STM32G4xx_HAL_Driver/Src/stm32g4xx_hal_rcc_ex.c ****       if(srcclk == RCC_FDCANCLKSOURCE_PCLK1)
1130:Drivers/STM32G4xx_HAL_Driver/Src/stm32g4xx_hal_rcc_ex.c ****       {
1131:Drivers/STM32G4xx_HAL_Driver/Src/stm32g4xx_hal_rcc_ex.c ****         frequency = HAL_RCC_GetPCLK1Freq();
1132:Drivers/STM32G4xx_HAL_Driver/Src/stm32g4xx_hal_rcc_ex.c ****       }
1133:Drivers/STM32G4xx_HAL_Driver/Src/stm32g4xx_hal_rcc_ex.c ****       else if(srcclk == RCC_FDCANCLKSOURCE_HSE)
1134:Drivers/STM32G4xx_HAL_Driver/Src/stm32g4xx_hal_rcc_ex.c ****       {
1135:Drivers/STM32G4xx_HAL_Driver/Src/stm32g4xx_hal_rcc_ex.c ****         frequency = HSE_VALUE;
1136:Drivers/STM32G4xx_HAL_Driver/Src/stm32g4xx_hal_rcc_ex.c ****       }
1137:Drivers/STM32G4xx_HAL_Driver/Src/stm32g4xx_hal_rcc_ex.c ****       else if(srcclk == RCC_FDCANCLKSOURCE_PLL)
1138:Drivers/STM32G4xx_HAL_Driver/Src/stm32g4xx_hal_rcc_ex.c ****       {
1139:Drivers/STM32G4xx_HAL_Driver/Src/stm32g4xx_hal_rcc_ex.c ****         if(__HAL_RCC_GET_PLLCLKOUT_CONFIG(RCC_PLL_48M1CLK) != 0U)
1140:Drivers/STM32G4xx_HAL_Driver/Src/stm32g4xx_hal_rcc_ex.c ****         {
1141:Drivers/STM32G4xx_HAL_Driver/Src/stm32g4xx_hal_rcc_ex.c ****           /* f(PLLQ) = f(VCO input) * PLLN / PLLQ */
1142:Drivers/STM32G4xx_HAL_Driver/Src/stm32g4xx_hal_rcc_ex.c ****           plln = READ_BIT(RCC->PLLCFGR, RCC_PLLCFGR_PLLN) >> RCC_PLLCFGR_PLLN_Pos;
ARM GAS  C:\Users\Nathan\AppData\Local\Temp\cc4vJDVg.s 			page 40


1143:Drivers/STM32G4xx_HAL_Driver/Src/stm32g4xx_hal_rcc_ex.c ****           frequency = (pllvco * plln) / (((READ_BIT(RCC->PLLCFGR, RCC_PLLCFGR_PLLQ) >> RCC_PLLCFGR_
1144:Drivers/STM32G4xx_HAL_Driver/Src/stm32g4xx_hal_rcc_ex.c ****         }
1145:Drivers/STM32G4xx_HAL_Driver/Src/stm32g4xx_hal_rcc_ex.c ****       }
1146:Drivers/STM32G4xx_HAL_Driver/Src/stm32g4xx_hal_rcc_ex.c ****       /* Clock not enabled for FDCAN */
1147:Drivers/STM32G4xx_HAL_Driver/Src/stm32g4xx_hal_rcc_ex.c ****       else
1148:Drivers/STM32G4xx_HAL_Driver/Src/stm32g4xx_hal_rcc_ex.c ****       {
1149:Drivers/STM32G4xx_HAL_Driver/Src/stm32g4xx_hal_rcc_ex.c ****         /* nothing to do: frequency already initialized to 0 */
1150:Drivers/STM32G4xx_HAL_Driver/Src/stm32g4xx_hal_rcc_ex.c ****       }
1151:Drivers/STM32G4xx_HAL_Driver/Src/stm32g4xx_hal_rcc_ex.c ****       break;
1152:Drivers/STM32G4xx_HAL_Driver/Src/stm32g4xx_hal_rcc_ex.c **** #endif /* FDCAN1 */
1153:Drivers/STM32G4xx_HAL_Driver/Src/stm32g4xx_hal_rcc_ex.c ****     
1154:Drivers/STM32G4xx_HAL_Driver/Src/stm32g4xx_hal_rcc_ex.c **** #if defined(USB)
1155:Drivers/STM32G4xx_HAL_Driver/Src/stm32g4xx_hal_rcc_ex.c ****     
1156:Drivers/STM32G4xx_HAL_Driver/Src/stm32g4xx_hal_rcc_ex.c ****     case RCC_PERIPHCLK_USB:
1157:Drivers/STM32G4xx_HAL_Driver/Src/stm32g4xx_hal_rcc_ex.c ****       /* Get the current USB source */
1158:Drivers/STM32G4xx_HAL_Driver/Src/stm32g4xx_hal_rcc_ex.c ****       srcclk = __HAL_RCC_GET_USB_SOURCE();
1159:Drivers/STM32G4xx_HAL_Driver/Src/stm32g4xx_hal_rcc_ex.c ****       
1160:Drivers/STM32G4xx_HAL_Driver/Src/stm32g4xx_hal_rcc_ex.c ****       if(srcclk == RCC_USBCLKSOURCE_PLL)  /* PLL ? */
1161:Drivers/STM32G4xx_HAL_Driver/Src/stm32g4xx_hal_rcc_ex.c ****       {
1162:Drivers/STM32G4xx_HAL_Driver/Src/stm32g4xx_hal_rcc_ex.c ****         /* f(PLLQ) = f(VCO input) * PLLN / PLLQ */
1163:Drivers/STM32G4xx_HAL_Driver/Src/stm32g4xx_hal_rcc_ex.c ****         plln = READ_BIT(RCC->PLLCFGR, RCC_PLLCFGR_PLLN) >> RCC_PLLCFGR_PLLN_Pos;
1164:Drivers/STM32G4xx_HAL_Driver/Src/stm32g4xx_hal_rcc_ex.c ****         frequency = (pllvco * plln) / (((READ_BIT(RCC->PLLCFGR, RCC_PLLCFGR_PLLQ) >> RCC_PLLCFGR_PL
1165:Drivers/STM32G4xx_HAL_Driver/Src/stm32g4xx_hal_rcc_ex.c ****       }
1166:Drivers/STM32G4xx_HAL_Driver/Src/stm32g4xx_hal_rcc_ex.c ****       else if((HAL_IS_BIT_SET(RCC->CRRCR, RCC_CRRCR_HSI48RDY)) && (srcclk == RCC_USBCLKSOURCE_HSI48
1167:Drivers/STM32G4xx_HAL_Driver/Src/stm32g4xx_hal_rcc_ex.c ****       {
1168:Drivers/STM32G4xx_HAL_Driver/Src/stm32g4xx_hal_rcc_ex.c ****         frequency = HSI48_VALUE;
1169:Drivers/STM32G4xx_HAL_Driver/Src/stm32g4xx_hal_rcc_ex.c ****       }
1170:Drivers/STM32G4xx_HAL_Driver/Src/stm32g4xx_hal_rcc_ex.c ****       else /* No clock source */
1171:Drivers/STM32G4xx_HAL_Driver/Src/stm32g4xx_hal_rcc_ex.c ****       {
1172:Drivers/STM32G4xx_HAL_Driver/Src/stm32g4xx_hal_rcc_ex.c ****         /* nothing to do: frequency already initialized to 0 */
1173:Drivers/STM32G4xx_HAL_Driver/Src/stm32g4xx_hal_rcc_ex.c ****       }
1174:Drivers/STM32G4xx_HAL_Driver/Src/stm32g4xx_hal_rcc_ex.c ****       break;
1175:Drivers/STM32G4xx_HAL_Driver/Src/stm32g4xx_hal_rcc_ex.c ****       
1176:Drivers/STM32G4xx_HAL_Driver/Src/stm32g4xx_hal_rcc_ex.c **** #endif /* USB */
1177:Drivers/STM32G4xx_HAL_Driver/Src/stm32g4xx_hal_rcc_ex.c **** 
1178:Drivers/STM32G4xx_HAL_Driver/Src/stm32g4xx_hal_rcc_ex.c ****     case RCC_PERIPHCLK_RNG:
1179:Drivers/STM32G4xx_HAL_Driver/Src/stm32g4xx_hal_rcc_ex.c ****       /* Get the current RNG source */
1180:Drivers/STM32G4xx_HAL_Driver/Src/stm32g4xx_hal_rcc_ex.c ****       srcclk = __HAL_RCC_GET_RNG_SOURCE();
1181:Drivers/STM32G4xx_HAL_Driver/Src/stm32g4xx_hal_rcc_ex.c **** 
1182:Drivers/STM32G4xx_HAL_Driver/Src/stm32g4xx_hal_rcc_ex.c ****       if(srcclk == RCC_RNGCLKSOURCE_PLL)  /* PLL ? */
1183:Drivers/STM32G4xx_HAL_Driver/Src/stm32g4xx_hal_rcc_ex.c ****       {
1184:Drivers/STM32G4xx_HAL_Driver/Src/stm32g4xx_hal_rcc_ex.c ****         /* f(PLLQ) = f(VCO input) * PLLN / PLLQ */
1185:Drivers/STM32G4xx_HAL_Driver/Src/stm32g4xx_hal_rcc_ex.c ****         plln = READ_BIT(RCC->PLLCFGR, RCC_PLLCFGR_PLLN) >> RCC_PLLCFGR_PLLN_Pos;
1186:Drivers/STM32G4xx_HAL_Driver/Src/stm32g4xx_hal_rcc_ex.c ****         frequency = (pllvco * plln) / (((READ_BIT(RCC->PLLCFGR, RCC_PLLCFGR_PLLQ) >> RCC_PLLCFGR_PL
1187:Drivers/STM32G4xx_HAL_Driver/Src/stm32g4xx_hal_rcc_ex.c ****       }
1188:Drivers/STM32G4xx_HAL_Driver/Src/stm32g4xx_hal_rcc_ex.c ****       else if( (HAL_IS_BIT_SET(RCC->CRRCR, RCC_CRRCR_HSI48RDY)) && (srcclk == RCC_RNGCLKSOURCE_HSI4
1189:Drivers/STM32G4xx_HAL_Driver/Src/stm32g4xx_hal_rcc_ex.c ****       {
1190:Drivers/STM32G4xx_HAL_Driver/Src/stm32g4xx_hal_rcc_ex.c ****         frequency = HSI48_VALUE;
1191:Drivers/STM32G4xx_HAL_Driver/Src/stm32g4xx_hal_rcc_ex.c ****       }
1192:Drivers/STM32G4xx_HAL_Driver/Src/stm32g4xx_hal_rcc_ex.c ****       else /* No clock source */
1193:Drivers/STM32G4xx_HAL_Driver/Src/stm32g4xx_hal_rcc_ex.c ****       {
1194:Drivers/STM32G4xx_HAL_Driver/Src/stm32g4xx_hal_rcc_ex.c ****         /* nothing to do: frequency already initialized to 0 */
1195:Drivers/STM32G4xx_HAL_Driver/Src/stm32g4xx_hal_rcc_ex.c ****       }
1196:Drivers/STM32G4xx_HAL_Driver/Src/stm32g4xx_hal_rcc_ex.c ****       break;
1197:Drivers/STM32G4xx_HAL_Driver/Src/stm32g4xx_hal_rcc_ex.c **** 
1198:Drivers/STM32G4xx_HAL_Driver/Src/stm32g4xx_hal_rcc_ex.c ****     case RCC_PERIPHCLK_ADC12:
1199:Drivers/STM32G4xx_HAL_Driver/Src/stm32g4xx_hal_rcc_ex.c ****       /* Get the current ADC12 source */
ARM GAS  C:\Users\Nathan\AppData\Local\Temp\cc4vJDVg.s 			page 41


1200:Drivers/STM32G4xx_HAL_Driver/Src/stm32g4xx_hal_rcc_ex.c ****       srcclk = __HAL_RCC_GET_ADC12_SOURCE();
1201:Drivers/STM32G4xx_HAL_Driver/Src/stm32g4xx_hal_rcc_ex.c ****       
1202:Drivers/STM32G4xx_HAL_Driver/Src/stm32g4xx_hal_rcc_ex.c ****       if(srcclk == RCC_ADC12CLKSOURCE_PLL)
1203:Drivers/STM32G4xx_HAL_Driver/Src/stm32g4xx_hal_rcc_ex.c ****       {
1204:Drivers/STM32G4xx_HAL_Driver/Src/stm32g4xx_hal_rcc_ex.c ****         if(__HAL_RCC_GET_PLLCLKOUT_CONFIG(RCC_PLL_ADCCLK) != 0U)
1205:Drivers/STM32G4xx_HAL_Driver/Src/stm32g4xx_hal_rcc_ex.c ****         {
1206:Drivers/STM32G4xx_HAL_Driver/Src/stm32g4xx_hal_rcc_ex.c ****           /* f(PLLP) = f(VCO input) * PLLN / PLLP */
1207:Drivers/STM32G4xx_HAL_Driver/Src/stm32g4xx_hal_rcc_ex.c ****           plln = READ_BIT(RCC->PLLCFGR, RCC_PLLCFGR_PLLN) >> RCC_PLLCFGR_PLLN_Pos;
1208:Drivers/STM32G4xx_HAL_Driver/Src/stm32g4xx_hal_rcc_ex.c ****           pllp = READ_BIT(RCC->PLLCFGR, RCC_PLLCFGR_PLLPDIV) >> RCC_PLLCFGR_PLLPDIV_Pos;
1209:Drivers/STM32G4xx_HAL_Driver/Src/stm32g4xx_hal_rcc_ex.c ****           if(pllp == 0U)
1210:Drivers/STM32G4xx_HAL_Driver/Src/stm32g4xx_hal_rcc_ex.c ****           {
1211:Drivers/STM32G4xx_HAL_Driver/Src/stm32g4xx_hal_rcc_ex.c ****             if(READ_BIT(RCC->PLLCFGR, RCC_PLLCFGR_PLLP) != 0U)
1212:Drivers/STM32G4xx_HAL_Driver/Src/stm32g4xx_hal_rcc_ex.c ****             {
1213:Drivers/STM32G4xx_HAL_Driver/Src/stm32g4xx_hal_rcc_ex.c ****               pllp = 17U;
1214:Drivers/STM32G4xx_HAL_Driver/Src/stm32g4xx_hal_rcc_ex.c ****             }
1215:Drivers/STM32G4xx_HAL_Driver/Src/stm32g4xx_hal_rcc_ex.c ****             else
1216:Drivers/STM32G4xx_HAL_Driver/Src/stm32g4xx_hal_rcc_ex.c ****             {
1217:Drivers/STM32G4xx_HAL_Driver/Src/stm32g4xx_hal_rcc_ex.c ****               pllp = 7U;
1218:Drivers/STM32G4xx_HAL_Driver/Src/stm32g4xx_hal_rcc_ex.c ****             }
1219:Drivers/STM32G4xx_HAL_Driver/Src/stm32g4xx_hal_rcc_ex.c ****           }
1220:Drivers/STM32G4xx_HAL_Driver/Src/stm32g4xx_hal_rcc_ex.c ****           frequency = (pllvco * plln) / pllp;
1221:Drivers/STM32G4xx_HAL_Driver/Src/stm32g4xx_hal_rcc_ex.c ****         }
1222:Drivers/STM32G4xx_HAL_Driver/Src/stm32g4xx_hal_rcc_ex.c ****       }
1223:Drivers/STM32G4xx_HAL_Driver/Src/stm32g4xx_hal_rcc_ex.c ****       else if(srcclk == RCC_ADC12CLKSOURCE_SYSCLK)
1224:Drivers/STM32G4xx_HAL_Driver/Src/stm32g4xx_hal_rcc_ex.c ****       {
1225:Drivers/STM32G4xx_HAL_Driver/Src/stm32g4xx_hal_rcc_ex.c ****         frequency = HAL_RCC_GetSysClockFreq();
1226:Drivers/STM32G4xx_HAL_Driver/Src/stm32g4xx_hal_rcc_ex.c ****       }
1227:Drivers/STM32G4xx_HAL_Driver/Src/stm32g4xx_hal_rcc_ex.c ****       /* Clock not enabled for ADC12 */
1228:Drivers/STM32G4xx_HAL_Driver/Src/stm32g4xx_hal_rcc_ex.c ****       else
1229:Drivers/STM32G4xx_HAL_Driver/Src/stm32g4xx_hal_rcc_ex.c ****       {
1230:Drivers/STM32G4xx_HAL_Driver/Src/stm32g4xx_hal_rcc_ex.c ****         /* nothing to do: frequency already initialized to 0 */
1231:Drivers/STM32G4xx_HAL_Driver/Src/stm32g4xx_hal_rcc_ex.c ****       }
1232:Drivers/STM32G4xx_HAL_Driver/Src/stm32g4xx_hal_rcc_ex.c ****       break;
1233:Drivers/STM32G4xx_HAL_Driver/Src/stm32g4xx_hal_rcc_ex.c **** 
1234:Drivers/STM32G4xx_HAL_Driver/Src/stm32g4xx_hal_rcc_ex.c **** #if defined(ADC345_COMMON)
1235:Drivers/STM32G4xx_HAL_Driver/Src/stm32g4xx_hal_rcc_ex.c ****     case RCC_PERIPHCLK_ADC345:
1236:Drivers/STM32G4xx_HAL_Driver/Src/stm32g4xx_hal_rcc_ex.c ****       /* Get the current ADC345 source */
1237:Drivers/STM32G4xx_HAL_Driver/Src/stm32g4xx_hal_rcc_ex.c ****       srcclk = __HAL_RCC_GET_ADC345_SOURCE();
 1033              		.loc 1 1237 7 is_stmt 1 view .LVU335
 1034              		.loc 1 1237 16 is_stmt 0 view .LVU336
 1035 015a 544B     		ldr	r3, .L210
 1036 015c D3F88830 		ldr	r3, [r3, #136]
 1037              		.loc 1 1237 14 view .LVU337
 1038 0160 03F04043 		and	r3, r3, #-1073741824
 1039              	.LVL44:
1238:Drivers/STM32G4xx_HAL_Driver/Src/stm32g4xx_hal_rcc_ex.c ****       
1239:Drivers/STM32G4xx_HAL_Driver/Src/stm32g4xx_hal_rcc_ex.c ****       if(srcclk == RCC_ADC345CLKSOURCE_PLL)
 1040              		.loc 1 1239 7 is_stmt 1 view .LVU338
 1041              		.loc 1 1239 9 is_stmt 0 view .LVU339
 1042 0164 B3F1804F 		cmp	r3, #1073741824
 1043 0168 00F08F82 		beq	.L174
1240:Drivers/STM32G4xx_HAL_Driver/Src/stm32g4xx_hal_rcc_ex.c ****       {
1241:Drivers/STM32G4xx_HAL_Driver/Src/stm32g4xx_hal_rcc_ex.c ****         if(__HAL_RCC_GET_PLLCLKOUT_CONFIG(RCC_PLL_ADCCLK) != 0U)
1242:Drivers/STM32G4xx_HAL_Driver/Src/stm32g4xx_hal_rcc_ex.c ****         {
1243:Drivers/STM32G4xx_HAL_Driver/Src/stm32g4xx_hal_rcc_ex.c ****           /* f(PLLP) = f(VCO input) * PLLN / PLLP */
1244:Drivers/STM32G4xx_HAL_Driver/Src/stm32g4xx_hal_rcc_ex.c ****           plln = READ_BIT(RCC->PLLCFGR, RCC_PLLCFGR_PLLN) >> RCC_PLLCFGR_PLLN_Pos;
1245:Drivers/STM32G4xx_HAL_Driver/Src/stm32g4xx_hal_rcc_ex.c ****           pllp = READ_BIT(RCC->PLLCFGR, RCC_PLLCFGR_PLLPDIV) >> RCC_PLLCFGR_PLLPDIV_Pos;
ARM GAS  C:\Users\Nathan\AppData\Local\Temp\cc4vJDVg.s 			page 42


1246:Drivers/STM32G4xx_HAL_Driver/Src/stm32g4xx_hal_rcc_ex.c ****           if(pllp == 0U)
1247:Drivers/STM32G4xx_HAL_Driver/Src/stm32g4xx_hal_rcc_ex.c ****           {
1248:Drivers/STM32G4xx_HAL_Driver/Src/stm32g4xx_hal_rcc_ex.c ****             if(READ_BIT(RCC->PLLCFGR, RCC_PLLCFGR_PLLP) != 0U)
1249:Drivers/STM32G4xx_HAL_Driver/Src/stm32g4xx_hal_rcc_ex.c ****             {
1250:Drivers/STM32G4xx_HAL_Driver/Src/stm32g4xx_hal_rcc_ex.c ****               pllp = 17U;
1251:Drivers/STM32G4xx_HAL_Driver/Src/stm32g4xx_hal_rcc_ex.c ****             }
1252:Drivers/STM32G4xx_HAL_Driver/Src/stm32g4xx_hal_rcc_ex.c ****             else
1253:Drivers/STM32G4xx_HAL_Driver/Src/stm32g4xx_hal_rcc_ex.c ****             {
1254:Drivers/STM32G4xx_HAL_Driver/Src/stm32g4xx_hal_rcc_ex.c ****               pllp = 7U;
1255:Drivers/STM32G4xx_HAL_Driver/Src/stm32g4xx_hal_rcc_ex.c ****             }
1256:Drivers/STM32G4xx_HAL_Driver/Src/stm32g4xx_hal_rcc_ex.c ****           }
1257:Drivers/STM32G4xx_HAL_Driver/Src/stm32g4xx_hal_rcc_ex.c ****           frequency = (pllvco * plln) / pllp;
1258:Drivers/STM32G4xx_HAL_Driver/Src/stm32g4xx_hal_rcc_ex.c ****         }
1259:Drivers/STM32G4xx_HAL_Driver/Src/stm32g4xx_hal_rcc_ex.c ****       }
1260:Drivers/STM32G4xx_HAL_Driver/Src/stm32g4xx_hal_rcc_ex.c ****       else if(srcclk == RCC_ADC345CLKSOURCE_SYSCLK)
 1044              		.loc 1 1260 12 is_stmt 1 view .LVU340
 1045              		.loc 1 1260 14 is_stmt 0 view .LVU341
 1046 016c B3F1004F 		cmp	r3, #-2147483648
 1047 0170 00F0A482 		beq	.L175
 686:Drivers/STM32G4xx_HAL_Driver/Src/stm32g4xx_hal_rcc_ex.c ****   uint32_t srcclk;
 1048              		.loc 1 686 12 view .LVU342
 1049 0174 0020     		movs	r0, #0
 1050              	.LVL45:
 686:Drivers/STM32G4xx_HAL_Driver/Src/stm32g4xx_hal_rcc_ex.c ****   uint32_t srcclk;
 1051              		.loc 1 686 12 view .LVU343
 1052 0176 C0E2     		b	.L53
 1053              	.LVL46:
 1054              	.L172:
 754:Drivers/STM32G4xx_HAL_Driver/Src/stm32g4xx_hal_rcc_ex.c ****     {
 1055              		.loc 1 754 5 view .LVU344
 1056 0178 B0F5805F 		cmp	r0, #4096
 1057 017c 00F0F981 		beq	.L75
 1058 0180 23D8     		bhi	.L76
 1059 0182 B0F5806F 		cmp	r0, #1024
 1060 0186 00F0A981 		beq	.L77
 1061 018a B0F5006F 		cmp	r0, #2048
 1062 018e 1AD1     		bne	.L176
1092:Drivers/STM32G4xx_HAL_Driver/Src/stm32g4xx_hal_rcc_ex.c **** 
 1063              		.loc 1 1092 7 is_stmt 1 view .LVU345
1092:Drivers/STM32G4xx_HAL_Driver/Src/stm32g4xx_hal_rcc_ex.c **** 
 1064              		.loc 1 1092 16 is_stmt 0 view .LVU346
 1065 0190 464B     		ldr	r3, .L210
 1066 0192 D3F88830 		ldr	r3, [r3, #136]
 1067              	.LVL47:
1094:Drivers/STM32G4xx_HAL_Driver/Src/stm32g4xx_hal_rcc_ex.c ****       {
 1068              		.loc 1 1094 7 is_stmt 1 view .LVU347
1094:Drivers/STM32G4xx_HAL_Driver/Src/stm32g4xx_hal_rcc_ex.c ****       {
 1069              		.loc 1 1094 9 is_stmt 0 view .LVU348
 1070 0196 13F44003 		ands	r3, r3, #12582912
 1071              	.LVL48:
1094:Drivers/STM32G4xx_HAL_Driver/Src/stm32g4xx_hal_rcc_ex.c ****       {
 1072              		.loc 1 1094 9 view .LVU349
 1073 019a 00F0D181 		beq	.L177
1098:Drivers/STM32G4xx_HAL_Driver/Src/stm32g4xx_hal_rcc_ex.c ****       {
 1074              		.loc 1 1098 12 is_stmt 1 view .LVU350
1098:Drivers/STM32G4xx_HAL_Driver/Src/stm32g4xx_hal_rcc_ex.c ****       {
 1075              		.loc 1 1098 14 is_stmt 0 view .LVU351
ARM GAS  C:\Users\Nathan\AppData\Local\Temp\cc4vJDVg.s 			page 43


 1076 019e B3F5800F 		cmp	r3, #4194304
 1077 01a2 00F0D081 		beq	.L178
1107:Drivers/STM32G4xx_HAL_Driver/Src/stm32g4xx_hal_rcc_ex.c ****       {
 1078              		.loc 1 1107 12 is_stmt 1 view .LVU352
1107:Drivers/STM32G4xx_HAL_Driver/Src/stm32g4xx_hal_rcc_ex.c ****       {
 1079              		.loc 1 1107 14 is_stmt 0 view .LVU353
 1080 01a6 B3F5000F 		cmp	r3, #8388608
 1081 01aa 00F0D982 		beq	.L153
1112:Drivers/STM32G4xx_HAL_Driver/Src/stm32g4xx_hal_rcc_ex.c ****       {
 1082              		.loc 1 1112 12 is_stmt 1 view .LVU354
1112:Drivers/STM32G4xx_HAL_Driver/Src/stm32g4xx_hal_rcc_ex.c ****       {
 1083              		.loc 1 1112 16 is_stmt 0 view .LVU355
 1084 01ae 3F4A     		ldr	r2, .L210
 1085              	.LVL49:
1112:Drivers/STM32G4xx_HAL_Driver/Src/stm32g4xx_hal_rcc_ex.c ****       {
 1086              		.loc 1 1112 16 view .LVU356
 1087 01b0 1068     		ldr	r0, [r2]
 1088              	.LVL50:
1112:Drivers/STM32G4xx_HAL_Driver/Src/stm32g4xx_hal_rcc_ex.c ****       {
 1089              		.loc 1 1112 14 view .LVU357
 1090 01b2 10F48060 		ands	r0, r0, #1024
 1091 01b6 00F0A082 		beq	.L53
1112:Drivers/STM32G4xx_HAL_Driver/Src/stm32g4xx_hal_rcc_ex.c ****       {
 1092              		.loc 1 1112 56 discriminator 1 view .LVU358
 1093 01ba B3F5400F 		cmp	r3, #12582912
 1094 01be 00F0D182 		beq	.L154
 686:Drivers/STM32G4xx_HAL_Driver/Src/stm32g4xx_hal_rcc_ex.c ****   uint32_t srcclk;
 1095              		.loc 1 686 12 view .LVU359
 1096 01c2 0020     		movs	r0, #0
 1097 01c4 99E2     		b	.L53
 1098              	.LVL51:
 1099              	.L176:
 754:Drivers/STM32G4xx_HAL_Driver/Src/stm32g4xx_hal_rcc_ex.c ****     {
 1100              		.loc 1 754 5 view .LVU360
 1101 01c6 0020     		movs	r0, #0
 1102              	.LVL52:
 754:Drivers/STM32G4xx_HAL_Driver/Src/stm32g4xx_hal_rcc_ex.c ****     {
 1103              		.loc 1 754 5 view .LVU361
 1104 01c8 97E2     		b	.L53
 1105              	.LVL53:
 1106              	.L76:
 754:Drivers/STM32G4xx_HAL_Driver/Src/stm32g4xx_hal_rcc_ex.c ****     {
 1107              		.loc 1 754 5 view .LVU362
 1108 01ca B0F5005F 		cmp	r0, #8192
 1109 01ce 14D1     		bne	.L179
1158:Drivers/STM32G4xx_HAL_Driver/Src/stm32g4xx_hal_rcc_ex.c ****       
 1110              		.loc 1 1158 7 is_stmt 1 view .LVU363
1158:Drivers/STM32G4xx_HAL_Driver/Src/stm32g4xx_hal_rcc_ex.c ****       
 1111              		.loc 1 1158 16 is_stmt 0 view .LVU364
 1112 01d0 364B     		ldr	r3, .L210
 1113 01d2 D3F88830 		ldr	r3, [r3, #136]
1158:Drivers/STM32G4xx_HAL_Driver/Src/stm32g4xx_hal_rcc_ex.c ****       
 1114              		.loc 1 1158 14 view .LVU365
 1115 01d6 03F04063 		and	r3, r3, #201326592
 1116              	.LVL54:
1160:Drivers/STM32G4xx_HAL_Driver/Src/stm32g4xx_hal_rcc_ex.c ****       {
 1117              		.loc 1 1160 7 is_stmt 1 view .LVU366
ARM GAS  C:\Users\Nathan\AppData\Local\Temp\cc4vJDVg.s 			page 44


1160:Drivers/STM32G4xx_HAL_Driver/Src/stm32g4xx_hal_rcc_ex.c ****       {
 1118              		.loc 1 1160 9 is_stmt 0 view .LVU367
 1119 01da B3F1006F 		cmp	r3, #134217728
 1120 01de 00F0F481 		beq	.L180
1166:Drivers/STM32G4xx_HAL_Driver/Src/stm32g4xx_hal_rcc_ex.c ****       {
 1121              		.loc 1 1166 12 is_stmt 1 view .LVU368
1166:Drivers/STM32G4xx_HAL_Driver/Src/stm32g4xx_hal_rcc_ex.c ****       {
 1122              		.loc 1 1166 16 is_stmt 0 view .LVU369
 1123 01e2 324A     		ldr	r2, .L210
 1124              	.LVL55:
1166:Drivers/STM32G4xx_HAL_Driver/Src/stm32g4xx_hal_rcc_ex.c ****       {
 1125              		.loc 1 1166 16 view .LVU370
 1126 01e4 D2F89800 		ldr	r0, [r2, #152]
 1127              	.LVL56:
1166:Drivers/STM32G4xx_HAL_Driver/Src/stm32g4xx_hal_rcc_ex.c ****       {
 1128              		.loc 1 1166 14 view .LVU371
 1129 01e8 10F00200 		ands	r0, r0, #2
 1130 01ec 00F08582 		beq	.L53
1166:Drivers/STM32G4xx_HAL_Driver/Src/stm32g4xx_hal_rcc_ex.c ****       {
 1131              		.loc 1 1166 64 discriminator 1 view .LVU372
 1132 01f0 002B     		cmp	r3, #0
 1133 01f2 00F0BB82 		beq	.L157
 686:Drivers/STM32G4xx_HAL_Driver/Src/stm32g4xx_hal_rcc_ex.c ****   uint32_t srcclk;
 1134              		.loc 1 686 12 view .LVU373
 1135 01f6 0020     		movs	r0, #0
 1136 01f8 7FE2     		b	.L53
 1137              	.LVL57:
 1138              	.L179:
 754:Drivers/STM32G4xx_HAL_Driver/Src/stm32g4xx_hal_rcc_ex.c ****     {
 1139              		.loc 1 754 5 view .LVU374
 1140 01fa 0020     		movs	r0, #0
 1141              	.LVL58:
 754:Drivers/STM32G4xx_HAL_Driver/Src/stm32g4xx_hal_rcc_ex.c ****     {
 1142              		.loc 1 754 5 view .LVU375
 1143 01fc 7DE2     		b	.L53
 1144              	.LVL59:
 1145              	.L173:
 754:Drivers/STM32G4xx_HAL_Driver/Src/stm32g4xx_hal_rcc_ex.c ****     {
 1146              		.loc 1 754 5 view .LVU376
 1147 01fe 0020     		movs	r0, #0
 1148              	.LVL60:
 754:Drivers/STM32G4xx_HAL_Driver/Src/stm32g4xx_hal_rcc_ex.c ****     {
 1149              		.loc 1 754 5 view .LVU377
 1150 0200 7BE2     		b	.L53
 1151              	.LVL61:
 1152              	.L81:
 754:Drivers/STM32G4xx_HAL_Driver/Src/stm32g4xx_hal_rcc_ex.c ****     {
 1153              		.loc 1 754 5 view .LVU378
 1154 0202 B0F5802F 		cmp	r0, #262144
 1155 0206 11D1     		bne	.L181
1261:Drivers/STM32G4xx_HAL_Driver/Src/stm32g4xx_hal_rcc_ex.c ****       {
1262:Drivers/STM32G4xx_HAL_Driver/Src/stm32g4xx_hal_rcc_ex.c ****         frequency = HAL_RCC_GetSysClockFreq();
1263:Drivers/STM32G4xx_HAL_Driver/Src/stm32g4xx_hal_rcc_ex.c ****       }
1264:Drivers/STM32G4xx_HAL_Driver/Src/stm32g4xx_hal_rcc_ex.c ****       /* Clock not enabled for ADC345 */
1265:Drivers/STM32G4xx_HAL_Driver/Src/stm32g4xx_hal_rcc_ex.c ****       else
1266:Drivers/STM32G4xx_HAL_Driver/Src/stm32g4xx_hal_rcc_ex.c ****       {
1267:Drivers/STM32G4xx_HAL_Driver/Src/stm32g4xx_hal_rcc_ex.c ****         /* nothing to do: frequency already initialized to 0 */
ARM GAS  C:\Users\Nathan\AppData\Local\Temp\cc4vJDVg.s 			page 45


1268:Drivers/STM32G4xx_HAL_Driver/Src/stm32g4xx_hal_rcc_ex.c ****       }
1269:Drivers/STM32G4xx_HAL_Driver/Src/stm32g4xx_hal_rcc_ex.c ****       break;
1270:Drivers/STM32G4xx_HAL_Driver/Src/stm32g4xx_hal_rcc_ex.c **** #endif /* ADC345_COMMON */
1271:Drivers/STM32G4xx_HAL_Driver/Src/stm32g4xx_hal_rcc_ex.c **** 
1272:Drivers/STM32G4xx_HAL_Driver/Src/stm32g4xx_hal_rcc_ex.c **** #if defined(QUADSPI)
1273:Drivers/STM32G4xx_HAL_Driver/Src/stm32g4xx_hal_rcc_ex.c **** 
1274:Drivers/STM32G4xx_HAL_Driver/Src/stm32g4xx_hal_rcc_ex.c ****     case RCC_PERIPHCLK_QSPI:
1275:Drivers/STM32G4xx_HAL_Driver/Src/stm32g4xx_hal_rcc_ex.c ****       /* Get the current QSPI source */
1276:Drivers/STM32G4xx_HAL_Driver/Src/stm32g4xx_hal_rcc_ex.c ****       srcclk = __HAL_RCC_GET_QSPI_SOURCE();
 1156              		.loc 1 1276 7 is_stmt 1 view .LVU379
 1157              		.loc 1 1276 16 is_stmt 0 view .LVU380
 1158 0208 284B     		ldr	r3, .L210
 1159 020a D3F89C30 		ldr	r3, [r3, #156]
 1160              		.loc 1 1276 14 view .LVU381
 1161 020e 03F44013 		and	r3, r3, #3145728
 1162              	.LVL62:
1277:Drivers/STM32G4xx_HAL_Driver/Src/stm32g4xx_hal_rcc_ex.c ****       
1278:Drivers/STM32G4xx_HAL_Driver/Src/stm32g4xx_hal_rcc_ex.c ****       if(srcclk == RCC_QSPICLKSOURCE_PLL)  /* PLL ? */
 1163              		.loc 1 1278 7 is_stmt 1 view .LVU382
 1164              		.loc 1 1278 9 is_stmt 0 view .LVU383
 1165 0212 B3F5001F 		cmp	r3, #2097152
 1166 0216 00F05482 		beq	.L182
1279:Drivers/STM32G4xx_HAL_Driver/Src/stm32g4xx_hal_rcc_ex.c ****       {
1280:Drivers/STM32G4xx_HAL_Driver/Src/stm32g4xx_hal_rcc_ex.c ****         /* f(PLLQ) = f(VCO input) * PLLN / PLLQ */
1281:Drivers/STM32G4xx_HAL_Driver/Src/stm32g4xx_hal_rcc_ex.c ****         plln = READ_BIT(RCC->PLLCFGR, RCC_PLLCFGR_PLLN) >> RCC_PLLCFGR_PLLN_Pos;
1282:Drivers/STM32G4xx_HAL_Driver/Src/stm32g4xx_hal_rcc_ex.c ****         frequency = (pllvco * plln) / (((READ_BIT(RCC->PLLCFGR, RCC_PLLCFGR_PLLQ) >> RCC_PLLCFGR_PL
1283:Drivers/STM32G4xx_HAL_Driver/Src/stm32g4xx_hal_rcc_ex.c ****       }
1284:Drivers/STM32G4xx_HAL_Driver/Src/stm32g4xx_hal_rcc_ex.c ****       else if(srcclk == RCC_QSPICLKSOURCE_HSI)
 1167              		.loc 1 1284 12 is_stmt 1 view .LVU384
 1168              		.loc 1 1284 14 is_stmt 0 view .LVU385
 1169 021a B3F5801F 		cmp	r3, #1048576
 1170 021e 00F0A982 		beq	.L163
1285:Drivers/STM32G4xx_HAL_Driver/Src/stm32g4xx_hal_rcc_ex.c ****       {
1286:Drivers/STM32G4xx_HAL_Driver/Src/stm32g4xx_hal_rcc_ex.c ****         frequency = HSI_VALUE;
1287:Drivers/STM32G4xx_HAL_Driver/Src/stm32g4xx_hal_rcc_ex.c ****       }      
1288:Drivers/STM32G4xx_HAL_Driver/Src/stm32g4xx_hal_rcc_ex.c ****       else if(srcclk == RCC_QSPICLKSOURCE_SYSCLK)
 1171              		.loc 1 1288 12 is_stmt 1 view .LVU386
 1172              		.loc 1 1288 14 is_stmt 0 view .LVU387
 1173 0222 002B     		cmp	r3, #0
 1174 0224 00F05B82 		beq	.L183
 686:Drivers/STM32G4xx_HAL_Driver/Src/stm32g4xx_hal_rcc_ex.c ****   uint32_t srcclk;
 1175              		.loc 1 686 12 view .LVU388
 1176 0228 0020     		movs	r0, #0
 1177              	.LVL63:
1289:Drivers/STM32G4xx_HAL_Driver/Src/stm32g4xx_hal_rcc_ex.c ****       {
1290:Drivers/STM32G4xx_HAL_Driver/Src/stm32g4xx_hal_rcc_ex.c ****         frequency = HAL_RCC_GetSysClockFreq();
1291:Drivers/STM32G4xx_HAL_Driver/Src/stm32g4xx_hal_rcc_ex.c ****       }
1292:Drivers/STM32G4xx_HAL_Driver/Src/stm32g4xx_hal_rcc_ex.c ****       else /* No clock source */
1293:Drivers/STM32G4xx_HAL_Driver/Src/stm32g4xx_hal_rcc_ex.c ****       {
1294:Drivers/STM32G4xx_HAL_Driver/Src/stm32g4xx_hal_rcc_ex.c ****         /* nothing to do: frequency already initialized to 0 */
1295:Drivers/STM32G4xx_HAL_Driver/Src/stm32g4xx_hal_rcc_ex.c ****       }
1296:Drivers/STM32G4xx_HAL_Driver/Src/stm32g4xx_hal_rcc_ex.c ****       break;
1297:Drivers/STM32G4xx_HAL_Driver/Src/stm32g4xx_hal_rcc_ex.c **** 
1298:Drivers/STM32G4xx_HAL_Driver/Src/stm32g4xx_hal_rcc_ex.c **** #endif /* QUADSPI */
1299:Drivers/STM32G4xx_HAL_Driver/Src/stm32g4xx_hal_rcc_ex.c **** 
1300:Drivers/STM32G4xx_HAL_Driver/Src/stm32g4xx_hal_rcc_ex.c ****     default:
1301:Drivers/STM32G4xx_HAL_Driver/Src/stm32g4xx_hal_rcc_ex.c ****       break;
ARM GAS  C:\Users\Nathan\AppData\Local\Temp\cc4vJDVg.s 			page 46


1302:Drivers/STM32G4xx_HAL_Driver/Src/stm32g4xx_hal_rcc_ex.c ****     }
1303:Drivers/STM32G4xx_HAL_Driver/Src/stm32g4xx_hal_rcc_ex.c ****   }
1304:Drivers/STM32G4xx_HAL_Driver/Src/stm32g4xx_hal_rcc_ex.c **** 
1305:Drivers/STM32G4xx_HAL_Driver/Src/stm32g4xx_hal_rcc_ex.c ****   return(frequency);
 1178              		.loc 1 1305 3 is_stmt 1 view .LVU389
 1179              		.loc 1 1305 9 is_stmt 0 view .LVU390
 1180 022a 66E2     		b	.L53
 1181              	.LVL64:
 1182              	.L181:
 754:Drivers/STM32G4xx_HAL_Driver/Src/stm32g4xx_hal_rcc_ex.c ****     {
 1183              		.loc 1 754 5 view .LVU391
 1184 022c 0020     		movs	r0, #0
 1185              	.LVL65:
 754:Drivers/STM32G4xx_HAL_Driver/Src/stm32g4xx_hal_rcc_ex.c ****     {
 1186              		.loc 1 754 5 view .LVU392
 1187 022e 64E2     		b	.L53
 1188              	.LVL66:
 1189              	.L69:
 759:Drivers/STM32G4xx_HAL_Driver/Src/stm32g4xx_hal_rcc_ex.c **** 
 1190              		.loc 1 759 7 is_stmt 1 view .LVU393
 759:Drivers/STM32G4xx_HAL_Driver/Src/stm32g4xx_hal_rcc_ex.c **** 
 1191              		.loc 1 759 16 is_stmt 0 view .LVU394
 1192 0230 1E4B     		ldr	r3, .L210
 1193 0232 D3F88830 		ldr	r3, [r3, #136]
 1194              	.LVL67:
 761:Drivers/STM32G4xx_HAL_Driver/Src/stm32g4xx_hal_rcc_ex.c ****       {
 1195              		.loc 1 761 7 is_stmt 1 view .LVU395
 761:Drivers/STM32G4xx_HAL_Driver/Src/stm32g4xx_hal_rcc_ex.c ****       {
 1196              		.loc 1 761 9 is_stmt 0 view .LVU396
 1197 0236 13F00303 		ands	r3, r3, #3
 1198              	.LVL68:
 761:Drivers/STM32G4xx_HAL_Driver/Src/stm32g4xx_hal_rcc_ex.c ****       {
 1199              		.loc 1 761 9 view .LVU397
 1200 023a 15D0     		beq	.L184
 765:Drivers/STM32G4xx_HAL_Driver/Src/stm32g4xx_hal_rcc_ex.c ****       {
 1201              		.loc 1 765 12 is_stmt 1 view .LVU398
 765:Drivers/STM32G4xx_HAL_Driver/Src/stm32g4xx_hal_rcc_ex.c ****       {
 1202              		.loc 1 765 14 is_stmt 0 view .LVU399
 1203 023c 012B     		cmp	r3, #1
 1204 023e 16D0     		beq	.L185
 769:Drivers/STM32G4xx_HAL_Driver/Src/stm32g4xx_hal_rcc_ex.c ****       {
 1205              		.loc 1 769 12 is_stmt 1 view .LVU400
 769:Drivers/STM32G4xx_HAL_Driver/Src/stm32g4xx_hal_rcc_ex.c ****       {
 1206              		.loc 1 769 16 is_stmt 0 view .LVU401
 1207 0240 1A4A     		ldr	r2, .L210
 1208              	.LVL69:
 769:Drivers/STM32G4xx_HAL_Driver/Src/stm32g4xx_hal_rcc_ex.c ****       {
 1209              		.loc 1 769 16 view .LVU402
 1210 0242 1268     		ldr	r2, [r2]
 769:Drivers/STM32G4xx_HAL_Driver/Src/stm32g4xx_hal_rcc_ex.c ****       {
 1211              		.loc 1 769 14 view .LVU403
 1212 0244 12F4806F 		tst	r2, #1024
 1213 0248 02D0     		beq	.L87
 769:Drivers/STM32G4xx_HAL_Driver/Src/stm32g4xx_hal_rcc_ex.c ****       {
 1214              		.loc 1 769 56 discriminator 1 view .LVU404
 1215 024a 022B     		cmp	r3, #2
 1216 024c 00F05682 		beq	.L132
ARM GAS  C:\Users\Nathan\AppData\Local\Temp\cc4vJDVg.s 			page 47


 1217              	.L87:
 773:Drivers/STM32G4xx_HAL_Driver/Src/stm32g4xx_hal_rcc_ex.c ****       {
 1218              		.loc 1 773 12 is_stmt 1 view .LVU405
 773:Drivers/STM32G4xx_HAL_Driver/Src/stm32g4xx_hal_rcc_ex.c ****       {
 1219              		.loc 1 773 16 is_stmt 0 view .LVU406
 1220 0250 164A     		ldr	r2, .L210
 1221 0252 D2F89000 		ldr	r0, [r2, #144]
 1222              	.LVL70:
 773:Drivers/STM32G4xx_HAL_Driver/Src/stm32g4xx_hal_rcc_ex.c ****       {
 1223              		.loc 1 773 14 view .LVU407
 1224 0256 10F00200 		ands	r0, r0, #2
 1225 025a 00F04E82 		beq	.L53
 773:Drivers/STM32G4xx_HAL_Driver/Src/stm32g4xx_hal_rcc_ex.c ****       {
 1226              		.loc 1 773 60 discriminator 1 view .LVU408
 1227 025e 032B     		cmp	r3, #3
 1228 0260 00F04E82 		beq	.L133
 686:Drivers/STM32G4xx_HAL_Driver/Src/stm32g4xx_hal_rcc_ex.c ****   uint32_t srcclk;
 1229              		.loc 1 686 12 view .LVU409
 1230 0264 0020     		movs	r0, #0
 1231 0266 48E2     		b	.L53
 1232              	.LVL71:
 1233              	.L184:
 763:Drivers/STM32G4xx_HAL_Driver/Src/stm32g4xx_hal_rcc_ex.c ****       }
 1234              		.loc 1 763 9 is_stmt 1 view .LVU410
 763:Drivers/STM32G4xx_HAL_Driver/Src/stm32g4xx_hal_rcc_ex.c ****       }
 1235              		.loc 1 763 21 is_stmt 0 view .LVU411
 1236 0268 FFF7FEFF 		bl	HAL_RCC_GetPCLK2Freq
 1237              	.LVL72:
 763:Drivers/STM32G4xx_HAL_Driver/Src/stm32g4xx_hal_rcc_ex.c ****       }
 1238              		.loc 1 763 21 view .LVU412
 1239 026c 45E2     		b	.L53
 1240              	.LVL73:
 1241              	.L185:
 767:Drivers/STM32G4xx_HAL_Driver/Src/stm32g4xx_hal_rcc_ex.c ****       }
 1242              		.loc 1 767 9 is_stmt 1 view .LVU413
 767:Drivers/STM32G4xx_HAL_Driver/Src/stm32g4xx_hal_rcc_ex.c ****       }
 1243              		.loc 1 767 21 is_stmt 0 view .LVU414
 1244 026e FFF7FEFF 		bl	HAL_RCC_GetSysClockFreq
 1245              	.LVL74:
 767:Drivers/STM32G4xx_HAL_Driver/Src/stm32g4xx_hal_rcc_ex.c ****       }
 1246              		.loc 1 767 21 view .LVU415
 1247 0272 42E2     		b	.L53
 1248              	.LVL75:
 1249              	.L68:
 786:Drivers/STM32G4xx_HAL_Driver/Src/stm32g4xx_hal_rcc_ex.c **** 
 1250              		.loc 1 786 7 is_stmt 1 view .LVU416
 786:Drivers/STM32G4xx_HAL_Driver/Src/stm32g4xx_hal_rcc_ex.c **** 
 1251              		.loc 1 786 16 is_stmt 0 view .LVU417
 1252 0274 0D4B     		ldr	r3, .L210
 1253 0276 D3F88830 		ldr	r3, [r3, #136]
 1254              	.LVL76:
 788:Drivers/STM32G4xx_HAL_Driver/Src/stm32g4xx_hal_rcc_ex.c ****       {
 1255              		.loc 1 788 7 is_stmt 1 view .LVU418
 788:Drivers/STM32G4xx_HAL_Driver/Src/stm32g4xx_hal_rcc_ex.c ****       {
 1256              		.loc 1 788 9 is_stmt 0 view .LVU419
 1257 027a 13F00C03 		ands	r3, r3, #12
 1258              	.LVL77:
ARM GAS  C:\Users\Nathan\AppData\Local\Temp\cc4vJDVg.s 			page 48


 788:Drivers/STM32G4xx_HAL_Driver/Src/stm32g4xx_hal_rcc_ex.c ****       {
 1259              		.loc 1 788 9 view .LVU420
 1260 027e 1BD0     		beq	.L186
 792:Drivers/STM32G4xx_HAL_Driver/Src/stm32g4xx_hal_rcc_ex.c ****       {
 1261              		.loc 1 792 12 is_stmt 1 view .LVU421
 792:Drivers/STM32G4xx_HAL_Driver/Src/stm32g4xx_hal_rcc_ex.c ****       {
 1262              		.loc 1 792 14 is_stmt 0 view .LVU422
 1263 0280 042B     		cmp	r3, #4
 1264 0282 1CD0     		beq	.L187
 796:Drivers/STM32G4xx_HAL_Driver/Src/stm32g4xx_hal_rcc_ex.c ****       {
 1265              		.loc 1 796 12 is_stmt 1 view .LVU423
 796:Drivers/STM32G4xx_HAL_Driver/Src/stm32g4xx_hal_rcc_ex.c ****       {
 1266              		.loc 1 796 16 is_stmt 0 view .LVU424
 1267 0284 094A     		ldr	r2, .L210
 1268              	.LVL78:
 796:Drivers/STM32G4xx_HAL_Driver/Src/stm32g4xx_hal_rcc_ex.c ****       {
 1269              		.loc 1 796 16 view .LVU425
 1270 0286 1268     		ldr	r2, [r2]
 796:Drivers/STM32G4xx_HAL_Driver/Src/stm32g4xx_hal_rcc_ex.c ****       {
 1271              		.loc 1 796 14 view .LVU426
 1272 0288 12F4806F 		tst	r2, #1024
 1273 028c 02D0     		beq	.L90
 796:Drivers/STM32G4xx_HAL_Driver/Src/stm32g4xx_hal_rcc_ex.c ****       {
 1274              		.loc 1 796 56 discriminator 1 view .LVU427
 1275 028e 082B     		cmp	r3, #8
 1276 0290 00F03982 		beq	.L134
 1277              	.L90:
 800:Drivers/STM32G4xx_HAL_Driver/Src/stm32g4xx_hal_rcc_ex.c ****       {
 1278              		.loc 1 800 12 is_stmt 1 view .LVU428
 800:Drivers/STM32G4xx_HAL_Driver/Src/stm32g4xx_hal_rcc_ex.c ****       {
 1279              		.loc 1 800 16 is_stmt 0 view .LVU429
 1280 0294 054A     		ldr	r2, .L210
 1281 0296 D2F89000 		ldr	r0, [r2, #144]
 800:Drivers/STM32G4xx_HAL_Driver/Src/stm32g4xx_hal_rcc_ex.c ****       {
 1282              		.loc 1 800 14 view .LVU430
 1283 029a 10F00200 		ands	r0, r0, #2
 1284 029e 00F02C82 		beq	.L53
 800:Drivers/STM32G4xx_HAL_Driver/Src/stm32g4xx_hal_rcc_ex.c ****       {
 1285              		.loc 1 800 61 discriminator 1 view .LVU431
 1286 02a2 0C2B     		cmp	r3, #12
 1287 02a4 00F03182 		beq	.L135
 686:Drivers/STM32G4xx_HAL_Driver/Src/stm32g4xx_hal_rcc_ex.c ****   uint32_t srcclk;
 1288              		.loc 1 686 12 view .LVU432
 1289 02a8 0020     		movs	r0, #0
 1290 02aa 26E2     		b	.L53
 1291              	.L211:
 1292              		.align	2
 1293              	.L210:
 1294 02ac 00100240 		.word	1073876992
 1295 02b0 0024F400 		.word	16000000
 1296 02b4 00366E01 		.word	24000000
 1297              	.LVL79:
 1298              	.L186:
 790:Drivers/STM32G4xx_HAL_Driver/Src/stm32g4xx_hal_rcc_ex.c ****       }
 1299              		.loc 1 790 9 is_stmt 1 view .LVU433
 790:Drivers/STM32G4xx_HAL_Driver/Src/stm32g4xx_hal_rcc_ex.c ****       }
 1300              		.loc 1 790 21 is_stmt 0 view .LVU434
ARM GAS  C:\Users\Nathan\AppData\Local\Temp\cc4vJDVg.s 			page 49


 1301 02b8 FFF7FEFF 		bl	HAL_RCC_GetPCLK1Freq
 1302              	.LVL80:
 790:Drivers/STM32G4xx_HAL_Driver/Src/stm32g4xx_hal_rcc_ex.c ****       }
 1303              		.loc 1 790 21 view .LVU435
 1304 02bc 1DE2     		b	.L53
 1305              	.LVL81:
 1306              	.L187:
 794:Drivers/STM32G4xx_HAL_Driver/Src/stm32g4xx_hal_rcc_ex.c ****       }
 1307              		.loc 1 794 9 is_stmt 1 view .LVU436
 794:Drivers/STM32G4xx_HAL_Driver/Src/stm32g4xx_hal_rcc_ex.c ****       }
 1308              		.loc 1 794 21 is_stmt 0 view .LVU437
 1309 02be FFF7FEFF 		bl	HAL_RCC_GetSysClockFreq
 1310              	.LVL82:
 794:Drivers/STM32G4xx_HAL_Driver/Src/stm32g4xx_hal_rcc_ex.c ****       }
 1311              		.loc 1 794 21 view .LVU438
 1312 02c2 1AE2     		b	.L53
 1313              	.LVL83:
 1314              	.L67:
 814:Drivers/STM32G4xx_HAL_Driver/Src/stm32g4xx_hal_rcc_ex.c **** 
 1315              		.loc 1 814 7 is_stmt 1 view .LVU439
 814:Drivers/STM32G4xx_HAL_Driver/Src/stm32g4xx_hal_rcc_ex.c **** 
 1316              		.loc 1 814 16 is_stmt 0 view .LVU440
 1317 02c4 B34B     		ldr	r3, .L212
 1318 02c6 D3F88830 		ldr	r3, [r3, #136]
 1319              	.LVL84:
 816:Drivers/STM32G4xx_HAL_Driver/Src/stm32g4xx_hal_rcc_ex.c ****       {
 1320              		.loc 1 816 7 is_stmt 1 view .LVU441
 816:Drivers/STM32G4xx_HAL_Driver/Src/stm32g4xx_hal_rcc_ex.c ****       {
 1321              		.loc 1 816 9 is_stmt 0 view .LVU442
 1322 02ca 13F03003 		ands	r3, r3, #48
 1323              	.LVL85:
 816:Drivers/STM32G4xx_HAL_Driver/Src/stm32g4xx_hal_rcc_ex.c ****       {
 1324              		.loc 1 816 9 view .LVU443
 1325 02ce 15D0     		beq	.L188
 820:Drivers/STM32G4xx_HAL_Driver/Src/stm32g4xx_hal_rcc_ex.c ****       {
 1326              		.loc 1 820 12 is_stmt 1 view .LVU444
 820:Drivers/STM32G4xx_HAL_Driver/Src/stm32g4xx_hal_rcc_ex.c ****       {
 1327              		.loc 1 820 14 is_stmt 0 view .LVU445
 1328 02d0 102B     		cmp	r3, #16
 1329 02d2 16D0     		beq	.L189
 824:Drivers/STM32G4xx_HAL_Driver/Src/stm32g4xx_hal_rcc_ex.c ****       {
 1330              		.loc 1 824 12 is_stmt 1 view .LVU446
 824:Drivers/STM32G4xx_HAL_Driver/Src/stm32g4xx_hal_rcc_ex.c ****       {
 1331              		.loc 1 824 16 is_stmt 0 view .LVU447
 1332 02d4 AF4A     		ldr	r2, .L212
 1333              	.LVL86:
 824:Drivers/STM32G4xx_HAL_Driver/Src/stm32g4xx_hal_rcc_ex.c ****       {
 1334              		.loc 1 824 16 view .LVU448
 1335 02d6 1268     		ldr	r2, [r2]
 824:Drivers/STM32G4xx_HAL_Driver/Src/stm32g4xx_hal_rcc_ex.c ****       {
 1336              		.loc 1 824 14 view .LVU449
 1337 02d8 12F4806F 		tst	r2, #1024
 1338 02dc 02D0     		beq	.L93
 824:Drivers/STM32G4xx_HAL_Driver/Src/stm32g4xx_hal_rcc_ex.c ****       {
 1339              		.loc 1 824 56 discriminator 1 view .LVU450
 1340 02de 202B     		cmp	r3, #32
 1341 02e0 00F01682 		beq	.L136
ARM GAS  C:\Users\Nathan\AppData\Local\Temp\cc4vJDVg.s 			page 50


 1342              	.L93:
 828:Drivers/STM32G4xx_HAL_Driver/Src/stm32g4xx_hal_rcc_ex.c ****       {
 1343              		.loc 1 828 12 is_stmt 1 view .LVU451
 828:Drivers/STM32G4xx_HAL_Driver/Src/stm32g4xx_hal_rcc_ex.c ****       {
 1344              		.loc 1 828 16 is_stmt 0 view .LVU452
 1345 02e4 AB4A     		ldr	r2, .L212
 1346 02e6 D2F89000 		ldr	r0, [r2, #144]
 828:Drivers/STM32G4xx_HAL_Driver/Src/stm32g4xx_hal_rcc_ex.c ****       {
 1347              		.loc 1 828 14 view .LVU453
 1348 02ea 10F00200 		ands	r0, r0, #2
 1349 02ee 00F00482 		beq	.L53
 828:Drivers/STM32G4xx_HAL_Driver/Src/stm32g4xx_hal_rcc_ex.c ****       {
 1350              		.loc 1 828 60 discriminator 1 view .LVU454
 1351 02f2 302B     		cmp	r3, #48
 1352 02f4 00F00E82 		beq	.L137
 686:Drivers/STM32G4xx_HAL_Driver/Src/stm32g4xx_hal_rcc_ex.c ****   uint32_t srcclk;
 1353              		.loc 1 686 12 view .LVU455
 1354 02f8 0020     		movs	r0, #0
 1355 02fa FEE1     		b	.L53
 1356              	.LVL87:
 1357              	.L188:
 818:Drivers/STM32G4xx_HAL_Driver/Src/stm32g4xx_hal_rcc_ex.c ****       }
 1358              		.loc 1 818 9 is_stmt 1 view .LVU456
 818:Drivers/STM32G4xx_HAL_Driver/Src/stm32g4xx_hal_rcc_ex.c ****       }
 1359              		.loc 1 818 21 is_stmt 0 view .LVU457
 1360 02fc FFF7FEFF 		bl	HAL_RCC_GetPCLK1Freq
 1361              	.LVL88:
 818:Drivers/STM32G4xx_HAL_Driver/Src/stm32g4xx_hal_rcc_ex.c ****       }
 1362              		.loc 1 818 21 view .LVU458
 1363 0300 FBE1     		b	.L53
 1364              	.LVL89:
 1365              	.L189:
 822:Drivers/STM32G4xx_HAL_Driver/Src/stm32g4xx_hal_rcc_ex.c ****       }
 1366              		.loc 1 822 9 is_stmt 1 view .LVU459
 822:Drivers/STM32G4xx_HAL_Driver/Src/stm32g4xx_hal_rcc_ex.c ****       }
 1367              		.loc 1 822 21 is_stmt 0 view .LVU460
 1368 0302 FFF7FEFF 		bl	HAL_RCC_GetSysClockFreq
 1369              	.LVL90:
 822:Drivers/STM32G4xx_HAL_Driver/Src/stm32g4xx_hal_rcc_ex.c ****       }
 1370              		.loc 1 822 21 view .LVU461
 1371 0306 F8E1     		b	.L53
 1372              	.LVL91:
 1373              	.L66:
 843:Drivers/STM32G4xx_HAL_Driver/Src/stm32g4xx_hal_rcc_ex.c **** 
 1374              		.loc 1 843 7 is_stmt 1 view .LVU462
 843:Drivers/STM32G4xx_HAL_Driver/Src/stm32g4xx_hal_rcc_ex.c **** 
 1375              		.loc 1 843 16 is_stmt 0 view .LVU463
 1376 0308 A24B     		ldr	r3, .L212
 1377 030a D3F88830 		ldr	r3, [r3, #136]
 1378              	.LVL92:
 845:Drivers/STM32G4xx_HAL_Driver/Src/stm32g4xx_hal_rcc_ex.c ****       {
 1379              		.loc 1 845 7 is_stmt 1 view .LVU464
 845:Drivers/STM32G4xx_HAL_Driver/Src/stm32g4xx_hal_rcc_ex.c ****       {
 1380              		.loc 1 845 9 is_stmt 0 view .LVU465
 1381 030e 13F0C003 		ands	r3, r3, #192
 1382              	.LVL93:
 845:Drivers/STM32G4xx_HAL_Driver/Src/stm32g4xx_hal_rcc_ex.c ****       {
ARM GAS  C:\Users\Nathan\AppData\Local\Temp\cc4vJDVg.s 			page 51


 1383              		.loc 1 845 9 view .LVU466
 1384 0312 15D0     		beq	.L190
 849:Drivers/STM32G4xx_HAL_Driver/Src/stm32g4xx_hal_rcc_ex.c ****       {
 1385              		.loc 1 849 12 is_stmt 1 view .LVU467
 849:Drivers/STM32G4xx_HAL_Driver/Src/stm32g4xx_hal_rcc_ex.c ****       {
 1386              		.loc 1 849 14 is_stmt 0 view .LVU468
 1387 0314 402B     		cmp	r3, #64
 1388 0316 16D0     		beq	.L191
 853:Drivers/STM32G4xx_HAL_Driver/Src/stm32g4xx_hal_rcc_ex.c ****       {
 1389              		.loc 1 853 12 is_stmt 1 view .LVU469
 853:Drivers/STM32G4xx_HAL_Driver/Src/stm32g4xx_hal_rcc_ex.c ****       {
 1390              		.loc 1 853 16 is_stmt 0 view .LVU470
 1391 0318 9E4A     		ldr	r2, .L212
 1392              	.LVL94:
 853:Drivers/STM32G4xx_HAL_Driver/Src/stm32g4xx_hal_rcc_ex.c ****       {
 1393              		.loc 1 853 16 view .LVU471
 1394 031a 1268     		ldr	r2, [r2]
 853:Drivers/STM32G4xx_HAL_Driver/Src/stm32g4xx_hal_rcc_ex.c ****       {
 1395              		.loc 1 853 14 view .LVU472
 1396 031c 12F4806F 		tst	r2, #1024
 1397 0320 02D0     		beq	.L96
 853:Drivers/STM32G4xx_HAL_Driver/Src/stm32g4xx_hal_rcc_ex.c ****       {
 1398              		.loc 1 853 56 discriminator 1 view .LVU473
 1399 0322 802B     		cmp	r3, #128
 1400 0324 00F0F981 		beq	.L138
 1401              	.L96:
 857:Drivers/STM32G4xx_HAL_Driver/Src/stm32g4xx_hal_rcc_ex.c ****       {
 1402              		.loc 1 857 12 is_stmt 1 view .LVU474
 857:Drivers/STM32G4xx_HAL_Driver/Src/stm32g4xx_hal_rcc_ex.c ****       {
 1403              		.loc 1 857 16 is_stmt 0 view .LVU475
 1404 0328 9A4A     		ldr	r2, .L212
 1405 032a D2F89000 		ldr	r0, [r2, #144]
 857:Drivers/STM32G4xx_HAL_Driver/Src/stm32g4xx_hal_rcc_ex.c ****       {
 1406              		.loc 1 857 14 view .LVU476
 1407 032e 10F00200 		ands	r0, r0, #2
 1408 0332 00F0E281 		beq	.L53
 857:Drivers/STM32G4xx_HAL_Driver/Src/stm32g4xx_hal_rcc_ex.c ****       {
 1409              		.loc 1 857 60 discriminator 1 view .LVU477
 1410 0336 C02B     		cmp	r3, #192
 1411 0338 00F0F181 		beq	.L139
 686:Drivers/STM32G4xx_HAL_Driver/Src/stm32g4xx_hal_rcc_ex.c ****   uint32_t srcclk;
 1412              		.loc 1 686 12 view .LVU478
 1413 033c 0020     		movs	r0, #0
 1414 033e DCE1     		b	.L53
 1415              	.LVL95:
 1416              	.L190:
 847:Drivers/STM32G4xx_HAL_Driver/Src/stm32g4xx_hal_rcc_ex.c ****       }
 1417              		.loc 1 847 9 is_stmt 1 view .LVU479
 847:Drivers/STM32G4xx_HAL_Driver/Src/stm32g4xx_hal_rcc_ex.c ****       }
 1418              		.loc 1 847 21 is_stmt 0 view .LVU480
 1419 0340 FFF7FEFF 		bl	HAL_RCC_GetPCLK1Freq
 1420              	.LVL96:
 847:Drivers/STM32G4xx_HAL_Driver/Src/stm32g4xx_hal_rcc_ex.c ****       }
 1421              		.loc 1 847 21 view .LVU481
 1422 0344 D9E1     		b	.L53
 1423              	.LVL97:
 1424              	.L191:
ARM GAS  C:\Users\Nathan\AppData\Local\Temp\cc4vJDVg.s 			page 52


 851:Drivers/STM32G4xx_HAL_Driver/Src/stm32g4xx_hal_rcc_ex.c ****       }
 1425              		.loc 1 851 9 is_stmt 1 view .LVU482
 851:Drivers/STM32G4xx_HAL_Driver/Src/stm32g4xx_hal_rcc_ex.c ****       }
 1426              		.loc 1 851 21 is_stmt 0 view .LVU483
 1427 0346 FFF7FEFF 		bl	HAL_RCC_GetSysClockFreq
 1428              	.LVL98:
 851:Drivers/STM32G4xx_HAL_Driver/Src/stm32g4xx_hal_rcc_ex.c ****       }
 1429              		.loc 1 851 21 view .LVU484
 1430 034a D6E1     		b	.L53
 1431              	.LVL99:
 1432              	.L65:
 872:Drivers/STM32G4xx_HAL_Driver/Src/stm32g4xx_hal_rcc_ex.c **** 
 1433              		.loc 1 872 7 is_stmt 1 view .LVU485
 872:Drivers/STM32G4xx_HAL_Driver/Src/stm32g4xx_hal_rcc_ex.c **** 
 1434              		.loc 1 872 16 is_stmt 0 view .LVU486
 1435 034c 914B     		ldr	r3, .L212
 1436 034e D3F88830 		ldr	r3, [r3, #136]
 1437              	.LVL100:
 874:Drivers/STM32G4xx_HAL_Driver/Src/stm32g4xx_hal_rcc_ex.c ****       {
 1438              		.loc 1 874 7 is_stmt 1 view .LVU487
 874:Drivers/STM32G4xx_HAL_Driver/Src/stm32g4xx_hal_rcc_ex.c ****       {
 1439              		.loc 1 874 9 is_stmt 0 view .LVU488
 1440 0352 13F44073 		ands	r3, r3, #768
 1441              	.LVL101:
 874:Drivers/STM32G4xx_HAL_Driver/Src/stm32g4xx_hal_rcc_ex.c ****       {
 1442              		.loc 1 874 9 view .LVU489
 1443 0356 18D0     		beq	.L192
 878:Drivers/STM32G4xx_HAL_Driver/Src/stm32g4xx_hal_rcc_ex.c ****       {
 1444              		.loc 1 878 12 is_stmt 1 view .LVU490
 878:Drivers/STM32G4xx_HAL_Driver/Src/stm32g4xx_hal_rcc_ex.c ****       {
 1445              		.loc 1 878 14 is_stmt 0 view .LVU491
 1446 0358 B3F5807F 		cmp	r3, #256
 1447 035c 18D0     		beq	.L193
 882:Drivers/STM32G4xx_HAL_Driver/Src/stm32g4xx_hal_rcc_ex.c ****       {
 1448              		.loc 1 882 12 is_stmt 1 view .LVU492
 882:Drivers/STM32G4xx_HAL_Driver/Src/stm32g4xx_hal_rcc_ex.c ****       {
 1449              		.loc 1 882 16 is_stmt 0 view .LVU493
 1450 035e 8D4A     		ldr	r2, .L212
 1451              	.LVL102:
 882:Drivers/STM32G4xx_HAL_Driver/Src/stm32g4xx_hal_rcc_ex.c ****       {
 1452              		.loc 1 882 16 view .LVU494
 1453 0360 1268     		ldr	r2, [r2]
 882:Drivers/STM32G4xx_HAL_Driver/Src/stm32g4xx_hal_rcc_ex.c ****       {
 1454              		.loc 1 882 14 view .LVU495
 1455 0362 12F4806F 		tst	r2, #1024
 1456 0366 03D0     		beq	.L99
 882:Drivers/STM32G4xx_HAL_Driver/Src/stm32g4xx_hal_rcc_ex.c ****       {
 1457              		.loc 1 882 56 discriminator 1 view .LVU496
 1458 0368 B3F5007F 		cmp	r3, #512
 1459 036c 00F0DA81 		beq	.L140
 1460              	.L99:
 886:Drivers/STM32G4xx_HAL_Driver/Src/stm32g4xx_hal_rcc_ex.c ****       {
 1461              		.loc 1 886 12 is_stmt 1 view .LVU497
 886:Drivers/STM32G4xx_HAL_Driver/Src/stm32g4xx_hal_rcc_ex.c ****       {
 1462              		.loc 1 886 16 is_stmt 0 view .LVU498
 1463 0370 884A     		ldr	r2, .L212
 1464 0372 D2F89000 		ldr	r0, [r2, #144]
ARM GAS  C:\Users\Nathan\AppData\Local\Temp\cc4vJDVg.s 			page 53


 886:Drivers/STM32G4xx_HAL_Driver/Src/stm32g4xx_hal_rcc_ex.c ****       {
 1465              		.loc 1 886 14 view .LVU499
 1466 0376 10F00200 		ands	r0, r0, #2
 1467 037a 00F0BE81 		beq	.L53
 886:Drivers/STM32G4xx_HAL_Driver/Src/stm32g4xx_hal_rcc_ex.c ****       {
 1468              		.loc 1 886 60 discriminator 1 view .LVU500
 1469 037e B3F5407F 		cmp	r3, #768
 1470 0382 00F0D181 		beq	.L141
 686:Drivers/STM32G4xx_HAL_Driver/Src/stm32g4xx_hal_rcc_ex.c ****   uint32_t srcclk;
 1471              		.loc 1 686 12 view .LVU501
 1472 0386 0020     		movs	r0, #0
 1473 0388 B7E1     		b	.L53
 1474              	.LVL103:
 1475              	.L192:
 876:Drivers/STM32G4xx_HAL_Driver/Src/stm32g4xx_hal_rcc_ex.c ****       }
 1476              		.loc 1 876 9 is_stmt 1 view .LVU502
 876:Drivers/STM32G4xx_HAL_Driver/Src/stm32g4xx_hal_rcc_ex.c ****       }
 1477              		.loc 1 876 21 is_stmt 0 view .LVU503
 1478 038a FFF7FEFF 		bl	HAL_RCC_GetPCLK1Freq
 1479              	.LVL104:
 876:Drivers/STM32G4xx_HAL_Driver/Src/stm32g4xx_hal_rcc_ex.c ****       }
 1480              		.loc 1 876 21 view .LVU504
 1481 038e B4E1     		b	.L53
 1482              	.LVL105:
 1483              	.L193:
 880:Drivers/STM32G4xx_HAL_Driver/Src/stm32g4xx_hal_rcc_ex.c ****       }
 1484              		.loc 1 880 9 is_stmt 1 view .LVU505
 880:Drivers/STM32G4xx_HAL_Driver/Src/stm32g4xx_hal_rcc_ex.c ****       }
 1485              		.loc 1 880 21 is_stmt 0 view .LVU506
 1486 0390 FFF7FEFF 		bl	HAL_RCC_GetSysClockFreq
 1487              	.LVL106:
 880:Drivers/STM32G4xx_HAL_Driver/Src/stm32g4xx_hal_rcc_ex.c ****       }
 1488              		.loc 1 880 21 view .LVU507
 1489 0394 B1E1     		b	.L53
 1490              	.LVL107:
 1491              	.L63:
 900:Drivers/STM32G4xx_HAL_Driver/Src/stm32g4xx_hal_rcc_ex.c **** 
 1492              		.loc 1 900 7 is_stmt 1 view .LVU508
 900:Drivers/STM32G4xx_HAL_Driver/Src/stm32g4xx_hal_rcc_ex.c **** 
 1493              		.loc 1 900 16 is_stmt 0 view .LVU509
 1494 0396 7F4B     		ldr	r3, .L212
 1495 0398 D3F88830 		ldr	r3, [r3, #136]
 1496              	.LVL108:
 902:Drivers/STM32G4xx_HAL_Driver/Src/stm32g4xx_hal_rcc_ex.c ****       {
 1497              		.loc 1 902 7 is_stmt 1 view .LVU510
 902:Drivers/STM32G4xx_HAL_Driver/Src/stm32g4xx_hal_rcc_ex.c ****       {
 1498              		.loc 1 902 9 is_stmt 0 view .LVU511
 1499 039c 13F44063 		ands	r3, r3, #3072
 1500              	.LVL109:
 902:Drivers/STM32G4xx_HAL_Driver/Src/stm32g4xx_hal_rcc_ex.c ****       {
 1501              		.loc 1 902 9 view .LVU512
 1502 03a0 18D0     		beq	.L194
 906:Drivers/STM32G4xx_HAL_Driver/Src/stm32g4xx_hal_rcc_ex.c ****       {
 1503              		.loc 1 906 12 is_stmt 1 view .LVU513
 906:Drivers/STM32G4xx_HAL_Driver/Src/stm32g4xx_hal_rcc_ex.c ****       {
 1504              		.loc 1 906 14 is_stmt 0 view .LVU514
 1505 03a2 B3F5806F 		cmp	r3, #1024
ARM GAS  C:\Users\Nathan\AppData\Local\Temp\cc4vJDVg.s 			page 54


 1506 03a6 18D0     		beq	.L195
 910:Drivers/STM32G4xx_HAL_Driver/Src/stm32g4xx_hal_rcc_ex.c ****       {
 1507              		.loc 1 910 12 is_stmt 1 view .LVU515
 910:Drivers/STM32G4xx_HAL_Driver/Src/stm32g4xx_hal_rcc_ex.c ****       {
 1508              		.loc 1 910 16 is_stmt 0 view .LVU516
 1509 03a8 7A4A     		ldr	r2, .L212
 1510              	.LVL110:
 910:Drivers/STM32G4xx_HAL_Driver/Src/stm32g4xx_hal_rcc_ex.c ****       {
 1511              		.loc 1 910 16 view .LVU517
 1512 03aa 1268     		ldr	r2, [r2]
 910:Drivers/STM32G4xx_HAL_Driver/Src/stm32g4xx_hal_rcc_ex.c ****       {
 1513              		.loc 1 910 14 view .LVU518
 1514 03ac 12F4806F 		tst	r2, #1024
 1515 03b0 03D0     		beq	.L102
 910:Drivers/STM32G4xx_HAL_Driver/Src/stm32g4xx_hal_rcc_ex.c ****       {
 1516              		.loc 1 910 56 discriminator 1 view .LVU519
 1517 03b2 B3F5006F 		cmp	r3, #2048
 1518 03b6 00F0BA81 		beq	.L142
 1519              	.L102:
 914:Drivers/STM32G4xx_HAL_Driver/Src/stm32g4xx_hal_rcc_ex.c ****       {
 1520              		.loc 1 914 12 is_stmt 1 view .LVU520
 914:Drivers/STM32G4xx_HAL_Driver/Src/stm32g4xx_hal_rcc_ex.c ****       {
 1521              		.loc 1 914 16 is_stmt 0 view .LVU521
 1522 03ba 764A     		ldr	r2, .L212
 1523 03bc D2F89000 		ldr	r0, [r2, #144]
 914:Drivers/STM32G4xx_HAL_Driver/Src/stm32g4xx_hal_rcc_ex.c ****       {
 1524              		.loc 1 914 14 view .LVU522
 1525 03c0 10F00200 		ands	r0, r0, #2
 1526 03c4 00F09981 		beq	.L53
 914:Drivers/STM32G4xx_HAL_Driver/Src/stm32g4xx_hal_rcc_ex.c ****       {
 1527              		.loc 1 914 60 discriminator 1 view .LVU523
 1528 03c8 B3F5406F 		cmp	r3, #3072
 1529 03cc 00F0B181 		beq	.L143
 686:Drivers/STM32G4xx_HAL_Driver/Src/stm32g4xx_hal_rcc_ex.c ****   uint32_t srcclk;
 1530              		.loc 1 686 12 view .LVU524
 1531 03d0 0020     		movs	r0, #0
 1532 03d2 92E1     		b	.L53
 1533              	.LVL111:
 1534              	.L194:
 904:Drivers/STM32G4xx_HAL_Driver/Src/stm32g4xx_hal_rcc_ex.c ****       }
 1535              		.loc 1 904 9 is_stmt 1 view .LVU525
 904:Drivers/STM32G4xx_HAL_Driver/Src/stm32g4xx_hal_rcc_ex.c ****       }
 1536              		.loc 1 904 21 is_stmt 0 view .LVU526
 1537 03d4 FFF7FEFF 		bl	HAL_RCC_GetPCLK1Freq
 1538              	.LVL112:
 904:Drivers/STM32G4xx_HAL_Driver/Src/stm32g4xx_hal_rcc_ex.c ****       }
 1539              		.loc 1 904 21 view .LVU527
 1540 03d8 8FE1     		b	.L53
 1541              	.LVL113:
 1542              	.L195:
 908:Drivers/STM32G4xx_HAL_Driver/Src/stm32g4xx_hal_rcc_ex.c ****       }
 1543              		.loc 1 908 9 is_stmt 1 view .LVU528
 908:Drivers/STM32G4xx_HAL_Driver/Src/stm32g4xx_hal_rcc_ex.c ****       }
 1544              		.loc 1 908 21 is_stmt 0 view .LVU529
 1545 03da FFF7FEFF 		bl	HAL_RCC_GetSysClockFreq
 1546              	.LVL114:
 908:Drivers/STM32G4xx_HAL_Driver/Src/stm32g4xx_hal_rcc_ex.c ****       }
ARM GAS  C:\Users\Nathan\AppData\Local\Temp\cc4vJDVg.s 			page 55


 1547              		.loc 1 908 21 view .LVU530
 1548 03de 8CE1     		b	.L53
 1549              	.LVL115:
 1550              	.L170:
 931:Drivers/STM32G4xx_HAL_Driver/Src/stm32g4xx_hal_rcc_ex.c ****       }
 1551              		.loc 1 931 9 is_stmt 1 view .LVU531
 931:Drivers/STM32G4xx_HAL_Driver/Src/stm32g4xx_hal_rcc_ex.c ****       }
 1552              		.loc 1 931 21 is_stmt 0 view .LVU532
 1553 03e0 FFF7FEFF 		bl	HAL_RCC_GetPCLK1Freq
 1554              	.LVL116:
 931:Drivers/STM32G4xx_HAL_Driver/Src/stm32g4xx_hal_rcc_ex.c ****       }
 1555              		.loc 1 931 21 view .LVU533
 1556 03e4 89E1     		b	.L53
 1557              	.LVL117:
 1558              	.L171:
 935:Drivers/STM32G4xx_HAL_Driver/Src/stm32g4xx_hal_rcc_ex.c ****       }
 1559              		.loc 1 935 9 is_stmt 1 view .LVU534
 935:Drivers/STM32G4xx_HAL_Driver/Src/stm32g4xx_hal_rcc_ex.c ****       }
 1560              		.loc 1 935 21 is_stmt 0 view .LVU535
 1561 03e6 FFF7FEFF 		bl	HAL_RCC_GetSysClockFreq
 1562              	.LVL118:
 935:Drivers/STM32G4xx_HAL_Driver/Src/stm32g4xx_hal_rcc_ex.c ****       }
 1563              		.loc 1 935 21 view .LVU536
 1564 03ea 86E1     		b	.L53
 1565              	.LVL119:
 1566              	.L70:
 950:Drivers/STM32G4xx_HAL_Driver/Src/stm32g4xx_hal_rcc_ex.c **** 
 1567              		.loc 1 950 7 is_stmt 1 view .LVU537
 950:Drivers/STM32G4xx_HAL_Driver/Src/stm32g4xx_hal_rcc_ex.c **** 
 1568              		.loc 1 950 16 is_stmt 0 view .LVU538
 1569 03ec 694B     		ldr	r3, .L212
 1570 03ee D3F88830 		ldr	r3, [r3, #136]
 1571              	.LVL120:
 952:Drivers/STM32G4xx_HAL_Driver/Src/stm32g4xx_hal_rcc_ex.c ****       {
 1572              		.loc 1 952 7 is_stmt 1 view .LVU539
 952:Drivers/STM32G4xx_HAL_Driver/Src/stm32g4xx_hal_rcc_ex.c ****       {
 1573              		.loc 1 952 9 is_stmt 0 view .LVU540
 1574 03f2 13F44043 		ands	r3, r3, #49152
 1575              	.LVL121:
 952:Drivers/STM32G4xx_HAL_Driver/Src/stm32g4xx_hal_rcc_ex.c ****       {
 1576              		.loc 1 952 9 view .LVU541
 1577 03f6 0ED0     		beq	.L196
 956:Drivers/STM32G4xx_HAL_Driver/Src/stm32g4xx_hal_rcc_ex.c ****       {
 1578              		.loc 1 956 12 is_stmt 1 view .LVU542
 956:Drivers/STM32G4xx_HAL_Driver/Src/stm32g4xx_hal_rcc_ex.c ****       {
 1579              		.loc 1 956 14 is_stmt 0 view .LVU543
 1580 03f8 B3F5804F 		cmp	r3, #16384
 1581 03fc 0ED0     		beq	.L197
 960:Drivers/STM32G4xx_HAL_Driver/Src/stm32g4xx_hal_rcc_ex.c ****       {
 1582              		.loc 1 960 12 is_stmt 1 view .LVU544
 960:Drivers/STM32G4xx_HAL_Driver/Src/stm32g4xx_hal_rcc_ex.c ****       {
 1583              		.loc 1 960 16 is_stmt 0 view .LVU545
 1584 03fe 654A     		ldr	r2, .L212
 1585              	.LVL122:
 960:Drivers/STM32G4xx_HAL_Driver/Src/stm32g4xx_hal_rcc_ex.c ****       {
 1586              		.loc 1 960 16 view .LVU546
 1587 0400 1068     		ldr	r0, [r2]
ARM GAS  C:\Users\Nathan\AppData\Local\Temp\cc4vJDVg.s 			page 56


 1588              	.LVL123:
 960:Drivers/STM32G4xx_HAL_Driver/Src/stm32g4xx_hal_rcc_ex.c ****       {
 1589              		.loc 1 960 14 view .LVU547
 1590 0402 10F48060 		ands	r0, r0, #1024
 1591 0406 00F07881 		beq	.L53
 960:Drivers/STM32G4xx_HAL_Driver/Src/stm32g4xx_hal_rcc_ex.c ****       {
 1592              		.loc 1 960 56 discriminator 1 view .LVU548
 1593 040a B3F5004F 		cmp	r3, #32768
 1594 040e 00F09581 		beq	.L145
 686:Drivers/STM32G4xx_HAL_Driver/Src/stm32g4xx_hal_rcc_ex.c ****   uint32_t srcclk;
 1595              		.loc 1 686 12 view .LVU549
 1596 0412 0020     		movs	r0, #0
 1597 0414 71E1     		b	.L53
 1598              	.LVL124:
 1599              	.L196:
 954:Drivers/STM32G4xx_HAL_Driver/Src/stm32g4xx_hal_rcc_ex.c ****       }
 1600              		.loc 1 954 9 is_stmt 1 view .LVU550
 954:Drivers/STM32G4xx_HAL_Driver/Src/stm32g4xx_hal_rcc_ex.c ****       }
 1601              		.loc 1 954 21 is_stmt 0 view .LVU551
 1602 0416 FFF7FEFF 		bl	HAL_RCC_GetPCLK1Freq
 1603              	.LVL125:
 954:Drivers/STM32G4xx_HAL_Driver/Src/stm32g4xx_hal_rcc_ex.c ****       }
 1604              		.loc 1 954 21 view .LVU552
 1605 041a 6EE1     		b	.L53
 1606              	.LVL126:
 1607              	.L197:
 958:Drivers/STM32G4xx_HAL_Driver/Src/stm32g4xx_hal_rcc_ex.c ****       }
 1608              		.loc 1 958 9 is_stmt 1 view .LVU553
 958:Drivers/STM32G4xx_HAL_Driver/Src/stm32g4xx_hal_rcc_ex.c ****       }
 1609              		.loc 1 958 21 is_stmt 0 view .LVU554
 1610 041c FFF7FEFF 		bl	HAL_RCC_GetSysClockFreq
 1611              	.LVL127:
 958:Drivers/STM32G4xx_HAL_Driver/Src/stm32g4xx_hal_rcc_ex.c ****       }
 1612              		.loc 1 958 21 view .LVU555
 1613 0420 6BE1     		b	.L53
 1614              	.LVL128:
 1615              	.L71:
 975:Drivers/STM32G4xx_HAL_Driver/Src/stm32g4xx_hal_rcc_ex.c **** 
 1616              		.loc 1 975 7 is_stmt 1 view .LVU556
 975:Drivers/STM32G4xx_HAL_Driver/Src/stm32g4xx_hal_rcc_ex.c **** 
 1617              		.loc 1 975 16 is_stmt 0 view .LVU557
 1618 0422 5C4B     		ldr	r3, .L212
 1619 0424 D3F88830 		ldr	r3, [r3, #136]
 1620              	.LVL129:
 977:Drivers/STM32G4xx_HAL_Driver/Src/stm32g4xx_hal_rcc_ex.c ****       {
 1621              		.loc 1 977 7 is_stmt 1 view .LVU558
 977:Drivers/STM32G4xx_HAL_Driver/Src/stm32g4xx_hal_rcc_ex.c ****       {
 1622              		.loc 1 977 9 is_stmt 0 view .LVU559
 1623 0428 13F44033 		ands	r3, r3, #196608
 1624              	.LVL130:
 977:Drivers/STM32G4xx_HAL_Driver/Src/stm32g4xx_hal_rcc_ex.c ****       {
 1625              		.loc 1 977 9 view .LVU560
 1626 042c 0ED0     		beq	.L198
 981:Drivers/STM32G4xx_HAL_Driver/Src/stm32g4xx_hal_rcc_ex.c ****       {
 1627              		.loc 1 981 12 is_stmt 1 view .LVU561
 981:Drivers/STM32G4xx_HAL_Driver/Src/stm32g4xx_hal_rcc_ex.c ****       {
 1628              		.loc 1 981 14 is_stmt 0 view .LVU562
ARM GAS  C:\Users\Nathan\AppData\Local\Temp\cc4vJDVg.s 			page 57


 1629 042e B3F5803F 		cmp	r3, #65536
 1630 0432 0ED0     		beq	.L199
 985:Drivers/STM32G4xx_HAL_Driver/Src/stm32g4xx_hal_rcc_ex.c ****       {
 1631              		.loc 1 985 12 is_stmt 1 view .LVU563
 985:Drivers/STM32G4xx_HAL_Driver/Src/stm32g4xx_hal_rcc_ex.c ****       {
 1632              		.loc 1 985 16 is_stmt 0 view .LVU564
 1633 0434 574A     		ldr	r2, .L212
 1634              	.LVL131:
 985:Drivers/STM32G4xx_HAL_Driver/Src/stm32g4xx_hal_rcc_ex.c ****       {
 1635              		.loc 1 985 16 view .LVU565
 1636 0436 1068     		ldr	r0, [r2]
 1637              	.LVL132:
 985:Drivers/STM32G4xx_HAL_Driver/Src/stm32g4xx_hal_rcc_ex.c ****       {
 1638              		.loc 1 985 14 view .LVU566
 1639 0438 10F48060 		ands	r0, r0, #1024
 1640 043c 00F05D81 		beq	.L53
 985:Drivers/STM32G4xx_HAL_Driver/Src/stm32g4xx_hal_rcc_ex.c ****       {
 1641              		.loc 1 985 56 discriminator 1 view .LVU567
 1642 0440 B3F5003F 		cmp	r3, #131072
 1643 0444 00F07C81 		beq	.L146
 686:Drivers/STM32G4xx_HAL_Driver/Src/stm32g4xx_hal_rcc_ex.c ****   uint32_t srcclk;
 1644              		.loc 1 686 12 view .LVU568
 1645 0448 0020     		movs	r0, #0
 1646 044a 56E1     		b	.L53
 1647              	.LVL133:
 1648              	.L198:
 979:Drivers/STM32G4xx_HAL_Driver/Src/stm32g4xx_hal_rcc_ex.c ****       }
 1649              		.loc 1 979 9 is_stmt 1 view .LVU569
 979:Drivers/STM32G4xx_HAL_Driver/Src/stm32g4xx_hal_rcc_ex.c ****       }
 1650              		.loc 1 979 21 is_stmt 0 view .LVU570
 1651 044c FFF7FEFF 		bl	HAL_RCC_GetPCLK1Freq
 1652              	.LVL134:
 979:Drivers/STM32G4xx_HAL_Driver/Src/stm32g4xx_hal_rcc_ex.c ****       }
 1653              		.loc 1 979 21 view .LVU571
 1654 0450 53E1     		b	.L53
 1655              	.LVL135:
 1656              	.L199:
 983:Drivers/STM32G4xx_HAL_Driver/Src/stm32g4xx_hal_rcc_ex.c ****       }
 1657              		.loc 1 983 9 is_stmt 1 view .LVU572
 983:Drivers/STM32G4xx_HAL_Driver/Src/stm32g4xx_hal_rcc_ex.c ****       }
 1658              		.loc 1 983 21 is_stmt 0 view .LVU573
 1659 0452 FFF7FEFF 		bl	HAL_RCC_GetSysClockFreq
 1660              	.LVL136:
 983:Drivers/STM32G4xx_HAL_Driver/Src/stm32g4xx_hal_rcc_ex.c ****       }
 1661              		.loc 1 983 21 view .LVU574
 1662 0456 50E1     		b	.L53
 1663              	.LVL137:
 1664              	.L80:
1002:Drivers/STM32G4xx_HAL_Driver/Src/stm32g4xx_hal_rcc_ex.c **** 
 1665              		.loc 1 1002 7 is_stmt 1 view .LVU575
1002:Drivers/STM32G4xx_HAL_Driver/Src/stm32g4xx_hal_rcc_ex.c **** 
 1666              		.loc 1 1002 16 is_stmt 0 view .LVU576
 1667 0458 4E4B     		ldr	r3, .L212
 1668 045a D3F89C30 		ldr	r3, [r3, #156]
 1669              	.LVL138:
1004:Drivers/STM32G4xx_HAL_Driver/Src/stm32g4xx_hal_rcc_ex.c ****       {
 1670              		.loc 1 1004 7 is_stmt 1 view .LVU577
ARM GAS  C:\Users\Nathan\AppData\Local\Temp\cc4vJDVg.s 			page 58


1004:Drivers/STM32G4xx_HAL_Driver/Src/stm32g4xx_hal_rcc_ex.c ****       {
 1671              		.loc 1 1004 9 is_stmt 0 view .LVU578
 1672 045e 13F00303 		ands	r3, r3, #3
 1673              	.LVL139:
1004:Drivers/STM32G4xx_HAL_Driver/Src/stm32g4xx_hal_rcc_ex.c ****       {
 1674              		.loc 1 1004 9 view .LVU579
 1675 0462 0CD0     		beq	.L200
1008:Drivers/STM32G4xx_HAL_Driver/Src/stm32g4xx_hal_rcc_ex.c ****       {
 1676              		.loc 1 1008 12 is_stmt 1 view .LVU580
1008:Drivers/STM32G4xx_HAL_Driver/Src/stm32g4xx_hal_rcc_ex.c ****       {
 1677              		.loc 1 1008 14 is_stmt 0 view .LVU581
 1678 0464 012B     		cmp	r3, #1
 1679 0466 0DD0     		beq	.L201
1012:Drivers/STM32G4xx_HAL_Driver/Src/stm32g4xx_hal_rcc_ex.c ****       {
 1680              		.loc 1 1012 12 is_stmt 1 view .LVU582
1012:Drivers/STM32G4xx_HAL_Driver/Src/stm32g4xx_hal_rcc_ex.c ****       {
 1681              		.loc 1 1012 16 is_stmt 0 view .LVU583
 1682 0468 4A4A     		ldr	r2, .L212
 1683              	.LVL140:
1012:Drivers/STM32G4xx_HAL_Driver/Src/stm32g4xx_hal_rcc_ex.c ****       {
 1684              		.loc 1 1012 16 view .LVU584
 1685 046a 1068     		ldr	r0, [r2]
 1686              	.LVL141:
1012:Drivers/STM32G4xx_HAL_Driver/Src/stm32g4xx_hal_rcc_ex.c ****       {
 1687              		.loc 1 1012 14 view .LVU585
 1688 046c 10F48060 		ands	r0, r0, #1024
 1689 0470 00F04381 		beq	.L53
1012:Drivers/STM32G4xx_HAL_Driver/Src/stm32g4xx_hal_rcc_ex.c ****       {
 1690              		.loc 1 1012 56 discriminator 1 view .LVU586
 1691 0474 022B     		cmp	r3, #2
 1692 0476 00F06581 		beq	.L147
 686:Drivers/STM32G4xx_HAL_Driver/Src/stm32g4xx_hal_rcc_ex.c ****   uint32_t srcclk;
 1693              		.loc 1 686 12 view .LVU587
 1694 047a 0020     		movs	r0, #0
 1695 047c 3DE1     		b	.L53
 1696              	.LVL142:
 1697              	.L200:
1006:Drivers/STM32G4xx_HAL_Driver/Src/stm32g4xx_hal_rcc_ex.c ****       }
 1698              		.loc 1 1006 9 is_stmt 1 view .LVU588
1006:Drivers/STM32G4xx_HAL_Driver/Src/stm32g4xx_hal_rcc_ex.c ****       }
 1699              		.loc 1 1006 21 is_stmt 0 view .LVU589
 1700 047e FFF7FEFF 		bl	HAL_RCC_GetPCLK1Freq
 1701              	.LVL143:
1006:Drivers/STM32G4xx_HAL_Driver/Src/stm32g4xx_hal_rcc_ex.c ****       }
 1702              		.loc 1 1006 21 view .LVU590
 1703 0482 3AE1     		b	.L53
 1704              	.LVL144:
 1705              	.L201:
1010:Drivers/STM32G4xx_HAL_Driver/Src/stm32g4xx_hal_rcc_ex.c ****       }
 1706              		.loc 1 1010 9 is_stmt 1 view .LVU591
1010:Drivers/STM32G4xx_HAL_Driver/Src/stm32g4xx_hal_rcc_ex.c ****       }
 1707              		.loc 1 1010 21 is_stmt 0 view .LVU592
 1708 0484 FFF7FEFF 		bl	HAL_RCC_GetSysClockFreq
 1709              	.LVL145:
1010:Drivers/STM32G4xx_HAL_Driver/Src/stm32g4xx_hal_rcc_ex.c ****       }
 1710              		.loc 1 1010 21 view .LVU593
 1711 0488 37E1     		b	.L53
ARM GAS  C:\Users\Nathan\AppData\Local\Temp\cc4vJDVg.s 			page 59


 1712              	.LVL146:
 1713              	.L60:
1027:Drivers/STM32G4xx_HAL_Driver/Src/stm32g4xx_hal_rcc_ex.c **** 
 1714              		.loc 1 1027 7 is_stmt 1 view .LVU594
1027:Drivers/STM32G4xx_HAL_Driver/Src/stm32g4xx_hal_rcc_ex.c **** 
 1715              		.loc 1 1027 16 is_stmt 0 view .LVU595
 1716 048a 424B     		ldr	r3, .L212
 1717 048c D3F88830 		ldr	r3, [r3, #136]
 1718              	.LVL147:
1029:Drivers/STM32G4xx_HAL_Driver/Src/stm32g4xx_hal_rcc_ex.c ****       {
 1719              		.loc 1 1029 7 is_stmt 1 view .LVU596
1029:Drivers/STM32G4xx_HAL_Driver/Src/stm32g4xx_hal_rcc_ex.c ****       {
 1720              		.loc 1 1029 9 is_stmt 0 view .LVU597
 1721 0490 13F44023 		ands	r3, r3, #786432
 1722              	.LVL148:
1029:Drivers/STM32G4xx_HAL_Driver/Src/stm32g4xx_hal_rcc_ex.c ****       {
 1723              		.loc 1 1029 9 view .LVU598
 1724 0494 1FD0     		beq	.L202
1033:Drivers/STM32G4xx_HAL_Driver/Src/stm32g4xx_hal_rcc_ex.c ****       {
 1725              		.loc 1 1033 12 is_stmt 1 view .LVU599
1033:Drivers/STM32G4xx_HAL_Driver/Src/stm32g4xx_hal_rcc_ex.c ****       {
 1726              		.loc 1 1033 16 is_stmt 0 view .LVU600
 1727 0496 3F4A     		ldr	r2, .L212
 1728              	.LVL149:
1033:Drivers/STM32G4xx_HAL_Driver/Src/stm32g4xx_hal_rcc_ex.c ****       {
 1729              		.loc 1 1033 16 view .LVU601
 1730 0498 D2F89420 		ldr	r2, [r2, #148]
1033:Drivers/STM32G4xx_HAL_Driver/Src/stm32g4xx_hal_rcc_ex.c ****       {
 1731              		.loc 1 1033 14 view .LVU602
 1732 049c 12F0020F 		tst	r2, #2
 1733 04a0 03D0     		beq	.L112
1033:Drivers/STM32G4xx_HAL_Driver/Src/stm32g4xx_hal_rcc_ex.c ****       {
 1734              		.loc 1 1033 58 discriminator 1 view .LVU603
 1735 04a2 B3F5802F 		cmp	r3, #262144
 1736 04a6 00F04F81 		beq	.L148
 1737              	.L112:
1037:Drivers/STM32G4xx_HAL_Driver/Src/stm32g4xx_hal_rcc_ex.c ****       {
 1738              		.loc 1 1037 12 is_stmt 1 view .LVU604
1037:Drivers/STM32G4xx_HAL_Driver/Src/stm32g4xx_hal_rcc_ex.c ****       {
 1739              		.loc 1 1037 16 is_stmt 0 view .LVU605
 1740 04aa 3A4A     		ldr	r2, .L212
 1741 04ac 1268     		ldr	r2, [r2]
1037:Drivers/STM32G4xx_HAL_Driver/Src/stm32g4xx_hal_rcc_ex.c ****       {
 1742              		.loc 1 1037 14 view .LVU606
 1743 04ae 12F4806F 		tst	r2, #1024
 1744 04b2 03D0     		beq	.L113
1037:Drivers/STM32G4xx_HAL_Driver/Src/stm32g4xx_hal_rcc_ex.c ****       {
 1745              		.loc 1 1037 56 discriminator 1 view .LVU607
 1746 04b4 B3F5002F 		cmp	r3, #524288
 1747 04b8 00F04981 		beq	.L149
 1748              	.L113:
1041:Drivers/STM32G4xx_HAL_Driver/Src/stm32g4xx_hal_rcc_ex.c ****       {
 1749              		.loc 1 1041 12 is_stmt 1 view .LVU608
1041:Drivers/STM32G4xx_HAL_Driver/Src/stm32g4xx_hal_rcc_ex.c ****       {
 1750              		.loc 1 1041 17 is_stmt 0 view .LVU609
 1751 04bc 354A     		ldr	r2, .L212
 1752 04be D2F89000 		ldr	r0, [r2, #144]
ARM GAS  C:\Users\Nathan\AppData\Local\Temp\cc4vJDVg.s 			page 60


 1753              	.LVL150:
1041:Drivers/STM32G4xx_HAL_Driver/Src/stm32g4xx_hal_rcc_ex.c ****       {
 1754              		.loc 1 1041 15 view .LVU610
 1755 04c2 10F00200 		ands	r0, r0, #2
 1756 04c6 00F01881 		beq	.L53
1041:Drivers/STM32G4xx_HAL_Driver/Src/stm32g4xx_hal_rcc_ex.c ****       {
 1757              		.loc 1 1041 61 discriminator 1 view .LVU611
 1758 04ca B3F5402F 		cmp	r3, #786432
 1759 04ce 00F04081 		beq	.L150
 686:Drivers/STM32G4xx_HAL_Driver/Src/stm32g4xx_hal_rcc_ex.c ****   uint32_t srcclk;
 1760              		.loc 1 686 12 view .LVU612
 1761 04d2 0020     		movs	r0, #0
 1762 04d4 11E1     		b	.L53
 1763              	.LVL151:
 1764              	.L202:
1031:Drivers/STM32G4xx_HAL_Driver/Src/stm32g4xx_hal_rcc_ex.c ****       }
 1765              		.loc 1 1031 9 is_stmt 1 view .LVU613
1031:Drivers/STM32G4xx_HAL_Driver/Src/stm32g4xx_hal_rcc_ex.c ****       }
 1766              		.loc 1 1031 21 is_stmt 0 view .LVU614
 1767 04d6 FFF7FEFF 		bl	HAL_RCC_GetPCLK1Freq
 1768              	.LVL152:
1031:Drivers/STM32G4xx_HAL_Driver/Src/stm32g4xx_hal_rcc_ex.c ****       }
 1769              		.loc 1 1031 21 view .LVU615
 1770 04da 0EE1     		b	.L53
 1771              	.LVL153:
 1772              	.L77:
1056:Drivers/STM32G4xx_HAL_Driver/Src/stm32g4xx_hal_rcc_ex.c **** 
 1773              		.loc 1 1056 7 is_stmt 1 view .LVU616
1056:Drivers/STM32G4xx_HAL_Driver/Src/stm32g4xx_hal_rcc_ex.c **** 
 1774              		.loc 1 1056 16 is_stmt 0 view .LVU617
 1775 04dc 2D4B     		ldr	r3, .L212
 1776 04de D3F88830 		ldr	r3, [r3, #136]
 1777              	.LVL154:
1058:Drivers/STM32G4xx_HAL_Driver/Src/stm32g4xx_hal_rcc_ex.c ****       {
 1778              		.loc 1 1058 7 is_stmt 1 view .LVU618
1058:Drivers/STM32G4xx_HAL_Driver/Src/stm32g4xx_hal_rcc_ex.c ****       {
 1779              		.loc 1 1058 9 is_stmt 0 view .LVU619
 1780 04e2 13F44013 		ands	r3, r3, #3145728
 1781              	.LVL155:
1058:Drivers/STM32G4xx_HAL_Driver/Src/stm32g4xx_hal_rcc_ex.c ****       {
 1782              		.loc 1 1058 9 view .LVU620
 1783 04e6 12D0     		beq	.L203
1062:Drivers/STM32G4xx_HAL_Driver/Src/stm32g4xx_hal_rcc_ex.c ****       {
 1784              		.loc 1 1062 12 is_stmt 1 view .LVU621
1062:Drivers/STM32G4xx_HAL_Driver/Src/stm32g4xx_hal_rcc_ex.c ****       {
 1785              		.loc 1 1062 14 is_stmt 0 view .LVU622
 1786 04e8 B3F5801F 		cmp	r3, #1048576
 1787 04ec 12D0     		beq	.L204
1071:Drivers/STM32G4xx_HAL_Driver/Src/stm32g4xx_hal_rcc_ex.c ****       {
 1788              		.loc 1 1071 12 is_stmt 1 view .LVU623
1071:Drivers/STM32G4xx_HAL_Driver/Src/stm32g4xx_hal_rcc_ex.c ****       {
 1789              		.loc 1 1071 14 is_stmt 0 view .LVU624
 1790 04ee B3F5001F 		cmp	r3, #2097152
 1791 04f2 00F03181 		beq	.L151
1076:Drivers/STM32G4xx_HAL_Driver/Src/stm32g4xx_hal_rcc_ex.c ****       {
 1792              		.loc 1 1076 12 is_stmt 1 view .LVU625
1076:Drivers/STM32G4xx_HAL_Driver/Src/stm32g4xx_hal_rcc_ex.c ****       {
ARM GAS  C:\Users\Nathan\AppData\Local\Temp\cc4vJDVg.s 			page 61


 1793              		.loc 1 1076 16 is_stmt 0 view .LVU626
 1794 04f6 274A     		ldr	r2, .L212
 1795              	.LVL156:
1076:Drivers/STM32G4xx_HAL_Driver/Src/stm32g4xx_hal_rcc_ex.c ****       {
 1796              		.loc 1 1076 16 view .LVU627
 1797 04f8 1068     		ldr	r0, [r2]
 1798              	.LVL157:
1076:Drivers/STM32G4xx_HAL_Driver/Src/stm32g4xx_hal_rcc_ex.c ****       {
 1799              		.loc 1 1076 14 view .LVU628
 1800 04fa 10F48060 		ands	r0, r0, #1024
 1801 04fe 00F0FC80 		beq	.L53
1076:Drivers/STM32G4xx_HAL_Driver/Src/stm32g4xx_hal_rcc_ex.c ****       {
 1802              		.loc 1 1076 56 discriminator 1 view .LVU629
 1803 0502 B3F5401F 		cmp	r3, #3145728
 1804 0506 00F02981 		beq	.L152
 686:Drivers/STM32G4xx_HAL_Driver/Src/stm32g4xx_hal_rcc_ex.c ****   uint32_t srcclk;
 1805              		.loc 1 686 12 view .LVU630
 1806 050a 0020     		movs	r0, #0
 1807 050c F5E0     		b	.L53
 1808              	.LVL158:
 1809              	.L203:
1060:Drivers/STM32G4xx_HAL_Driver/Src/stm32g4xx_hal_rcc_ex.c ****       }
 1810              		.loc 1 1060 9 is_stmt 1 view .LVU631
1060:Drivers/STM32G4xx_HAL_Driver/Src/stm32g4xx_hal_rcc_ex.c ****       }
 1811              		.loc 1 1060 21 is_stmt 0 view .LVU632
 1812 050e FFF7FEFF 		bl	HAL_RCC_GetSysClockFreq
 1813              	.LVL159:
1060:Drivers/STM32G4xx_HAL_Driver/Src/stm32g4xx_hal_rcc_ex.c ****       }
 1814              		.loc 1 1060 21 view .LVU633
 1815 0512 F2E0     		b	.L53
 1816              	.LVL160:
 1817              	.L204:
1064:Drivers/STM32G4xx_HAL_Driver/Src/stm32g4xx_hal_rcc_ex.c ****         {
 1818              		.loc 1 1064 9 is_stmt 1 view .LVU634
1064:Drivers/STM32G4xx_HAL_Driver/Src/stm32g4xx_hal_rcc_ex.c ****         {
 1819              		.loc 1 1064 12 is_stmt 0 view .LVU635
 1820 0514 03F18043 		add	r3, r3, #1073741824
 1821              	.LVL161:
1064:Drivers/STM32G4xx_HAL_Driver/Src/stm32g4xx_hal_rcc_ex.c ****         {
 1822              		.loc 1 1064 12 view .LVU636
 1823 0518 A3F55F23 		sub	r3, r3, #913408
 1824              	.LVL162:
1064:Drivers/STM32G4xx_HAL_Driver/Src/stm32g4xx_hal_rcc_ex.c ****         {
 1825              		.loc 1 1064 12 view .LVU637
 1826 051c D868     		ldr	r0, [r3, #12]
 1827              	.LVL163:
1064:Drivers/STM32G4xx_HAL_Driver/Src/stm32g4xx_hal_rcc_ex.c ****         {
 1828              		.loc 1 1064 11 view .LVU638
 1829 051e 10F48010 		ands	r0, r0, #1048576
 1830 0522 00F0EA80 		beq	.L53
1067:Drivers/STM32G4xx_HAL_Driver/Src/stm32g4xx_hal_rcc_ex.c ****           frequency = (pllvco * plln) / (((READ_BIT(RCC->PLLCFGR, RCC_PLLCFGR_PLLQ) >> RCC_PLLCFGR_
 1831              		.loc 1 1067 11 is_stmt 1 view .LVU639
1067:Drivers/STM32G4xx_HAL_Driver/Src/stm32g4xx_hal_rcc_ex.c ****           frequency = (pllvco * plln) / (((READ_BIT(RCC->PLLCFGR, RCC_PLLCFGR_PLLQ) >> RCC_PLLCFGR_
 1832              		.loc 1 1067 18 is_stmt 0 view .LVU640
 1833 0526 D868     		ldr	r0, [r3, #12]
1067:Drivers/STM32G4xx_HAL_Driver/Src/stm32g4xx_hal_rcc_ex.c ****           frequency = (pllvco * plln) / (((READ_BIT(RCC->PLLCFGR, RCC_PLLCFGR_PLLQ) >> RCC_PLLCFGR_
 1834              		.loc 1 1067 16 view .LVU641
ARM GAS  C:\Users\Nathan\AppData\Local\Temp\cc4vJDVg.s 			page 62


 1835 0528 C0F30620 		ubfx	r0, r0, #8, #7
 1836              	.LVL164:
1068:Drivers/STM32G4xx_HAL_Driver/Src/stm32g4xx_hal_rcc_ex.c ****         }
 1837              		.loc 1 1068 11 is_stmt 1 view .LVU642
1068:Drivers/STM32G4xx_HAL_Driver/Src/stm32g4xx_hal_rcc_ex.c ****         }
 1838              		.loc 1 1068 31 is_stmt 0 view .LVU643
 1839 052c 02FB00F0 		mul	r0, r2, r0
 1840              	.LVL165:
1068:Drivers/STM32G4xx_HAL_Driver/Src/stm32g4xx_hal_rcc_ex.c ****         }
 1841              		.loc 1 1068 44 view .LVU644
 1842 0530 DB68     		ldr	r3, [r3, #12]
 1843              	.LVL166:
1068:Drivers/STM32G4xx_HAL_Driver/Src/stm32g4xx_hal_rcc_ex.c ****         }
 1844              		.loc 1 1068 85 view .LVU645
 1845 0532 C3F34153 		ubfx	r3, r3, #21, #2
1068:Drivers/STM32G4xx_HAL_Driver/Src/stm32g4xx_hal_rcc_ex.c ****         }
 1846              		.loc 1 1068 110 view .LVU646
 1847 0536 0133     		adds	r3, r3, #1
1068:Drivers/STM32G4xx_HAL_Driver/Src/stm32g4xx_hal_rcc_ex.c ****         }
 1848              		.loc 1 1068 116 view .LVU647
 1849 0538 5B00     		lsls	r3, r3, #1
1068:Drivers/STM32G4xx_HAL_Driver/Src/stm32g4xx_hal_rcc_ex.c ****         }
 1850              		.loc 1 1068 21 view .LVU648
 1851 053a B0FBF3F0 		udiv	r0, r0, r3
 1852              	.LVL167:
1068:Drivers/STM32G4xx_HAL_Driver/Src/stm32g4xx_hal_rcc_ex.c ****         }
 1853              		.loc 1 1068 21 view .LVU649
 1854 053e DCE0     		b	.L53
 1855              	.LVL168:
 1856              	.L177:
1096:Drivers/STM32G4xx_HAL_Driver/Src/stm32g4xx_hal_rcc_ex.c ****       }
 1857              		.loc 1 1096 9 is_stmt 1 view .LVU650
1096:Drivers/STM32G4xx_HAL_Driver/Src/stm32g4xx_hal_rcc_ex.c ****       }
 1858              		.loc 1 1096 21 is_stmt 0 view .LVU651
 1859 0540 FFF7FEFF 		bl	HAL_RCC_GetSysClockFreq
 1860              	.LVL169:
1096:Drivers/STM32G4xx_HAL_Driver/Src/stm32g4xx_hal_rcc_ex.c ****       }
 1861              		.loc 1 1096 21 view .LVU652
 1862 0544 D9E0     		b	.L53
 1863              	.LVL170:
 1864              	.L178:
1100:Drivers/STM32G4xx_HAL_Driver/Src/stm32g4xx_hal_rcc_ex.c ****         {
 1865              		.loc 1 1100 9 is_stmt 1 view .LVU653
1100:Drivers/STM32G4xx_HAL_Driver/Src/stm32g4xx_hal_rcc_ex.c ****         {
 1866              		.loc 1 1100 12 is_stmt 0 view .LVU654
 1867 0546 03F17F53 		add	r3, r3, #1069547520
 1868              	.LVL171:
1100:Drivers/STM32G4xx_HAL_Driver/Src/stm32g4xx_hal_rcc_ex.c ****         {
 1869              		.loc 1 1100 12 view .LVU655
 1870 054a 03F50433 		add	r3, r3, #135168
 1871              	.LVL172:
1100:Drivers/STM32G4xx_HAL_Driver/Src/stm32g4xx_hal_rcc_ex.c ****         {
 1872              		.loc 1 1100 12 view .LVU656
 1873 054e D868     		ldr	r0, [r3, #12]
 1874              	.LVL173:
1100:Drivers/STM32G4xx_HAL_Driver/Src/stm32g4xx_hal_rcc_ex.c ****         {
 1875              		.loc 1 1100 11 view .LVU657
ARM GAS  C:\Users\Nathan\AppData\Local\Temp\cc4vJDVg.s 			page 63


 1876 0550 10F48010 		ands	r0, r0, #1048576
 1877 0554 00F0D180 		beq	.L53
1103:Drivers/STM32G4xx_HAL_Driver/Src/stm32g4xx_hal_rcc_ex.c ****           frequency = (pllvco * plln) / (((READ_BIT(RCC->PLLCFGR, RCC_PLLCFGR_PLLQ) >> RCC_PLLCFGR_
 1878              		.loc 1 1103 11 is_stmt 1 view .LVU658
1103:Drivers/STM32G4xx_HAL_Driver/Src/stm32g4xx_hal_rcc_ex.c ****           frequency = (pllvco * plln) / (((READ_BIT(RCC->PLLCFGR, RCC_PLLCFGR_PLLQ) >> RCC_PLLCFGR_
 1879              		.loc 1 1103 18 is_stmt 0 view .LVU659
 1880 0558 D868     		ldr	r0, [r3, #12]
1103:Drivers/STM32G4xx_HAL_Driver/Src/stm32g4xx_hal_rcc_ex.c ****           frequency = (pllvco * plln) / (((READ_BIT(RCC->PLLCFGR, RCC_PLLCFGR_PLLQ) >> RCC_PLLCFGR_
 1881              		.loc 1 1103 16 view .LVU660
 1882 055a C0F30620 		ubfx	r0, r0, #8, #7
 1883              	.LVL174:
1104:Drivers/STM32G4xx_HAL_Driver/Src/stm32g4xx_hal_rcc_ex.c ****         }
 1884              		.loc 1 1104 11 is_stmt 1 view .LVU661
1104:Drivers/STM32G4xx_HAL_Driver/Src/stm32g4xx_hal_rcc_ex.c ****         }
 1885              		.loc 1 1104 31 is_stmt 0 view .LVU662
 1886 055e 02FB00F0 		mul	r0, r2, r0
 1887              	.LVL175:
1104:Drivers/STM32G4xx_HAL_Driver/Src/stm32g4xx_hal_rcc_ex.c ****         }
 1888              		.loc 1 1104 44 view .LVU663
 1889 0562 DB68     		ldr	r3, [r3, #12]
 1890              	.LVL176:
1104:Drivers/STM32G4xx_HAL_Driver/Src/stm32g4xx_hal_rcc_ex.c ****         }
 1891              		.loc 1 1104 85 view .LVU664
 1892 0564 C3F34153 		ubfx	r3, r3, #21, #2
1104:Drivers/STM32G4xx_HAL_Driver/Src/stm32g4xx_hal_rcc_ex.c ****         }
 1893              		.loc 1 1104 110 view .LVU665
 1894 0568 0133     		adds	r3, r3, #1
1104:Drivers/STM32G4xx_HAL_Driver/Src/stm32g4xx_hal_rcc_ex.c ****         }
 1895              		.loc 1 1104 116 view .LVU666
 1896 056a 5B00     		lsls	r3, r3, #1
1104:Drivers/STM32G4xx_HAL_Driver/Src/stm32g4xx_hal_rcc_ex.c ****         }
 1897              		.loc 1 1104 21 view .LVU667
 1898 056c B0FBF3F0 		udiv	r0, r0, r3
 1899              	.LVL177:
1104:Drivers/STM32G4xx_HAL_Driver/Src/stm32g4xx_hal_rcc_ex.c ****         }
 1900              		.loc 1 1104 21 view .LVU668
 1901 0570 C3E0     		b	.L53
 1902              	.LVL178:
 1903              	.L75:
1127:Drivers/STM32G4xx_HAL_Driver/Src/stm32g4xx_hal_rcc_ex.c **** 
 1904              		.loc 1 1127 7 is_stmt 1 view .LVU669
1127:Drivers/STM32G4xx_HAL_Driver/Src/stm32g4xx_hal_rcc_ex.c **** 
 1905              		.loc 1 1127 16 is_stmt 0 view .LVU670
 1906 0572 084B     		ldr	r3, .L212
 1907 0574 D3F88830 		ldr	r3, [r3, #136]
1127:Drivers/STM32G4xx_HAL_Driver/Src/stm32g4xx_hal_rcc_ex.c **** 
 1908              		.loc 1 1127 14 view .LVU671
 1909 0578 03F04073 		and	r3, r3, #50331648
 1910              	.LVL179:
1129:Drivers/STM32G4xx_HAL_Driver/Src/stm32g4xx_hal_rcc_ex.c ****       {
 1911              		.loc 1 1129 7 is_stmt 1 view .LVU672
1129:Drivers/STM32G4xx_HAL_Driver/Src/stm32g4xx_hal_rcc_ex.c ****       {
 1912              		.loc 1 1129 9 is_stmt 0 view .LVU673
 1913 057c B3F1007F 		cmp	r3, #33554432
 1914 0580 0AD0     		beq	.L205
1133:Drivers/STM32G4xx_HAL_Driver/Src/stm32g4xx_hal_rcc_ex.c ****       {
 1915              		.loc 1 1133 12 is_stmt 1 view .LVU674
ARM GAS  C:\Users\Nathan\AppData\Local\Temp\cc4vJDVg.s 			page 64


1133:Drivers/STM32G4xx_HAL_Driver/Src/stm32g4xx_hal_rcc_ex.c ****       {
 1916              		.loc 1 1133 14 is_stmt 0 view .LVU675
 1917 0582 002B     		cmp	r3, #0
 1918 0584 00F0F080 		beq	.L155
1137:Drivers/STM32G4xx_HAL_Driver/Src/stm32g4xx_hal_rcc_ex.c ****       {
 1919              		.loc 1 1137 12 is_stmt 1 view .LVU676
1137:Drivers/STM32G4xx_HAL_Driver/Src/stm32g4xx_hal_rcc_ex.c ****       {
 1920              		.loc 1 1137 14 is_stmt 0 view .LVU677
 1921 0588 B3F1807F 		cmp	r3, #16777216
 1922 058c 07D0     		beq	.L206
 686:Drivers/STM32G4xx_HAL_Driver/Src/stm32g4xx_hal_rcc_ex.c ****   uint32_t srcclk;
 1923              		.loc 1 686 12 view .LVU678
 1924 058e 0020     		movs	r0, #0
 1925              	.LVL180:
 686:Drivers/STM32G4xx_HAL_Driver/Src/stm32g4xx_hal_rcc_ex.c ****   uint32_t srcclk;
 1926              		.loc 1 686 12 view .LVU679
 1927 0590 B3E0     		b	.L53
 1928              	.L213:
 1929 0592 00BF     		.align	2
 1930              	.L212:
 1931 0594 00100240 		.word	1073876992
 1932              	.LVL181:
 1933              	.L205:
1131:Drivers/STM32G4xx_HAL_Driver/Src/stm32g4xx_hal_rcc_ex.c ****       }
 1934              		.loc 1 1131 9 is_stmt 1 view .LVU680
1131:Drivers/STM32G4xx_HAL_Driver/Src/stm32g4xx_hal_rcc_ex.c ****       }
 1935              		.loc 1 1131 21 is_stmt 0 view .LVU681
 1936 0598 FFF7FEFF 		bl	HAL_RCC_GetPCLK1Freq
 1937              	.LVL182:
1131:Drivers/STM32G4xx_HAL_Driver/Src/stm32g4xx_hal_rcc_ex.c ****       }
 1938              		.loc 1 1131 21 view .LVU682
 1939 059c ADE0     		b	.L53
 1940              	.LVL183:
 1941              	.L206:
1139:Drivers/STM32G4xx_HAL_Driver/Src/stm32g4xx_hal_rcc_ex.c ****         {
 1942              		.loc 1 1139 9 is_stmt 1 view .LVU683
1139:Drivers/STM32G4xx_HAL_Driver/Src/stm32g4xx_hal_rcc_ex.c ****         {
 1943              		.loc 1 1139 12 is_stmt 0 view .LVU684
 1944 059e 03F17C53 		add	r3, r3, #1056964608
 1945              	.LVL184:
1139:Drivers/STM32G4xx_HAL_Driver/Src/stm32g4xx_hal_rcc_ex.c ****         {
 1946              		.loc 1 1139 12 view .LVU685
 1947 05a2 03F50433 		add	r3, r3, #135168
 1948              	.LVL185:
1139:Drivers/STM32G4xx_HAL_Driver/Src/stm32g4xx_hal_rcc_ex.c ****         {
 1949              		.loc 1 1139 12 view .LVU686
 1950 05a6 D868     		ldr	r0, [r3, #12]
 1951              	.LVL186:
1139:Drivers/STM32G4xx_HAL_Driver/Src/stm32g4xx_hal_rcc_ex.c ****         {
 1952              		.loc 1 1139 11 view .LVU687
 1953 05a8 10F48010 		ands	r0, r0, #1048576
 1954 05ac 00F0A580 		beq	.L53
1142:Drivers/STM32G4xx_HAL_Driver/Src/stm32g4xx_hal_rcc_ex.c ****           frequency = (pllvco * plln) / (((READ_BIT(RCC->PLLCFGR, RCC_PLLCFGR_PLLQ) >> RCC_PLLCFGR_
 1955              		.loc 1 1142 11 is_stmt 1 view .LVU688
1142:Drivers/STM32G4xx_HAL_Driver/Src/stm32g4xx_hal_rcc_ex.c ****           frequency = (pllvco * plln) / (((READ_BIT(RCC->PLLCFGR, RCC_PLLCFGR_PLLQ) >> RCC_PLLCFGR_
 1956              		.loc 1 1142 18 is_stmt 0 view .LVU689
 1957 05b0 D868     		ldr	r0, [r3, #12]
ARM GAS  C:\Users\Nathan\AppData\Local\Temp\cc4vJDVg.s 			page 65


1142:Drivers/STM32G4xx_HAL_Driver/Src/stm32g4xx_hal_rcc_ex.c ****           frequency = (pllvco * plln) / (((READ_BIT(RCC->PLLCFGR, RCC_PLLCFGR_PLLQ) >> RCC_PLLCFGR_
 1958              		.loc 1 1142 16 view .LVU690
 1959 05b2 C0F30620 		ubfx	r0, r0, #8, #7
 1960              	.LVL187:
1143:Drivers/STM32G4xx_HAL_Driver/Src/stm32g4xx_hal_rcc_ex.c ****         }
 1961              		.loc 1 1143 11 is_stmt 1 view .LVU691
1143:Drivers/STM32G4xx_HAL_Driver/Src/stm32g4xx_hal_rcc_ex.c ****         }
 1962              		.loc 1 1143 31 is_stmt 0 view .LVU692
 1963 05b6 02FB00F0 		mul	r0, r2, r0
 1964              	.LVL188:
1143:Drivers/STM32G4xx_HAL_Driver/Src/stm32g4xx_hal_rcc_ex.c ****         }
 1965              		.loc 1 1143 44 view .LVU693
 1966 05ba DB68     		ldr	r3, [r3, #12]
 1967              	.LVL189:
1143:Drivers/STM32G4xx_HAL_Driver/Src/stm32g4xx_hal_rcc_ex.c ****         }
 1968              		.loc 1 1143 85 view .LVU694
 1969 05bc C3F34153 		ubfx	r3, r3, #21, #2
1143:Drivers/STM32G4xx_HAL_Driver/Src/stm32g4xx_hal_rcc_ex.c ****         }
 1970              		.loc 1 1143 110 view .LVU695
 1971 05c0 0133     		adds	r3, r3, #1
1143:Drivers/STM32G4xx_HAL_Driver/Src/stm32g4xx_hal_rcc_ex.c ****         }
 1972              		.loc 1 1143 116 view .LVU696
 1973 05c2 5B00     		lsls	r3, r3, #1
1143:Drivers/STM32G4xx_HAL_Driver/Src/stm32g4xx_hal_rcc_ex.c ****         }
 1974              		.loc 1 1143 21 view .LVU697
 1975 05c4 B0FBF3F0 		udiv	r0, r0, r3
 1976              	.LVL190:
1143:Drivers/STM32G4xx_HAL_Driver/Src/stm32g4xx_hal_rcc_ex.c ****         }
 1977              		.loc 1 1143 21 view .LVU698
 1978 05c8 97E0     		b	.L53
 1979              	.LVL191:
 1980              	.L180:
1163:Drivers/STM32G4xx_HAL_Driver/Src/stm32g4xx_hal_rcc_ex.c ****         frequency = (pllvco * plln) / (((READ_BIT(RCC->PLLCFGR, RCC_PLLCFGR_PLLQ) >> RCC_PLLCFGR_PL
 1981              		.loc 1 1163 9 is_stmt 1 view .LVU699
1163:Drivers/STM32G4xx_HAL_Driver/Src/stm32g4xx_hal_rcc_ex.c ****         frequency = (pllvco * plln) / (((READ_BIT(RCC->PLLCFGR, RCC_PLLCFGR_PLLQ) >> RCC_PLLCFGR_PL
 1982              		.loc 1 1163 16 is_stmt 0 view .LVU700
 1983 05ca 03F16053 		add	r3, r3, #939524096
 1984              	.LVL192:
1163:Drivers/STM32G4xx_HAL_Driver/Src/stm32g4xx_hal_rcc_ex.c ****         frequency = (pllvco * plln) / (((READ_BIT(RCC->PLLCFGR, RCC_PLLCFGR_PLLQ) >> RCC_PLLCFGR_PL
 1985              		.loc 1 1163 16 view .LVU701
 1986 05ce 03F50433 		add	r3, r3, #135168
 1987              	.LVL193:
1163:Drivers/STM32G4xx_HAL_Driver/Src/stm32g4xx_hal_rcc_ex.c ****         frequency = (pllvco * plln) / (((READ_BIT(RCC->PLLCFGR, RCC_PLLCFGR_PLLQ) >> RCC_PLLCFGR_PL
 1988              		.loc 1 1163 16 view .LVU702
 1989 05d2 D868     		ldr	r0, [r3, #12]
 1990              	.LVL194:
1163:Drivers/STM32G4xx_HAL_Driver/Src/stm32g4xx_hal_rcc_ex.c ****         frequency = (pllvco * plln) / (((READ_BIT(RCC->PLLCFGR, RCC_PLLCFGR_PLLQ) >> RCC_PLLCFGR_PL
 1991              		.loc 1 1163 14 view .LVU703
 1992 05d4 C0F30620 		ubfx	r0, r0, #8, #7
 1993              	.LVL195:
1164:Drivers/STM32G4xx_HAL_Driver/Src/stm32g4xx_hal_rcc_ex.c ****       }
 1994              		.loc 1 1164 9 is_stmt 1 view .LVU704
1164:Drivers/STM32G4xx_HAL_Driver/Src/stm32g4xx_hal_rcc_ex.c ****       }
 1995              		.loc 1 1164 29 is_stmt 0 view .LVU705
 1996 05d8 02FB00F0 		mul	r0, r2, r0
 1997              	.LVL196:
1164:Drivers/STM32G4xx_HAL_Driver/Src/stm32g4xx_hal_rcc_ex.c ****       }
ARM GAS  C:\Users\Nathan\AppData\Local\Temp\cc4vJDVg.s 			page 66


 1998              		.loc 1 1164 42 view .LVU706
 1999 05dc DB68     		ldr	r3, [r3, #12]
 2000              	.LVL197:
1164:Drivers/STM32G4xx_HAL_Driver/Src/stm32g4xx_hal_rcc_ex.c ****       }
 2001              		.loc 1 1164 83 view .LVU707
 2002 05de C3F34153 		ubfx	r3, r3, #21, #2
1164:Drivers/STM32G4xx_HAL_Driver/Src/stm32g4xx_hal_rcc_ex.c ****       }
 2003              		.loc 1 1164 108 view .LVU708
 2004 05e2 0133     		adds	r3, r3, #1
1164:Drivers/STM32G4xx_HAL_Driver/Src/stm32g4xx_hal_rcc_ex.c ****       }
 2005              		.loc 1 1164 114 view .LVU709
 2006 05e4 5B00     		lsls	r3, r3, #1
1164:Drivers/STM32G4xx_HAL_Driver/Src/stm32g4xx_hal_rcc_ex.c ****       }
 2007              		.loc 1 1164 19 view .LVU710
 2008 05e6 B0FBF3F0 		udiv	r0, r0, r3
 2009              	.LVL198:
1164:Drivers/STM32G4xx_HAL_Driver/Src/stm32g4xx_hal_rcc_ex.c ****       }
 2010              		.loc 1 1164 19 view .LVU711
 2011 05ea 86E0     		b	.L53
 2012              	.LVL199:
 2013              	.L73:
1180:Drivers/STM32G4xx_HAL_Driver/Src/stm32g4xx_hal_rcc_ex.c **** 
 2014              		.loc 1 1180 7 is_stmt 1 view .LVU712
1180:Drivers/STM32G4xx_HAL_Driver/Src/stm32g4xx_hal_rcc_ex.c **** 
 2015              		.loc 1 1180 16 is_stmt 0 view .LVU713
 2016 05ec 624B     		ldr	r3, .L214
 2017 05ee D3F88830 		ldr	r3, [r3, #136]
1180:Drivers/STM32G4xx_HAL_Driver/Src/stm32g4xx_hal_rcc_ex.c **** 
 2018              		.loc 1 1180 14 view .LVU714
 2019 05f2 03F04063 		and	r3, r3, #201326592
 2020              	.LVL200:
1182:Drivers/STM32G4xx_HAL_Driver/Src/stm32g4xx_hal_rcc_ex.c ****       {
 2021              		.loc 1 1182 7 is_stmt 1 view .LVU715
1182:Drivers/STM32G4xx_HAL_Driver/Src/stm32g4xx_hal_rcc_ex.c ****       {
 2022              		.loc 1 1182 9 is_stmt 0 view .LVU716
 2023 05f6 B3F1006F 		cmp	r3, #134217728
 2024 05fa 0AD0     		beq	.L207
1188:Drivers/STM32G4xx_HAL_Driver/Src/stm32g4xx_hal_rcc_ex.c ****       {
 2025              		.loc 1 1188 12 is_stmt 1 view .LVU717
1188:Drivers/STM32G4xx_HAL_Driver/Src/stm32g4xx_hal_rcc_ex.c ****       {
 2026              		.loc 1 1188 17 is_stmt 0 view .LVU718
 2027 05fc 5E4A     		ldr	r2, .L214
 2028              	.LVL201:
1188:Drivers/STM32G4xx_HAL_Driver/Src/stm32g4xx_hal_rcc_ex.c ****       {
 2029              		.loc 1 1188 17 view .LVU719
 2030 05fe D2F89800 		ldr	r0, [r2, #152]
 2031              	.LVL202:
1188:Drivers/STM32G4xx_HAL_Driver/Src/stm32g4xx_hal_rcc_ex.c ****       {
 2032              		.loc 1 1188 14 view .LVU720
 2033 0602 10F00200 		ands	r0, r0, #2
 2034 0606 78D0     		beq	.L53
1188:Drivers/STM32G4xx_HAL_Driver/Src/stm32g4xx_hal_rcc_ex.c ****       {
 2035              		.loc 1 1188 65 discriminator 1 view .LVU721
 2036 0608 002B     		cmp	r3, #0
 2037 060a 00F0B180 		beq	.L158
 686:Drivers/STM32G4xx_HAL_Driver/Src/stm32g4xx_hal_rcc_ex.c ****   uint32_t srcclk;
 2038              		.loc 1 686 12 view .LVU722
ARM GAS  C:\Users\Nathan\AppData\Local\Temp\cc4vJDVg.s 			page 67


 2039 060e 0020     		movs	r0, #0
 2040 0610 73E0     		b	.L53
 2041              	.LVL203:
 2042              	.L207:
1185:Drivers/STM32G4xx_HAL_Driver/Src/stm32g4xx_hal_rcc_ex.c ****         frequency = (pllvco * plln) / (((READ_BIT(RCC->PLLCFGR, RCC_PLLCFGR_PLLQ) >> RCC_PLLCFGR_PL
 2043              		.loc 1 1185 9 is_stmt 1 view .LVU723
1185:Drivers/STM32G4xx_HAL_Driver/Src/stm32g4xx_hal_rcc_ex.c ****         frequency = (pllvco * plln) / (((READ_BIT(RCC->PLLCFGR, RCC_PLLCFGR_PLLQ) >> RCC_PLLCFGR_PL
 2044              		.loc 1 1185 16 is_stmt 0 view .LVU724
 2045 0612 03F16053 		add	r3, r3, #939524096
 2046              	.LVL204:
1185:Drivers/STM32G4xx_HAL_Driver/Src/stm32g4xx_hal_rcc_ex.c ****         frequency = (pllvco * plln) / (((READ_BIT(RCC->PLLCFGR, RCC_PLLCFGR_PLLQ) >> RCC_PLLCFGR_PL
 2047              		.loc 1 1185 16 view .LVU725
 2048 0616 03F50433 		add	r3, r3, #135168
 2049              	.LVL205:
1185:Drivers/STM32G4xx_HAL_Driver/Src/stm32g4xx_hal_rcc_ex.c ****         frequency = (pllvco * plln) / (((READ_BIT(RCC->PLLCFGR, RCC_PLLCFGR_PLLQ) >> RCC_PLLCFGR_PL
 2050              		.loc 1 1185 16 view .LVU726
 2051 061a D868     		ldr	r0, [r3, #12]
 2052              	.LVL206:
1185:Drivers/STM32G4xx_HAL_Driver/Src/stm32g4xx_hal_rcc_ex.c ****         frequency = (pllvco * plln) / (((READ_BIT(RCC->PLLCFGR, RCC_PLLCFGR_PLLQ) >> RCC_PLLCFGR_PL
 2053              		.loc 1 1185 14 view .LVU727
 2054 061c C0F30620 		ubfx	r0, r0, #8, #7
 2055              	.LVL207:
1186:Drivers/STM32G4xx_HAL_Driver/Src/stm32g4xx_hal_rcc_ex.c ****       }
 2056              		.loc 1 1186 9 is_stmt 1 view .LVU728
1186:Drivers/STM32G4xx_HAL_Driver/Src/stm32g4xx_hal_rcc_ex.c ****       }
 2057              		.loc 1 1186 29 is_stmt 0 view .LVU729
 2058 0620 02FB00F0 		mul	r0, r2, r0
 2059              	.LVL208:
1186:Drivers/STM32G4xx_HAL_Driver/Src/stm32g4xx_hal_rcc_ex.c ****       }
 2060              		.loc 1 1186 42 view .LVU730
 2061 0624 DB68     		ldr	r3, [r3, #12]
 2062              	.LVL209:
1186:Drivers/STM32G4xx_HAL_Driver/Src/stm32g4xx_hal_rcc_ex.c ****       }
 2063              		.loc 1 1186 83 view .LVU731
 2064 0626 C3F34153 		ubfx	r3, r3, #21, #2
1186:Drivers/STM32G4xx_HAL_Driver/Src/stm32g4xx_hal_rcc_ex.c ****       }
 2065              		.loc 1 1186 108 view .LVU732
 2066 062a 0133     		adds	r3, r3, #1
1186:Drivers/STM32G4xx_HAL_Driver/Src/stm32g4xx_hal_rcc_ex.c ****       }
 2067              		.loc 1 1186 114 view .LVU733
 2068 062c 5B00     		lsls	r3, r3, #1
1186:Drivers/STM32G4xx_HAL_Driver/Src/stm32g4xx_hal_rcc_ex.c ****       }
 2069              		.loc 1 1186 19 view .LVU734
 2070 062e B0FBF3F0 		udiv	r0, r0, r3
 2071              	.LVL210:
1186:Drivers/STM32G4xx_HAL_Driver/Src/stm32g4xx_hal_rcc_ex.c ****       }
 2072              		.loc 1 1186 19 view .LVU735
 2073 0632 62E0     		b	.L53
 2074              	.LVL211:
 2075              	.L82:
1200:Drivers/STM32G4xx_HAL_Driver/Src/stm32g4xx_hal_rcc_ex.c ****       
 2076              		.loc 1 1200 7 is_stmt 1 view .LVU736
1200:Drivers/STM32G4xx_HAL_Driver/Src/stm32g4xx_hal_rcc_ex.c ****       
 2077              		.loc 1 1200 16 is_stmt 0 view .LVU737
 2078 0634 504B     		ldr	r3, .L214
 2079 0636 D3F88830 		ldr	r3, [r3, #136]
1200:Drivers/STM32G4xx_HAL_Driver/Src/stm32g4xx_hal_rcc_ex.c ****       
ARM GAS  C:\Users\Nathan\AppData\Local\Temp\cc4vJDVg.s 			page 68


 2080              		.loc 1 1200 14 view .LVU738
 2081 063a 03F04053 		and	r3, r3, #805306368
 2082              	.LVL212:
1202:Drivers/STM32G4xx_HAL_Driver/Src/stm32g4xx_hal_rcc_ex.c ****       {
 2083              		.loc 1 1202 7 is_stmt 1 view .LVU739
1202:Drivers/STM32G4xx_HAL_Driver/Src/stm32g4xx_hal_rcc_ex.c ****       {
 2084              		.loc 1 1202 9 is_stmt 0 view .LVU740
 2085 063e B3F1805F 		cmp	r3, #268435456
 2086 0642 04D0     		beq	.L208
1223:Drivers/STM32G4xx_HAL_Driver/Src/stm32g4xx_hal_rcc_ex.c ****       {
 2087              		.loc 1 1223 12 is_stmt 1 view .LVU741
1223:Drivers/STM32G4xx_HAL_Driver/Src/stm32g4xx_hal_rcc_ex.c ****       {
 2088              		.loc 1 1223 14 is_stmt 0 view .LVU742
 2089 0644 B3F1005F 		cmp	r3, #536870912
 2090 0648 1CD0     		beq	.L209
 686:Drivers/STM32G4xx_HAL_Driver/Src/stm32g4xx_hal_rcc_ex.c ****   uint32_t srcclk;
 2091              		.loc 1 686 12 view .LVU743
 2092 064a 0020     		movs	r0, #0
 2093              	.LVL213:
 686:Drivers/STM32G4xx_HAL_Driver/Src/stm32g4xx_hal_rcc_ex.c ****   uint32_t srcclk;
 2094              		.loc 1 686 12 view .LVU744
 2095 064c 55E0     		b	.L53
 2096              	.LVL214:
 2097              	.L208:
1204:Drivers/STM32G4xx_HAL_Driver/Src/stm32g4xx_hal_rcc_ex.c ****         {
 2098              		.loc 1 1204 9 is_stmt 1 view .LVU745
1204:Drivers/STM32G4xx_HAL_Driver/Src/stm32g4xx_hal_rcc_ex.c ****         {
 2099              		.loc 1 1204 12 is_stmt 0 view .LVU746
 2100 064e 03F14053 		add	r3, r3, #805306368
 2101              	.LVL215:
1204:Drivers/STM32G4xx_HAL_Driver/Src/stm32g4xx_hal_rcc_ex.c ****         {
 2102              		.loc 1 1204 12 view .LVU747
 2103 0652 03F50433 		add	r3, r3, #135168
 2104              	.LVL216:
1204:Drivers/STM32G4xx_HAL_Driver/Src/stm32g4xx_hal_rcc_ex.c ****         {
 2105              		.loc 1 1204 12 view .LVU748
 2106 0656 D868     		ldr	r0, [r3, #12]
 2107              	.LVL217:
1204:Drivers/STM32G4xx_HAL_Driver/Src/stm32g4xx_hal_rcc_ex.c ****         {
 2108              		.loc 1 1204 11 view .LVU749
 2109 0658 10F48030 		ands	r0, r0, #65536
 2110 065c 4DD0     		beq	.L53
1207:Drivers/STM32G4xx_HAL_Driver/Src/stm32g4xx_hal_rcc_ex.c ****           pllp = READ_BIT(RCC->PLLCFGR, RCC_PLLCFGR_PLLPDIV) >> RCC_PLLCFGR_PLLPDIV_Pos;
 2111              		.loc 1 1207 11 is_stmt 1 view .LVU750
1207:Drivers/STM32G4xx_HAL_Driver/Src/stm32g4xx_hal_rcc_ex.c ****           pllp = READ_BIT(RCC->PLLCFGR, RCC_PLLCFGR_PLLPDIV) >> RCC_PLLCFGR_PLLPDIV_Pos;
 2112              		.loc 1 1207 18 is_stmt 0 view .LVU751
 2113 065e D868     		ldr	r0, [r3, #12]
1207:Drivers/STM32G4xx_HAL_Driver/Src/stm32g4xx_hal_rcc_ex.c ****           pllp = READ_BIT(RCC->PLLCFGR, RCC_PLLCFGR_PLLPDIV) >> RCC_PLLCFGR_PLLPDIV_Pos;
 2114              		.loc 1 1207 16 view .LVU752
 2115 0660 C0F30620 		ubfx	r0, r0, #8, #7
 2116              	.LVL218:
1208:Drivers/STM32G4xx_HAL_Driver/Src/stm32g4xx_hal_rcc_ex.c ****           if(pllp == 0U)
 2117              		.loc 1 1208 11 is_stmt 1 view .LVU753
1208:Drivers/STM32G4xx_HAL_Driver/Src/stm32g4xx_hal_rcc_ex.c ****           if(pllp == 0U)
 2118              		.loc 1 1208 18 is_stmt 0 view .LVU754
 2119 0664 DB68     		ldr	r3, [r3, #12]
 2120              	.LVL219:
ARM GAS  C:\Users\Nathan\AppData\Local\Temp\cc4vJDVg.s 			page 69


1209:Drivers/STM32G4xx_HAL_Driver/Src/stm32g4xx_hal_rcc_ex.c ****           {
 2121              		.loc 1 1209 11 is_stmt 1 view .LVU755
1209:Drivers/STM32G4xx_HAL_Driver/Src/stm32g4xx_hal_rcc_ex.c ****           {
 2122              		.loc 1 1209 13 is_stmt 0 view .LVU756
 2123 0666 DB0E     		lsrs	r3, r3, #27
 2124              	.LVL220:
1209:Drivers/STM32G4xx_HAL_Driver/Src/stm32g4xx_hal_rcc_ex.c ****           {
 2125              		.loc 1 1209 13 view .LVU757
 2126 0668 05D1     		bne	.L122
1211:Drivers/STM32G4xx_HAL_Driver/Src/stm32g4xx_hal_rcc_ex.c ****             {
 2127              		.loc 1 1211 13 is_stmt 1 view .LVU758
1211:Drivers/STM32G4xx_HAL_Driver/Src/stm32g4xx_hal_rcc_ex.c ****             {
 2128              		.loc 1 1211 16 is_stmt 0 view .LVU759
 2129 066a 434B     		ldr	r3, .L214
 2130              	.LVL221:
1211:Drivers/STM32G4xx_HAL_Driver/Src/stm32g4xx_hal_rcc_ex.c ****             {
 2131              		.loc 1 1211 16 view .LVU760
 2132 066c DB68     		ldr	r3, [r3, #12]
1211:Drivers/STM32G4xx_HAL_Driver/Src/stm32g4xx_hal_rcc_ex.c ****             {
 2133              		.loc 1 1211 15 view .LVU761
 2134 066e 13F4003F 		tst	r3, #131072
 2135 0672 05D0     		beq	.L159
1213:Drivers/STM32G4xx_HAL_Driver/Src/stm32g4xx_hal_rcc_ex.c ****             }
 2136              		.loc 1 1213 20 view .LVU762
 2137 0674 1123     		movs	r3, #17
 2138              	.L122:
 2139              	.LVL222:
1220:Drivers/STM32G4xx_HAL_Driver/Src/stm32g4xx_hal_rcc_ex.c ****         }
 2140              		.loc 1 1220 11 is_stmt 1 view .LVU763
1220:Drivers/STM32G4xx_HAL_Driver/Src/stm32g4xx_hal_rcc_ex.c ****         }
 2141              		.loc 1 1220 31 is_stmt 0 view .LVU764
 2142 0676 02FB00F0 		mul	r0, r2, r0
 2143              	.LVL223:
1220:Drivers/STM32G4xx_HAL_Driver/Src/stm32g4xx_hal_rcc_ex.c ****         }
 2144              		.loc 1 1220 21 view .LVU765
 2145 067a B0FBF3F0 		udiv	r0, r0, r3
 2146              	.LVL224:
1220:Drivers/STM32G4xx_HAL_Driver/Src/stm32g4xx_hal_rcc_ex.c ****         }
 2147              		.loc 1 1220 21 view .LVU766
 2148 067e 3CE0     		b	.L53
 2149              	.LVL225:
 2150              	.L159:
1217:Drivers/STM32G4xx_HAL_Driver/Src/stm32g4xx_hal_rcc_ex.c ****             }
 2151              		.loc 1 1217 20 view .LVU767
 2152 0680 0723     		movs	r3, #7
 2153 0682 F8E7     		b	.L122
 2154              	.LVL226:
 2155              	.L209:
1225:Drivers/STM32G4xx_HAL_Driver/Src/stm32g4xx_hal_rcc_ex.c ****       }
 2156              		.loc 1 1225 9 is_stmt 1 view .LVU768
1225:Drivers/STM32G4xx_HAL_Driver/Src/stm32g4xx_hal_rcc_ex.c ****       }
 2157              		.loc 1 1225 21 is_stmt 0 view .LVU769
 2158 0684 FFF7FEFF 		bl	HAL_RCC_GetSysClockFreq
 2159              	.LVL227:
1225:Drivers/STM32G4xx_HAL_Driver/Src/stm32g4xx_hal_rcc_ex.c ****       }
 2160              		.loc 1 1225 21 view .LVU770
 2161 0688 37E0     		b	.L53
ARM GAS  C:\Users\Nathan\AppData\Local\Temp\cc4vJDVg.s 			page 70


 2162              	.LVL228:
 2163              	.L174:
1241:Drivers/STM32G4xx_HAL_Driver/Src/stm32g4xx_hal_rcc_ex.c ****         {
 2164              		.loc 1 1241 9 is_stmt 1 view .LVU771
1241:Drivers/STM32G4xx_HAL_Driver/Src/stm32g4xx_hal_rcc_ex.c ****         {
 2165              		.loc 1 1241 12 is_stmt 0 view .LVU772
 2166 068a 03F50433 		add	r3, r3, #135168
 2167              	.LVL229:
1241:Drivers/STM32G4xx_HAL_Driver/Src/stm32g4xx_hal_rcc_ex.c ****         {
 2168              		.loc 1 1241 12 view .LVU773
 2169 068e D868     		ldr	r0, [r3, #12]
 2170              	.LVL230:
1241:Drivers/STM32G4xx_HAL_Driver/Src/stm32g4xx_hal_rcc_ex.c ****         {
 2171              		.loc 1 1241 11 view .LVU774
 2172 0690 10F48030 		ands	r0, r0, #65536
 2173 0694 31D0     		beq	.L53
1244:Drivers/STM32G4xx_HAL_Driver/Src/stm32g4xx_hal_rcc_ex.c ****           pllp = READ_BIT(RCC->PLLCFGR, RCC_PLLCFGR_PLLPDIV) >> RCC_PLLCFGR_PLLPDIV_Pos;
 2174              		.loc 1 1244 11 is_stmt 1 view .LVU775
1244:Drivers/STM32G4xx_HAL_Driver/Src/stm32g4xx_hal_rcc_ex.c ****           pllp = READ_BIT(RCC->PLLCFGR, RCC_PLLCFGR_PLLPDIV) >> RCC_PLLCFGR_PLLPDIV_Pos;
 2175              		.loc 1 1244 18 is_stmt 0 view .LVU776
 2176 0696 D868     		ldr	r0, [r3, #12]
1244:Drivers/STM32G4xx_HAL_Driver/Src/stm32g4xx_hal_rcc_ex.c ****           pllp = READ_BIT(RCC->PLLCFGR, RCC_PLLCFGR_PLLPDIV) >> RCC_PLLCFGR_PLLPDIV_Pos;
 2177              		.loc 1 1244 16 view .LVU777
 2178 0698 C0F30620 		ubfx	r0, r0, #8, #7
 2179              	.LVL231:
1245:Drivers/STM32G4xx_HAL_Driver/Src/stm32g4xx_hal_rcc_ex.c ****           if(pllp == 0U)
 2180              		.loc 1 1245 11 is_stmt 1 view .LVU778
1245:Drivers/STM32G4xx_HAL_Driver/Src/stm32g4xx_hal_rcc_ex.c ****           if(pllp == 0U)
 2181              		.loc 1 1245 18 is_stmt 0 view .LVU779
 2182 069c DB68     		ldr	r3, [r3, #12]
 2183              	.LVL232:
1246:Drivers/STM32G4xx_HAL_Driver/Src/stm32g4xx_hal_rcc_ex.c ****           {
 2184              		.loc 1 1246 11 is_stmt 1 view .LVU780
1246:Drivers/STM32G4xx_HAL_Driver/Src/stm32g4xx_hal_rcc_ex.c ****           {
 2185              		.loc 1 1246 13 is_stmt 0 view .LVU781
 2186 069e DB0E     		lsrs	r3, r3, #27
 2187              	.LVL233:
1246:Drivers/STM32G4xx_HAL_Driver/Src/stm32g4xx_hal_rcc_ex.c ****           {
 2188              		.loc 1 1246 13 view .LVU782
 2189 06a0 05D1     		bne	.L124
1248:Drivers/STM32G4xx_HAL_Driver/Src/stm32g4xx_hal_rcc_ex.c ****             {
 2190              		.loc 1 1248 13 is_stmt 1 view .LVU783
1248:Drivers/STM32G4xx_HAL_Driver/Src/stm32g4xx_hal_rcc_ex.c ****             {
 2191              		.loc 1 1248 16 is_stmt 0 view .LVU784
 2192 06a2 354B     		ldr	r3, .L214
 2193              	.LVL234:
1248:Drivers/STM32G4xx_HAL_Driver/Src/stm32g4xx_hal_rcc_ex.c ****             {
 2194              		.loc 1 1248 16 view .LVU785
 2195 06a4 DB68     		ldr	r3, [r3, #12]
1248:Drivers/STM32G4xx_HAL_Driver/Src/stm32g4xx_hal_rcc_ex.c ****             {
 2196              		.loc 1 1248 15 view .LVU786
 2197 06a6 13F4003F 		tst	r3, #131072
 2198 06aa 05D0     		beq	.L161
1250:Drivers/STM32G4xx_HAL_Driver/Src/stm32g4xx_hal_rcc_ex.c ****             }
 2199              		.loc 1 1250 20 view .LVU787
 2200 06ac 1123     		movs	r3, #17
 2201              	.L124:
ARM GAS  C:\Users\Nathan\AppData\Local\Temp\cc4vJDVg.s 			page 71


 2202              	.LVL235:
1257:Drivers/STM32G4xx_HAL_Driver/Src/stm32g4xx_hal_rcc_ex.c ****         }
 2203              		.loc 1 1257 11 is_stmt 1 view .LVU788
1257:Drivers/STM32G4xx_HAL_Driver/Src/stm32g4xx_hal_rcc_ex.c ****         }
 2204              		.loc 1 1257 31 is_stmt 0 view .LVU789
 2205 06ae 02FB00F0 		mul	r0, r2, r0
 2206              	.LVL236:
1257:Drivers/STM32G4xx_HAL_Driver/Src/stm32g4xx_hal_rcc_ex.c ****         }
 2207              		.loc 1 1257 21 view .LVU790
 2208 06b2 B0FBF3F0 		udiv	r0, r0, r3
 2209              	.LVL237:
1257:Drivers/STM32G4xx_HAL_Driver/Src/stm32g4xx_hal_rcc_ex.c ****         }
 2210              		.loc 1 1257 21 view .LVU791
 2211 06b6 20E0     		b	.L53
 2212              	.LVL238:
 2213              	.L161:
1254:Drivers/STM32G4xx_HAL_Driver/Src/stm32g4xx_hal_rcc_ex.c ****             }
 2214              		.loc 1 1254 20 view .LVU792
 2215 06b8 0723     		movs	r3, #7
 2216 06ba F8E7     		b	.L124
 2217              	.LVL239:
 2218              	.L175:
1262:Drivers/STM32G4xx_HAL_Driver/Src/stm32g4xx_hal_rcc_ex.c ****       }
 2219              		.loc 1 1262 9 is_stmt 1 view .LVU793
1262:Drivers/STM32G4xx_HAL_Driver/Src/stm32g4xx_hal_rcc_ex.c ****       }
 2220              		.loc 1 1262 21 is_stmt 0 view .LVU794
 2221 06bc FFF7FEFF 		bl	HAL_RCC_GetSysClockFreq
 2222              	.LVL240:
1262:Drivers/STM32G4xx_HAL_Driver/Src/stm32g4xx_hal_rcc_ex.c ****       }
 2223              		.loc 1 1262 21 view .LVU795
 2224 06c0 1BE0     		b	.L53
 2225              	.LVL241:
 2226              	.L182:
1281:Drivers/STM32G4xx_HAL_Driver/Src/stm32g4xx_hal_rcc_ex.c ****         frequency = (pllvco * plln) / (((READ_BIT(RCC->PLLCFGR, RCC_PLLCFGR_PLLQ) >> RCC_PLLCFGR_PL
 2227              		.loc 1 1281 9 is_stmt 1 view .LVU796
1281:Drivers/STM32G4xx_HAL_Driver/Src/stm32g4xx_hal_rcc_ex.c ****         frequency = (pllvco * plln) / (((READ_BIT(RCC->PLLCFGR, RCC_PLLCFGR_PLLQ) >> RCC_PLLCFGR_PL
 2228              		.loc 1 1281 16 is_stmt 0 view .LVU797
 2229 06c2 2D49     		ldr	r1, .L214
 2230 06c4 CB68     		ldr	r3, [r1, #12]
 2231              	.LVL242:
1281:Drivers/STM32G4xx_HAL_Driver/Src/stm32g4xx_hal_rcc_ex.c ****         frequency = (pllvco * plln) / (((READ_BIT(RCC->PLLCFGR, RCC_PLLCFGR_PLLQ) >> RCC_PLLCFGR_PL
 2232              		.loc 1 1281 14 view .LVU798
 2233 06c6 C3F30623 		ubfx	r3, r3, #8, #7
 2234              	.LVL243:
1282:Drivers/STM32G4xx_HAL_Driver/Src/stm32g4xx_hal_rcc_ex.c ****       }
 2235              		.loc 1 1282 9 is_stmt 1 view .LVU799
1282:Drivers/STM32G4xx_HAL_Driver/Src/stm32g4xx_hal_rcc_ex.c ****       }
 2236              		.loc 1 1282 29 is_stmt 0 view .LVU800
 2237 06ca 03FB02F2 		mul	r2, r3, r2
 2238              	.LVL244:
1282:Drivers/STM32G4xx_HAL_Driver/Src/stm32g4xx_hal_rcc_ex.c ****       }
 2239              		.loc 1 1282 42 view .LVU801
 2240 06ce C868     		ldr	r0, [r1, #12]
 2241              	.LVL245:
1282:Drivers/STM32G4xx_HAL_Driver/Src/stm32g4xx_hal_rcc_ex.c ****       }
 2242              		.loc 1 1282 83 view .LVU802
 2243 06d0 C0F34150 		ubfx	r0, r0, #21, #2
ARM GAS  C:\Users\Nathan\AppData\Local\Temp\cc4vJDVg.s 			page 72


1282:Drivers/STM32G4xx_HAL_Driver/Src/stm32g4xx_hal_rcc_ex.c ****       }
 2244              		.loc 1 1282 108 view .LVU803
 2245 06d4 0130     		adds	r0, r0, #1
1282:Drivers/STM32G4xx_HAL_Driver/Src/stm32g4xx_hal_rcc_ex.c ****       }
 2246              		.loc 1 1282 114 view .LVU804
 2247 06d6 4000     		lsls	r0, r0, #1
1282:Drivers/STM32G4xx_HAL_Driver/Src/stm32g4xx_hal_rcc_ex.c ****       }
 2248              		.loc 1 1282 19 view .LVU805
 2249 06d8 B2FBF0F0 		udiv	r0, r2, r0
 2250              	.LVL246:
1282:Drivers/STM32G4xx_HAL_Driver/Src/stm32g4xx_hal_rcc_ex.c ****       }
 2251              		.loc 1 1282 19 view .LVU806
 2252 06dc 0DE0     		b	.L53
 2253              	.LVL247:
 2254              	.L183:
1290:Drivers/STM32G4xx_HAL_Driver/Src/stm32g4xx_hal_rcc_ex.c ****       }
 2255              		.loc 1 1290 9 is_stmt 1 view .LVU807
1290:Drivers/STM32G4xx_HAL_Driver/Src/stm32g4xx_hal_rcc_ex.c ****       }
 2256              		.loc 1 1290 21 is_stmt 0 view .LVU808
 2257 06de FFF7FEFF 		bl	HAL_RCC_GetSysClockFreq
 2258              	.LVL248:
1290:Drivers/STM32G4xx_HAL_Driver/Src/stm32g4xx_hal_rcc_ex.c ****       }
 2259              		.loc 1 1290 21 view .LVU809
 2260 06e2 0AE0     		b	.L53
 2261              	.LVL249:
 2262              	.L126:
 701:Drivers/STM32G4xx_HAL_Driver/Src/stm32g4xx_hal_rcc_ex.c ****     }
 2263              		.loc 1 701 17 view .LVU810
 2264 06e4 4FF40040 		mov	r0, #32768
 2265              	.LVL250:
 701:Drivers/STM32G4xx_HAL_Driver/Src/stm32g4xx_hal_rcc_ex.c ****     }
 2266              		.loc 1 701 17 view .LVU811
 2267 06e8 07E0     		b	.L53
 2268              	.LVL251:
 2269              	.L127:
 706:Drivers/STM32G4xx_HAL_Driver/Src/stm32g4xx_hal_rcc_ex.c ****     }
 2270              		.loc 1 706 17 view .LVU812
 2271 06ea 4FF4FA40 		mov	r0, #32000
 2272              	.LVL252:
 706:Drivers/STM32G4xx_HAL_Driver/Src/stm32g4xx_hal_rcc_ex.c ****     }
 2273              		.loc 1 706 17 view .LVU813
 2274 06ee 04E0     		b	.L53
 2275              	.L128:
 711:Drivers/STM32G4xx_HAL_Driver/Src/stm32g4xx_hal_rcc_ex.c ****     }
 2276              		.loc 1 711 17 view .LVU814
 2277 06f0 2248     		ldr	r0, .L214+4
 2278 06f2 02E0     		b	.L53
 2279              	.LVL253:
 2280              	.L130:
 754:Drivers/STM32G4xx_HAL_Driver/Src/stm32g4xx_hal_rcc_ex.c ****     {
 2281              		.loc 1 754 5 view .LVU815
 2282 06f4 0020     		movs	r0, #0
 2283              	.LVL254:
 754:Drivers/STM32G4xx_HAL_Driver/Src/stm32g4xx_hal_rcc_ex.c ****     {
 2284              		.loc 1 754 5 view .LVU816
 2285 06f6 00E0     		b	.L53
 2286              	.L131:
ARM GAS  C:\Users\Nathan\AppData\Local\Temp\cc4vJDVg.s 			page 73


 2287 06f8 0020     		movs	r0, #0
 2288              	.LVL255:
 2289              	.L53:
1306:Drivers/STM32G4xx_HAL_Driver/Src/stm32g4xx_hal_rcc_ex.c **** }
 2290              		.loc 1 1306 1 view .LVU817
 2291 06fa 08BD     		pop	{r3, pc}
 2292              	.LVL256:
 2293              	.L132:
 771:Drivers/STM32G4xx_HAL_Driver/Src/stm32g4xx_hal_rcc_ex.c ****       }
 2294              		.loc 1 771 19 view .LVU818
 2295 06fc 2048     		ldr	r0, .L214+8
 2296              	.LVL257:
 771:Drivers/STM32G4xx_HAL_Driver/Src/stm32g4xx_hal_rcc_ex.c ****       }
 2297              		.loc 1 771 19 view .LVU819
 2298 06fe FCE7     		b	.L53
 2299              	.L133:
 775:Drivers/STM32G4xx_HAL_Driver/Src/stm32g4xx_hal_rcc_ex.c ****       }
 2300              		.loc 1 775 19 view .LVU820
 2301 0700 4FF40040 		mov	r0, #32768
 2302 0704 F9E7     		b	.L53
 2303              	.L134:
 798:Drivers/STM32G4xx_HAL_Driver/Src/stm32g4xx_hal_rcc_ex.c ****       }
 2304              		.loc 1 798 19 view .LVU821
 2305 0706 1E48     		ldr	r0, .L214+8
 2306 0708 F7E7     		b	.L53
 2307              	.L135:
 802:Drivers/STM32G4xx_HAL_Driver/Src/stm32g4xx_hal_rcc_ex.c ****       }
 2308              		.loc 1 802 19 view .LVU822
 2309 070a 4FF40040 		mov	r0, #32768
 2310 070e F4E7     		b	.L53
 2311              	.L136:
 826:Drivers/STM32G4xx_HAL_Driver/Src/stm32g4xx_hal_rcc_ex.c ****       }
 2312              		.loc 1 826 19 view .LVU823
 2313 0710 1B48     		ldr	r0, .L214+8
 2314 0712 F2E7     		b	.L53
 2315              	.L137:
 830:Drivers/STM32G4xx_HAL_Driver/Src/stm32g4xx_hal_rcc_ex.c ****       }
 2316              		.loc 1 830 19 view .LVU824
 2317 0714 4FF40040 		mov	r0, #32768
 2318 0718 EFE7     		b	.L53
 2319              	.L138:
 855:Drivers/STM32G4xx_HAL_Driver/Src/stm32g4xx_hal_rcc_ex.c ****       }
 2320              		.loc 1 855 19 view .LVU825
 2321 071a 1948     		ldr	r0, .L214+8
 2322 071c EDE7     		b	.L53
 2323              	.L139:
 859:Drivers/STM32G4xx_HAL_Driver/Src/stm32g4xx_hal_rcc_ex.c ****       }
 2324              		.loc 1 859 19 view .LVU826
 2325 071e 4FF40040 		mov	r0, #32768
 2326 0722 EAE7     		b	.L53
 2327              	.L140:
 884:Drivers/STM32G4xx_HAL_Driver/Src/stm32g4xx_hal_rcc_ex.c ****       }
 2328              		.loc 1 884 19 view .LVU827
 2329 0724 1648     		ldr	r0, .L214+8
 2330 0726 E8E7     		b	.L53
 2331              	.L141:
 888:Drivers/STM32G4xx_HAL_Driver/Src/stm32g4xx_hal_rcc_ex.c ****       }
ARM GAS  C:\Users\Nathan\AppData\Local\Temp\cc4vJDVg.s 			page 74


 2332              		.loc 1 888 19 view .LVU828
 2333 0728 4FF40040 		mov	r0, #32768
 2334 072c E5E7     		b	.L53
 2335              	.L142:
 912:Drivers/STM32G4xx_HAL_Driver/Src/stm32g4xx_hal_rcc_ex.c ****       }
 2336              		.loc 1 912 19 view .LVU829
 2337 072e 1448     		ldr	r0, .L214+8
 2338 0730 E3E7     		b	.L53
 2339              	.L143:
 916:Drivers/STM32G4xx_HAL_Driver/Src/stm32g4xx_hal_rcc_ex.c ****       }
 2340              		.loc 1 916 19 view .LVU830
 2341 0732 4FF40040 		mov	r0, #32768
 2342 0736 E0E7     		b	.L53
 2343              	.L144:
 939:Drivers/STM32G4xx_HAL_Driver/Src/stm32g4xx_hal_rcc_ex.c ****       }
 2344              		.loc 1 939 19 view .LVU831
 2345 0738 1148     		ldr	r0, .L214+8
 2346 073a DEE7     		b	.L53
 2347              	.L145:
 962:Drivers/STM32G4xx_HAL_Driver/Src/stm32g4xx_hal_rcc_ex.c ****       }
 2348              		.loc 1 962 19 view .LVU832
 2349 073c 1048     		ldr	r0, .L214+8
 2350 073e DCE7     		b	.L53
 2351              	.L146:
 987:Drivers/STM32G4xx_HAL_Driver/Src/stm32g4xx_hal_rcc_ex.c ****       }
 2352              		.loc 1 987 19 view .LVU833
 2353 0740 0F48     		ldr	r0, .L214+8
 2354 0742 DAE7     		b	.L53
 2355              	.L147:
1014:Drivers/STM32G4xx_HAL_Driver/Src/stm32g4xx_hal_rcc_ex.c ****       }
 2356              		.loc 1 1014 19 view .LVU834
 2357 0744 0E48     		ldr	r0, .L214+8
 2358 0746 D8E7     		b	.L53
 2359              	.LVL258:
 2360              	.L148:
1035:Drivers/STM32G4xx_HAL_Driver/Src/stm32g4xx_hal_rcc_ex.c ****       }
 2361              		.loc 1 1035 19 view .LVU835
 2362 0748 4FF4FA40 		mov	r0, #32000
 2363              	.LVL259:
1035:Drivers/STM32G4xx_HAL_Driver/Src/stm32g4xx_hal_rcc_ex.c ****       }
 2364              		.loc 1 1035 19 view .LVU836
 2365 074c D5E7     		b	.L53
 2366              	.LVL260:
 2367              	.L149:
1039:Drivers/STM32G4xx_HAL_Driver/Src/stm32g4xx_hal_rcc_ex.c ****       }
 2368              		.loc 1 1039 19 view .LVU837
 2369 074e 0C48     		ldr	r0, .L214+8
 2370              	.LVL261:
1039:Drivers/STM32G4xx_HAL_Driver/Src/stm32g4xx_hal_rcc_ex.c ****       }
 2371              		.loc 1 1039 19 view .LVU838
 2372 0750 D3E7     		b	.L53
 2373              	.L150:
1043:Drivers/STM32G4xx_HAL_Driver/Src/stm32g4xx_hal_rcc_ex.c ****       }
 2374              		.loc 1 1043 19 view .LVU839
 2375 0752 4FF40040 		mov	r0, #32768
 2376 0756 D0E7     		b	.L53
 2377              	.LVL262:
ARM GAS  C:\Users\Nathan\AppData\Local\Temp\cc4vJDVg.s 			page 75


 2378              	.L151:
1074:Drivers/STM32G4xx_HAL_Driver/Src/stm32g4xx_hal_rcc_ex.c ****       }
 2379              		.loc 1 1074 19 view .LVU840
 2380 0758 0A48     		ldr	r0, .L214+12
 2381              	.LVL263:
1074:Drivers/STM32G4xx_HAL_Driver/Src/stm32g4xx_hal_rcc_ex.c ****       }
 2382              		.loc 1 1074 19 view .LVU841
 2383 075a CEE7     		b	.L53
 2384              	.LVL264:
 2385              	.L152:
1078:Drivers/STM32G4xx_HAL_Driver/Src/stm32g4xx_hal_rcc_ex.c ****       }
 2386              		.loc 1 1078 19 view .LVU842
 2387 075c 0848     		ldr	r0, .L214+8
 2388 075e CCE7     		b	.L53
 2389              	.LVL265:
 2390              	.L153:
1110:Drivers/STM32G4xx_HAL_Driver/Src/stm32g4xx_hal_rcc_ex.c ****       }      
 2391              		.loc 1 1110 19 view .LVU843
 2392 0760 0848     		ldr	r0, .L214+12
 2393              	.LVL266:
1110:Drivers/STM32G4xx_HAL_Driver/Src/stm32g4xx_hal_rcc_ex.c ****       }      
 2394              		.loc 1 1110 19 view .LVU844
 2395 0762 CAE7     		b	.L53
 2396              	.LVL267:
 2397              	.L154:
1114:Drivers/STM32G4xx_HAL_Driver/Src/stm32g4xx_hal_rcc_ex.c ****       }
 2398              		.loc 1 1114 19 view .LVU845
 2399 0764 0648     		ldr	r0, .L214+8
 2400 0766 C8E7     		b	.L53
 2401              	.LVL268:
 2402              	.L155:
1135:Drivers/STM32G4xx_HAL_Driver/Src/stm32g4xx_hal_rcc_ex.c ****       }
 2403              		.loc 1 1135 19 view .LVU846
 2404 0768 0748     		ldr	r0, .L214+16
 2405              	.LVL269:
1135:Drivers/STM32G4xx_HAL_Driver/Src/stm32g4xx_hal_rcc_ex.c ****       }
 2406              		.loc 1 1135 19 view .LVU847
 2407 076a C6E7     		b	.L53
 2408              	.LVL270:
 2409              	.L157:
1168:Drivers/STM32G4xx_HAL_Driver/Src/stm32g4xx_hal_rcc_ex.c ****       }
 2410              		.loc 1 1168 19 view .LVU848
 2411 076c 0748     		ldr	r0, .L214+20
 2412 076e C4E7     		b	.L53
 2413              	.L158:
1190:Drivers/STM32G4xx_HAL_Driver/Src/stm32g4xx_hal_rcc_ex.c ****       }
 2414              		.loc 1 1190 19 view .LVU849
 2415 0770 0648     		ldr	r0, .L214+20
 2416 0772 C2E7     		b	.L53
 2417              	.LVL271:
 2418              	.L163:
1286:Drivers/STM32G4xx_HAL_Driver/Src/stm32g4xx_hal_rcc_ex.c ****       }      
 2419              		.loc 1 1286 19 view .LVU850
 2420 0774 0248     		ldr	r0, .L214+8
 2421              	.LVL272:
1286:Drivers/STM32G4xx_HAL_Driver/Src/stm32g4xx_hal_rcc_ex.c ****       }      
 2422              		.loc 1 1286 19 view .LVU851
ARM GAS  C:\Users\Nathan\AppData\Local\Temp\cc4vJDVg.s 			page 76


 2423 0776 C0E7     		b	.L53
 2424              	.L215:
 2425              		.align	2
 2426              	.L214:
 2427 0778 00100240 		.word	1073876992
 2428 077c B0710B00 		.word	750000
 2429 0780 0024F400 		.word	16000000
 2430 0784 0080BB00 		.word	12288000
 2431 0788 00366E01 		.word	24000000
 2432 078c 006CDC02 		.word	48000000
 2433              		.cfi_endproc
 2434              	.LFE134:
 2436              		.section	.text.HAL_RCCEx_EnableLSECSS,"ax",%progbits
 2437              		.align	1
 2438              		.global	HAL_RCCEx_EnableLSECSS
 2439              		.syntax unified
 2440              		.thumb
 2441              		.thumb_func
 2443              	HAL_RCCEx_EnableLSECSS:
 2444              	.LFB135:
1307:Drivers/STM32G4xx_HAL_Driver/Src/stm32g4xx_hal_rcc_ex.c **** 
1308:Drivers/STM32G4xx_HAL_Driver/Src/stm32g4xx_hal_rcc_ex.c **** /**
1309:Drivers/STM32G4xx_HAL_Driver/Src/stm32g4xx_hal_rcc_ex.c ****   * @}
1310:Drivers/STM32G4xx_HAL_Driver/Src/stm32g4xx_hal_rcc_ex.c ****   */
1311:Drivers/STM32G4xx_HAL_Driver/Src/stm32g4xx_hal_rcc_ex.c **** 
1312:Drivers/STM32G4xx_HAL_Driver/Src/stm32g4xx_hal_rcc_ex.c **** /** @defgroup RCCEx_Exported_Functions_Group2 Extended Clock management functions
1313:Drivers/STM32G4xx_HAL_Driver/Src/stm32g4xx_hal_rcc_ex.c ****  *  @brief  Extended Clock management functions
1314:Drivers/STM32G4xx_HAL_Driver/Src/stm32g4xx_hal_rcc_ex.c ****  *
1315:Drivers/STM32G4xx_HAL_Driver/Src/stm32g4xx_hal_rcc_ex.c **** @verbatim
1316:Drivers/STM32G4xx_HAL_Driver/Src/stm32g4xx_hal_rcc_ex.c ****  ===============================================================================
1317:Drivers/STM32G4xx_HAL_Driver/Src/stm32g4xx_hal_rcc_ex.c ****                 ##### Extended clock management functions  #####
1318:Drivers/STM32G4xx_HAL_Driver/Src/stm32g4xx_hal_rcc_ex.c ****  ===============================================================================
1319:Drivers/STM32G4xx_HAL_Driver/Src/stm32g4xx_hal_rcc_ex.c ****     [..]
1320:Drivers/STM32G4xx_HAL_Driver/Src/stm32g4xx_hal_rcc_ex.c ****     This subsection provides a set of functions allowing to control the
1321:Drivers/STM32G4xx_HAL_Driver/Src/stm32g4xx_hal_rcc_ex.c ****     activation or deactivation of LSE CSS,
1322:Drivers/STM32G4xx_HAL_Driver/Src/stm32g4xx_hal_rcc_ex.c ****     Low speed clock output and clock after wake-up from STOP mode.
1323:Drivers/STM32G4xx_HAL_Driver/Src/stm32g4xx_hal_rcc_ex.c **** @endverbatim
1324:Drivers/STM32G4xx_HAL_Driver/Src/stm32g4xx_hal_rcc_ex.c ****   * @{
1325:Drivers/STM32G4xx_HAL_Driver/Src/stm32g4xx_hal_rcc_ex.c ****   */
1326:Drivers/STM32G4xx_HAL_Driver/Src/stm32g4xx_hal_rcc_ex.c **** 
1327:Drivers/STM32G4xx_HAL_Driver/Src/stm32g4xx_hal_rcc_ex.c **** /**
1328:Drivers/STM32G4xx_HAL_Driver/Src/stm32g4xx_hal_rcc_ex.c ****   * @brief  Enable the LSE Clock Security System.
1329:Drivers/STM32G4xx_HAL_Driver/Src/stm32g4xx_hal_rcc_ex.c ****   * @note   Prior to enable the LSE Clock Security System, LSE oscillator is to be enabled
1330:Drivers/STM32G4xx_HAL_Driver/Src/stm32g4xx_hal_rcc_ex.c ****   *         with HAL_RCC_OscConfig() and the LSE oscillator clock is to be selected as RTC
1331:Drivers/STM32G4xx_HAL_Driver/Src/stm32g4xx_hal_rcc_ex.c ****   *         clock with HAL_RCCEx_PeriphCLKConfig().
1332:Drivers/STM32G4xx_HAL_Driver/Src/stm32g4xx_hal_rcc_ex.c ****   * @retval None
1333:Drivers/STM32G4xx_HAL_Driver/Src/stm32g4xx_hal_rcc_ex.c ****   */
1334:Drivers/STM32G4xx_HAL_Driver/Src/stm32g4xx_hal_rcc_ex.c **** void HAL_RCCEx_EnableLSECSS(void)
1335:Drivers/STM32G4xx_HAL_Driver/Src/stm32g4xx_hal_rcc_ex.c **** {
 2445              		.loc 1 1335 1 is_stmt 1 view -0
 2446              		.cfi_startproc
 2447              		@ args = 0, pretend = 0, frame = 0
 2448              		@ frame_needed = 0, uses_anonymous_args = 0
 2449              		@ link register save eliminated.
1336:Drivers/STM32G4xx_HAL_Driver/Src/stm32g4xx_hal_rcc_ex.c ****   SET_BIT(RCC->BDCR, RCC_BDCR_LSECSSON) ;
 2450              		.loc 1 1336 3 view .LVU853
 2451 0000 034A     		ldr	r2, .L217
ARM GAS  C:\Users\Nathan\AppData\Local\Temp\cc4vJDVg.s 			page 77


 2452 0002 D2F89030 		ldr	r3, [r2, #144]
 2453 0006 43F02003 		orr	r3, r3, #32
 2454 000a C2F89030 		str	r3, [r2, #144]
1337:Drivers/STM32G4xx_HAL_Driver/Src/stm32g4xx_hal_rcc_ex.c **** }
 2455              		.loc 1 1337 1 is_stmt 0 view .LVU854
 2456 000e 7047     		bx	lr
 2457              	.L218:
 2458              		.align	2
 2459              	.L217:
 2460 0010 00100240 		.word	1073876992
 2461              		.cfi_endproc
 2462              	.LFE135:
 2464              		.section	.text.HAL_RCCEx_DisableLSECSS,"ax",%progbits
 2465              		.align	1
 2466              		.global	HAL_RCCEx_DisableLSECSS
 2467              		.syntax unified
 2468              		.thumb
 2469              		.thumb_func
 2471              	HAL_RCCEx_DisableLSECSS:
 2472              	.LFB136:
1338:Drivers/STM32G4xx_HAL_Driver/Src/stm32g4xx_hal_rcc_ex.c **** 
1339:Drivers/STM32G4xx_HAL_Driver/Src/stm32g4xx_hal_rcc_ex.c **** /**
1340:Drivers/STM32G4xx_HAL_Driver/Src/stm32g4xx_hal_rcc_ex.c ****   * @brief  Disable the LSE Clock Security System.
1341:Drivers/STM32G4xx_HAL_Driver/Src/stm32g4xx_hal_rcc_ex.c ****   * @note   LSE Clock Security System can only be disabled after a LSE failure detection.
1342:Drivers/STM32G4xx_HAL_Driver/Src/stm32g4xx_hal_rcc_ex.c ****   * @retval None
1343:Drivers/STM32G4xx_HAL_Driver/Src/stm32g4xx_hal_rcc_ex.c ****   */
1344:Drivers/STM32G4xx_HAL_Driver/Src/stm32g4xx_hal_rcc_ex.c **** void HAL_RCCEx_DisableLSECSS(void)
1345:Drivers/STM32G4xx_HAL_Driver/Src/stm32g4xx_hal_rcc_ex.c **** {
 2473              		.loc 1 1345 1 is_stmt 1 view -0
 2474              		.cfi_startproc
 2475              		@ args = 0, pretend = 0, frame = 0
 2476              		@ frame_needed = 0, uses_anonymous_args = 0
 2477              		@ link register save eliminated.
1346:Drivers/STM32G4xx_HAL_Driver/Src/stm32g4xx_hal_rcc_ex.c ****   CLEAR_BIT(RCC->BDCR, RCC_BDCR_LSECSSON) ;
 2478              		.loc 1 1346 3 view .LVU856
 2479 0000 054B     		ldr	r3, .L220
 2480 0002 D3F89020 		ldr	r2, [r3, #144]
 2481 0006 22F02002 		bic	r2, r2, #32
 2482 000a C3F89020 		str	r2, [r3, #144]
1347:Drivers/STM32G4xx_HAL_Driver/Src/stm32g4xx_hal_rcc_ex.c **** 
1348:Drivers/STM32G4xx_HAL_Driver/Src/stm32g4xx_hal_rcc_ex.c ****   /* Disable LSE CSS IT if any */
1349:Drivers/STM32G4xx_HAL_Driver/Src/stm32g4xx_hal_rcc_ex.c ****   __HAL_RCC_DISABLE_IT(RCC_IT_LSECSS);
 2483              		.loc 1 1349 3 view .LVU857
 2484 000e 9A69     		ldr	r2, [r3, #24]
 2485 0010 22F40072 		bic	r2, r2, #512
 2486 0014 9A61     		str	r2, [r3, #24]
1350:Drivers/STM32G4xx_HAL_Driver/Src/stm32g4xx_hal_rcc_ex.c **** }
 2487              		.loc 1 1350 1 is_stmt 0 view .LVU858
 2488 0016 7047     		bx	lr
 2489              	.L221:
 2490              		.align	2
 2491              	.L220:
 2492 0018 00100240 		.word	1073876992
 2493              		.cfi_endproc
 2494              	.LFE136:
 2496              		.section	.text.HAL_RCCEx_EnableLSECSS_IT,"ax",%progbits
 2497              		.align	1
ARM GAS  C:\Users\Nathan\AppData\Local\Temp\cc4vJDVg.s 			page 78


 2498              		.global	HAL_RCCEx_EnableLSECSS_IT
 2499              		.syntax unified
 2500              		.thumb
 2501              		.thumb_func
 2503              	HAL_RCCEx_EnableLSECSS_IT:
 2504              	.LFB137:
1351:Drivers/STM32G4xx_HAL_Driver/Src/stm32g4xx_hal_rcc_ex.c **** 
1352:Drivers/STM32G4xx_HAL_Driver/Src/stm32g4xx_hal_rcc_ex.c **** /**
1353:Drivers/STM32G4xx_HAL_Driver/Src/stm32g4xx_hal_rcc_ex.c ****   * @brief  Enable the LSE Clock Security System Interrupt & corresponding EXTI line.
1354:Drivers/STM32G4xx_HAL_Driver/Src/stm32g4xx_hal_rcc_ex.c ****   * @note   LSE Clock Security System Interrupt is mapped on RTC EXTI line 19
1355:Drivers/STM32G4xx_HAL_Driver/Src/stm32g4xx_hal_rcc_ex.c ****   * @retval None
1356:Drivers/STM32G4xx_HAL_Driver/Src/stm32g4xx_hal_rcc_ex.c ****   */
1357:Drivers/STM32G4xx_HAL_Driver/Src/stm32g4xx_hal_rcc_ex.c **** void HAL_RCCEx_EnableLSECSS_IT(void)
1358:Drivers/STM32G4xx_HAL_Driver/Src/stm32g4xx_hal_rcc_ex.c **** {
 2505              		.loc 1 1358 1 is_stmt 1 view -0
 2506              		.cfi_startproc
 2507              		@ args = 0, pretend = 0, frame = 0
 2508              		@ frame_needed = 0, uses_anonymous_args = 0
 2509              		@ link register save eliminated.
1359:Drivers/STM32G4xx_HAL_Driver/Src/stm32g4xx_hal_rcc_ex.c ****   /* Enable LSE CSS */
1360:Drivers/STM32G4xx_HAL_Driver/Src/stm32g4xx_hal_rcc_ex.c ****   SET_BIT(RCC->BDCR, RCC_BDCR_LSECSSON) ;
 2510              		.loc 1 1360 3 view .LVU860
 2511 0000 0A4B     		ldr	r3, .L223
 2512 0002 D3F89020 		ldr	r2, [r3, #144]
 2513 0006 42F02002 		orr	r2, r2, #32
 2514 000a C3F89020 		str	r2, [r3, #144]
1361:Drivers/STM32G4xx_HAL_Driver/Src/stm32g4xx_hal_rcc_ex.c **** 
1362:Drivers/STM32G4xx_HAL_Driver/Src/stm32g4xx_hal_rcc_ex.c ****   /* Enable LSE CSS IT */
1363:Drivers/STM32G4xx_HAL_Driver/Src/stm32g4xx_hal_rcc_ex.c ****   __HAL_RCC_ENABLE_IT(RCC_IT_LSECSS);
 2515              		.loc 1 1363 3 view .LVU861
 2516 000e 9A69     		ldr	r2, [r3, #24]
 2517 0010 42F40072 		orr	r2, r2, #512
 2518 0014 9A61     		str	r2, [r3, #24]
1364:Drivers/STM32G4xx_HAL_Driver/Src/stm32g4xx_hal_rcc_ex.c **** 
1365:Drivers/STM32G4xx_HAL_Driver/Src/stm32g4xx_hal_rcc_ex.c ****   /* Enable IT on EXTI Line 19 */
1366:Drivers/STM32G4xx_HAL_Driver/Src/stm32g4xx_hal_rcc_ex.c ****   __HAL_RCC_LSECSS_EXTI_ENABLE_IT();
 2519              		.loc 1 1366 3 view .LVU862
 2520 0016 A3F58633 		sub	r3, r3, #68608
 2521 001a 1A68     		ldr	r2, [r3]
 2522 001c 42F40022 		orr	r2, r2, #524288
 2523 0020 1A60     		str	r2, [r3]
1367:Drivers/STM32G4xx_HAL_Driver/Src/stm32g4xx_hal_rcc_ex.c ****   __HAL_RCC_LSECSS_EXTI_ENABLE_RISING_EDGE();
 2524              		.loc 1 1367 3 view .LVU863
 2525 0022 9A68     		ldr	r2, [r3, #8]
 2526 0024 42F40022 		orr	r2, r2, #524288
 2527 0028 9A60     		str	r2, [r3, #8]
1368:Drivers/STM32G4xx_HAL_Driver/Src/stm32g4xx_hal_rcc_ex.c **** }
 2528              		.loc 1 1368 1 is_stmt 0 view .LVU864
 2529 002a 7047     		bx	lr
 2530              	.L224:
 2531              		.align	2
 2532              	.L223:
 2533 002c 00100240 		.word	1073876992
 2534              		.cfi_endproc
 2535              	.LFE137:
 2537              		.section	.text.HAL_RCCEx_LSECSS_Callback,"ax",%progbits
 2538              		.align	1
ARM GAS  C:\Users\Nathan\AppData\Local\Temp\cc4vJDVg.s 			page 79


 2539              		.weak	HAL_RCCEx_LSECSS_Callback
 2540              		.syntax unified
 2541              		.thumb
 2542              		.thumb_func
 2544              	HAL_RCCEx_LSECSS_Callback:
 2545              	.LFB139:
1369:Drivers/STM32G4xx_HAL_Driver/Src/stm32g4xx_hal_rcc_ex.c **** 
1370:Drivers/STM32G4xx_HAL_Driver/Src/stm32g4xx_hal_rcc_ex.c **** /**
1371:Drivers/STM32G4xx_HAL_Driver/Src/stm32g4xx_hal_rcc_ex.c ****   * @brief Handle the RCC LSE Clock Security System interrupt request.
1372:Drivers/STM32G4xx_HAL_Driver/Src/stm32g4xx_hal_rcc_ex.c ****   * @retval None
1373:Drivers/STM32G4xx_HAL_Driver/Src/stm32g4xx_hal_rcc_ex.c ****   */
1374:Drivers/STM32G4xx_HAL_Driver/Src/stm32g4xx_hal_rcc_ex.c **** void HAL_RCCEx_LSECSS_IRQHandler(void)
1375:Drivers/STM32G4xx_HAL_Driver/Src/stm32g4xx_hal_rcc_ex.c **** {
1376:Drivers/STM32G4xx_HAL_Driver/Src/stm32g4xx_hal_rcc_ex.c ****   /* Check RCC LSE CSSF flag  */
1377:Drivers/STM32G4xx_HAL_Driver/Src/stm32g4xx_hal_rcc_ex.c ****   if(__HAL_RCC_GET_IT(RCC_IT_LSECSS))
1378:Drivers/STM32G4xx_HAL_Driver/Src/stm32g4xx_hal_rcc_ex.c ****   {
1379:Drivers/STM32G4xx_HAL_Driver/Src/stm32g4xx_hal_rcc_ex.c ****     /* RCC LSE Clock Security System interrupt user callback */
1380:Drivers/STM32G4xx_HAL_Driver/Src/stm32g4xx_hal_rcc_ex.c ****     HAL_RCCEx_LSECSS_Callback();
1381:Drivers/STM32G4xx_HAL_Driver/Src/stm32g4xx_hal_rcc_ex.c **** 
1382:Drivers/STM32G4xx_HAL_Driver/Src/stm32g4xx_hal_rcc_ex.c ****     /* Clear RCC LSE CSS pending bit */
1383:Drivers/STM32G4xx_HAL_Driver/Src/stm32g4xx_hal_rcc_ex.c ****     __HAL_RCC_CLEAR_IT(RCC_IT_LSECSS);
1384:Drivers/STM32G4xx_HAL_Driver/Src/stm32g4xx_hal_rcc_ex.c ****   }
1385:Drivers/STM32G4xx_HAL_Driver/Src/stm32g4xx_hal_rcc_ex.c **** }
1386:Drivers/STM32G4xx_HAL_Driver/Src/stm32g4xx_hal_rcc_ex.c **** 
1387:Drivers/STM32G4xx_HAL_Driver/Src/stm32g4xx_hal_rcc_ex.c **** /**
1388:Drivers/STM32G4xx_HAL_Driver/Src/stm32g4xx_hal_rcc_ex.c ****   * @brief  RCCEx LSE Clock Security System interrupt callback.
1389:Drivers/STM32G4xx_HAL_Driver/Src/stm32g4xx_hal_rcc_ex.c ****   * @retval none
1390:Drivers/STM32G4xx_HAL_Driver/Src/stm32g4xx_hal_rcc_ex.c ****   */
1391:Drivers/STM32G4xx_HAL_Driver/Src/stm32g4xx_hal_rcc_ex.c **** __weak void HAL_RCCEx_LSECSS_Callback(void)
1392:Drivers/STM32G4xx_HAL_Driver/Src/stm32g4xx_hal_rcc_ex.c **** {
 2546              		.loc 1 1392 1 is_stmt 1 view -0
 2547              		.cfi_startproc
 2548              		@ args = 0, pretend = 0, frame = 0
 2549              		@ frame_needed = 0, uses_anonymous_args = 0
 2550              		@ link register save eliminated.
1393:Drivers/STM32G4xx_HAL_Driver/Src/stm32g4xx_hal_rcc_ex.c ****   /* NOTE : This function should not be modified, when the callback is needed,
1394:Drivers/STM32G4xx_HAL_Driver/Src/stm32g4xx_hal_rcc_ex.c ****             the @ref HAL_RCCEx_LSECSS_Callback should be implemented in the user file
1395:Drivers/STM32G4xx_HAL_Driver/Src/stm32g4xx_hal_rcc_ex.c ****    */
1396:Drivers/STM32G4xx_HAL_Driver/Src/stm32g4xx_hal_rcc_ex.c **** }
 2551              		.loc 1 1396 1 view .LVU866
 2552 0000 7047     		bx	lr
 2553              		.cfi_endproc
 2554              	.LFE139:
 2556              		.section	.text.HAL_RCCEx_LSECSS_IRQHandler,"ax",%progbits
 2557              		.align	1
 2558              		.global	HAL_RCCEx_LSECSS_IRQHandler
 2559              		.syntax unified
 2560              		.thumb
 2561              		.thumb_func
 2563              	HAL_RCCEx_LSECSS_IRQHandler:
 2564              	.LFB138:
1375:Drivers/STM32G4xx_HAL_Driver/Src/stm32g4xx_hal_rcc_ex.c ****   /* Check RCC LSE CSSF flag  */
 2565              		.loc 1 1375 1 view -0
 2566              		.cfi_startproc
 2567              		@ args = 0, pretend = 0, frame = 0
 2568              		@ frame_needed = 0, uses_anonymous_args = 0
 2569 0000 08B5     		push	{r3, lr}
ARM GAS  C:\Users\Nathan\AppData\Local\Temp\cc4vJDVg.s 			page 80


 2570              		.cfi_def_cfa_offset 8
 2571              		.cfi_offset 3, -8
 2572              		.cfi_offset 14, -4
1377:Drivers/STM32G4xx_HAL_Driver/Src/stm32g4xx_hal_rcc_ex.c ****   {
 2573              		.loc 1 1377 3 view .LVU868
1377:Drivers/STM32G4xx_HAL_Driver/Src/stm32g4xx_hal_rcc_ex.c ****   {
 2574              		.loc 1 1377 6 is_stmt 0 view .LVU869
 2575 0002 064B     		ldr	r3, .L230
 2576 0004 DB69     		ldr	r3, [r3, #28]
1377:Drivers/STM32G4xx_HAL_Driver/Src/stm32g4xx_hal_rcc_ex.c ****   {
 2577              		.loc 1 1377 5 view .LVU870
 2578 0006 13F4007F 		tst	r3, #512
 2579 000a 00D1     		bne	.L229
 2580              	.L226:
1385:Drivers/STM32G4xx_HAL_Driver/Src/stm32g4xx_hal_rcc_ex.c **** 
 2581              		.loc 1 1385 1 view .LVU871
 2582 000c 08BD     		pop	{r3, pc}
 2583              	.L229:
1380:Drivers/STM32G4xx_HAL_Driver/Src/stm32g4xx_hal_rcc_ex.c **** 
 2584              		.loc 1 1380 5 is_stmt 1 view .LVU872
 2585 000e FFF7FEFF 		bl	HAL_RCCEx_LSECSS_Callback
 2586              	.LVL273:
1383:Drivers/STM32G4xx_HAL_Driver/Src/stm32g4xx_hal_rcc_ex.c ****   }
 2587              		.loc 1 1383 5 view .LVU873
 2588 0012 024B     		ldr	r3, .L230
 2589 0014 4FF40072 		mov	r2, #512
 2590 0018 1A62     		str	r2, [r3, #32]
1385:Drivers/STM32G4xx_HAL_Driver/Src/stm32g4xx_hal_rcc_ex.c **** 
 2591              		.loc 1 1385 1 is_stmt 0 view .LVU874
 2592 001a F7E7     		b	.L226
 2593              	.L231:
 2594              		.align	2
 2595              	.L230:
 2596 001c 00100240 		.word	1073876992
 2597              		.cfi_endproc
 2598              	.LFE138:
 2600              		.section	.text.HAL_RCCEx_EnableLSCO,"ax",%progbits
 2601              		.align	1
 2602              		.global	HAL_RCCEx_EnableLSCO
 2603              		.syntax unified
 2604              		.thumb
 2605              		.thumb_func
 2607              	HAL_RCCEx_EnableLSCO:
 2608              	.LVL274:
 2609              	.LFB140:
1397:Drivers/STM32G4xx_HAL_Driver/Src/stm32g4xx_hal_rcc_ex.c **** 
1398:Drivers/STM32G4xx_HAL_Driver/Src/stm32g4xx_hal_rcc_ex.c **** /**
1399:Drivers/STM32G4xx_HAL_Driver/Src/stm32g4xx_hal_rcc_ex.c ****   * @brief  Select the Low Speed clock source to output on LSCO pin (PA2).
1400:Drivers/STM32G4xx_HAL_Driver/Src/stm32g4xx_hal_rcc_ex.c ****   * @param  LSCOSource  specifies the Low Speed clock source to output.
1401:Drivers/STM32G4xx_HAL_Driver/Src/stm32g4xx_hal_rcc_ex.c ****   *          This parameter can be one of the following values:
1402:Drivers/STM32G4xx_HAL_Driver/Src/stm32g4xx_hal_rcc_ex.c ****   *            @arg @ref RCC_LSCOSOURCE_LSI  LSI clock selected as LSCO source
1403:Drivers/STM32G4xx_HAL_Driver/Src/stm32g4xx_hal_rcc_ex.c ****   *            @arg @ref RCC_LSCOSOURCE_LSE  LSE clock selected as LSCO source
1404:Drivers/STM32G4xx_HAL_Driver/Src/stm32g4xx_hal_rcc_ex.c ****   * @retval None
1405:Drivers/STM32G4xx_HAL_Driver/Src/stm32g4xx_hal_rcc_ex.c ****   */
1406:Drivers/STM32G4xx_HAL_Driver/Src/stm32g4xx_hal_rcc_ex.c **** void HAL_RCCEx_EnableLSCO(uint32_t LSCOSource)
1407:Drivers/STM32G4xx_HAL_Driver/Src/stm32g4xx_hal_rcc_ex.c **** {
 2610              		.loc 1 1407 1 is_stmt 1 view -0
ARM GAS  C:\Users\Nathan\AppData\Local\Temp\cc4vJDVg.s 			page 81


 2611              		.cfi_startproc
 2612              		@ args = 0, pretend = 0, frame = 32
 2613              		@ frame_needed = 0, uses_anonymous_args = 0
 2614              		.loc 1 1407 1 is_stmt 0 view .LVU876
 2615 0000 30B5     		push	{r4, r5, lr}
 2616              		.cfi_def_cfa_offset 12
 2617              		.cfi_offset 4, -12
 2618              		.cfi_offset 5, -8
 2619              		.cfi_offset 14, -4
 2620 0002 89B0     		sub	sp, sp, #36
 2621              		.cfi_def_cfa_offset 48
 2622 0004 0546     		mov	r5, r0
1408:Drivers/STM32G4xx_HAL_Driver/Src/stm32g4xx_hal_rcc_ex.c ****   GPIO_InitTypeDef GPIO_InitStruct;
 2623              		.loc 1 1408 3 is_stmt 1 view .LVU877
1409:Drivers/STM32G4xx_HAL_Driver/Src/stm32g4xx_hal_rcc_ex.c ****   FlagStatus       pwrclkchanged = RESET;
 2624              		.loc 1 1409 3 view .LVU878
 2625              	.LVL275:
1410:Drivers/STM32G4xx_HAL_Driver/Src/stm32g4xx_hal_rcc_ex.c ****   FlagStatus       backupchanged = RESET;
 2626              		.loc 1 1410 3 view .LVU879
1411:Drivers/STM32G4xx_HAL_Driver/Src/stm32g4xx_hal_rcc_ex.c **** 
1412:Drivers/STM32G4xx_HAL_Driver/Src/stm32g4xx_hal_rcc_ex.c ****   /* Check the parameters */
1413:Drivers/STM32G4xx_HAL_Driver/Src/stm32g4xx_hal_rcc_ex.c ****   assert_param(IS_RCC_LSCOSOURCE(LSCOSource));
 2627              		.loc 1 1413 3 view .LVU880
1414:Drivers/STM32G4xx_HAL_Driver/Src/stm32g4xx_hal_rcc_ex.c **** 
1415:Drivers/STM32G4xx_HAL_Driver/Src/stm32g4xx_hal_rcc_ex.c ****   /* LSCO Pin Clock Enable */
1416:Drivers/STM32G4xx_HAL_Driver/Src/stm32g4xx_hal_rcc_ex.c ****   __LSCO_CLK_ENABLE();
 2628              		.loc 1 1416 3 view .LVU881
 2629              	.LBB5:
 2630              		.loc 1 1416 3 view .LVU882
 2631              		.loc 1 1416 3 view .LVU883
 2632 0006 244C     		ldr	r4, .L243
 2633 0008 E36C     		ldr	r3, [r4, #76]
 2634 000a 43F00103 		orr	r3, r3, #1
 2635 000e E364     		str	r3, [r4, #76]
 2636              		.loc 1 1416 3 view .LVU884
 2637 0010 E36C     		ldr	r3, [r4, #76]
 2638 0012 03F00103 		and	r3, r3, #1
 2639 0016 0193     		str	r3, [sp, #4]
 2640              		.loc 1 1416 3 view .LVU885
 2641 0018 019B     		ldr	r3, [sp, #4]
 2642              	.LBE5:
 2643              		.loc 1 1416 3 view .LVU886
1417:Drivers/STM32G4xx_HAL_Driver/Src/stm32g4xx_hal_rcc_ex.c **** 
1418:Drivers/STM32G4xx_HAL_Driver/Src/stm32g4xx_hal_rcc_ex.c ****   /* Configure the LSCO pin in analog mode */
1419:Drivers/STM32G4xx_HAL_Driver/Src/stm32g4xx_hal_rcc_ex.c ****   GPIO_InitStruct.Pin = LSCO_PIN;
 2644              		.loc 1 1419 3 view .LVU887
 2645              		.loc 1 1419 23 is_stmt 0 view .LVU888
 2646 001a 0423     		movs	r3, #4
 2647 001c 0393     		str	r3, [sp, #12]
1420:Drivers/STM32G4xx_HAL_Driver/Src/stm32g4xx_hal_rcc_ex.c ****   GPIO_InitStruct.Mode = GPIO_MODE_ANALOG;
 2648              		.loc 1 1420 3 is_stmt 1 view .LVU889
 2649              		.loc 1 1420 24 is_stmt 0 view .LVU890
 2650 001e 0323     		movs	r3, #3
 2651 0020 0493     		str	r3, [sp, #16]
1421:Drivers/STM32G4xx_HAL_Driver/Src/stm32g4xx_hal_rcc_ex.c ****   GPIO_InitStruct.Speed = GPIO_SPEED_FREQ_HIGH;
 2652              		.loc 1 1421 3 is_stmt 1 view .LVU891
 2653              		.loc 1 1421 25 is_stmt 0 view .LVU892
ARM GAS  C:\Users\Nathan\AppData\Local\Temp\cc4vJDVg.s 			page 82


 2654 0022 0223     		movs	r3, #2
 2655 0024 0693     		str	r3, [sp, #24]
1422:Drivers/STM32G4xx_HAL_Driver/Src/stm32g4xx_hal_rcc_ex.c ****   GPIO_InitStruct.Pull = GPIO_NOPULL;
 2656              		.loc 1 1422 3 is_stmt 1 view .LVU893
 2657              		.loc 1 1422 24 is_stmt 0 view .LVU894
 2658 0026 0023     		movs	r3, #0
 2659 0028 0593     		str	r3, [sp, #20]
1423:Drivers/STM32G4xx_HAL_Driver/Src/stm32g4xx_hal_rcc_ex.c ****   HAL_GPIO_Init(LSCO_GPIO_PORT, &GPIO_InitStruct);
 2660              		.loc 1 1423 3 is_stmt 1 view .LVU895
 2661 002a 03A9     		add	r1, sp, #12
 2662 002c 4FF09040 		mov	r0, #1207959552
 2663              	.LVL276:
 2664              		.loc 1 1423 3 is_stmt 0 view .LVU896
 2665 0030 FFF7FEFF 		bl	HAL_GPIO_Init
 2666              	.LVL277:
1424:Drivers/STM32G4xx_HAL_Driver/Src/stm32g4xx_hal_rcc_ex.c **** 
1425:Drivers/STM32G4xx_HAL_Driver/Src/stm32g4xx_hal_rcc_ex.c ****   /* Update LSCOSEL clock source in Backup Domain control register */
1426:Drivers/STM32G4xx_HAL_Driver/Src/stm32g4xx_hal_rcc_ex.c ****   if(__HAL_RCC_PWR_IS_CLK_DISABLED())
 2667              		.loc 1 1426 3 is_stmt 1 view .LVU897
 2668              		.loc 1 1426 6 is_stmt 0 view .LVU898
 2669 0034 A36D     		ldr	r3, [r4, #88]
 2670              		.loc 1 1426 5 view .LVU899
 2671 0036 13F0805F 		tst	r3, #268435456
 2672 003a 1DD1     		bne	.L237
1427:Drivers/STM32G4xx_HAL_Driver/Src/stm32g4xx_hal_rcc_ex.c ****   {
1428:Drivers/STM32G4xx_HAL_Driver/Src/stm32g4xx_hal_rcc_ex.c ****     __HAL_RCC_PWR_CLK_ENABLE();
 2673              		.loc 1 1428 5 is_stmt 1 view .LVU900
 2674              	.LBB6:
 2675              		.loc 1 1428 5 view .LVU901
 2676              		.loc 1 1428 5 view .LVU902
 2677 003c A26D     		ldr	r2, [r4, #88]
 2678 003e 42F08052 		orr	r2, r2, #268435456
 2679 0042 A265     		str	r2, [r4, #88]
 2680              		.loc 1 1428 5 view .LVU903
 2681 0044 A36D     		ldr	r3, [r4, #88]
 2682 0046 03F08053 		and	r3, r3, #268435456
 2683 004a 0293     		str	r3, [sp, #8]
 2684              		.loc 1 1428 5 view .LVU904
 2685 004c 029B     		ldr	r3, [sp, #8]
 2686              	.LBE6:
 2687              		.loc 1 1428 5 view .LVU905
1429:Drivers/STM32G4xx_HAL_Driver/Src/stm32g4xx_hal_rcc_ex.c ****     pwrclkchanged = SET;
 2688              		.loc 1 1429 5 view .LVU906
 2689              	.LVL278:
 2690              		.loc 1 1429 19 is_stmt 0 view .LVU907
 2691 004e 0124     		movs	r4, #1
 2692              	.LVL279:
 2693              	.L233:
1430:Drivers/STM32G4xx_HAL_Driver/Src/stm32g4xx_hal_rcc_ex.c ****   }
1431:Drivers/STM32G4xx_HAL_Driver/Src/stm32g4xx_hal_rcc_ex.c ****   if(HAL_IS_BIT_CLR(PWR->CR1, PWR_CR1_DBP))
 2694              		.loc 1 1431 3 is_stmt 1 view .LVU908
 2695              		.loc 1 1431 6 is_stmt 0 view .LVU909
 2696 0050 124B     		ldr	r3, .L243+4
 2697 0052 1B68     		ldr	r3, [r3]
 2698              		.loc 1 1431 5 view .LVU910
 2699 0054 13F4807F 		tst	r3, #256
 2700 0058 10D0     		beq	.L240
ARM GAS  C:\Users\Nathan\AppData\Local\Temp\cc4vJDVg.s 			page 83


1410:Drivers/STM32G4xx_HAL_Driver/Src/stm32g4xx_hal_rcc_ex.c **** 
 2701              		.loc 1 1410 20 view .LVU911
 2702 005a 0022     		movs	r2, #0
 2703              	.LVL280:
 2704              	.L234:
1432:Drivers/STM32G4xx_HAL_Driver/Src/stm32g4xx_hal_rcc_ex.c ****   {
1433:Drivers/STM32G4xx_HAL_Driver/Src/stm32g4xx_hal_rcc_ex.c ****     HAL_PWR_EnableBkUpAccess();
1434:Drivers/STM32G4xx_HAL_Driver/Src/stm32g4xx_hal_rcc_ex.c ****     backupchanged = SET;
1435:Drivers/STM32G4xx_HAL_Driver/Src/stm32g4xx_hal_rcc_ex.c ****   }
1436:Drivers/STM32G4xx_HAL_Driver/Src/stm32g4xx_hal_rcc_ex.c **** 
1437:Drivers/STM32G4xx_HAL_Driver/Src/stm32g4xx_hal_rcc_ex.c ****   MODIFY_REG(RCC->BDCR, RCC_BDCR_LSCOSEL | RCC_BDCR_LSCOEN, LSCOSource | RCC_BDCR_LSCOEN);
 2705              		.loc 1 1437 3 is_stmt 1 view .LVU912
 2706 005c 0E4B     		ldr	r3, .L243
 2707 005e D3F89000 		ldr	r0, [r3, #144]
 2708 0062 20F04070 		bic	r0, r0, #50331648
 2709 0066 2843     		orrs	r0, r0, r5
 2710 0068 40F08070 		orr	r0, r0, #16777216
 2711 006c C3F89000 		str	r0, [r3, #144]
1438:Drivers/STM32G4xx_HAL_Driver/Src/stm32g4xx_hal_rcc_ex.c **** 
1439:Drivers/STM32G4xx_HAL_Driver/Src/stm32g4xx_hal_rcc_ex.c ****   if(backupchanged == SET)
 2712              		.loc 1 1439 3 view .LVU913
 2713              		.loc 1 1439 5 is_stmt 0 view .LVU914
 2714 0070 42B9     		cbnz	r2, .L241
 2715              	.LVL281:
 2716              	.L235:
1440:Drivers/STM32G4xx_HAL_Driver/Src/stm32g4xx_hal_rcc_ex.c ****   {
1441:Drivers/STM32G4xx_HAL_Driver/Src/stm32g4xx_hal_rcc_ex.c ****     HAL_PWR_DisableBkUpAccess();
1442:Drivers/STM32G4xx_HAL_Driver/Src/stm32g4xx_hal_rcc_ex.c ****   }
1443:Drivers/STM32G4xx_HAL_Driver/Src/stm32g4xx_hal_rcc_ex.c ****   if(pwrclkchanged == SET)
 2717              		.loc 1 1443 3 is_stmt 1 view .LVU915
 2718              		.loc 1 1443 5 is_stmt 0 view .LVU916
 2719 0072 54B9     		cbnz	r4, .L242
 2720              	.L232:
1444:Drivers/STM32G4xx_HAL_Driver/Src/stm32g4xx_hal_rcc_ex.c ****   {
1445:Drivers/STM32G4xx_HAL_Driver/Src/stm32g4xx_hal_rcc_ex.c ****     __HAL_RCC_PWR_CLK_DISABLE();
1446:Drivers/STM32G4xx_HAL_Driver/Src/stm32g4xx_hal_rcc_ex.c ****   }
1447:Drivers/STM32G4xx_HAL_Driver/Src/stm32g4xx_hal_rcc_ex.c **** }
 2721              		.loc 1 1447 1 view .LVU917
 2722 0074 09B0     		add	sp, sp, #36
 2723              		.cfi_remember_state
 2724              		.cfi_def_cfa_offset 12
 2725              		@ sp needed
 2726 0076 30BD     		pop	{r4, r5, pc}
 2727              	.LVL282:
 2728              	.L237:
 2729              		.cfi_restore_state
1409:Drivers/STM32G4xx_HAL_Driver/Src/stm32g4xx_hal_rcc_ex.c ****   FlagStatus       backupchanged = RESET;
 2730              		.loc 1 1409 20 view .LVU918
 2731 0078 0024     		movs	r4, #0
 2732 007a E9E7     		b	.L233
 2733              	.LVL283:
 2734              	.L240:
1433:Drivers/STM32G4xx_HAL_Driver/Src/stm32g4xx_hal_rcc_ex.c ****     backupchanged = SET;
 2735              		.loc 1 1433 5 is_stmt 1 view .LVU919
 2736 007c FFF7FEFF 		bl	HAL_PWR_EnableBkUpAccess
 2737              	.LVL284:
1434:Drivers/STM32G4xx_HAL_Driver/Src/stm32g4xx_hal_rcc_ex.c ****   }
ARM GAS  C:\Users\Nathan\AppData\Local\Temp\cc4vJDVg.s 			page 84


 2738              		.loc 1 1434 5 view .LVU920
1434:Drivers/STM32G4xx_HAL_Driver/Src/stm32g4xx_hal_rcc_ex.c ****   }
 2739              		.loc 1 1434 19 is_stmt 0 view .LVU921
 2740 0080 0122     		movs	r2, #1
 2741 0082 EBE7     		b	.L234
 2742              	.LVL285:
 2743              	.L241:
1441:Drivers/STM32G4xx_HAL_Driver/Src/stm32g4xx_hal_rcc_ex.c ****   }
 2744              		.loc 1 1441 5 is_stmt 1 view .LVU922
 2745 0084 FFF7FEFF 		bl	HAL_PWR_DisableBkUpAccess
 2746              	.LVL286:
1441:Drivers/STM32G4xx_HAL_Driver/Src/stm32g4xx_hal_rcc_ex.c ****   }
 2747              		.loc 1 1441 5 is_stmt 0 view .LVU923
 2748 0088 F3E7     		b	.L235
 2749              	.L242:
1445:Drivers/STM32G4xx_HAL_Driver/Src/stm32g4xx_hal_rcc_ex.c ****   }
 2750              		.loc 1 1445 5 is_stmt 1 view .LVU924
 2751 008a 034A     		ldr	r2, .L243
 2752 008c 936D     		ldr	r3, [r2, #88]
 2753 008e 23F08053 		bic	r3, r3, #268435456
 2754 0092 9365     		str	r3, [r2, #88]
 2755              		.loc 1 1447 1 is_stmt 0 view .LVU925
 2756 0094 EEE7     		b	.L232
 2757              	.L244:
 2758 0096 00BF     		.align	2
 2759              	.L243:
 2760 0098 00100240 		.word	1073876992
 2761 009c 00700040 		.word	1073770496
 2762              		.cfi_endproc
 2763              	.LFE140:
 2765              		.section	.text.HAL_RCCEx_DisableLSCO,"ax",%progbits
 2766              		.align	1
 2767              		.global	HAL_RCCEx_DisableLSCO
 2768              		.syntax unified
 2769              		.thumb
 2770              		.thumb_func
 2772              	HAL_RCCEx_DisableLSCO:
 2773              	.LFB141:
1448:Drivers/STM32G4xx_HAL_Driver/Src/stm32g4xx_hal_rcc_ex.c **** 
1449:Drivers/STM32G4xx_HAL_Driver/Src/stm32g4xx_hal_rcc_ex.c **** /**
1450:Drivers/STM32G4xx_HAL_Driver/Src/stm32g4xx_hal_rcc_ex.c ****   * @brief  Disable the Low Speed clock output.
1451:Drivers/STM32G4xx_HAL_Driver/Src/stm32g4xx_hal_rcc_ex.c ****   * @retval None
1452:Drivers/STM32G4xx_HAL_Driver/Src/stm32g4xx_hal_rcc_ex.c ****   */
1453:Drivers/STM32G4xx_HAL_Driver/Src/stm32g4xx_hal_rcc_ex.c **** void HAL_RCCEx_DisableLSCO(void)
1454:Drivers/STM32G4xx_HAL_Driver/Src/stm32g4xx_hal_rcc_ex.c **** {
 2774              		.loc 1 1454 1 is_stmt 1 view -0
 2775              		.cfi_startproc
 2776              		@ args = 0, pretend = 0, frame = 8
 2777              		@ frame_needed = 0, uses_anonymous_args = 0
 2778 0000 10B5     		push	{r4, lr}
 2779              		.cfi_def_cfa_offset 8
 2780              		.cfi_offset 4, -8
 2781              		.cfi_offset 14, -4
 2782 0002 82B0     		sub	sp, sp, #8
 2783              		.cfi_def_cfa_offset 16
1455:Drivers/STM32G4xx_HAL_Driver/Src/stm32g4xx_hal_rcc_ex.c ****   FlagStatus       pwrclkchanged = RESET;
 2784              		.loc 1 1455 3 view .LVU927
ARM GAS  C:\Users\Nathan\AppData\Local\Temp\cc4vJDVg.s 			page 85


 2785              	.LVL287:
1456:Drivers/STM32G4xx_HAL_Driver/Src/stm32g4xx_hal_rcc_ex.c ****   FlagStatus       backupchanged = RESET;
 2786              		.loc 1 1456 3 view .LVU928
1457:Drivers/STM32G4xx_HAL_Driver/Src/stm32g4xx_hal_rcc_ex.c **** 
1458:Drivers/STM32G4xx_HAL_Driver/Src/stm32g4xx_hal_rcc_ex.c ****   /* Update LSCOEN bit in Backup Domain control register */
1459:Drivers/STM32G4xx_HAL_Driver/Src/stm32g4xx_hal_rcc_ex.c ****   if(__HAL_RCC_PWR_IS_CLK_DISABLED())
 2787              		.loc 1 1459 3 view .LVU929
 2788              		.loc 1 1459 6 is_stmt 0 view .LVU930
 2789 0004 174B     		ldr	r3, .L256
 2790 0006 9B6D     		ldr	r3, [r3, #88]
 2791              		.loc 1 1459 5 view .LVU931
 2792 0008 13F0805F 		tst	r3, #268435456
 2793 000c 1BD1     		bne	.L250
1460:Drivers/STM32G4xx_HAL_Driver/Src/stm32g4xx_hal_rcc_ex.c ****   {
1461:Drivers/STM32G4xx_HAL_Driver/Src/stm32g4xx_hal_rcc_ex.c ****     __HAL_RCC_PWR_CLK_ENABLE();
 2794              		.loc 1 1461 5 is_stmt 1 view .LVU932
 2795              	.LBB7:
 2796              		.loc 1 1461 5 view .LVU933
 2797              		.loc 1 1461 5 view .LVU934
 2798 000e 154B     		ldr	r3, .L256
 2799 0010 9A6D     		ldr	r2, [r3, #88]
 2800 0012 42F08052 		orr	r2, r2, #268435456
 2801 0016 9A65     		str	r2, [r3, #88]
 2802              		.loc 1 1461 5 view .LVU935
 2803 0018 9B6D     		ldr	r3, [r3, #88]
 2804 001a 03F08053 		and	r3, r3, #268435456
 2805 001e 0193     		str	r3, [sp, #4]
 2806              		.loc 1 1461 5 view .LVU936
 2807 0020 019B     		ldr	r3, [sp, #4]
 2808              	.LBE7:
 2809              		.loc 1 1461 5 view .LVU937
1462:Drivers/STM32G4xx_HAL_Driver/Src/stm32g4xx_hal_rcc_ex.c ****     pwrclkchanged = SET;
 2810              		.loc 1 1462 5 view .LVU938
 2811              	.LVL288:
 2812              		.loc 1 1462 19 is_stmt 0 view .LVU939
 2813 0022 0124     		movs	r4, #1
 2814              	.LVL289:
 2815              	.L246:
1463:Drivers/STM32G4xx_HAL_Driver/Src/stm32g4xx_hal_rcc_ex.c ****   }
1464:Drivers/STM32G4xx_HAL_Driver/Src/stm32g4xx_hal_rcc_ex.c ****   if(HAL_IS_BIT_CLR(PWR->CR1, PWR_CR1_DBP))
 2816              		.loc 1 1464 3 is_stmt 1 view .LVU940
 2817              		.loc 1 1464 6 is_stmt 0 view .LVU941
 2818 0024 104B     		ldr	r3, .L256+4
 2819 0026 1B68     		ldr	r3, [r3]
 2820              		.loc 1 1464 5 view .LVU942
 2821 0028 13F4807F 		tst	r3, #256
 2822 002c 0DD0     		beq	.L253
1456:Drivers/STM32G4xx_HAL_Driver/Src/stm32g4xx_hal_rcc_ex.c **** 
 2823              		.loc 1 1456 20 view .LVU943
 2824 002e 0021     		movs	r1, #0
 2825              	.LVL290:
 2826              	.L247:
1465:Drivers/STM32G4xx_HAL_Driver/Src/stm32g4xx_hal_rcc_ex.c ****   {
1466:Drivers/STM32G4xx_HAL_Driver/Src/stm32g4xx_hal_rcc_ex.c ****     /* Enable access to the backup domain */
1467:Drivers/STM32G4xx_HAL_Driver/Src/stm32g4xx_hal_rcc_ex.c ****     HAL_PWR_EnableBkUpAccess();
1468:Drivers/STM32G4xx_HAL_Driver/Src/stm32g4xx_hal_rcc_ex.c ****     backupchanged = SET;
1469:Drivers/STM32G4xx_HAL_Driver/Src/stm32g4xx_hal_rcc_ex.c ****   }
ARM GAS  C:\Users\Nathan\AppData\Local\Temp\cc4vJDVg.s 			page 86


1470:Drivers/STM32G4xx_HAL_Driver/Src/stm32g4xx_hal_rcc_ex.c **** 
1471:Drivers/STM32G4xx_HAL_Driver/Src/stm32g4xx_hal_rcc_ex.c ****   CLEAR_BIT(RCC->BDCR, RCC_BDCR_LSCOEN);
 2827              		.loc 1 1471 3 is_stmt 1 view .LVU944
 2828 0030 0C4A     		ldr	r2, .L256
 2829 0032 D2F89030 		ldr	r3, [r2, #144]
 2830 0036 23F08073 		bic	r3, r3, #16777216
 2831 003a C2F89030 		str	r3, [r2, #144]
1472:Drivers/STM32G4xx_HAL_Driver/Src/stm32g4xx_hal_rcc_ex.c **** 
1473:Drivers/STM32G4xx_HAL_Driver/Src/stm32g4xx_hal_rcc_ex.c ****   /* Restore previous configuration */
1474:Drivers/STM32G4xx_HAL_Driver/Src/stm32g4xx_hal_rcc_ex.c ****   if(backupchanged == SET)
 2832              		.loc 1 1474 3 view .LVU945
 2833              		.loc 1 1474 5 is_stmt 0 view .LVU946
 2834 003e 41B9     		cbnz	r1, .L254
 2835              	.LVL291:
 2836              	.L248:
1475:Drivers/STM32G4xx_HAL_Driver/Src/stm32g4xx_hal_rcc_ex.c ****   {
1476:Drivers/STM32G4xx_HAL_Driver/Src/stm32g4xx_hal_rcc_ex.c ****     /* Disable access to the backup domain */
1477:Drivers/STM32G4xx_HAL_Driver/Src/stm32g4xx_hal_rcc_ex.c ****     HAL_PWR_DisableBkUpAccess();
1478:Drivers/STM32G4xx_HAL_Driver/Src/stm32g4xx_hal_rcc_ex.c ****   }
1479:Drivers/STM32G4xx_HAL_Driver/Src/stm32g4xx_hal_rcc_ex.c ****   if(pwrclkchanged == SET)
 2837              		.loc 1 1479 3 is_stmt 1 view .LVU947
 2838              		.loc 1 1479 5 is_stmt 0 view .LVU948
 2839 0040 54B9     		cbnz	r4, .L255
 2840              	.L245:
1480:Drivers/STM32G4xx_HAL_Driver/Src/stm32g4xx_hal_rcc_ex.c ****   {
1481:Drivers/STM32G4xx_HAL_Driver/Src/stm32g4xx_hal_rcc_ex.c ****     __HAL_RCC_PWR_CLK_DISABLE();
1482:Drivers/STM32G4xx_HAL_Driver/Src/stm32g4xx_hal_rcc_ex.c ****   }
1483:Drivers/STM32G4xx_HAL_Driver/Src/stm32g4xx_hal_rcc_ex.c **** }
 2841              		.loc 1 1483 1 view .LVU949
 2842 0042 02B0     		add	sp, sp, #8
 2843              		.cfi_remember_state
 2844              		.cfi_def_cfa_offset 8
 2845              		@ sp needed
 2846 0044 10BD     		pop	{r4, pc}
 2847              	.LVL292:
 2848              	.L250:
 2849              		.cfi_restore_state
1455:Drivers/STM32G4xx_HAL_Driver/Src/stm32g4xx_hal_rcc_ex.c ****   FlagStatus       backupchanged = RESET;
 2850              		.loc 1 1455 20 view .LVU950
 2851 0046 0024     		movs	r4, #0
 2852 0048 ECE7     		b	.L246
 2853              	.LVL293:
 2854              	.L253:
1467:Drivers/STM32G4xx_HAL_Driver/Src/stm32g4xx_hal_rcc_ex.c ****     backupchanged = SET;
 2855              		.loc 1 1467 5 is_stmt 1 view .LVU951
 2856 004a FFF7FEFF 		bl	HAL_PWR_EnableBkUpAccess
 2857              	.LVL294:
1468:Drivers/STM32G4xx_HAL_Driver/Src/stm32g4xx_hal_rcc_ex.c ****   }
 2858              		.loc 1 1468 5 view .LVU952
1468:Drivers/STM32G4xx_HAL_Driver/Src/stm32g4xx_hal_rcc_ex.c ****   }
 2859              		.loc 1 1468 19 is_stmt 0 view .LVU953
 2860 004e 0121     		movs	r1, #1
 2861 0050 EEE7     		b	.L247
 2862              	.LVL295:
 2863              	.L254:
1477:Drivers/STM32G4xx_HAL_Driver/Src/stm32g4xx_hal_rcc_ex.c ****   }
 2864              		.loc 1 1477 5 is_stmt 1 view .LVU954
ARM GAS  C:\Users\Nathan\AppData\Local\Temp\cc4vJDVg.s 			page 87


 2865 0052 FFF7FEFF 		bl	HAL_PWR_DisableBkUpAccess
 2866              	.LVL296:
1477:Drivers/STM32G4xx_HAL_Driver/Src/stm32g4xx_hal_rcc_ex.c ****   }
 2867              		.loc 1 1477 5 is_stmt 0 view .LVU955
 2868 0056 F3E7     		b	.L248
 2869              	.L255:
1481:Drivers/STM32G4xx_HAL_Driver/Src/stm32g4xx_hal_rcc_ex.c ****   }
 2870              		.loc 1 1481 5 is_stmt 1 view .LVU956
 2871 0058 024A     		ldr	r2, .L256
 2872 005a 936D     		ldr	r3, [r2, #88]
 2873 005c 23F08053 		bic	r3, r3, #268435456
 2874 0060 9365     		str	r3, [r2, #88]
 2875              		.loc 1 1483 1 is_stmt 0 view .LVU957
 2876 0062 EEE7     		b	.L245
 2877              	.L257:
 2878              		.align	2
 2879              	.L256:
 2880 0064 00100240 		.word	1073876992
 2881 0068 00700040 		.word	1073770496
 2882              		.cfi_endproc
 2883              	.LFE141:
 2885              		.section	.text.HAL_RCCEx_CRSConfig,"ax",%progbits
 2886              		.align	1
 2887              		.global	HAL_RCCEx_CRSConfig
 2888              		.syntax unified
 2889              		.thumb
 2890              		.thumb_func
 2892              	HAL_RCCEx_CRSConfig:
 2893              	.LVL297:
 2894              	.LFB142:
1484:Drivers/STM32G4xx_HAL_Driver/Src/stm32g4xx_hal_rcc_ex.c **** 
1485:Drivers/STM32G4xx_HAL_Driver/Src/stm32g4xx_hal_rcc_ex.c **** 
1486:Drivers/STM32G4xx_HAL_Driver/Src/stm32g4xx_hal_rcc_ex.c **** /**
1487:Drivers/STM32G4xx_HAL_Driver/Src/stm32g4xx_hal_rcc_ex.c ****   * @}
1488:Drivers/STM32G4xx_HAL_Driver/Src/stm32g4xx_hal_rcc_ex.c ****   */
1489:Drivers/STM32G4xx_HAL_Driver/Src/stm32g4xx_hal_rcc_ex.c **** 
1490:Drivers/STM32G4xx_HAL_Driver/Src/stm32g4xx_hal_rcc_ex.c **** #if defined(CRS)
1491:Drivers/STM32G4xx_HAL_Driver/Src/stm32g4xx_hal_rcc_ex.c **** 
1492:Drivers/STM32G4xx_HAL_Driver/Src/stm32g4xx_hal_rcc_ex.c **** /** @defgroup RCCEx_Exported_Functions_Group3 Extended Clock Recovery System Control functions
1493:Drivers/STM32G4xx_HAL_Driver/Src/stm32g4xx_hal_rcc_ex.c ****  *  @brief  Extended Clock Recovery System Control functions
1494:Drivers/STM32G4xx_HAL_Driver/Src/stm32g4xx_hal_rcc_ex.c ****  *
1495:Drivers/STM32G4xx_HAL_Driver/Src/stm32g4xx_hal_rcc_ex.c **** @verbatim
1496:Drivers/STM32G4xx_HAL_Driver/Src/stm32g4xx_hal_rcc_ex.c ****  ===============================================================================
1497:Drivers/STM32G4xx_HAL_Driver/Src/stm32g4xx_hal_rcc_ex.c ****                 ##### Extended Clock Recovery System Control functions  #####
1498:Drivers/STM32G4xx_HAL_Driver/Src/stm32g4xx_hal_rcc_ex.c ****  ===============================================================================
1499:Drivers/STM32G4xx_HAL_Driver/Src/stm32g4xx_hal_rcc_ex.c ****     [..]
1500:Drivers/STM32G4xx_HAL_Driver/Src/stm32g4xx_hal_rcc_ex.c ****       For devices with Clock Recovery System feature (CRS), RCC Extension HAL driver can be used as
1501:Drivers/STM32G4xx_HAL_Driver/Src/stm32g4xx_hal_rcc_ex.c **** 
1502:Drivers/STM32G4xx_HAL_Driver/Src/stm32g4xx_hal_rcc_ex.c ****       (#) In System clock config, HSI48 needs to be enabled
1503:Drivers/STM32G4xx_HAL_Driver/Src/stm32g4xx_hal_rcc_ex.c **** 
1504:Drivers/STM32G4xx_HAL_Driver/Src/stm32g4xx_hal_rcc_ex.c ****       (#) Enable CRS clock in IP MSP init which will use CRS functions
1505:Drivers/STM32G4xx_HAL_Driver/Src/stm32g4xx_hal_rcc_ex.c **** 
1506:Drivers/STM32G4xx_HAL_Driver/Src/stm32g4xx_hal_rcc_ex.c ****       (#) Call CRS functions as follows:
1507:Drivers/STM32G4xx_HAL_Driver/Src/stm32g4xx_hal_rcc_ex.c ****           (##) Prepare synchronization configuration necessary for HSI48 calibration
1508:Drivers/STM32G4xx_HAL_Driver/Src/stm32g4xx_hal_rcc_ex.c ****               (+++) Default values can be set for frequency Error Measurement (reload and error lim
1509:Drivers/STM32G4xx_HAL_Driver/Src/stm32g4xx_hal_rcc_ex.c ****                         and also HSI48 oscillator smooth trimming.
1510:Drivers/STM32G4xx_HAL_Driver/Src/stm32g4xx_hal_rcc_ex.c ****               (+++) Macro __HAL_RCC_CRS_RELOADVALUE_CALCULATE can be also used to calculate
ARM GAS  C:\Users\Nathan\AppData\Local\Temp\cc4vJDVg.s 			page 88


1511:Drivers/STM32G4xx_HAL_Driver/Src/stm32g4xx_hal_rcc_ex.c ****                         directly reload value with target and sychronization frequencies values
1512:Drivers/STM32G4xx_HAL_Driver/Src/stm32g4xx_hal_rcc_ex.c ****           (##) Call function HAL_RCCEx_CRSConfig which
1513:Drivers/STM32G4xx_HAL_Driver/Src/stm32g4xx_hal_rcc_ex.c ****               (+++) Resets CRS registers to their default values.
1514:Drivers/STM32G4xx_HAL_Driver/Src/stm32g4xx_hal_rcc_ex.c ****               (+++) Configures CRS registers with synchronization configuration
1515:Drivers/STM32G4xx_HAL_Driver/Src/stm32g4xx_hal_rcc_ex.c ****               (+++) Enables automatic calibration and frequency error counter feature
1516:Drivers/STM32G4xx_HAL_Driver/Src/stm32g4xx_hal_rcc_ex.c ****            Note: When using USB LPM (Link Power Management) and the device is in Sleep mode, the
1517:Drivers/STM32G4xx_HAL_Driver/Src/stm32g4xx_hal_rcc_ex.c ****            periodic USB SOF will not be generated by the host. No SYNC signal will therefore be
1518:Drivers/STM32G4xx_HAL_Driver/Src/stm32g4xx_hal_rcc_ex.c ****            provided to the CRS to calibrate the HSI48 on the run. To guarantee the required clock
1519:Drivers/STM32G4xx_HAL_Driver/Src/stm32g4xx_hal_rcc_ex.c ****            precision after waking up from Sleep mode, the LSE or reference clock on the GPIOs
1520:Drivers/STM32G4xx_HAL_Driver/Src/stm32g4xx_hal_rcc_ex.c ****            should be used as SYNC signal.
1521:Drivers/STM32G4xx_HAL_Driver/Src/stm32g4xx_hal_rcc_ex.c **** 
1522:Drivers/STM32G4xx_HAL_Driver/Src/stm32g4xx_hal_rcc_ex.c ****           (##) A polling function is provided to wait for complete synchronization
1523:Drivers/STM32G4xx_HAL_Driver/Src/stm32g4xx_hal_rcc_ex.c ****               (+++) Call function HAL_RCCEx_CRSWaitSynchronization()
1524:Drivers/STM32G4xx_HAL_Driver/Src/stm32g4xx_hal_rcc_ex.c ****               (+++) According to CRS status, user can decide to adjust again the calibration or con
1525:Drivers/STM32G4xx_HAL_Driver/Src/stm32g4xx_hal_rcc_ex.c ****                         application if synchronization is OK
1526:Drivers/STM32G4xx_HAL_Driver/Src/stm32g4xx_hal_rcc_ex.c **** 
1527:Drivers/STM32G4xx_HAL_Driver/Src/stm32g4xx_hal_rcc_ex.c ****       (#) User can retrieve information related to synchronization in calling function
1528:Drivers/STM32G4xx_HAL_Driver/Src/stm32g4xx_hal_rcc_ex.c ****             HAL_RCCEx_CRSGetSynchronizationInfo()
1529:Drivers/STM32G4xx_HAL_Driver/Src/stm32g4xx_hal_rcc_ex.c **** 
1530:Drivers/STM32G4xx_HAL_Driver/Src/stm32g4xx_hal_rcc_ex.c ****       (#) Regarding synchronization status and synchronization information, user can try a new cali
1531:Drivers/STM32G4xx_HAL_Driver/Src/stm32g4xx_hal_rcc_ex.c ****            in changing synchronization configuration and call again HAL_RCCEx_CRSConfig.
1532:Drivers/STM32G4xx_HAL_Driver/Src/stm32g4xx_hal_rcc_ex.c ****            Note: When the SYNC event is detected during the downcounting phase (before reaching the
1533:Drivers/STM32G4xx_HAL_Driver/Src/stm32g4xx_hal_rcc_ex.c ****            it means that the actual frequency is lower than the target (and so, that the TRIM value
1534:Drivers/STM32G4xx_HAL_Driver/Src/stm32g4xx_hal_rcc_ex.c ****            incremented), while when it is detected during the upcounting phase it means that the ac
1535:Drivers/STM32G4xx_HAL_Driver/Src/stm32g4xx_hal_rcc_ex.c ****            is higher (and that the TRIM value should be decremented).
1536:Drivers/STM32G4xx_HAL_Driver/Src/stm32g4xx_hal_rcc_ex.c **** 
1537:Drivers/STM32G4xx_HAL_Driver/Src/stm32g4xx_hal_rcc_ex.c ****       (#) In interrupt mode, user can resort to the available macros (__HAL_RCC_CRS_XXX_IT). Interr
1538:Drivers/STM32G4xx_HAL_Driver/Src/stm32g4xx_hal_rcc_ex.c ****           through CRS Handler (CRS_IRQn/CRS_IRQHandler)
1539:Drivers/STM32G4xx_HAL_Driver/Src/stm32g4xx_hal_rcc_ex.c ****               (++) Call function HAL_RCCEx_CRSConfig()
1540:Drivers/STM32G4xx_HAL_Driver/Src/stm32g4xx_hal_rcc_ex.c ****               (++) Enable CRS_IRQn (thanks to NVIC functions)
1541:Drivers/STM32G4xx_HAL_Driver/Src/stm32g4xx_hal_rcc_ex.c ****               (++) Enable CRS interrupt (__HAL_RCC_CRS_ENABLE_IT)
1542:Drivers/STM32G4xx_HAL_Driver/Src/stm32g4xx_hal_rcc_ex.c ****               (++) Implement CRS status management in the following user callbacks called from
1543:Drivers/STM32G4xx_HAL_Driver/Src/stm32g4xx_hal_rcc_ex.c ****                    HAL_RCCEx_CRS_IRQHandler():
1544:Drivers/STM32G4xx_HAL_Driver/Src/stm32g4xx_hal_rcc_ex.c ****                    (+++) HAL_RCCEx_CRS_SyncOkCallback()
1545:Drivers/STM32G4xx_HAL_Driver/Src/stm32g4xx_hal_rcc_ex.c ****                    (+++) HAL_RCCEx_CRS_SyncWarnCallback()
1546:Drivers/STM32G4xx_HAL_Driver/Src/stm32g4xx_hal_rcc_ex.c ****                    (+++) HAL_RCCEx_CRS_ExpectedSyncCallback()
1547:Drivers/STM32G4xx_HAL_Driver/Src/stm32g4xx_hal_rcc_ex.c ****                    (+++) HAL_RCCEx_CRS_ErrorCallback()
1548:Drivers/STM32G4xx_HAL_Driver/Src/stm32g4xx_hal_rcc_ex.c **** 
1549:Drivers/STM32G4xx_HAL_Driver/Src/stm32g4xx_hal_rcc_ex.c ****       (#) To force a SYNC EVENT, user can use the function HAL_RCCEx_CRSSoftwareSynchronizationGene
1550:Drivers/STM32G4xx_HAL_Driver/Src/stm32g4xx_hal_rcc_ex.c ****           This function can be called before calling HAL_RCCEx_CRSConfig (for instance in Systick h
1551:Drivers/STM32G4xx_HAL_Driver/Src/stm32g4xx_hal_rcc_ex.c **** 
1552:Drivers/STM32G4xx_HAL_Driver/Src/stm32g4xx_hal_rcc_ex.c **** @endverbatim
1553:Drivers/STM32G4xx_HAL_Driver/Src/stm32g4xx_hal_rcc_ex.c ****  * @{
1554:Drivers/STM32G4xx_HAL_Driver/Src/stm32g4xx_hal_rcc_ex.c ****  */
1555:Drivers/STM32G4xx_HAL_Driver/Src/stm32g4xx_hal_rcc_ex.c **** 
1556:Drivers/STM32G4xx_HAL_Driver/Src/stm32g4xx_hal_rcc_ex.c **** /**
1557:Drivers/STM32G4xx_HAL_Driver/Src/stm32g4xx_hal_rcc_ex.c ****   * @brief  Start automatic synchronization for polling mode
1558:Drivers/STM32G4xx_HAL_Driver/Src/stm32g4xx_hal_rcc_ex.c ****   * @param  pInit Pointer on RCC_CRSInitTypeDef structure
1559:Drivers/STM32G4xx_HAL_Driver/Src/stm32g4xx_hal_rcc_ex.c ****   * @retval None
1560:Drivers/STM32G4xx_HAL_Driver/Src/stm32g4xx_hal_rcc_ex.c ****   */
1561:Drivers/STM32G4xx_HAL_Driver/Src/stm32g4xx_hal_rcc_ex.c **** void HAL_RCCEx_CRSConfig(RCC_CRSInitTypeDef *pInit)
1562:Drivers/STM32G4xx_HAL_Driver/Src/stm32g4xx_hal_rcc_ex.c **** {
 2895              		.loc 1 1562 1 is_stmt 1 view -0
 2896              		.cfi_startproc
 2897              		@ args = 0, pretend = 0, frame = 0
 2898              		@ frame_needed = 0, uses_anonymous_args = 0
 2899              		@ link register save eliminated.
ARM GAS  C:\Users\Nathan\AppData\Local\Temp\cc4vJDVg.s 			page 89


1563:Drivers/STM32G4xx_HAL_Driver/Src/stm32g4xx_hal_rcc_ex.c ****   uint32_t value;
 2900              		.loc 1 1563 3 view .LVU959
1564:Drivers/STM32G4xx_HAL_Driver/Src/stm32g4xx_hal_rcc_ex.c **** 
1565:Drivers/STM32G4xx_HAL_Driver/Src/stm32g4xx_hal_rcc_ex.c ****   /* Check the parameters */
1566:Drivers/STM32G4xx_HAL_Driver/Src/stm32g4xx_hal_rcc_ex.c ****   assert_param(IS_RCC_CRS_SYNC_DIV(pInit->Prescaler));
 2901              		.loc 1 1566 3 view .LVU960
1567:Drivers/STM32G4xx_HAL_Driver/Src/stm32g4xx_hal_rcc_ex.c ****   assert_param(IS_RCC_CRS_SYNC_SOURCE(pInit->Source));
 2902              		.loc 1 1567 3 view .LVU961
1568:Drivers/STM32G4xx_HAL_Driver/Src/stm32g4xx_hal_rcc_ex.c ****   assert_param(IS_RCC_CRS_SYNC_POLARITY(pInit->Polarity));
 2903              		.loc 1 1568 3 view .LVU962
1569:Drivers/STM32G4xx_HAL_Driver/Src/stm32g4xx_hal_rcc_ex.c ****   assert_param(IS_RCC_CRS_RELOADVALUE(pInit->ReloadValue));
 2904              		.loc 1 1569 3 view .LVU963
1570:Drivers/STM32G4xx_HAL_Driver/Src/stm32g4xx_hal_rcc_ex.c ****   assert_param(IS_RCC_CRS_ERRORLIMIT(pInit->ErrorLimitValue));
 2905              		.loc 1 1570 3 view .LVU964
1571:Drivers/STM32G4xx_HAL_Driver/Src/stm32g4xx_hal_rcc_ex.c ****   assert_param(IS_RCC_CRS_HSI48CALIBRATION(pInit->HSI48CalibrationValue));
 2906              		.loc 1 1571 3 view .LVU965
1572:Drivers/STM32G4xx_HAL_Driver/Src/stm32g4xx_hal_rcc_ex.c **** 
1573:Drivers/STM32G4xx_HAL_Driver/Src/stm32g4xx_hal_rcc_ex.c ****   /* CONFIGURATION */
1574:Drivers/STM32G4xx_HAL_Driver/Src/stm32g4xx_hal_rcc_ex.c **** 
1575:Drivers/STM32G4xx_HAL_Driver/Src/stm32g4xx_hal_rcc_ex.c ****   /* Before configuration, reset CRS registers to their default values*/
1576:Drivers/STM32G4xx_HAL_Driver/Src/stm32g4xx_hal_rcc_ex.c ****   __HAL_RCC_CRS_FORCE_RESET();
 2907              		.loc 1 1576 3 view .LVU966
 2908 0000 104B     		ldr	r3, .L259
 2909 0002 9A6B     		ldr	r2, [r3, #56]
 2910 0004 42F48072 		orr	r2, r2, #256
 2911 0008 9A63     		str	r2, [r3, #56]
1577:Drivers/STM32G4xx_HAL_Driver/Src/stm32g4xx_hal_rcc_ex.c ****   __HAL_RCC_CRS_RELEASE_RESET();
 2912              		.loc 1 1577 3 view .LVU967
 2913 000a 9A6B     		ldr	r2, [r3, #56]
 2914 000c 22F48072 		bic	r2, r2, #256
 2915 0010 9A63     		str	r2, [r3, #56]
1578:Drivers/STM32G4xx_HAL_Driver/Src/stm32g4xx_hal_rcc_ex.c **** 
1579:Drivers/STM32G4xx_HAL_Driver/Src/stm32g4xx_hal_rcc_ex.c ****   /* Set the SYNCDIV[2:0] bits according to Prescaler value */
1580:Drivers/STM32G4xx_HAL_Driver/Src/stm32g4xx_hal_rcc_ex.c ****   /* Set the SYNCSRC[1:0] bits according to Source value */
1581:Drivers/STM32G4xx_HAL_Driver/Src/stm32g4xx_hal_rcc_ex.c ****   /* Set the SYNCSPOL bit according to Polarity value */
1582:Drivers/STM32G4xx_HAL_Driver/Src/stm32g4xx_hal_rcc_ex.c ****   value = (pInit->Prescaler | pInit->Source | pInit->Polarity);
 2916              		.loc 1 1582 3 view .LVU968
 2917              		.loc 1 1582 17 is_stmt 0 view .LVU969
 2918 0012 0368     		ldr	r3, [r0]
 2919              		.loc 1 1582 36 view .LVU970
 2920 0014 4268     		ldr	r2, [r0, #4]
 2921              		.loc 1 1582 29 view .LVU971
 2922 0016 1343     		orrs	r3, r3, r2
 2923              		.loc 1 1582 52 view .LVU972
 2924 0018 8268     		ldr	r2, [r0, #8]
 2925              		.loc 1 1582 9 view .LVU973
 2926 001a 1A43     		orrs	r2, r2, r3
 2927              	.LVL298:
1583:Drivers/STM32G4xx_HAL_Driver/Src/stm32g4xx_hal_rcc_ex.c ****   /* Set the RELOAD[15:0] bits according to ReloadValue value */
1584:Drivers/STM32G4xx_HAL_Driver/Src/stm32g4xx_hal_rcc_ex.c ****   value |= pInit->ReloadValue;
 2928              		.loc 1 1584 3 is_stmt 1 view .LVU974
 2929              		.loc 1 1584 17 is_stmt 0 view .LVU975
 2930 001c C368     		ldr	r3, [r0, #12]
 2931              		.loc 1 1584 9 view .LVU976
 2932 001e 1343     		orrs	r3, r3, r2
 2933              	.LVL299:
1585:Drivers/STM32G4xx_HAL_Driver/Src/stm32g4xx_hal_rcc_ex.c ****   /* Set the FELIM[7:0] bits according to ErrorLimitValue value */
ARM GAS  C:\Users\Nathan\AppData\Local\Temp\cc4vJDVg.s 			page 90


1586:Drivers/STM32G4xx_HAL_Driver/Src/stm32g4xx_hal_rcc_ex.c ****   value |= (pInit->ErrorLimitValue << CRS_CFGR_FELIM_Pos);
 2934              		.loc 1 1586 3 is_stmt 1 view .LVU977
 2935              		.loc 1 1586 18 is_stmt 0 view .LVU978
 2936 0020 0269     		ldr	r2, [r0, #16]
 2937              		.loc 1 1586 9 view .LVU979
 2938 0022 43EA0242 		orr	r2, r3, r2, lsl #16
 2939              	.LVL300:
1587:Drivers/STM32G4xx_HAL_Driver/Src/stm32g4xx_hal_rcc_ex.c ****   WRITE_REG(CRS->CFGR, value);
 2940              		.loc 1 1587 3 is_stmt 1 view .LVU980
 2941 0026 084B     		ldr	r3, .L259+4
 2942 0028 5A60     		str	r2, [r3, #4]
1588:Drivers/STM32G4xx_HAL_Driver/Src/stm32g4xx_hal_rcc_ex.c **** 
1589:Drivers/STM32G4xx_HAL_Driver/Src/stm32g4xx_hal_rcc_ex.c ****   /* Adjust HSI48 oscillator smooth trimming */
1590:Drivers/STM32G4xx_HAL_Driver/Src/stm32g4xx_hal_rcc_ex.c ****   /* Set the TRIM[6:0] bits according to RCC_CRS_HSI48CalibrationValue value */
1591:Drivers/STM32G4xx_HAL_Driver/Src/stm32g4xx_hal_rcc_ex.c ****   MODIFY_REG(CRS->CR, CRS_CR_TRIM, (pInit->HSI48CalibrationValue << CRS_CR_TRIM_Pos));
 2943              		.loc 1 1591 3 view .LVU981
 2944 002a 1A68     		ldr	r2, [r3]
 2945              	.LVL301:
 2946              		.loc 1 1591 3 is_stmt 0 view .LVU982
 2947 002c 22F4FE42 		bic	r2, r2, #32512
 2948 0030 4169     		ldr	r1, [r0, #20]
 2949 0032 42EA0122 		orr	r2, r2, r1, lsl #8
 2950 0036 1A60     		str	r2, [r3]
 2951              	.LVL302:
1592:Drivers/STM32G4xx_HAL_Driver/Src/stm32g4xx_hal_rcc_ex.c **** 
1593:Drivers/STM32G4xx_HAL_Driver/Src/stm32g4xx_hal_rcc_ex.c ****   /* START AUTOMATIC SYNCHRONIZATION*/
1594:Drivers/STM32G4xx_HAL_Driver/Src/stm32g4xx_hal_rcc_ex.c **** 
1595:Drivers/STM32G4xx_HAL_Driver/Src/stm32g4xx_hal_rcc_ex.c ****   /* Enable Automatic trimming & Frequency error counter */
1596:Drivers/STM32G4xx_HAL_Driver/Src/stm32g4xx_hal_rcc_ex.c ****   SET_BIT(CRS->CR, CRS_CR_AUTOTRIMEN | CRS_CR_CEN);
 2952              		.loc 1 1596 3 is_stmt 1 view .LVU983
 2953 0038 1A68     		ldr	r2, [r3]
 2954 003a 42F06002 		orr	r2, r2, #96
 2955 003e 1A60     		str	r2, [r3]
1597:Drivers/STM32G4xx_HAL_Driver/Src/stm32g4xx_hal_rcc_ex.c **** }
 2956              		.loc 1 1597 1 is_stmt 0 view .LVU984
 2957 0040 7047     		bx	lr
 2958              	.L260:
 2959 0042 00BF     		.align	2
 2960              	.L259:
 2961 0044 00100240 		.word	1073876992
 2962 0048 00200040 		.word	1073750016
 2963              		.cfi_endproc
 2964              	.LFE142:
 2966              		.section	.text.HAL_RCCEx_CRSSoftwareSynchronizationGenerate,"ax",%progbits
 2967              		.align	1
 2968              		.global	HAL_RCCEx_CRSSoftwareSynchronizationGenerate
 2969              		.syntax unified
 2970              		.thumb
 2971              		.thumb_func
 2973              	HAL_RCCEx_CRSSoftwareSynchronizationGenerate:
 2974              	.LFB143:
1598:Drivers/STM32G4xx_HAL_Driver/Src/stm32g4xx_hal_rcc_ex.c **** 
1599:Drivers/STM32G4xx_HAL_Driver/Src/stm32g4xx_hal_rcc_ex.c **** /**
1600:Drivers/STM32G4xx_HAL_Driver/Src/stm32g4xx_hal_rcc_ex.c ****   * @brief  Generate the software synchronization event
1601:Drivers/STM32G4xx_HAL_Driver/Src/stm32g4xx_hal_rcc_ex.c ****   * @retval None
1602:Drivers/STM32G4xx_HAL_Driver/Src/stm32g4xx_hal_rcc_ex.c ****   */
1603:Drivers/STM32G4xx_HAL_Driver/Src/stm32g4xx_hal_rcc_ex.c **** void HAL_RCCEx_CRSSoftwareSynchronizationGenerate(void)
ARM GAS  C:\Users\Nathan\AppData\Local\Temp\cc4vJDVg.s 			page 91


1604:Drivers/STM32G4xx_HAL_Driver/Src/stm32g4xx_hal_rcc_ex.c **** {
 2975              		.loc 1 1604 1 is_stmt 1 view -0
 2976              		.cfi_startproc
 2977              		@ args = 0, pretend = 0, frame = 0
 2978              		@ frame_needed = 0, uses_anonymous_args = 0
 2979              		@ link register save eliminated.
1605:Drivers/STM32G4xx_HAL_Driver/Src/stm32g4xx_hal_rcc_ex.c ****   SET_BIT(CRS->CR, CRS_CR_SWSYNC);
 2980              		.loc 1 1605 3 view .LVU986
 2981 0000 024A     		ldr	r2, .L262
 2982 0002 1368     		ldr	r3, [r2]
 2983 0004 43F08003 		orr	r3, r3, #128
 2984 0008 1360     		str	r3, [r2]
1606:Drivers/STM32G4xx_HAL_Driver/Src/stm32g4xx_hal_rcc_ex.c **** }
 2985              		.loc 1 1606 1 is_stmt 0 view .LVU987
 2986 000a 7047     		bx	lr
 2987              	.L263:
 2988              		.align	2
 2989              	.L262:
 2990 000c 00200040 		.word	1073750016
 2991              		.cfi_endproc
 2992              	.LFE143:
 2994              		.section	.text.HAL_RCCEx_CRSGetSynchronizationInfo,"ax",%progbits
 2995              		.align	1
 2996              		.global	HAL_RCCEx_CRSGetSynchronizationInfo
 2997              		.syntax unified
 2998              		.thumb
 2999              		.thumb_func
 3001              	HAL_RCCEx_CRSGetSynchronizationInfo:
 3002              	.LVL303:
 3003              	.LFB144:
1607:Drivers/STM32G4xx_HAL_Driver/Src/stm32g4xx_hal_rcc_ex.c **** 
1608:Drivers/STM32G4xx_HAL_Driver/Src/stm32g4xx_hal_rcc_ex.c **** /**
1609:Drivers/STM32G4xx_HAL_Driver/Src/stm32g4xx_hal_rcc_ex.c ****   * @brief  Return synchronization info
1610:Drivers/STM32G4xx_HAL_Driver/Src/stm32g4xx_hal_rcc_ex.c ****   * @param  pSynchroInfo Pointer on RCC_CRSSynchroInfoTypeDef structure
1611:Drivers/STM32G4xx_HAL_Driver/Src/stm32g4xx_hal_rcc_ex.c ****   * @retval None
1612:Drivers/STM32G4xx_HAL_Driver/Src/stm32g4xx_hal_rcc_ex.c ****   */
1613:Drivers/STM32G4xx_HAL_Driver/Src/stm32g4xx_hal_rcc_ex.c **** void HAL_RCCEx_CRSGetSynchronizationInfo(RCC_CRSSynchroInfoTypeDef *pSynchroInfo)
1614:Drivers/STM32G4xx_HAL_Driver/Src/stm32g4xx_hal_rcc_ex.c **** {
 3004              		.loc 1 1614 1 is_stmt 1 view -0
 3005              		.cfi_startproc
 3006              		@ args = 0, pretend = 0, frame = 0
 3007              		@ frame_needed = 0, uses_anonymous_args = 0
 3008              		@ link register save eliminated.
1615:Drivers/STM32G4xx_HAL_Driver/Src/stm32g4xx_hal_rcc_ex.c ****   /* Check the parameter */
1616:Drivers/STM32G4xx_HAL_Driver/Src/stm32g4xx_hal_rcc_ex.c ****   assert_param(pSynchroInfo != (void *)NULL);
 3009              		.loc 1 1616 3 view .LVU989
1617:Drivers/STM32G4xx_HAL_Driver/Src/stm32g4xx_hal_rcc_ex.c **** 
1618:Drivers/STM32G4xx_HAL_Driver/Src/stm32g4xx_hal_rcc_ex.c ****   /* Get the reload value */
1619:Drivers/STM32G4xx_HAL_Driver/Src/stm32g4xx_hal_rcc_ex.c ****   pSynchroInfo->ReloadValue = (READ_BIT(CRS->CFGR, CRS_CFGR_RELOAD));
 3010              		.loc 1 1619 3 view .LVU990
 3011              		.loc 1 1619 32 is_stmt 0 view .LVU991
 3012 0000 074B     		ldr	r3, .L265
 3013 0002 5A68     		ldr	r2, [r3, #4]
 3014 0004 92B2     		uxth	r2, r2
 3015              		.loc 1 1619 29 view .LVU992
 3016 0006 0260     		str	r2, [r0]
1620:Drivers/STM32G4xx_HAL_Driver/Src/stm32g4xx_hal_rcc_ex.c **** 
ARM GAS  C:\Users\Nathan\AppData\Local\Temp\cc4vJDVg.s 			page 92


1621:Drivers/STM32G4xx_HAL_Driver/Src/stm32g4xx_hal_rcc_ex.c ****   /* Get HSI48 oscillator smooth trimming */
1622:Drivers/STM32G4xx_HAL_Driver/Src/stm32g4xx_hal_rcc_ex.c ****   pSynchroInfo->HSI48CalibrationValue = (READ_BIT(CRS->CR, CRS_CR_TRIM) >> CRS_CR_TRIM_Pos);
 3017              		.loc 1 1622 3 is_stmt 1 view .LVU993
 3018              		.loc 1 1622 42 is_stmt 0 view .LVU994
 3019 0008 1A68     		ldr	r2, [r3]
 3020              		.loc 1 1622 73 view .LVU995
 3021 000a C2F30622 		ubfx	r2, r2, #8, #7
 3022              		.loc 1 1622 39 view .LVU996
 3023 000e 4260     		str	r2, [r0, #4]
1623:Drivers/STM32G4xx_HAL_Driver/Src/stm32g4xx_hal_rcc_ex.c **** 
1624:Drivers/STM32G4xx_HAL_Driver/Src/stm32g4xx_hal_rcc_ex.c ****   /* Get Frequency error capture */
1625:Drivers/STM32G4xx_HAL_Driver/Src/stm32g4xx_hal_rcc_ex.c ****   pSynchroInfo->FreqErrorCapture = (READ_BIT(CRS->ISR, CRS_ISR_FECAP) >> CRS_ISR_FECAP_Pos);
 3024              		.loc 1 1625 3 is_stmt 1 view .LVU997
 3025              		.loc 1 1625 37 is_stmt 0 view .LVU998
 3026 0010 9A68     		ldr	r2, [r3, #8]
 3027              		.loc 1 1625 71 view .LVU999
 3028 0012 120C     		lsrs	r2, r2, #16
 3029              		.loc 1 1625 34 view .LVU1000
 3030 0014 8260     		str	r2, [r0, #8]
1626:Drivers/STM32G4xx_HAL_Driver/Src/stm32g4xx_hal_rcc_ex.c **** 
1627:Drivers/STM32G4xx_HAL_Driver/Src/stm32g4xx_hal_rcc_ex.c ****   /* Get Frequency error direction */
1628:Drivers/STM32G4xx_HAL_Driver/Src/stm32g4xx_hal_rcc_ex.c ****   pSynchroInfo->FreqErrorDirection = (READ_BIT(CRS->ISR, CRS_ISR_FEDIR));
 3031              		.loc 1 1628 3 is_stmt 1 view .LVU1001
 3032              		.loc 1 1628 39 is_stmt 0 view .LVU1002
 3033 0016 9B68     		ldr	r3, [r3, #8]
 3034 0018 03F40043 		and	r3, r3, #32768
 3035              		.loc 1 1628 36 view .LVU1003
 3036 001c C360     		str	r3, [r0, #12]
1629:Drivers/STM32G4xx_HAL_Driver/Src/stm32g4xx_hal_rcc_ex.c **** }
 3037              		.loc 1 1629 1 view .LVU1004
 3038 001e 7047     		bx	lr
 3039              	.L266:
 3040              		.align	2
 3041              	.L265:
 3042 0020 00200040 		.word	1073750016
 3043              		.cfi_endproc
 3044              	.LFE144:
 3046              		.section	.text.HAL_RCCEx_CRSWaitSynchronization,"ax",%progbits
 3047              		.align	1
 3048              		.global	HAL_RCCEx_CRSWaitSynchronization
 3049              		.syntax unified
 3050              		.thumb
 3051              		.thumb_func
 3053              	HAL_RCCEx_CRSWaitSynchronization:
 3054              	.LVL304:
 3055              	.LFB145:
1630:Drivers/STM32G4xx_HAL_Driver/Src/stm32g4xx_hal_rcc_ex.c **** 
1631:Drivers/STM32G4xx_HAL_Driver/Src/stm32g4xx_hal_rcc_ex.c **** /**
1632:Drivers/STM32G4xx_HAL_Driver/Src/stm32g4xx_hal_rcc_ex.c **** * @brief Wait for CRS Synchronization status.
1633:Drivers/STM32G4xx_HAL_Driver/Src/stm32g4xx_hal_rcc_ex.c **** * @param Timeout  Duration of the timeout
1634:Drivers/STM32G4xx_HAL_Driver/Src/stm32g4xx_hal_rcc_ex.c **** * @note  Timeout is based on the maximum time to receive a SYNC event based on synchronization
1635:Drivers/STM32G4xx_HAL_Driver/Src/stm32g4xx_hal_rcc_ex.c **** *        frequency.
1636:Drivers/STM32G4xx_HAL_Driver/Src/stm32g4xx_hal_rcc_ex.c **** * @note    If Timeout set to HAL_MAX_DELAY, HAL_TIMEOUT will be never returned.
1637:Drivers/STM32G4xx_HAL_Driver/Src/stm32g4xx_hal_rcc_ex.c **** * @retval Combination of Synchronization status
1638:Drivers/STM32G4xx_HAL_Driver/Src/stm32g4xx_hal_rcc_ex.c **** *          This parameter can be a combination of the following values:
1639:Drivers/STM32G4xx_HAL_Driver/Src/stm32g4xx_hal_rcc_ex.c **** *            @arg @ref RCC_CRS_TIMEOUT
1640:Drivers/STM32G4xx_HAL_Driver/Src/stm32g4xx_hal_rcc_ex.c **** *            @arg @ref RCC_CRS_SYNCOK
ARM GAS  C:\Users\Nathan\AppData\Local\Temp\cc4vJDVg.s 			page 93


1641:Drivers/STM32G4xx_HAL_Driver/Src/stm32g4xx_hal_rcc_ex.c **** *            @arg @ref RCC_CRS_SYNCWARN
1642:Drivers/STM32G4xx_HAL_Driver/Src/stm32g4xx_hal_rcc_ex.c **** *            @arg @ref RCC_CRS_SYNCERR
1643:Drivers/STM32G4xx_HAL_Driver/Src/stm32g4xx_hal_rcc_ex.c **** *            @arg @ref RCC_CRS_SYNCMISS
1644:Drivers/STM32G4xx_HAL_Driver/Src/stm32g4xx_hal_rcc_ex.c **** *            @arg @ref RCC_CRS_TRIMOVF
1645:Drivers/STM32G4xx_HAL_Driver/Src/stm32g4xx_hal_rcc_ex.c **** */
1646:Drivers/STM32G4xx_HAL_Driver/Src/stm32g4xx_hal_rcc_ex.c **** uint32_t HAL_RCCEx_CRSWaitSynchronization(uint32_t Timeout)
1647:Drivers/STM32G4xx_HAL_Driver/Src/stm32g4xx_hal_rcc_ex.c **** {
 3056              		.loc 1 1647 1 is_stmt 1 view -0
 3057              		.cfi_startproc
 3058              		@ args = 0, pretend = 0, frame = 0
 3059              		@ frame_needed = 0, uses_anonymous_args = 0
 3060              		.loc 1 1647 1 is_stmt 0 view .LVU1006
 3061 0000 70B5     		push	{r4, r5, r6, lr}
 3062              		.cfi_def_cfa_offset 16
 3063              		.cfi_offset 4, -16
 3064              		.cfi_offset 5, -12
 3065              		.cfi_offset 6, -8
 3066              		.cfi_offset 14, -4
 3067 0002 0546     		mov	r5, r0
1648:Drivers/STM32G4xx_HAL_Driver/Src/stm32g4xx_hal_rcc_ex.c ****   uint32_t crsstatus = RCC_CRS_NONE;
 3068              		.loc 1 1648 3 is_stmt 1 view .LVU1007
 3069              	.LVL305:
1649:Drivers/STM32G4xx_HAL_Driver/Src/stm32g4xx_hal_rcc_ex.c ****   uint32_t tickstart;
 3070              		.loc 1 1649 3 view .LVU1008
1650:Drivers/STM32G4xx_HAL_Driver/Src/stm32g4xx_hal_rcc_ex.c **** 
1651:Drivers/STM32G4xx_HAL_Driver/Src/stm32g4xx_hal_rcc_ex.c ****   /* Get timeout */
1652:Drivers/STM32G4xx_HAL_Driver/Src/stm32g4xx_hal_rcc_ex.c ****   tickstart = HAL_GetTick();
 3071              		.loc 1 1652 3 view .LVU1009
 3072              		.loc 1 1652 15 is_stmt 0 view .LVU1010
 3073 0004 FFF7FEFF 		bl	HAL_GetTick
 3074              	.LVL306:
 3075              		.loc 1 1652 15 view .LVU1011
 3076 0008 0646     		mov	r6, r0
 3077              	.LVL307:
1648:Drivers/STM32G4xx_HAL_Driver/Src/stm32g4xx_hal_rcc_ex.c ****   uint32_t tickstart;
 3078              		.loc 1 1648 12 view .LVU1012
 3079 000a 0024     		movs	r4, #0
 3080 000c 0BE0     		b	.L275
 3081              	.LVL308:
 3082              	.L280:
1653:Drivers/STM32G4xx_HAL_Driver/Src/stm32g4xx_hal_rcc_ex.c **** 
1654:Drivers/STM32G4xx_HAL_Driver/Src/stm32g4xx_hal_rcc_ex.c ****   /* Wait for CRS flag or timeout detection */
1655:Drivers/STM32G4xx_HAL_Driver/Src/stm32g4xx_hal_rcc_ex.c ****   do
1656:Drivers/STM32G4xx_HAL_Driver/Src/stm32g4xx_hal_rcc_ex.c ****   {
1657:Drivers/STM32G4xx_HAL_Driver/Src/stm32g4xx_hal_rcc_ex.c ****     if(Timeout != HAL_MAX_DELAY)
1658:Drivers/STM32G4xx_HAL_Driver/Src/stm32g4xx_hal_rcc_ex.c ****     {
1659:Drivers/STM32G4xx_HAL_Driver/Src/stm32g4xx_hal_rcc_ex.c ****       if(((HAL_GetTick() - tickstart) > Timeout) || (Timeout == 0U))
 3083              		.loc 1 1659 7 is_stmt 1 view .LVU1013
 3084              		.loc 1 1659 12 is_stmt 0 view .LVU1014
 3085 000e FFF7FEFF 		bl	HAL_GetTick
 3086              	.LVL309:
 3087              		.loc 1 1659 26 discriminator 1 view .LVU1015
 3088 0012 801B     		subs	r0, r0, r6
 3089              		.loc 1 1659 9 discriminator 1 view .LVU1016
 3090 0014 A842     		cmp	r0, r5
 3091 0016 02D8     		bhi	.L276
 3092              		.loc 1 1659 50 discriminator 1 view .LVU1017
ARM GAS  C:\Users\Nathan\AppData\Local\Temp\cc4vJDVg.s 			page 94


 3093 0018 45B9     		cbnz	r5, .L268
1660:Drivers/STM32G4xx_HAL_Driver/Src/stm32g4xx_hal_rcc_ex.c ****       {
1661:Drivers/STM32G4xx_HAL_Driver/Src/stm32g4xx_hal_rcc_ex.c ****         crsstatus = RCC_CRS_TIMEOUT;
 3094              		.loc 1 1661 19 view .LVU1018
 3095 001a 0124     		movs	r4, #1
 3096              	.LVL310:
 3097              		.loc 1 1661 19 view .LVU1019
 3098 001c 06E0     		b	.L268
 3099              	.LVL311:
 3100              	.L276:
 3101              		.loc 1 1661 19 view .LVU1020
 3102 001e 0124     		movs	r4, #1
 3103              	.LVL312:
 3104              		.loc 1 1661 19 view .LVU1021
 3105 0020 04E0     		b	.L268
 3106              	.LVL313:
 3107              	.L274:
1662:Drivers/STM32G4xx_HAL_Driver/Src/stm32g4xx_hal_rcc_ex.c ****       }
1663:Drivers/STM32G4xx_HAL_Driver/Src/stm32g4xx_hal_rcc_ex.c ****     }
1664:Drivers/STM32G4xx_HAL_Driver/Src/stm32g4xx_hal_rcc_ex.c ****     /* Check CRS SYNCOK flag  */
1665:Drivers/STM32G4xx_HAL_Driver/Src/stm32g4xx_hal_rcc_ex.c ****     if(__HAL_RCC_CRS_GET_FLAG(RCC_CRS_FLAG_SYNCOK))
1666:Drivers/STM32G4xx_HAL_Driver/Src/stm32g4xx_hal_rcc_ex.c ****     {
1667:Drivers/STM32G4xx_HAL_Driver/Src/stm32g4xx_hal_rcc_ex.c ****       /* CRS SYNC event OK */
1668:Drivers/STM32G4xx_HAL_Driver/Src/stm32g4xx_hal_rcc_ex.c ****       crsstatus |= RCC_CRS_SYNCOK;
1669:Drivers/STM32G4xx_HAL_Driver/Src/stm32g4xx_hal_rcc_ex.c **** 
1670:Drivers/STM32G4xx_HAL_Driver/Src/stm32g4xx_hal_rcc_ex.c ****       /* Clear CRS SYNC event OK bit */
1671:Drivers/STM32G4xx_HAL_Driver/Src/stm32g4xx_hal_rcc_ex.c ****       __HAL_RCC_CRS_CLEAR_FLAG(RCC_CRS_FLAG_SYNCOK);
1672:Drivers/STM32G4xx_HAL_Driver/Src/stm32g4xx_hal_rcc_ex.c ****     }
1673:Drivers/STM32G4xx_HAL_Driver/Src/stm32g4xx_hal_rcc_ex.c **** 
1674:Drivers/STM32G4xx_HAL_Driver/Src/stm32g4xx_hal_rcc_ex.c ****     /* Check CRS SYNCWARN flag  */
1675:Drivers/STM32G4xx_HAL_Driver/Src/stm32g4xx_hal_rcc_ex.c ****     if(__HAL_RCC_CRS_GET_FLAG(RCC_CRS_FLAG_SYNCWARN))
1676:Drivers/STM32G4xx_HAL_Driver/Src/stm32g4xx_hal_rcc_ex.c ****     {
1677:Drivers/STM32G4xx_HAL_Driver/Src/stm32g4xx_hal_rcc_ex.c ****       /* CRS SYNC warning */
1678:Drivers/STM32G4xx_HAL_Driver/Src/stm32g4xx_hal_rcc_ex.c ****       crsstatus |= RCC_CRS_SYNCWARN;
1679:Drivers/STM32G4xx_HAL_Driver/Src/stm32g4xx_hal_rcc_ex.c **** 
1680:Drivers/STM32G4xx_HAL_Driver/Src/stm32g4xx_hal_rcc_ex.c ****       /* Clear CRS SYNCWARN bit */
1681:Drivers/STM32G4xx_HAL_Driver/Src/stm32g4xx_hal_rcc_ex.c ****       __HAL_RCC_CRS_CLEAR_FLAG(RCC_CRS_FLAG_SYNCWARN);
1682:Drivers/STM32G4xx_HAL_Driver/Src/stm32g4xx_hal_rcc_ex.c ****     }
1683:Drivers/STM32G4xx_HAL_Driver/Src/stm32g4xx_hal_rcc_ex.c **** 
1684:Drivers/STM32G4xx_HAL_Driver/Src/stm32g4xx_hal_rcc_ex.c ****     /* Check CRS TRIM overflow flag  */
1685:Drivers/STM32G4xx_HAL_Driver/Src/stm32g4xx_hal_rcc_ex.c ****     if(__HAL_RCC_CRS_GET_FLAG(RCC_CRS_FLAG_TRIMOVF))
1686:Drivers/STM32G4xx_HAL_Driver/Src/stm32g4xx_hal_rcc_ex.c ****     {
1687:Drivers/STM32G4xx_HAL_Driver/Src/stm32g4xx_hal_rcc_ex.c ****       /* CRS SYNC Error */
1688:Drivers/STM32G4xx_HAL_Driver/Src/stm32g4xx_hal_rcc_ex.c ****       crsstatus |= RCC_CRS_TRIMOVF;
1689:Drivers/STM32G4xx_HAL_Driver/Src/stm32g4xx_hal_rcc_ex.c **** 
1690:Drivers/STM32G4xx_HAL_Driver/Src/stm32g4xx_hal_rcc_ex.c ****       /* Clear CRS Error bit */
1691:Drivers/STM32G4xx_HAL_Driver/Src/stm32g4xx_hal_rcc_ex.c ****       __HAL_RCC_CRS_CLEAR_FLAG(RCC_CRS_FLAG_TRIMOVF);
1692:Drivers/STM32G4xx_HAL_Driver/Src/stm32g4xx_hal_rcc_ex.c ****     }
1693:Drivers/STM32G4xx_HAL_Driver/Src/stm32g4xx_hal_rcc_ex.c **** 
1694:Drivers/STM32G4xx_HAL_Driver/Src/stm32g4xx_hal_rcc_ex.c ****     /* Check CRS Error flag  */
1695:Drivers/STM32G4xx_HAL_Driver/Src/stm32g4xx_hal_rcc_ex.c ****     if(__HAL_RCC_CRS_GET_FLAG(RCC_CRS_FLAG_SYNCERR))
1696:Drivers/STM32G4xx_HAL_Driver/Src/stm32g4xx_hal_rcc_ex.c ****     {
1697:Drivers/STM32G4xx_HAL_Driver/Src/stm32g4xx_hal_rcc_ex.c ****       /* CRS SYNC Error */
1698:Drivers/STM32G4xx_HAL_Driver/Src/stm32g4xx_hal_rcc_ex.c ****       crsstatus |= RCC_CRS_SYNCERR;
1699:Drivers/STM32G4xx_HAL_Driver/Src/stm32g4xx_hal_rcc_ex.c **** 
1700:Drivers/STM32G4xx_HAL_Driver/Src/stm32g4xx_hal_rcc_ex.c ****       /* Clear CRS Error bit */
1701:Drivers/STM32G4xx_HAL_Driver/Src/stm32g4xx_hal_rcc_ex.c ****       __HAL_RCC_CRS_CLEAR_FLAG(RCC_CRS_FLAG_SYNCERR);
ARM GAS  C:\Users\Nathan\AppData\Local\Temp\cc4vJDVg.s 			page 95


1702:Drivers/STM32G4xx_HAL_Driver/Src/stm32g4xx_hal_rcc_ex.c ****     }
1703:Drivers/STM32G4xx_HAL_Driver/Src/stm32g4xx_hal_rcc_ex.c **** 
1704:Drivers/STM32G4xx_HAL_Driver/Src/stm32g4xx_hal_rcc_ex.c ****     /* Check CRS SYNC Missed flag  */
1705:Drivers/STM32G4xx_HAL_Driver/Src/stm32g4xx_hal_rcc_ex.c ****     if(__HAL_RCC_CRS_GET_FLAG(RCC_CRS_FLAG_SYNCMISS))
1706:Drivers/STM32G4xx_HAL_Driver/Src/stm32g4xx_hal_rcc_ex.c ****     {
1707:Drivers/STM32G4xx_HAL_Driver/Src/stm32g4xx_hal_rcc_ex.c ****       /* CRS SYNC Missed */
1708:Drivers/STM32G4xx_HAL_Driver/Src/stm32g4xx_hal_rcc_ex.c ****       crsstatus |= RCC_CRS_SYNCMISS;
1709:Drivers/STM32G4xx_HAL_Driver/Src/stm32g4xx_hal_rcc_ex.c **** 
1710:Drivers/STM32G4xx_HAL_Driver/Src/stm32g4xx_hal_rcc_ex.c ****       /* Clear CRS SYNC Missed bit */
1711:Drivers/STM32G4xx_HAL_Driver/Src/stm32g4xx_hal_rcc_ex.c ****       __HAL_RCC_CRS_CLEAR_FLAG(RCC_CRS_FLAG_SYNCMISS);
1712:Drivers/STM32G4xx_HAL_Driver/Src/stm32g4xx_hal_rcc_ex.c ****     }
1713:Drivers/STM32G4xx_HAL_Driver/Src/stm32g4xx_hal_rcc_ex.c **** 
1714:Drivers/STM32G4xx_HAL_Driver/Src/stm32g4xx_hal_rcc_ex.c ****     /* Check CRS Expected SYNC flag  */
1715:Drivers/STM32G4xx_HAL_Driver/Src/stm32g4xx_hal_rcc_ex.c ****     if(__HAL_RCC_CRS_GET_FLAG(RCC_CRS_FLAG_ESYNC))
1716:Drivers/STM32G4xx_HAL_Driver/Src/stm32g4xx_hal_rcc_ex.c ****     {
1717:Drivers/STM32G4xx_HAL_Driver/Src/stm32g4xx_hal_rcc_ex.c ****       /* frequency error counter reached a zero value */
1718:Drivers/STM32G4xx_HAL_Driver/Src/stm32g4xx_hal_rcc_ex.c ****       __HAL_RCC_CRS_CLEAR_FLAG(RCC_CRS_FLAG_ESYNC);
 3108              		.loc 1 1718 7 is_stmt 1 discriminator 4 view .LVU1022
1719:Drivers/STM32G4xx_HAL_Driver/Src/stm32g4xx_hal_rcc_ex.c ****     }
1720:Drivers/STM32G4xx_HAL_Driver/Src/stm32g4xx_hal_rcc_ex.c ****   } while(RCC_CRS_NONE == crsstatus);
 3109              		.loc 1 1720 24 view .LVU1023
 3110 0022 002C     		cmp	r4, #0
 3111 0024 3DD1     		bne	.L279
 3112              	.LVL314:
 3113              	.L275:
1655:Drivers/STM32G4xx_HAL_Driver/Src/stm32g4xx_hal_rcc_ex.c ****   {
 3114              		.loc 1 1655 3 view .LVU1024
1657:Drivers/STM32G4xx_HAL_Driver/Src/stm32g4xx_hal_rcc_ex.c ****     {
 3115              		.loc 1 1657 5 view .LVU1025
1657:Drivers/STM32G4xx_HAL_Driver/Src/stm32g4xx_hal_rcc_ex.c ****     {
 3116              		.loc 1 1657 7 is_stmt 0 view .LVU1026
 3117 0026 B5F1FF3F 		cmp	r5, #-1
 3118 002a F0D1     		bne	.L280
 3119              	.LVL315:
 3120              	.L268:
1665:Drivers/STM32G4xx_HAL_Driver/Src/stm32g4xx_hal_rcc_ex.c ****     {
 3121              		.loc 1 1665 5 is_stmt 1 view .LVU1027
1665:Drivers/STM32G4xx_HAL_Driver/Src/stm32g4xx_hal_rcc_ex.c ****     {
 3122              		.loc 1 1665 8 is_stmt 0 view .LVU1028
 3123 002c 1E4B     		ldr	r3, .L281
 3124 002e 9B68     		ldr	r3, [r3, #8]
1665:Drivers/STM32G4xx_HAL_Driver/Src/stm32g4xx_hal_rcc_ex.c ****     {
 3125              		.loc 1 1665 7 view .LVU1029
 3126 0030 13F0010F 		tst	r3, #1
 3127 0034 04D0     		beq	.L269
1668:Drivers/STM32G4xx_HAL_Driver/Src/stm32g4xx_hal_rcc_ex.c **** 
 3128              		.loc 1 1668 7 is_stmt 1 view .LVU1030
1668:Drivers/STM32G4xx_HAL_Driver/Src/stm32g4xx_hal_rcc_ex.c **** 
 3129              		.loc 1 1668 17 is_stmt 0 view .LVU1031
 3130 0036 44F00204 		orr	r4, r4, #2
 3131              	.LVL316:
1671:Drivers/STM32G4xx_HAL_Driver/Src/stm32g4xx_hal_rcc_ex.c ****     }
 3132              		.loc 1 1671 7 is_stmt 1 view .LVU1032
1671:Drivers/STM32G4xx_HAL_Driver/Src/stm32g4xx_hal_rcc_ex.c ****     }
 3133              		.loc 1 1671 7 view .LVU1033
1671:Drivers/STM32G4xx_HAL_Driver/Src/stm32g4xx_hal_rcc_ex.c ****     }
 3134              		.loc 1 1671 7 discriminator 2 view .LVU1034
ARM GAS  C:\Users\Nathan\AppData\Local\Temp\cc4vJDVg.s 			page 96


 3135 003a 1B4B     		ldr	r3, .L281
 3136 003c 0122     		movs	r2, #1
 3137 003e DA60     		str	r2, [r3, #12]
 3138              	.L269:
1671:Drivers/STM32G4xx_HAL_Driver/Src/stm32g4xx_hal_rcc_ex.c ****     }
 3139              		.loc 1 1671 7 discriminator 4 view .LVU1035
1675:Drivers/STM32G4xx_HAL_Driver/Src/stm32g4xx_hal_rcc_ex.c ****     {
 3140              		.loc 1 1675 5 view .LVU1036
1675:Drivers/STM32G4xx_HAL_Driver/Src/stm32g4xx_hal_rcc_ex.c ****     {
 3141              		.loc 1 1675 8 is_stmt 0 view .LVU1037
 3142 0040 194B     		ldr	r3, .L281
 3143 0042 9B68     		ldr	r3, [r3, #8]
1675:Drivers/STM32G4xx_HAL_Driver/Src/stm32g4xx_hal_rcc_ex.c ****     {
 3144              		.loc 1 1675 7 view .LVU1038
 3145 0044 13F0020F 		tst	r3, #2
 3146 0048 04D0     		beq	.L270
1678:Drivers/STM32G4xx_HAL_Driver/Src/stm32g4xx_hal_rcc_ex.c **** 
 3147              		.loc 1 1678 7 is_stmt 1 view .LVU1039
1678:Drivers/STM32G4xx_HAL_Driver/Src/stm32g4xx_hal_rcc_ex.c **** 
 3148              		.loc 1 1678 17 is_stmt 0 view .LVU1040
 3149 004a 44F00404 		orr	r4, r4, #4
 3150              	.LVL317:
1681:Drivers/STM32G4xx_HAL_Driver/Src/stm32g4xx_hal_rcc_ex.c ****     }
 3151              		.loc 1 1681 7 is_stmt 1 view .LVU1041
1681:Drivers/STM32G4xx_HAL_Driver/Src/stm32g4xx_hal_rcc_ex.c ****     }
 3152              		.loc 1 1681 7 view .LVU1042
1681:Drivers/STM32G4xx_HAL_Driver/Src/stm32g4xx_hal_rcc_ex.c ****     }
 3153              		.loc 1 1681 7 discriminator 2 view .LVU1043
 3154 004e 164B     		ldr	r3, .L281
 3155 0050 0222     		movs	r2, #2
 3156 0052 DA60     		str	r2, [r3, #12]
 3157              	.L270:
1681:Drivers/STM32G4xx_HAL_Driver/Src/stm32g4xx_hal_rcc_ex.c ****     }
 3158              		.loc 1 1681 7 discriminator 4 view .LVU1044
1685:Drivers/STM32G4xx_HAL_Driver/Src/stm32g4xx_hal_rcc_ex.c ****     {
 3159              		.loc 1 1685 5 view .LVU1045
1685:Drivers/STM32G4xx_HAL_Driver/Src/stm32g4xx_hal_rcc_ex.c ****     {
 3160              		.loc 1 1685 8 is_stmt 0 view .LVU1046
 3161 0054 144B     		ldr	r3, .L281
 3162 0056 9B68     		ldr	r3, [r3, #8]
1685:Drivers/STM32G4xx_HAL_Driver/Src/stm32g4xx_hal_rcc_ex.c ****     {
 3163              		.loc 1 1685 7 view .LVU1047
 3164 0058 13F4806F 		tst	r3, #1024
 3165 005c 04D0     		beq	.L271
1688:Drivers/STM32G4xx_HAL_Driver/Src/stm32g4xx_hal_rcc_ex.c **** 
 3166              		.loc 1 1688 7 is_stmt 1 view .LVU1048
1688:Drivers/STM32G4xx_HAL_Driver/Src/stm32g4xx_hal_rcc_ex.c **** 
 3167              		.loc 1 1688 17 is_stmt 0 view .LVU1049
 3168 005e 44F02004 		orr	r4, r4, #32
 3169              	.LVL318:
1691:Drivers/STM32G4xx_HAL_Driver/Src/stm32g4xx_hal_rcc_ex.c ****     }
 3170              		.loc 1 1691 7 is_stmt 1 view .LVU1050
1691:Drivers/STM32G4xx_HAL_Driver/Src/stm32g4xx_hal_rcc_ex.c ****     }
 3171              		.loc 1 1691 7 view .LVU1051
1691:Drivers/STM32G4xx_HAL_Driver/Src/stm32g4xx_hal_rcc_ex.c ****     }
 3172              		.loc 1 1691 7 discriminator 1 view .LVU1052
 3173 0062 114B     		ldr	r3, .L281
ARM GAS  C:\Users\Nathan\AppData\Local\Temp\cc4vJDVg.s 			page 97


 3174 0064 0422     		movs	r2, #4
 3175 0066 DA60     		str	r2, [r3, #12]
 3176              	.L271:
1691:Drivers/STM32G4xx_HAL_Driver/Src/stm32g4xx_hal_rcc_ex.c ****     }
 3177              		.loc 1 1691 7 discriminator 4 view .LVU1053
1695:Drivers/STM32G4xx_HAL_Driver/Src/stm32g4xx_hal_rcc_ex.c ****     {
 3178              		.loc 1 1695 5 view .LVU1054
1695:Drivers/STM32G4xx_HAL_Driver/Src/stm32g4xx_hal_rcc_ex.c ****     {
 3179              		.loc 1 1695 8 is_stmt 0 view .LVU1055
 3180 0068 0F4B     		ldr	r3, .L281
 3181 006a 9B68     		ldr	r3, [r3, #8]
1695:Drivers/STM32G4xx_HAL_Driver/Src/stm32g4xx_hal_rcc_ex.c ****     {
 3182              		.loc 1 1695 7 view .LVU1056
 3183 006c 13F4807F 		tst	r3, #256
 3184 0070 04D0     		beq	.L272
1698:Drivers/STM32G4xx_HAL_Driver/Src/stm32g4xx_hal_rcc_ex.c **** 
 3185              		.loc 1 1698 7 is_stmt 1 view .LVU1057
1698:Drivers/STM32G4xx_HAL_Driver/Src/stm32g4xx_hal_rcc_ex.c **** 
 3186              		.loc 1 1698 17 is_stmt 0 view .LVU1058
 3187 0072 44F00804 		orr	r4, r4, #8
 3188              	.LVL319:
1701:Drivers/STM32G4xx_HAL_Driver/Src/stm32g4xx_hal_rcc_ex.c ****     }
 3189              		.loc 1 1701 7 is_stmt 1 view .LVU1059
1701:Drivers/STM32G4xx_HAL_Driver/Src/stm32g4xx_hal_rcc_ex.c ****     }
 3190              		.loc 1 1701 7 view .LVU1060
1701:Drivers/STM32G4xx_HAL_Driver/Src/stm32g4xx_hal_rcc_ex.c ****     }
 3191              		.loc 1 1701 7 discriminator 1 view .LVU1061
 3192 0076 0C4B     		ldr	r3, .L281
 3193 0078 0422     		movs	r2, #4
 3194 007a DA60     		str	r2, [r3, #12]
 3195              	.L272:
1701:Drivers/STM32G4xx_HAL_Driver/Src/stm32g4xx_hal_rcc_ex.c ****     }
 3196              		.loc 1 1701 7 discriminator 4 view .LVU1062
1705:Drivers/STM32G4xx_HAL_Driver/Src/stm32g4xx_hal_rcc_ex.c ****     {
 3197              		.loc 1 1705 5 view .LVU1063
1705:Drivers/STM32G4xx_HAL_Driver/Src/stm32g4xx_hal_rcc_ex.c ****     {
 3198              		.loc 1 1705 8 is_stmt 0 view .LVU1064
 3199 007c 0A4B     		ldr	r3, .L281
 3200 007e 9B68     		ldr	r3, [r3, #8]
1705:Drivers/STM32G4xx_HAL_Driver/Src/stm32g4xx_hal_rcc_ex.c ****     {
 3201              		.loc 1 1705 7 view .LVU1065
 3202 0080 13F4007F 		tst	r3, #512
 3203 0084 04D0     		beq	.L273
1708:Drivers/STM32G4xx_HAL_Driver/Src/stm32g4xx_hal_rcc_ex.c **** 
 3204              		.loc 1 1708 7 is_stmt 1 view .LVU1066
1708:Drivers/STM32G4xx_HAL_Driver/Src/stm32g4xx_hal_rcc_ex.c **** 
 3205              		.loc 1 1708 17 is_stmt 0 view .LVU1067
 3206 0086 44F01004 		orr	r4, r4, #16
 3207              	.LVL320:
1711:Drivers/STM32G4xx_HAL_Driver/Src/stm32g4xx_hal_rcc_ex.c ****     }
 3208              		.loc 1 1711 7 is_stmt 1 view .LVU1068
1711:Drivers/STM32G4xx_HAL_Driver/Src/stm32g4xx_hal_rcc_ex.c ****     }
 3209              		.loc 1 1711 7 view .LVU1069
1711:Drivers/STM32G4xx_HAL_Driver/Src/stm32g4xx_hal_rcc_ex.c ****     }
 3210              		.loc 1 1711 7 discriminator 1 view .LVU1070
 3211 008a 074B     		ldr	r3, .L281
 3212 008c 0422     		movs	r2, #4
ARM GAS  C:\Users\Nathan\AppData\Local\Temp\cc4vJDVg.s 			page 98


 3213 008e DA60     		str	r2, [r3, #12]
 3214              	.L273:
1711:Drivers/STM32G4xx_HAL_Driver/Src/stm32g4xx_hal_rcc_ex.c ****     }
 3215              		.loc 1 1711 7 discriminator 4 view .LVU1071
1715:Drivers/STM32G4xx_HAL_Driver/Src/stm32g4xx_hal_rcc_ex.c ****     {
 3216              		.loc 1 1715 5 view .LVU1072
1715:Drivers/STM32G4xx_HAL_Driver/Src/stm32g4xx_hal_rcc_ex.c ****     {
 3217              		.loc 1 1715 8 is_stmt 0 view .LVU1073
 3218 0090 054B     		ldr	r3, .L281
 3219 0092 9B68     		ldr	r3, [r3, #8]
1715:Drivers/STM32G4xx_HAL_Driver/Src/stm32g4xx_hal_rcc_ex.c ****     {
 3220              		.loc 1 1715 7 view .LVU1074
 3221 0094 13F0080F 		tst	r3, #8
 3222 0098 C3D0     		beq	.L274
1718:Drivers/STM32G4xx_HAL_Driver/Src/stm32g4xx_hal_rcc_ex.c ****     }
 3223              		.loc 1 1718 7 is_stmt 1 view .LVU1075
1718:Drivers/STM32G4xx_HAL_Driver/Src/stm32g4xx_hal_rcc_ex.c ****     }
 3224              		.loc 1 1718 7 view .LVU1076
1718:Drivers/STM32G4xx_HAL_Driver/Src/stm32g4xx_hal_rcc_ex.c ****     }
 3225              		.loc 1 1718 7 discriminator 2 view .LVU1077
 3226 009a 034B     		ldr	r3, .L281
 3227 009c 0822     		movs	r2, #8
 3228 009e DA60     		str	r2, [r3, #12]
 3229 00a0 BFE7     		b	.L274
 3230              	.L279:
1721:Drivers/STM32G4xx_HAL_Driver/Src/stm32g4xx_hal_rcc_ex.c **** 
1722:Drivers/STM32G4xx_HAL_Driver/Src/stm32g4xx_hal_rcc_ex.c ****   return crsstatus;
 3231              		.loc 1 1722 3 view .LVU1078
1723:Drivers/STM32G4xx_HAL_Driver/Src/stm32g4xx_hal_rcc_ex.c **** }
 3232              		.loc 1 1723 1 is_stmt 0 view .LVU1079
 3233 00a2 2046     		mov	r0, r4
 3234 00a4 70BD     		pop	{r4, r5, r6, pc}
 3235              	.LVL321:
 3236              	.L282:
 3237              		.loc 1 1723 1 view .LVU1080
 3238 00a6 00BF     		.align	2
 3239              	.L281:
 3240 00a8 00200040 		.word	1073750016
 3241              		.cfi_endproc
 3242              	.LFE145:
 3244              		.section	.text.HAL_RCCEx_CRS_SyncOkCallback,"ax",%progbits
 3245              		.align	1
 3246              		.weak	HAL_RCCEx_CRS_SyncOkCallback
 3247              		.syntax unified
 3248              		.thumb
 3249              		.thumb_func
 3251              	HAL_RCCEx_CRS_SyncOkCallback:
 3252              	.LFB147:
1724:Drivers/STM32G4xx_HAL_Driver/Src/stm32g4xx_hal_rcc_ex.c **** 
1725:Drivers/STM32G4xx_HAL_Driver/Src/stm32g4xx_hal_rcc_ex.c **** /**
1726:Drivers/STM32G4xx_HAL_Driver/Src/stm32g4xx_hal_rcc_ex.c ****   * @brief Handle the Clock Recovery System interrupt request.
1727:Drivers/STM32G4xx_HAL_Driver/Src/stm32g4xx_hal_rcc_ex.c ****   * @retval None
1728:Drivers/STM32G4xx_HAL_Driver/Src/stm32g4xx_hal_rcc_ex.c ****   */
1729:Drivers/STM32G4xx_HAL_Driver/Src/stm32g4xx_hal_rcc_ex.c **** void HAL_RCCEx_CRS_IRQHandler(void)
1730:Drivers/STM32G4xx_HAL_Driver/Src/stm32g4xx_hal_rcc_ex.c **** {
1731:Drivers/STM32G4xx_HAL_Driver/Src/stm32g4xx_hal_rcc_ex.c ****   uint32_t crserror = RCC_CRS_NONE;
1732:Drivers/STM32G4xx_HAL_Driver/Src/stm32g4xx_hal_rcc_ex.c ****   /* Get current IT flags and IT sources values */
ARM GAS  C:\Users\Nathan\AppData\Local\Temp\cc4vJDVg.s 			page 99


1733:Drivers/STM32G4xx_HAL_Driver/Src/stm32g4xx_hal_rcc_ex.c ****   uint32_t itflags = READ_REG(CRS->ISR);
1734:Drivers/STM32G4xx_HAL_Driver/Src/stm32g4xx_hal_rcc_ex.c ****   uint32_t itsources = READ_REG(CRS->CR);
1735:Drivers/STM32G4xx_HAL_Driver/Src/stm32g4xx_hal_rcc_ex.c **** 
1736:Drivers/STM32G4xx_HAL_Driver/Src/stm32g4xx_hal_rcc_ex.c ****   /* Check CRS SYNCOK flag  */
1737:Drivers/STM32G4xx_HAL_Driver/Src/stm32g4xx_hal_rcc_ex.c ****   if(((itflags & RCC_CRS_FLAG_SYNCOK) != 0U) && ((itsources & RCC_CRS_IT_SYNCOK) != 0U))
1738:Drivers/STM32G4xx_HAL_Driver/Src/stm32g4xx_hal_rcc_ex.c ****   {
1739:Drivers/STM32G4xx_HAL_Driver/Src/stm32g4xx_hal_rcc_ex.c ****     /* Clear CRS SYNC event OK flag */
1740:Drivers/STM32G4xx_HAL_Driver/Src/stm32g4xx_hal_rcc_ex.c ****     WRITE_REG(CRS->ICR, CRS_ICR_SYNCOKC);
1741:Drivers/STM32G4xx_HAL_Driver/Src/stm32g4xx_hal_rcc_ex.c **** 
1742:Drivers/STM32G4xx_HAL_Driver/Src/stm32g4xx_hal_rcc_ex.c ****     /* user callback */
1743:Drivers/STM32G4xx_HAL_Driver/Src/stm32g4xx_hal_rcc_ex.c ****     HAL_RCCEx_CRS_SyncOkCallback();
1744:Drivers/STM32G4xx_HAL_Driver/Src/stm32g4xx_hal_rcc_ex.c ****   }
1745:Drivers/STM32G4xx_HAL_Driver/Src/stm32g4xx_hal_rcc_ex.c ****   /* Check CRS SYNCWARN flag  */
1746:Drivers/STM32G4xx_HAL_Driver/Src/stm32g4xx_hal_rcc_ex.c ****   else if(((itflags & RCC_CRS_FLAG_SYNCWARN) != 0U) && ((itsources & RCC_CRS_IT_SYNCWARN) != 0U))
1747:Drivers/STM32G4xx_HAL_Driver/Src/stm32g4xx_hal_rcc_ex.c ****   {
1748:Drivers/STM32G4xx_HAL_Driver/Src/stm32g4xx_hal_rcc_ex.c ****     /* Clear CRS SYNCWARN flag */
1749:Drivers/STM32G4xx_HAL_Driver/Src/stm32g4xx_hal_rcc_ex.c ****     WRITE_REG(CRS->ICR, CRS_ICR_SYNCWARNC);
1750:Drivers/STM32G4xx_HAL_Driver/Src/stm32g4xx_hal_rcc_ex.c **** 
1751:Drivers/STM32G4xx_HAL_Driver/Src/stm32g4xx_hal_rcc_ex.c ****     /* user callback */
1752:Drivers/STM32G4xx_HAL_Driver/Src/stm32g4xx_hal_rcc_ex.c ****     HAL_RCCEx_CRS_SyncWarnCallback();
1753:Drivers/STM32G4xx_HAL_Driver/Src/stm32g4xx_hal_rcc_ex.c ****   }
1754:Drivers/STM32G4xx_HAL_Driver/Src/stm32g4xx_hal_rcc_ex.c ****   /* Check CRS Expected SYNC flag  */
1755:Drivers/STM32G4xx_HAL_Driver/Src/stm32g4xx_hal_rcc_ex.c ****   else if(((itflags & RCC_CRS_FLAG_ESYNC) != 0U) && ((itsources & RCC_CRS_IT_ESYNC) != 0U))
1756:Drivers/STM32G4xx_HAL_Driver/Src/stm32g4xx_hal_rcc_ex.c ****   {
1757:Drivers/STM32G4xx_HAL_Driver/Src/stm32g4xx_hal_rcc_ex.c ****     /* frequency error counter reached a zero value */
1758:Drivers/STM32G4xx_HAL_Driver/Src/stm32g4xx_hal_rcc_ex.c ****     WRITE_REG(CRS->ICR, CRS_ICR_ESYNCC);
1759:Drivers/STM32G4xx_HAL_Driver/Src/stm32g4xx_hal_rcc_ex.c **** 
1760:Drivers/STM32G4xx_HAL_Driver/Src/stm32g4xx_hal_rcc_ex.c ****     /* user callback */
1761:Drivers/STM32G4xx_HAL_Driver/Src/stm32g4xx_hal_rcc_ex.c ****     HAL_RCCEx_CRS_ExpectedSyncCallback();
1762:Drivers/STM32G4xx_HAL_Driver/Src/stm32g4xx_hal_rcc_ex.c ****   }
1763:Drivers/STM32G4xx_HAL_Driver/Src/stm32g4xx_hal_rcc_ex.c ****   /* Check CRS Error flags  */
1764:Drivers/STM32G4xx_HAL_Driver/Src/stm32g4xx_hal_rcc_ex.c ****   else
1765:Drivers/STM32G4xx_HAL_Driver/Src/stm32g4xx_hal_rcc_ex.c ****   {
1766:Drivers/STM32G4xx_HAL_Driver/Src/stm32g4xx_hal_rcc_ex.c ****     if(((itflags & RCC_CRS_FLAG_ERR) != 0U) && ((itsources & RCC_CRS_IT_ERR) != 0U))
1767:Drivers/STM32G4xx_HAL_Driver/Src/stm32g4xx_hal_rcc_ex.c ****     {
1768:Drivers/STM32G4xx_HAL_Driver/Src/stm32g4xx_hal_rcc_ex.c ****       if((itflags & RCC_CRS_FLAG_SYNCERR) != 0U)
1769:Drivers/STM32G4xx_HAL_Driver/Src/stm32g4xx_hal_rcc_ex.c ****       {
1770:Drivers/STM32G4xx_HAL_Driver/Src/stm32g4xx_hal_rcc_ex.c ****         crserror |= RCC_CRS_SYNCERR;
1771:Drivers/STM32G4xx_HAL_Driver/Src/stm32g4xx_hal_rcc_ex.c ****       }
1772:Drivers/STM32G4xx_HAL_Driver/Src/stm32g4xx_hal_rcc_ex.c ****       if((itflags & RCC_CRS_FLAG_SYNCMISS) != 0U)
1773:Drivers/STM32G4xx_HAL_Driver/Src/stm32g4xx_hal_rcc_ex.c ****       {
1774:Drivers/STM32G4xx_HAL_Driver/Src/stm32g4xx_hal_rcc_ex.c ****         crserror |= RCC_CRS_SYNCMISS;
1775:Drivers/STM32G4xx_HAL_Driver/Src/stm32g4xx_hal_rcc_ex.c ****       }
1776:Drivers/STM32G4xx_HAL_Driver/Src/stm32g4xx_hal_rcc_ex.c ****       if((itflags & RCC_CRS_FLAG_TRIMOVF) != 0U)
1777:Drivers/STM32G4xx_HAL_Driver/Src/stm32g4xx_hal_rcc_ex.c ****       {
1778:Drivers/STM32G4xx_HAL_Driver/Src/stm32g4xx_hal_rcc_ex.c ****         crserror |= RCC_CRS_TRIMOVF;
1779:Drivers/STM32G4xx_HAL_Driver/Src/stm32g4xx_hal_rcc_ex.c ****       }
1780:Drivers/STM32G4xx_HAL_Driver/Src/stm32g4xx_hal_rcc_ex.c **** 
1781:Drivers/STM32G4xx_HAL_Driver/Src/stm32g4xx_hal_rcc_ex.c ****       /* Clear CRS Error flags */
1782:Drivers/STM32G4xx_HAL_Driver/Src/stm32g4xx_hal_rcc_ex.c ****       WRITE_REG(CRS->ICR, CRS_ICR_ERRC);
1783:Drivers/STM32G4xx_HAL_Driver/Src/stm32g4xx_hal_rcc_ex.c **** 
1784:Drivers/STM32G4xx_HAL_Driver/Src/stm32g4xx_hal_rcc_ex.c ****       /* user error callback */
1785:Drivers/STM32G4xx_HAL_Driver/Src/stm32g4xx_hal_rcc_ex.c ****       HAL_RCCEx_CRS_ErrorCallback(crserror);
1786:Drivers/STM32G4xx_HAL_Driver/Src/stm32g4xx_hal_rcc_ex.c ****     }
1787:Drivers/STM32G4xx_HAL_Driver/Src/stm32g4xx_hal_rcc_ex.c ****   }
1788:Drivers/STM32G4xx_HAL_Driver/Src/stm32g4xx_hal_rcc_ex.c **** }
1789:Drivers/STM32G4xx_HAL_Driver/Src/stm32g4xx_hal_rcc_ex.c **** 
ARM GAS  C:\Users\Nathan\AppData\Local\Temp\cc4vJDVg.s 			page 100


1790:Drivers/STM32G4xx_HAL_Driver/Src/stm32g4xx_hal_rcc_ex.c **** /**
1791:Drivers/STM32G4xx_HAL_Driver/Src/stm32g4xx_hal_rcc_ex.c ****   * @brief  RCCEx Clock Recovery System SYNCOK interrupt callback.
1792:Drivers/STM32G4xx_HAL_Driver/Src/stm32g4xx_hal_rcc_ex.c ****   * @retval none
1793:Drivers/STM32G4xx_HAL_Driver/Src/stm32g4xx_hal_rcc_ex.c ****   */
1794:Drivers/STM32G4xx_HAL_Driver/Src/stm32g4xx_hal_rcc_ex.c **** __weak void HAL_RCCEx_CRS_SyncOkCallback(void)
1795:Drivers/STM32G4xx_HAL_Driver/Src/stm32g4xx_hal_rcc_ex.c **** {
 3253              		.loc 1 1795 1 is_stmt 1 view -0
 3254              		.cfi_startproc
 3255              		@ args = 0, pretend = 0, frame = 0
 3256              		@ frame_needed = 0, uses_anonymous_args = 0
 3257              		@ link register save eliminated.
1796:Drivers/STM32G4xx_HAL_Driver/Src/stm32g4xx_hal_rcc_ex.c ****   /* NOTE : This function should not be modified, when the callback is needed,
1797:Drivers/STM32G4xx_HAL_Driver/Src/stm32g4xx_hal_rcc_ex.c ****             the @ref HAL_RCCEx_CRS_SyncOkCallback should be implemented in the user file
1798:Drivers/STM32G4xx_HAL_Driver/Src/stm32g4xx_hal_rcc_ex.c ****    */
1799:Drivers/STM32G4xx_HAL_Driver/Src/stm32g4xx_hal_rcc_ex.c **** }
 3258              		.loc 1 1799 1 view .LVU1082
 3259 0000 7047     		bx	lr
 3260              		.cfi_endproc
 3261              	.LFE147:
 3263              		.section	.text.HAL_RCCEx_CRS_SyncWarnCallback,"ax",%progbits
 3264              		.align	1
 3265              		.weak	HAL_RCCEx_CRS_SyncWarnCallback
 3266              		.syntax unified
 3267              		.thumb
 3268              		.thumb_func
 3270              	HAL_RCCEx_CRS_SyncWarnCallback:
 3271              	.LFB148:
1800:Drivers/STM32G4xx_HAL_Driver/Src/stm32g4xx_hal_rcc_ex.c **** 
1801:Drivers/STM32G4xx_HAL_Driver/Src/stm32g4xx_hal_rcc_ex.c **** /**
1802:Drivers/STM32G4xx_HAL_Driver/Src/stm32g4xx_hal_rcc_ex.c ****   * @brief  RCCEx Clock Recovery System SYNCWARN interrupt callback.
1803:Drivers/STM32G4xx_HAL_Driver/Src/stm32g4xx_hal_rcc_ex.c ****   * @retval none
1804:Drivers/STM32G4xx_HAL_Driver/Src/stm32g4xx_hal_rcc_ex.c ****   */
1805:Drivers/STM32G4xx_HAL_Driver/Src/stm32g4xx_hal_rcc_ex.c **** __weak void HAL_RCCEx_CRS_SyncWarnCallback(void)
1806:Drivers/STM32G4xx_HAL_Driver/Src/stm32g4xx_hal_rcc_ex.c **** {
 3272              		.loc 1 1806 1 view -0
 3273              		.cfi_startproc
 3274              		@ args = 0, pretend = 0, frame = 0
 3275              		@ frame_needed = 0, uses_anonymous_args = 0
 3276              		@ link register save eliminated.
1807:Drivers/STM32G4xx_HAL_Driver/Src/stm32g4xx_hal_rcc_ex.c ****   /* NOTE : This function should not be modified, when the callback is needed,
1808:Drivers/STM32G4xx_HAL_Driver/Src/stm32g4xx_hal_rcc_ex.c ****             the @ref HAL_RCCEx_CRS_SyncWarnCallback should be implemented in the user file
1809:Drivers/STM32G4xx_HAL_Driver/Src/stm32g4xx_hal_rcc_ex.c ****    */
1810:Drivers/STM32G4xx_HAL_Driver/Src/stm32g4xx_hal_rcc_ex.c **** }
 3277              		.loc 1 1810 1 view .LVU1084
 3278 0000 7047     		bx	lr
 3279              		.cfi_endproc
 3280              	.LFE148:
 3282              		.section	.text.HAL_RCCEx_CRS_ExpectedSyncCallback,"ax",%progbits
 3283              		.align	1
 3284              		.weak	HAL_RCCEx_CRS_ExpectedSyncCallback
 3285              		.syntax unified
 3286              		.thumb
 3287              		.thumb_func
 3289              	HAL_RCCEx_CRS_ExpectedSyncCallback:
 3290              	.LFB149:
1811:Drivers/STM32G4xx_HAL_Driver/Src/stm32g4xx_hal_rcc_ex.c **** 
1812:Drivers/STM32G4xx_HAL_Driver/Src/stm32g4xx_hal_rcc_ex.c **** /**
ARM GAS  C:\Users\Nathan\AppData\Local\Temp\cc4vJDVg.s 			page 101


1813:Drivers/STM32G4xx_HAL_Driver/Src/stm32g4xx_hal_rcc_ex.c ****   * @brief  RCCEx Clock Recovery System Expected SYNC interrupt callback.
1814:Drivers/STM32G4xx_HAL_Driver/Src/stm32g4xx_hal_rcc_ex.c ****   * @retval none
1815:Drivers/STM32G4xx_HAL_Driver/Src/stm32g4xx_hal_rcc_ex.c ****   */
1816:Drivers/STM32G4xx_HAL_Driver/Src/stm32g4xx_hal_rcc_ex.c **** __weak void HAL_RCCEx_CRS_ExpectedSyncCallback(void)
1817:Drivers/STM32G4xx_HAL_Driver/Src/stm32g4xx_hal_rcc_ex.c **** {
 3291              		.loc 1 1817 1 view -0
 3292              		.cfi_startproc
 3293              		@ args = 0, pretend = 0, frame = 0
 3294              		@ frame_needed = 0, uses_anonymous_args = 0
 3295              		@ link register save eliminated.
1818:Drivers/STM32G4xx_HAL_Driver/Src/stm32g4xx_hal_rcc_ex.c ****   /* NOTE : This function should not be modified, when the callback is needed,
1819:Drivers/STM32G4xx_HAL_Driver/Src/stm32g4xx_hal_rcc_ex.c ****             the @ref HAL_RCCEx_CRS_ExpectedSyncCallback should be implemented in the user file
1820:Drivers/STM32G4xx_HAL_Driver/Src/stm32g4xx_hal_rcc_ex.c ****    */
1821:Drivers/STM32G4xx_HAL_Driver/Src/stm32g4xx_hal_rcc_ex.c **** }
 3296              		.loc 1 1821 1 view .LVU1086
 3297 0000 7047     		bx	lr
 3298              		.cfi_endproc
 3299              	.LFE149:
 3301              		.section	.text.HAL_RCCEx_CRS_ErrorCallback,"ax",%progbits
 3302              		.align	1
 3303              		.weak	HAL_RCCEx_CRS_ErrorCallback
 3304              		.syntax unified
 3305              		.thumb
 3306              		.thumb_func
 3308              	HAL_RCCEx_CRS_ErrorCallback:
 3309              	.LVL322:
 3310              	.LFB150:
1822:Drivers/STM32G4xx_HAL_Driver/Src/stm32g4xx_hal_rcc_ex.c **** 
1823:Drivers/STM32G4xx_HAL_Driver/Src/stm32g4xx_hal_rcc_ex.c **** /**
1824:Drivers/STM32G4xx_HAL_Driver/Src/stm32g4xx_hal_rcc_ex.c ****   * @brief  RCCEx Clock Recovery System Error interrupt callback.
1825:Drivers/STM32G4xx_HAL_Driver/Src/stm32g4xx_hal_rcc_ex.c ****   * @param  Error Combination of Error status.
1826:Drivers/STM32G4xx_HAL_Driver/Src/stm32g4xx_hal_rcc_ex.c ****   *         This parameter can be a combination of the following values:
1827:Drivers/STM32G4xx_HAL_Driver/Src/stm32g4xx_hal_rcc_ex.c ****   *           @arg @ref RCC_CRS_SYNCERR
1828:Drivers/STM32G4xx_HAL_Driver/Src/stm32g4xx_hal_rcc_ex.c ****   *           @arg @ref RCC_CRS_SYNCMISS
1829:Drivers/STM32G4xx_HAL_Driver/Src/stm32g4xx_hal_rcc_ex.c ****   *           @arg @ref RCC_CRS_TRIMOVF
1830:Drivers/STM32G4xx_HAL_Driver/Src/stm32g4xx_hal_rcc_ex.c ****   * @retval none
1831:Drivers/STM32G4xx_HAL_Driver/Src/stm32g4xx_hal_rcc_ex.c ****   */
1832:Drivers/STM32G4xx_HAL_Driver/Src/stm32g4xx_hal_rcc_ex.c **** __weak void HAL_RCCEx_CRS_ErrorCallback(uint32_t Error)
1833:Drivers/STM32G4xx_HAL_Driver/Src/stm32g4xx_hal_rcc_ex.c **** {
 3311              		.loc 1 1833 1 view -0
 3312              		.cfi_startproc
 3313              		@ args = 0, pretend = 0, frame = 0
 3314              		@ frame_needed = 0, uses_anonymous_args = 0
 3315              		@ link register save eliminated.
1834:Drivers/STM32G4xx_HAL_Driver/Src/stm32g4xx_hal_rcc_ex.c ****   /* Prevent unused argument(s) compilation warning */
1835:Drivers/STM32G4xx_HAL_Driver/Src/stm32g4xx_hal_rcc_ex.c ****   UNUSED(Error);
 3316              		.loc 1 1835 3 view .LVU1088
1836:Drivers/STM32G4xx_HAL_Driver/Src/stm32g4xx_hal_rcc_ex.c **** 
1837:Drivers/STM32G4xx_HAL_Driver/Src/stm32g4xx_hal_rcc_ex.c ****   /* NOTE : This function should not be modified, when the callback is needed,
1838:Drivers/STM32G4xx_HAL_Driver/Src/stm32g4xx_hal_rcc_ex.c ****             the @ref HAL_RCCEx_CRS_ErrorCallback should be implemented in the user file
1839:Drivers/STM32G4xx_HAL_Driver/Src/stm32g4xx_hal_rcc_ex.c ****    */
1840:Drivers/STM32G4xx_HAL_Driver/Src/stm32g4xx_hal_rcc_ex.c **** }
 3317              		.loc 1 1840 1 is_stmt 0 view .LVU1089
 3318 0000 7047     		bx	lr
 3319              		.cfi_endproc
 3320              	.LFE150:
 3322              		.section	.text.HAL_RCCEx_CRS_IRQHandler,"ax",%progbits
ARM GAS  C:\Users\Nathan\AppData\Local\Temp\cc4vJDVg.s 			page 102


 3323              		.align	1
 3324              		.global	HAL_RCCEx_CRS_IRQHandler
 3325              		.syntax unified
 3326              		.thumb
 3327              		.thumb_func
 3329              	HAL_RCCEx_CRS_IRQHandler:
 3330              	.LFB146:
1730:Drivers/STM32G4xx_HAL_Driver/Src/stm32g4xx_hal_rcc_ex.c ****   uint32_t crserror = RCC_CRS_NONE;
 3331              		.loc 1 1730 1 is_stmt 1 view -0
 3332              		.cfi_startproc
 3333              		@ args = 0, pretend = 0, frame = 0
 3334              		@ frame_needed = 0, uses_anonymous_args = 0
 3335 0000 08B5     		push	{r3, lr}
 3336              		.cfi_def_cfa_offset 8
 3337              		.cfi_offset 3, -8
 3338              		.cfi_offset 14, -4
1731:Drivers/STM32G4xx_HAL_Driver/Src/stm32g4xx_hal_rcc_ex.c ****   /* Get current IT flags and IT sources values */
 3339              		.loc 1 1731 3 view .LVU1091
 3340              	.LVL323:
1733:Drivers/STM32G4xx_HAL_Driver/Src/stm32g4xx_hal_rcc_ex.c ****   uint32_t itsources = READ_REG(CRS->CR);
 3341              		.loc 1 1733 3 view .LVU1092
1733:Drivers/STM32G4xx_HAL_Driver/Src/stm32g4xx_hal_rcc_ex.c ****   uint32_t itsources = READ_REG(CRS->CR);
 3342              		.loc 1 1733 12 is_stmt 0 view .LVU1093
 3343 0002 204A     		ldr	r2, .L300
 3344 0004 9368     		ldr	r3, [r2, #8]
 3345              	.LVL324:
1734:Drivers/STM32G4xx_HAL_Driver/Src/stm32g4xx_hal_rcc_ex.c **** 
 3346              		.loc 1 1734 3 is_stmt 1 view .LVU1094
1734:Drivers/STM32G4xx_HAL_Driver/Src/stm32g4xx_hal_rcc_ex.c **** 
 3347              		.loc 1 1734 12 is_stmt 0 view .LVU1095
 3348 0006 1268     		ldr	r2, [r2]
 3349              	.LVL325:
1737:Drivers/STM32G4xx_HAL_Driver/Src/stm32g4xx_hal_rcc_ex.c ****   {
 3350              		.loc 1 1737 3 is_stmt 1 view .LVU1096
1737:Drivers/STM32G4xx_HAL_Driver/Src/stm32g4xx_hal_rcc_ex.c ****   {
 3351              		.loc 1 1737 5 is_stmt 0 view .LVU1097
 3352 0008 13F0010F 		tst	r3, #1
 3353 000c 02D0     		beq	.L288
1737:Drivers/STM32G4xx_HAL_Driver/Src/stm32g4xx_hal_rcc_ex.c ****   {
 3354              		.loc 1 1737 46 discriminator 1 view .LVU1098
 3355 000e 12F0010F 		tst	r2, #1
 3356 0012 25D1     		bne	.L297
 3357              	.L288:
1746:Drivers/STM32G4xx_HAL_Driver/Src/stm32g4xx_hal_rcc_ex.c ****   {
 3358              		.loc 1 1746 8 is_stmt 1 view .LVU1099
1746:Drivers/STM32G4xx_HAL_Driver/Src/stm32g4xx_hal_rcc_ex.c ****   {
 3359              		.loc 1 1746 10 is_stmt 0 view .LVU1100
 3360 0014 13F0020F 		tst	r3, #2
 3361 0018 02D0     		beq	.L290
1746:Drivers/STM32G4xx_HAL_Driver/Src/stm32g4xx_hal_rcc_ex.c ****   {
 3362              		.loc 1 1746 53 discriminator 1 view .LVU1101
 3363 001a 12F0020F 		tst	r2, #2
 3364 001e 25D1     		bne	.L298
 3365              	.L290:
1755:Drivers/STM32G4xx_HAL_Driver/Src/stm32g4xx_hal_rcc_ex.c ****   {
 3366              		.loc 1 1755 8 is_stmt 1 view .LVU1102
1755:Drivers/STM32G4xx_HAL_Driver/Src/stm32g4xx_hal_rcc_ex.c ****   {
ARM GAS  C:\Users\Nathan\AppData\Local\Temp\cc4vJDVg.s 			page 103


 3367              		.loc 1 1755 10 is_stmt 0 view .LVU1103
 3368 0020 13F0080F 		tst	r3, #8
 3369 0024 02D0     		beq	.L291
1755:Drivers/STM32G4xx_HAL_Driver/Src/stm32g4xx_hal_rcc_ex.c ****   {
 3370              		.loc 1 1755 50 discriminator 1 view .LVU1104
 3371 0026 12F0080F 		tst	r2, #8
 3372 002a 25D1     		bne	.L299
 3373              	.L291:
1766:Drivers/STM32G4xx_HAL_Driver/Src/stm32g4xx_hal_rcc_ex.c ****     {
 3374              		.loc 1 1766 5 is_stmt 1 view .LVU1105
1766:Drivers/STM32G4xx_HAL_Driver/Src/stm32g4xx_hal_rcc_ex.c ****     {
 3375              		.loc 1 1766 7 is_stmt 0 view .LVU1106
 3376 002c 13F0040F 		tst	r3, #4
 3377 0030 1BD0     		beq	.L287
1766:Drivers/STM32G4xx_HAL_Driver/Src/stm32g4xx_hal_rcc_ex.c ****     {
 3378              		.loc 1 1766 45 discriminator 1 view .LVU1107
 3379 0032 12F0040F 		tst	r2, #4
 3380 0036 18D0     		beq	.L287
1768:Drivers/STM32G4xx_HAL_Driver/Src/stm32g4xx_hal_rcc_ex.c ****       {
 3381              		.loc 1 1768 7 is_stmt 1 view .LVU1108
1768:Drivers/STM32G4xx_HAL_Driver/Src/stm32g4xx_hal_rcc_ex.c ****       {
 3382              		.loc 1 1768 9 is_stmt 0 view .LVU1109
 3383 0038 13F48070 		ands	r0, r3, #256
 3384 003c 00D0     		beq	.L292
1770:Drivers/STM32G4xx_HAL_Driver/Src/stm32g4xx_hal_rcc_ex.c ****       }
 3385              		.loc 1 1770 18 view .LVU1110
 3386 003e 0820     		movs	r0, #8
 3387              	.L292:
 3388              	.LVL326:
1772:Drivers/STM32G4xx_HAL_Driver/Src/stm32g4xx_hal_rcc_ex.c ****       {
 3389              		.loc 1 1772 7 is_stmt 1 view .LVU1111
1772:Drivers/STM32G4xx_HAL_Driver/Src/stm32g4xx_hal_rcc_ex.c ****       {
 3390              		.loc 1 1772 9 is_stmt 0 view .LVU1112
 3391 0040 13F4007F 		tst	r3, #512
 3392 0044 01D0     		beq	.L293
1774:Drivers/STM32G4xx_HAL_Driver/Src/stm32g4xx_hal_rcc_ex.c ****       }
 3393              		.loc 1 1774 9 is_stmt 1 view .LVU1113
1774:Drivers/STM32G4xx_HAL_Driver/Src/stm32g4xx_hal_rcc_ex.c ****       }
 3394              		.loc 1 1774 18 is_stmt 0 view .LVU1114
 3395 0046 40F01000 		orr	r0, r0, #16
 3396              	.LVL327:
 3397              	.L293:
1776:Drivers/STM32G4xx_HAL_Driver/Src/stm32g4xx_hal_rcc_ex.c ****       {
 3398              		.loc 1 1776 7 is_stmt 1 view .LVU1115
1776:Drivers/STM32G4xx_HAL_Driver/Src/stm32g4xx_hal_rcc_ex.c ****       {
 3399              		.loc 1 1776 9 is_stmt 0 view .LVU1116
 3400 004a 13F4806F 		tst	r3, #1024
 3401 004e 01D0     		beq	.L294
1778:Drivers/STM32G4xx_HAL_Driver/Src/stm32g4xx_hal_rcc_ex.c ****       }
 3402              		.loc 1 1778 9 is_stmt 1 view .LVU1117
1778:Drivers/STM32G4xx_HAL_Driver/Src/stm32g4xx_hal_rcc_ex.c ****       }
 3403              		.loc 1 1778 18 is_stmt 0 view .LVU1118
 3404 0050 40F02000 		orr	r0, r0, #32
 3405              	.LVL328:
 3406              	.L294:
1782:Drivers/STM32G4xx_HAL_Driver/Src/stm32g4xx_hal_rcc_ex.c **** 
 3407              		.loc 1 1782 7 is_stmt 1 view .LVU1119
ARM GAS  C:\Users\Nathan\AppData\Local\Temp\cc4vJDVg.s 			page 104


 3408 0054 0B4B     		ldr	r3, .L300
 3409              	.LVL329:
1782:Drivers/STM32G4xx_HAL_Driver/Src/stm32g4xx_hal_rcc_ex.c **** 
 3410              		.loc 1 1782 7 is_stmt 0 view .LVU1120
 3411 0056 0422     		movs	r2, #4
 3412              	.LVL330:
1782:Drivers/STM32G4xx_HAL_Driver/Src/stm32g4xx_hal_rcc_ex.c **** 
 3413              		.loc 1 1782 7 view .LVU1121
 3414 0058 DA60     		str	r2, [r3, #12]
1785:Drivers/STM32G4xx_HAL_Driver/Src/stm32g4xx_hal_rcc_ex.c ****     }
 3415              		.loc 1 1785 7 is_stmt 1 view .LVU1122
 3416 005a FFF7FEFF 		bl	HAL_RCCEx_CRS_ErrorCallback
 3417              	.LVL331:
1788:Drivers/STM32G4xx_HAL_Driver/Src/stm32g4xx_hal_rcc_ex.c **** 
 3418              		.loc 1 1788 1 is_stmt 0 view .LVU1123
 3419 005e 04E0     		b	.L287
 3420              	.LVL332:
 3421              	.L297:
1740:Drivers/STM32G4xx_HAL_Driver/Src/stm32g4xx_hal_rcc_ex.c **** 
 3422              		.loc 1 1740 5 is_stmt 1 view .LVU1124
 3423 0060 084B     		ldr	r3, .L300
 3424              	.LVL333:
1740:Drivers/STM32G4xx_HAL_Driver/Src/stm32g4xx_hal_rcc_ex.c **** 
 3425              		.loc 1 1740 5 is_stmt 0 view .LVU1125
 3426 0062 0122     		movs	r2, #1
 3427              	.LVL334:
1740:Drivers/STM32G4xx_HAL_Driver/Src/stm32g4xx_hal_rcc_ex.c **** 
 3428              		.loc 1 1740 5 view .LVU1126
 3429 0064 DA60     		str	r2, [r3, #12]
1743:Drivers/STM32G4xx_HAL_Driver/Src/stm32g4xx_hal_rcc_ex.c ****   }
 3430              		.loc 1 1743 5 is_stmt 1 view .LVU1127
 3431 0066 FFF7FEFF 		bl	HAL_RCCEx_CRS_SyncOkCallback
 3432              	.LVL335:
 3433              	.L287:
1788:Drivers/STM32G4xx_HAL_Driver/Src/stm32g4xx_hal_rcc_ex.c **** 
 3434              		.loc 1 1788 1 is_stmt 0 view .LVU1128
 3435 006a 08BD     		pop	{r3, pc}
 3436              	.LVL336:
 3437              	.L298:
1749:Drivers/STM32G4xx_HAL_Driver/Src/stm32g4xx_hal_rcc_ex.c **** 
 3438              		.loc 1 1749 5 is_stmt 1 view .LVU1129
 3439 006c 054B     		ldr	r3, .L300
 3440              	.LVL337:
1749:Drivers/STM32G4xx_HAL_Driver/Src/stm32g4xx_hal_rcc_ex.c **** 
 3441              		.loc 1 1749 5 is_stmt 0 view .LVU1130
 3442 006e 0222     		movs	r2, #2
 3443              	.LVL338:
1749:Drivers/STM32G4xx_HAL_Driver/Src/stm32g4xx_hal_rcc_ex.c **** 
 3444              		.loc 1 1749 5 view .LVU1131
 3445 0070 DA60     		str	r2, [r3, #12]
1752:Drivers/STM32G4xx_HAL_Driver/Src/stm32g4xx_hal_rcc_ex.c ****   }
 3446              		.loc 1 1752 5 is_stmt 1 view .LVU1132
 3447 0072 FFF7FEFF 		bl	HAL_RCCEx_CRS_SyncWarnCallback
 3448              	.LVL339:
 3449 0076 F8E7     		b	.L287
 3450              	.LVL340:
 3451              	.L299:
ARM GAS  C:\Users\Nathan\AppData\Local\Temp\cc4vJDVg.s 			page 105


1758:Drivers/STM32G4xx_HAL_Driver/Src/stm32g4xx_hal_rcc_ex.c **** 
 3452              		.loc 1 1758 5 view .LVU1133
 3453 0078 024B     		ldr	r3, .L300
 3454              	.LVL341:
1758:Drivers/STM32G4xx_HAL_Driver/Src/stm32g4xx_hal_rcc_ex.c **** 
 3455              		.loc 1 1758 5 is_stmt 0 view .LVU1134
 3456 007a 0822     		movs	r2, #8
 3457              	.LVL342:
1758:Drivers/STM32G4xx_HAL_Driver/Src/stm32g4xx_hal_rcc_ex.c **** 
 3458              		.loc 1 1758 5 view .LVU1135
 3459 007c DA60     		str	r2, [r3, #12]
1761:Drivers/STM32G4xx_HAL_Driver/Src/stm32g4xx_hal_rcc_ex.c ****   }
 3460              		.loc 1 1761 5 is_stmt 1 view .LVU1136
 3461 007e FFF7FEFF 		bl	HAL_RCCEx_CRS_ExpectedSyncCallback
 3462              	.LVL343:
 3463 0082 F2E7     		b	.L287
 3464              	.L301:
 3465              		.align	2
 3466              	.L300:
 3467 0084 00200040 		.word	1073750016
 3468              		.cfi_endproc
 3469              	.LFE146:
 3471              		.text
 3472              	.Letext0:
 3473              		.file 2 "C:/Users/Nathan/AppData/Roaming/Code/User/globalStorage/bmd.stm32-for-vscode/@xpack-dev-t
 3474              		.file 3 "C:/Users/Nathan/AppData/Roaming/Code/User/globalStorage/bmd.stm32-for-vscode/@xpack-dev-t
 3475              		.file 4 "Drivers/CMSIS/Device/ST/STM32G4xx/Include/stm32g474xx.h"
 3476              		.file 5 "Drivers/CMSIS/Device/ST/STM32G4xx/Include/stm32g4xx.h"
 3477              		.file 6 "Drivers/STM32G4xx_HAL_Driver/Inc/stm32g4xx_hal_def.h"
 3478              		.file 7 "Drivers/STM32G4xx_HAL_Driver/Inc/stm32g4xx_hal_rcc_ex.h"
 3479              		.file 8 "Drivers/STM32G4xx_HAL_Driver/Inc/stm32g4xx_hal_gpio.h"
 3480              		.file 9 "Drivers/STM32G4xx_HAL_Driver/Inc/stm32g4xx_hal_pwr.h"
 3481              		.file 10 "Drivers/STM32G4xx_HAL_Driver/Inc/stm32g4xx_hal_rcc.h"
 3482              		.file 11 "Drivers/STM32G4xx_HAL_Driver/Inc/stm32g4xx_hal.h"
ARM GAS  C:\Users\Nathan\AppData\Local\Temp\cc4vJDVg.s 			page 106


DEFINED SYMBOLS
                            *ABS*:00000000 stm32g4xx_hal_rcc_ex.c
C:\Users\Nathan\AppData\Local\Temp\cc4vJDVg.s:21     .text.HAL_RCCEx_PeriphCLKConfig:00000000 $t
C:\Users\Nathan\AppData\Local\Temp\cc4vJDVg.s:27     .text.HAL_RCCEx_PeriphCLKConfig:00000000 HAL_RCCEx_PeriphCLKConfig
C:\Users\Nathan\AppData\Local\Temp\cc4vJDVg.s:241    .text.HAL_RCCEx_PeriphCLKConfig:000000e4 $d
C:\Users\Nathan\AppData\Local\Temp\cc4vJDVg.s:248    .text.HAL_RCCEx_PeriphCLKConfig:000000ec $t
C:\Users\Nathan\AppData\Local\Temp\cc4vJDVg.s:645    .text.HAL_RCCEx_PeriphCLKConfig:00000374 $d
C:\Users\Nathan\AppData\Local\Temp\cc4vJDVg.s:650    .text.HAL_RCCEx_GetPeriphCLKConfig:00000000 $t
C:\Users\Nathan\AppData\Local\Temp\cc4vJDVg.s:656    .text.HAL_RCCEx_GetPeriphCLKConfig:00000000 HAL_RCCEx_GetPeriphCLKConfig
C:\Users\Nathan\AppData\Local\Temp\cc4vJDVg.s:794    .text.HAL_RCCEx_GetPeriphCLKConfig:000000d0 $d
C:\Users\Nathan\AppData\Local\Temp\cc4vJDVg.s:800    .text.HAL_RCCEx_GetPeriphCLKFreq:00000000 $t
C:\Users\Nathan\AppData\Local\Temp\cc4vJDVg.s:806    .text.HAL_RCCEx_GetPeriphCLKFreq:00000000 HAL_RCCEx_GetPeriphCLKFreq
C:\Users\Nathan\AppData\Local\Temp\cc4vJDVg.s:873    .text.HAL_RCCEx_GetPeriphCLKFreq:00000050 $d
C:\Users\Nathan\AppData\Local\Temp\cc4vJDVg.s:906    .text.HAL_RCCEx_GetPeriphCLKFreq:00000090 $t
C:\Users\Nathan\AppData\Local\Temp\cc4vJDVg.s:1294   .text.HAL_RCCEx_GetPeriphCLKFreq:000002ac $d
C:\Users\Nathan\AppData\Local\Temp\cc4vJDVg.s:1301   .text.HAL_RCCEx_GetPeriphCLKFreq:000002b8 $t
C:\Users\Nathan\AppData\Local\Temp\cc4vJDVg.s:1931   .text.HAL_RCCEx_GetPeriphCLKFreq:00000594 $d
C:\Users\Nathan\AppData\Local\Temp\cc4vJDVg.s:1936   .text.HAL_RCCEx_GetPeriphCLKFreq:00000598 $t
C:\Users\Nathan\AppData\Local\Temp\cc4vJDVg.s:2427   .text.HAL_RCCEx_GetPeriphCLKFreq:00000778 $d
C:\Users\Nathan\AppData\Local\Temp\cc4vJDVg.s:2437   .text.HAL_RCCEx_EnableLSECSS:00000000 $t
C:\Users\Nathan\AppData\Local\Temp\cc4vJDVg.s:2443   .text.HAL_RCCEx_EnableLSECSS:00000000 HAL_RCCEx_EnableLSECSS
C:\Users\Nathan\AppData\Local\Temp\cc4vJDVg.s:2460   .text.HAL_RCCEx_EnableLSECSS:00000010 $d
C:\Users\Nathan\AppData\Local\Temp\cc4vJDVg.s:2465   .text.HAL_RCCEx_DisableLSECSS:00000000 $t
C:\Users\Nathan\AppData\Local\Temp\cc4vJDVg.s:2471   .text.HAL_RCCEx_DisableLSECSS:00000000 HAL_RCCEx_DisableLSECSS
C:\Users\Nathan\AppData\Local\Temp\cc4vJDVg.s:2492   .text.HAL_RCCEx_DisableLSECSS:00000018 $d
C:\Users\Nathan\AppData\Local\Temp\cc4vJDVg.s:2497   .text.HAL_RCCEx_EnableLSECSS_IT:00000000 $t
C:\Users\Nathan\AppData\Local\Temp\cc4vJDVg.s:2503   .text.HAL_RCCEx_EnableLSECSS_IT:00000000 HAL_RCCEx_EnableLSECSS_IT
C:\Users\Nathan\AppData\Local\Temp\cc4vJDVg.s:2533   .text.HAL_RCCEx_EnableLSECSS_IT:0000002c $d
C:\Users\Nathan\AppData\Local\Temp\cc4vJDVg.s:2538   .text.HAL_RCCEx_LSECSS_Callback:00000000 $t
C:\Users\Nathan\AppData\Local\Temp\cc4vJDVg.s:2544   .text.HAL_RCCEx_LSECSS_Callback:00000000 HAL_RCCEx_LSECSS_Callback
C:\Users\Nathan\AppData\Local\Temp\cc4vJDVg.s:2557   .text.HAL_RCCEx_LSECSS_IRQHandler:00000000 $t
C:\Users\Nathan\AppData\Local\Temp\cc4vJDVg.s:2563   .text.HAL_RCCEx_LSECSS_IRQHandler:00000000 HAL_RCCEx_LSECSS_IRQHandler
C:\Users\Nathan\AppData\Local\Temp\cc4vJDVg.s:2596   .text.HAL_RCCEx_LSECSS_IRQHandler:0000001c $d
C:\Users\Nathan\AppData\Local\Temp\cc4vJDVg.s:2601   .text.HAL_RCCEx_EnableLSCO:00000000 $t
C:\Users\Nathan\AppData\Local\Temp\cc4vJDVg.s:2607   .text.HAL_RCCEx_EnableLSCO:00000000 HAL_RCCEx_EnableLSCO
C:\Users\Nathan\AppData\Local\Temp\cc4vJDVg.s:2760   .text.HAL_RCCEx_EnableLSCO:00000098 $d
C:\Users\Nathan\AppData\Local\Temp\cc4vJDVg.s:2766   .text.HAL_RCCEx_DisableLSCO:00000000 $t
C:\Users\Nathan\AppData\Local\Temp\cc4vJDVg.s:2772   .text.HAL_RCCEx_DisableLSCO:00000000 HAL_RCCEx_DisableLSCO
C:\Users\Nathan\AppData\Local\Temp\cc4vJDVg.s:2880   .text.HAL_RCCEx_DisableLSCO:00000064 $d
C:\Users\Nathan\AppData\Local\Temp\cc4vJDVg.s:2886   .text.HAL_RCCEx_CRSConfig:00000000 $t
C:\Users\Nathan\AppData\Local\Temp\cc4vJDVg.s:2892   .text.HAL_RCCEx_CRSConfig:00000000 HAL_RCCEx_CRSConfig
C:\Users\Nathan\AppData\Local\Temp\cc4vJDVg.s:2961   .text.HAL_RCCEx_CRSConfig:00000044 $d
C:\Users\Nathan\AppData\Local\Temp\cc4vJDVg.s:2967   .text.HAL_RCCEx_CRSSoftwareSynchronizationGenerate:00000000 $t
C:\Users\Nathan\AppData\Local\Temp\cc4vJDVg.s:2973   .text.HAL_RCCEx_CRSSoftwareSynchronizationGenerate:00000000 HAL_RCCEx_CRSSoftwareSynchronizationGenerate
C:\Users\Nathan\AppData\Local\Temp\cc4vJDVg.s:2990   .text.HAL_RCCEx_CRSSoftwareSynchronizationGenerate:0000000c $d
C:\Users\Nathan\AppData\Local\Temp\cc4vJDVg.s:2995   .text.HAL_RCCEx_CRSGetSynchronizationInfo:00000000 $t
C:\Users\Nathan\AppData\Local\Temp\cc4vJDVg.s:3001   .text.HAL_RCCEx_CRSGetSynchronizationInfo:00000000 HAL_RCCEx_CRSGetSynchronizationInfo
C:\Users\Nathan\AppData\Local\Temp\cc4vJDVg.s:3042   .text.HAL_RCCEx_CRSGetSynchronizationInfo:00000020 $d
C:\Users\Nathan\AppData\Local\Temp\cc4vJDVg.s:3047   .text.HAL_RCCEx_CRSWaitSynchronization:00000000 $t
C:\Users\Nathan\AppData\Local\Temp\cc4vJDVg.s:3053   .text.HAL_RCCEx_CRSWaitSynchronization:00000000 HAL_RCCEx_CRSWaitSynchronization
C:\Users\Nathan\AppData\Local\Temp\cc4vJDVg.s:3240   .text.HAL_RCCEx_CRSWaitSynchronization:000000a8 $d
C:\Users\Nathan\AppData\Local\Temp\cc4vJDVg.s:3245   .text.HAL_RCCEx_CRS_SyncOkCallback:00000000 $t
C:\Users\Nathan\AppData\Local\Temp\cc4vJDVg.s:3251   .text.HAL_RCCEx_CRS_SyncOkCallback:00000000 HAL_RCCEx_CRS_SyncOkCallback
C:\Users\Nathan\AppData\Local\Temp\cc4vJDVg.s:3264   .text.HAL_RCCEx_CRS_SyncWarnCallback:00000000 $t
C:\Users\Nathan\AppData\Local\Temp\cc4vJDVg.s:3270   .text.HAL_RCCEx_CRS_SyncWarnCallback:00000000 HAL_RCCEx_CRS_SyncWarnCallback
C:\Users\Nathan\AppData\Local\Temp\cc4vJDVg.s:3283   .text.HAL_RCCEx_CRS_ExpectedSyncCallback:00000000 $t
C:\Users\Nathan\AppData\Local\Temp\cc4vJDVg.s:3289   .text.HAL_RCCEx_CRS_ExpectedSyncCallback:00000000 HAL_RCCEx_CRS_ExpectedSyncCallback
ARM GAS  C:\Users\Nathan\AppData\Local\Temp\cc4vJDVg.s 			page 107


C:\Users\Nathan\AppData\Local\Temp\cc4vJDVg.s:3302   .text.HAL_RCCEx_CRS_ErrorCallback:00000000 $t
C:\Users\Nathan\AppData\Local\Temp\cc4vJDVg.s:3308   .text.HAL_RCCEx_CRS_ErrorCallback:00000000 HAL_RCCEx_CRS_ErrorCallback
C:\Users\Nathan\AppData\Local\Temp\cc4vJDVg.s:3323   .text.HAL_RCCEx_CRS_IRQHandler:00000000 $t
C:\Users\Nathan\AppData\Local\Temp\cc4vJDVg.s:3329   .text.HAL_RCCEx_CRS_IRQHandler:00000000 HAL_RCCEx_CRS_IRQHandler
C:\Users\Nathan\AppData\Local\Temp\cc4vJDVg.s:3467   .text.HAL_RCCEx_CRS_IRQHandler:00000084 $d

UNDEFINED SYMBOLS
HAL_GetTick
HAL_RCC_GetPCLK2Freq
HAL_RCC_GetSysClockFreq
HAL_RCC_GetPCLK1Freq
HAL_GPIO_Init
HAL_PWR_EnableBkUpAccess
HAL_PWR_DisableBkUpAccess
