ARM GAS  C:\Users\Nathan\AppData\Local\Temp\ccyJNqjv.s 			page 1


   1              		.cpu cortex-m4
   2              		.arch armv7e-m
   3              		.fpu fpv4-sp-d16
   4              		.eabi_attribute 27, 1
   5              		.eabi_attribute 28, 1
   6              		.eabi_attribute 20, 1
   7              		.eabi_attribute 21, 1
   8              		.eabi_attribute 23, 3
   9              		.eabi_attribute 24, 1
  10              		.eabi_attribute 25, 1
  11              		.eabi_attribute 26, 1
  12              		.eabi_attribute 30, 1
  13              		.eabi_attribute 34, 1
  14              		.eabi_attribute 18, 4
  15              		.file	"stm32g4xx_ll_usb.c"
  16              		.text
  17              	.Ltext0:
  18              		.cfi_sections	.debug_frame
  19              		.file 1 "Drivers/STM32G4xx_HAL_Driver/Src/stm32g4xx_ll_usb.c"
  20              		.section	.text.USB_CoreInit,"ax",%progbits
  21              		.align	1
  22              		.global	USB_CoreInit
  23              		.syntax unified
  24              		.thumb
  25              		.thumb_func
  27              	USB_CoreInit:
  28              	.LVL0:
  29              	.LFB132:
   1:Drivers/STM32G4xx_HAL_Driver/Src/stm32g4xx_ll_usb.c **** /**
   2:Drivers/STM32G4xx_HAL_Driver/Src/stm32g4xx_ll_usb.c ****   ******************************************************************************
   3:Drivers/STM32G4xx_HAL_Driver/Src/stm32g4xx_ll_usb.c ****   * @file    stm32g4xx_ll_usb.c
   4:Drivers/STM32G4xx_HAL_Driver/Src/stm32g4xx_ll_usb.c ****   * @author  MCD Application Team
   5:Drivers/STM32G4xx_HAL_Driver/Src/stm32g4xx_ll_usb.c ****   * @brief   USB Low Layer HAL module driver.
   6:Drivers/STM32G4xx_HAL_Driver/Src/stm32g4xx_ll_usb.c ****   *
   7:Drivers/STM32G4xx_HAL_Driver/Src/stm32g4xx_ll_usb.c ****   *          This file provides firmware functions to manage the following
   8:Drivers/STM32G4xx_HAL_Driver/Src/stm32g4xx_ll_usb.c ****   *          functionalities of the USB Peripheral Controller:
   9:Drivers/STM32G4xx_HAL_Driver/Src/stm32g4xx_ll_usb.c ****   *           + Initialization/de-initialization functions
  10:Drivers/STM32G4xx_HAL_Driver/Src/stm32g4xx_ll_usb.c ****   *           + I/O operation functions
  11:Drivers/STM32G4xx_HAL_Driver/Src/stm32g4xx_ll_usb.c ****   *           + Peripheral Control functions
  12:Drivers/STM32G4xx_HAL_Driver/Src/stm32g4xx_ll_usb.c ****   *           + Peripheral State functions
  13:Drivers/STM32G4xx_HAL_Driver/Src/stm32g4xx_ll_usb.c ****   *
  14:Drivers/STM32G4xx_HAL_Driver/Src/stm32g4xx_ll_usb.c ****   ******************************************************************************
  15:Drivers/STM32G4xx_HAL_Driver/Src/stm32g4xx_ll_usb.c ****   * @attention
  16:Drivers/STM32G4xx_HAL_Driver/Src/stm32g4xx_ll_usb.c ****   *
  17:Drivers/STM32G4xx_HAL_Driver/Src/stm32g4xx_ll_usb.c ****   * Copyright (c) 2019 STMicroelectronics.
  18:Drivers/STM32G4xx_HAL_Driver/Src/stm32g4xx_ll_usb.c ****   * All rights reserved.
  19:Drivers/STM32G4xx_HAL_Driver/Src/stm32g4xx_ll_usb.c ****   *
  20:Drivers/STM32G4xx_HAL_Driver/Src/stm32g4xx_ll_usb.c ****   * This software is licensed under terms that can be found in the LICENSE file
  21:Drivers/STM32G4xx_HAL_Driver/Src/stm32g4xx_ll_usb.c ****   * in the root directory of this software component.
  22:Drivers/STM32G4xx_HAL_Driver/Src/stm32g4xx_ll_usb.c ****   * If no LICENSE file comes with this software, it is provided AS-IS.
  23:Drivers/STM32G4xx_HAL_Driver/Src/stm32g4xx_ll_usb.c ****   *
  24:Drivers/STM32G4xx_HAL_Driver/Src/stm32g4xx_ll_usb.c ****   ******************************************************************************
  25:Drivers/STM32G4xx_HAL_Driver/Src/stm32g4xx_ll_usb.c ****   @verbatim
  26:Drivers/STM32G4xx_HAL_Driver/Src/stm32g4xx_ll_usb.c ****   ==============================================================================
  27:Drivers/STM32G4xx_HAL_Driver/Src/stm32g4xx_ll_usb.c ****                     ##### How to use this driver #####
  28:Drivers/STM32G4xx_HAL_Driver/Src/stm32g4xx_ll_usb.c ****   ==============================================================================
  29:Drivers/STM32G4xx_HAL_Driver/Src/stm32g4xx_ll_usb.c ****     [..]
ARM GAS  C:\Users\Nathan\AppData\Local\Temp\ccyJNqjv.s 			page 2


  30:Drivers/STM32G4xx_HAL_Driver/Src/stm32g4xx_ll_usb.c ****       (#) Fill parameters of Init structure in USB_CfgTypeDef structure.
  31:Drivers/STM32G4xx_HAL_Driver/Src/stm32g4xx_ll_usb.c **** 
  32:Drivers/STM32G4xx_HAL_Driver/Src/stm32g4xx_ll_usb.c ****       (#) Call USB_CoreInit() API to initialize the USB Core peripheral.
  33:Drivers/STM32G4xx_HAL_Driver/Src/stm32g4xx_ll_usb.c **** 
  34:Drivers/STM32G4xx_HAL_Driver/Src/stm32g4xx_ll_usb.c ****       (#) The upper HAL HCD/PCD driver will call the right routines for its internal processes.
  35:Drivers/STM32G4xx_HAL_Driver/Src/stm32g4xx_ll_usb.c **** 
  36:Drivers/STM32G4xx_HAL_Driver/Src/stm32g4xx_ll_usb.c ****   @endverbatim
  37:Drivers/STM32G4xx_HAL_Driver/Src/stm32g4xx_ll_usb.c **** 
  38:Drivers/STM32G4xx_HAL_Driver/Src/stm32g4xx_ll_usb.c ****   ******************************************************************************
  39:Drivers/STM32G4xx_HAL_Driver/Src/stm32g4xx_ll_usb.c ****   */
  40:Drivers/STM32G4xx_HAL_Driver/Src/stm32g4xx_ll_usb.c **** 
  41:Drivers/STM32G4xx_HAL_Driver/Src/stm32g4xx_ll_usb.c **** /* Includes ------------------------------------------------------------------*/
  42:Drivers/STM32G4xx_HAL_Driver/Src/stm32g4xx_ll_usb.c **** #include "stm32g4xx_hal.h"
  43:Drivers/STM32G4xx_HAL_Driver/Src/stm32g4xx_ll_usb.c **** 
  44:Drivers/STM32G4xx_HAL_Driver/Src/stm32g4xx_ll_usb.c **** /** @addtogroup STM32G4xx_LL_USB_DRIVER
  45:Drivers/STM32G4xx_HAL_Driver/Src/stm32g4xx_ll_usb.c ****   * @{
  46:Drivers/STM32G4xx_HAL_Driver/Src/stm32g4xx_ll_usb.c ****   */
  47:Drivers/STM32G4xx_HAL_Driver/Src/stm32g4xx_ll_usb.c **** 
  48:Drivers/STM32G4xx_HAL_Driver/Src/stm32g4xx_ll_usb.c **** #if defined (HAL_PCD_MODULE_ENABLED) || defined (HAL_HCD_MODULE_ENABLED)
  49:Drivers/STM32G4xx_HAL_Driver/Src/stm32g4xx_ll_usb.c **** #if defined (USB)
  50:Drivers/STM32G4xx_HAL_Driver/Src/stm32g4xx_ll_usb.c **** /* Private typedef -----------------------------------------------------------*/
  51:Drivers/STM32G4xx_HAL_Driver/Src/stm32g4xx_ll_usb.c **** /* Private define ------------------------------------------------------------*/
  52:Drivers/STM32G4xx_HAL_Driver/Src/stm32g4xx_ll_usb.c **** /* Private macro -------------------------------------------------------------*/
  53:Drivers/STM32G4xx_HAL_Driver/Src/stm32g4xx_ll_usb.c **** /* Private variables ---------------------------------------------------------*/
  54:Drivers/STM32G4xx_HAL_Driver/Src/stm32g4xx_ll_usb.c **** /* Private function prototypes -----------------------------------------------*/
  55:Drivers/STM32G4xx_HAL_Driver/Src/stm32g4xx_ll_usb.c **** /* Private functions ---------------------------------------------------------*/
  56:Drivers/STM32G4xx_HAL_Driver/Src/stm32g4xx_ll_usb.c **** 
  57:Drivers/STM32G4xx_HAL_Driver/Src/stm32g4xx_ll_usb.c **** /**
  58:Drivers/STM32G4xx_HAL_Driver/Src/stm32g4xx_ll_usb.c ****   * @brief  Initializes the USB Core
  59:Drivers/STM32G4xx_HAL_Driver/Src/stm32g4xx_ll_usb.c ****   * @param  USBx USB Instance
  60:Drivers/STM32G4xx_HAL_Driver/Src/stm32g4xx_ll_usb.c ****   * @param  cfg pointer to a USB_CfgTypeDef structure that contains
  61:Drivers/STM32G4xx_HAL_Driver/Src/stm32g4xx_ll_usb.c ****   *         the configuration information for the specified USBx peripheral.
  62:Drivers/STM32G4xx_HAL_Driver/Src/stm32g4xx_ll_usb.c ****   * @retval HAL status
  63:Drivers/STM32G4xx_HAL_Driver/Src/stm32g4xx_ll_usb.c ****   */
  64:Drivers/STM32G4xx_HAL_Driver/Src/stm32g4xx_ll_usb.c **** HAL_StatusTypeDef USB_CoreInit(USB_TypeDef *USBx, USB_CfgTypeDef cfg)
  65:Drivers/STM32G4xx_HAL_Driver/Src/stm32g4xx_ll_usb.c **** {
  30              		.loc 1 65 1 view -0
  31              		.cfi_startproc
  32              		@ args = 0, pretend = 0, frame = 8
  33              		@ frame_needed = 0, uses_anonymous_args = 0
  34              		@ link register save eliminated.
  35              		.loc 1 65 1 is_stmt 0 view .LVU1
  36 0000 82B0     		sub	sp, sp, #8
  37              		.cfi_def_cfa_offset 8
  38 0002 02AB     		add	r3, sp, #8
  39 0004 03E90600 		stmdb	r3, {r1, r2}
  66:Drivers/STM32G4xx_HAL_Driver/Src/stm32g4xx_ll_usb.c ****   /* Prevent unused argument(s) compilation warning */
  67:Drivers/STM32G4xx_HAL_Driver/Src/stm32g4xx_ll_usb.c ****   UNUSED(USBx);
  40              		.loc 1 67 3 is_stmt 1 view .LVU2
  68:Drivers/STM32G4xx_HAL_Driver/Src/stm32g4xx_ll_usb.c ****   UNUSED(cfg);
  41              		.loc 1 68 3 view .LVU3
  69:Drivers/STM32G4xx_HAL_Driver/Src/stm32g4xx_ll_usb.c **** 
  70:Drivers/STM32G4xx_HAL_Driver/Src/stm32g4xx_ll_usb.c ****   /* NOTE : - This function is not required by USB Device FS peripheral, it is used
  71:Drivers/STM32G4xx_HAL_Driver/Src/stm32g4xx_ll_usb.c ****               only by USB OTG FS peripheral.
  72:Drivers/STM32G4xx_HAL_Driver/Src/stm32g4xx_ll_usb.c ****             - This function is added to ensure compatibility across platforms.
  73:Drivers/STM32G4xx_HAL_Driver/Src/stm32g4xx_ll_usb.c ****    */
  74:Drivers/STM32G4xx_HAL_Driver/Src/stm32g4xx_ll_usb.c **** 
ARM GAS  C:\Users\Nathan\AppData\Local\Temp\ccyJNqjv.s 			page 3


  75:Drivers/STM32G4xx_HAL_Driver/Src/stm32g4xx_ll_usb.c ****   return HAL_OK;
  42              		.loc 1 75 3 view .LVU4
  76:Drivers/STM32G4xx_HAL_Driver/Src/stm32g4xx_ll_usb.c **** }
  43              		.loc 1 76 1 is_stmt 0 view .LVU5
  44 0008 0020     		movs	r0, #0
  45              	.LVL1:
  46              		.loc 1 76 1 view .LVU6
  47 000a 02B0     		add	sp, sp, #8
  48              		.cfi_def_cfa_offset 0
  49              		@ sp needed
  50 000c 7047     		bx	lr
  51              		.cfi_endproc
  52              	.LFE132:
  54              		.section	.text.USB_EnableGlobalInt,"ax",%progbits
  55              		.align	1
  56              		.global	USB_EnableGlobalInt
  57              		.syntax unified
  58              		.thumb
  59              		.thumb_func
  61              	USB_EnableGlobalInt:
  62              	.LVL2:
  63              	.LFB133:
  77:Drivers/STM32G4xx_HAL_Driver/Src/stm32g4xx_ll_usb.c **** 
  78:Drivers/STM32G4xx_HAL_Driver/Src/stm32g4xx_ll_usb.c **** /**
  79:Drivers/STM32G4xx_HAL_Driver/Src/stm32g4xx_ll_usb.c ****   * @brief  USB_EnableGlobalInt
  80:Drivers/STM32G4xx_HAL_Driver/Src/stm32g4xx_ll_usb.c ****   *         Enables the controller's Global Int in the AHB Config reg
  81:Drivers/STM32G4xx_HAL_Driver/Src/stm32g4xx_ll_usb.c ****   * @param  USBx Selected device
  82:Drivers/STM32G4xx_HAL_Driver/Src/stm32g4xx_ll_usb.c ****   * @retval HAL status
  83:Drivers/STM32G4xx_HAL_Driver/Src/stm32g4xx_ll_usb.c ****   */
  84:Drivers/STM32G4xx_HAL_Driver/Src/stm32g4xx_ll_usb.c **** HAL_StatusTypeDef USB_EnableGlobalInt(USB_TypeDef *USBx)
  85:Drivers/STM32G4xx_HAL_Driver/Src/stm32g4xx_ll_usb.c **** {
  64              		.loc 1 85 1 is_stmt 1 view -0
  65              		.cfi_startproc
  66              		@ args = 0, pretend = 0, frame = 0
  67              		@ frame_needed = 0, uses_anonymous_args = 0
  68              		@ link register save eliminated.
  69              		.loc 1 85 1 is_stmt 0 view .LVU8
  70 0000 0346     		mov	r3, r0
  86:Drivers/STM32G4xx_HAL_Driver/Src/stm32g4xx_ll_usb.c ****   uint32_t winterruptmask;
  71              		.loc 1 86 3 is_stmt 1 view .LVU9
  87:Drivers/STM32G4xx_HAL_Driver/Src/stm32g4xx_ll_usb.c **** 
  88:Drivers/STM32G4xx_HAL_Driver/Src/stm32g4xx_ll_usb.c ****   /* Clear pending interrupts */
  89:Drivers/STM32G4xx_HAL_Driver/Src/stm32g4xx_ll_usb.c ****   USBx->ISTR = 0U;
  72              		.loc 1 89 3 view .LVU10
  73              		.loc 1 89 14 is_stmt 0 view .LVU11
  74 0002 0020     		movs	r0, #0
  75              	.LVL3:
  76              		.loc 1 89 14 view .LVU12
  77 0004 A3F84400 		strh	r0, [r3, #68]	@ movhi
  90:Drivers/STM32G4xx_HAL_Driver/Src/stm32g4xx_ll_usb.c **** 
  91:Drivers/STM32G4xx_HAL_Driver/Src/stm32g4xx_ll_usb.c ****   /* Set winterruptmask variable */
  92:Drivers/STM32G4xx_HAL_Driver/Src/stm32g4xx_ll_usb.c ****   winterruptmask = USB_CNTR_CTRM  | USB_CNTR_WKUPM |
  78              		.loc 1 92 3 is_stmt 1 view .LVU13
  79              	.LVL4:
  93:Drivers/STM32G4xx_HAL_Driver/Src/stm32g4xx_ll_usb.c ****                    USB_CNTR_SUSPM | USB_CNTR_ERRM |
  94:Drivers/STM32G4xx_HAL_Driver/Src/stm32g4xx_ll_usb.c ****                    USB_CNTR_SOFM | USB_CNTR_ESOFM |
  95:Drivers/STM32G4xx_HAL_Driver/Src/stm32g4xx_ll_usb.c ****                    USB_CNTR_RESETM | USB_CNTR_L1REQM;
ARM GAS  C:\Users\Nathan\AppData\Local\Temp\ccyJNqjv.s 			page 4


  96:Drivers/STM32G4xx_HAL_Driver/Src/stm32g4xx_ll_usb.c **** 
  97:Drivers/STM32G4xx_HAL_Driver/Src/stm32g4xx_ll_usb.c ****   /* Set interrupt mask */
  98:Drivers/STM32G4xx_HAL_Driver/Src/stm32g4xx_ll_usb.c ****   USBx->CNTR = (uint16_t)winterruptmask;
  80              		.loc 1 98 3 view .LVU14
  81              		.loc 1 98 14 is_stmt 0 view .LVU15
  82 0008 4BF68072 		movw	r2, #49024
  83 000c A3F84020 		strh	r2, [r3, #64]	@ movhi
  99:Drivers/STM32G4xx_HAL_Driver/Src/stm32g4xx_ll_usb.c **** 
 100:Drivers/STM32G4xx_HAL_Driver/Src/stm32g4xx_ll_usb.c ****   return HAL_OK;
  84              		.loc 1 100 3 is_stmt 1 view .LVU16
 101:Drivers/STM32G4xx_HAL_Driver/Src/stm32g4xx_ll_usb.c **** }
  85              		.loc 1 101 1 is_stmt 0 view .LVU17
  86 0010 7047     		bx	lr
  87              		.cfi_endproc
  88              	.LFE133:
  90              		.section	.text.USB_DisableGlobalInt,"ax",%progbits
  91              		.align	1
  92              		.global	USB_DisableGlobalInt
  93              		.syntax unified
  94              		.thumb
  95              		.thumb_func
  97              	USB_DisableGlobalInt:
  98              	.LVL5:
  99              	.LFB134:
 102:Drivers/STM32G4xx_HAL_Driver/Src/stm32g4xx_ll_usb.c **** 
 103:Drivers/STM32G4xx_HAL_Driver/Src/stm32g4xx_ll_usb.c **** /**
 104:Drivers/STM32G4xx_HAL_Driver/Src/stm32g4xx_ll_usb.c ****   * @brief  USB_DisableGlobalInt
 105:Drivers/STM32G4xx_HAL_Driver/Src/stm32g4xx_ll_usb.c ****   *         Disable the controller's Global Int in the AHB Config reg
 106:Drivers/STM32G4xx_HAL_Driver/Src/stm32g4xx_ll_usb.c ****   * @param  USBx Selected device
 107:Drivers/STM32G4xx_HAL_Driver/Src/stm32g4xx_ll_usb.c ****   * @retval HAL status
 108:Drivers/STM32G4xx_HAL_Driver/Src/stm32g4xx_ll_usb.c ****   */
 109:Drivers/STM32G4xx_HAL_Driver/Src/stm32g4xx_ll_usb.c **** HAL_StatusTypeDef USB_DisableGlobalInt(USB_TypeDef *USBx)
 110:Drivers/STM32G4xx_HAL_Driver/Src/stm32g4xx_ll_usb.c **** {
 100              		.loc 1 110 1 is_stmt 1 view -0
 101              		.cfi_startproc
 102              		@ args = 0, pretend = 0, frame = 0
 103              		@ frame_needed = 0, uses_anonymous_args = 0
 104              		@ link register save eliminated.
 111:Drivers/STM32G4xx_HAL_Driver/Src/stm32g4xx_ll_usb.c ****   uint32_t winterruptmask;
 105              		.loc 1 111 3 view .LVU19
 112:Drivers/STM32G4xx_HAL_Driver/Src/stm32g4xx_ll_usb.c **** 
 113:Drivers/STM32G4xx_HAL_Driver/Src/stm32g4xx_ll_usb.c ****   /* Set winterruptmask variable */
 114:Drivers/STM32G4xx_HAL_Driver/Src/stm32g4xx_ll_usb.c ****   winterruptmask = USB_CNTR_CTRM  | USB_CNTR_WKUPM |
 106              		.loc 1 114 3 view .LVU20
 115:Drivers/STM32G4xx_HAL_Driver/Src/stm32g4xx_ll_usb.c ****                    USB_CNTR_SUSPM | USB_CNTR_ERRM |
 116:Drivers/STM32G4xx_HAL_Driver/Src/stm32g4xx_ll_usb.c ****                    USB_CNTR_SOFM | USB_CNTR_ESOFM |
 117:Drivers/STM32G4xx_HAL_Driver/Src/stm32g4xx_ll_usb.c ****                    USB_CNTR_RESETM | USB_CNTR_L1REQM;
 118:Drivers/STM32G4xx_HAL_Driver/Src/stm32g4xx_ll_usb.c **** 
 119:Drivers/STM32G4xx_HAL_Driver/Src/stm32g4xx_ll_usb.c ****   /* Clear interrupt mask */
 120:Drivers/STM32G4xx_HAL_Driver/Src/stm32g4xx_ll_usb.c ****   USBx->CNTR &= (uint16_t)(~winterruptmask);
 107              		.loc 1 120 3 view .LVU21
 108              		.loc 1 120 7 is_stmt 0 view .LVU22
 109 0000 B0F84030 		ldrh	r3, [r0, #64]
 110              		.loc 1 120 14 view .LVU23
 111 0004 23F47E53 		bic	r3, r3, #16256
 112 0008 5B04     		lsls	r3, r3, #17
 113 000a 5B0C     		lsrs	r3, r3, #17
ARM GAS  C:\Users\Nathan\AppData\Local\Temp\ccyJNqjv.s 			page 5


 114 000c A0F84030 		strh	r3, [r0, #64]	@ movhi
 121:Drivers/STM32G4xx_HAL_Driver/Src/stm32g4xx_ll_usb.c **** 
 122:Drivers/STM32G4xx_HAL_Driver/Src/stm32g4xx_ll_usb.c ****   return HAL_OK;
 115              		.loc 1 122 3 is_stmt 1 view .LVU24
 123:Drivers/STM32G4xx_HAL_Driver/Src/stm32g4xx_ll_usb.c **** }
 116              		.loc 1 123 1 is_stmt 0 view .LVU25
 117 0010 0020     		movs	r0, #0
 118              	.LVL6:
 119              		.loc 1 123 1 view .LVU26
 120 0012 7047     		bx	lr
 121              		.cfi_endproc
 122              	.LFE134:
 124              		.section	.text.USB_SetCurrentMode,"ax",%progbits
 125              		.align	1
 126              		.global	USB_SetCurrentMode
 127              		.syntax unified
 128              		.thumb
 129              		.thumb_func
 131              	USB_SetCurrentMode:
 132              	.LVL7:
 133              	.LFB135:
 124:Drivers/STM32G4xx_HAL_Driver/Src/stm32g4xx_ll_usb.c **** 
 125:Drivers/STM32G4xx_HAL_Driver/Src/stm32g4xx_ll_usb.c **** /**
 126:Drivers/STM32G4xx_HAL_Driver/Src/stm32g4xx_ll_usb.c ****   * @brief  USB_SetCurrentMode Set functional mode
 127:Drivers/STM32G4xx_HAL_Driver/Src/stm32g4xx_ll_usb.c ****   * @param  USBx Selected device
 128:Drivers/STM32G4xx_HAL_Driver/Src/stm32g4xx_ll_usb.c ****   * @param  mode current core mode
 129:Drivers/STM32G4xx_HAL_Driver/Src/stm32g4xx_ll_usb.c ****   *          This parameter can be one of the these values:
 130:Drivers/STM32G4xx_HAL_Driver/Src/stm32g4xx_ll_usb.c ****   *            @arg USB_DEVICE_MODE Peripheral mode
 131:Drivers/STM32G4xx_HAL_Driver/Src/stm32g4xx_ll_usb.c ****   * @retval HAL status
 132:Drivers/STM32G4xx_HAL_Driver/Src/stm32g4xx_ll_usb.c ****   */
 133:Drivers/STM32G4xx_HAL_Driver/Src/stm32g4xx_ll_usb.c **** HAL_StatusTypeDef USB_SetCurrentMode(USB_TypeDef *USBx, USB_ModeTypeDef mode)
 134:Drivers/STM32G4xx_HAL_Driver/Src/stm32g4xx_ll_usb.c **** {
 134              		.loc 1 134 1 is_stmt 1 view -0
 135              		.cfi_startproc
 136              		@ args = 0, pretend = 0, frame = 0
 137              		@ frame_needed = 0, uses_anonymous_args = 0
 138              		@ link register save eliminated.
 135:Drivers/STM32G4xx_HAL_Driver/Src/stm32g4xx_ll_usb.c ****   /* Prevent unused argument(s) compilation warning */
 136:Drivers/STM32G4xx_HAL_Driver/Src/stm32g4xx_ll_usb.c ****   UNUSED(USBx);
 139              		.loc 1 136 3 view .LVU28
 137:Drivers/STM32G4xx_HAL_Driver/Src/stm32g4xx_ll_usb.c ****   UNUSED(mode);
 140              		.loc 1 137 3 view .LVU29
 138:Drivers/STM32G4xx_HAL_Driver/Src/stm32g4xx_ll_usb.c **** 
 139:Drivers/STM32G4xx_HAL_Driver/Src/stm32g4xx_ll_usb.c ****   /* NOTE : - This function is not required by USB Device FS peripheral, it is used
 140:Drivers/STM32G4xx_HAL_Driver/Src/stm32g4xx_ll_usb.c ****               only by USB OTG FS peripheral.
 141:Drivers/STM32G4xx_HAL_Driver/Src/stm32g4xx_ll_usb.c ****             - This function is added to ensure compatibility across platforms.
 142:Drivers/STM32G4xx_HAL_Driver/Src/stm32g4xx_ll_usb.c ****    */
 143:Drivers/STM32G4xx_HAL_Driver/Src/stm32g4xx_ll_usb.c ****   return HAL_OK;
 141              		.loc 1 143 3 view .LVU30
 144:Drivers/STM32G4xx_HAL_Driver/Src/stm32g4xx_ll_usb.c **** }
 142              		.loc 1 144 1 is_stmt 0 view .LVU31
 143 0000 0020     		movs	r0, #0
 144              	.LVL8:
 145              		.loc 1 144 1 view .LVU32
 146 0002 7047     		bx	lr
 147              		.cfi_endproc
 148              	.LFE135:
ARM GAS  C:\Users\Nathan\AppData\Local\Temp\ccyJNqjv.s 			page 6


 150              		.section	.text.USB_DevInit,"ax",%progbits
 151              		.align	1
 152              		.global	USB_DevInit
 153              		.syntax unified
 154              		.thumb
 155              		.thumb_func
 157              	USB_DevInit:
 158              	.LVL9:
 159              	.LFB136:
 145:Drivers/STM32G4xx_HAL_Driver/Src/stm32g4xx_ll_usb.c **** 
 146:Drivers/STM32G4xx_HAL_Driver/Src/stm32g4xx_ll_usb.c **** /**
 147:Drivers/STM32G4xx_HAL_Driver/Src/stm32g4xx_ll_usb.c ****   * @brief  USB_DevInit Initializes the USB controller registers
 148:Drivers/STM32G4xx_HAL_Driver/Src/stm32g4xx_ll_usb.c ****   *         for device mode
 149:Drivers/STM32G4xx_HAL_Driver/Src/stm32g4xx_ll_usb.c ****   * @param  USBx Selected device
 150:Drivers/STM32G4xx_HAL_Driver/Src/stm32g4xx_ll_usb.c ****   * @param  cfg  pointer to a USB_CfgTypeDef structure that contains
 151:Drivers/STM32G4xx_HAL_Driver/Src/stm32g4xx_ll_usb.c ****   *         the configuration information for the specified USBx peripheral.
 152:Drivers/STM32G4xx_HAL_Driver/Src/stm32g4xx_ll_usb.c ****   * @retval HAL status
 153:Drivers/STM32G4xx_HAL_Driver/Src/stm32g4xx_ll_usb.c ****   */
 154:Drivers/STM32G4xx_HAL_Driver/Src/stm32g4xx_ll_usb.c **** HAL_StatusTypeDef USB_DevInit(USB_TypeDef *USBx, USB_CfgTypeDef cfg)
 155:Drivers/STM32G4xx_HAL_Driver/Src/stm32g4xx_ll_usb.c **** {
 160              		.loc 1 155 1 is_stmt 1 view -0
 161              		.cfi_startproc
 162              		@ args = 0, pretend = 0, frame = 8
 163              		@ frame_needed = 0, uses_anonymous_args = 0
 164              		@ link register save eliminated.
 165              		.loc 1 155 1 is_stmt 0 view .LVU34
 166 0000 82B0     		sub	sp, sp, #8
 167              		.cfi_def_cfa_offset 8
 168 0002 0346     		mov	r3, r0
 169 0004 02A8     		add	r0, sp, #8
 170              	.LVL10:
 171              		.loc 1 155 1 view .LVU35
 172 0006 00E90600 		stmdb	r0, {r1, r2}
 156:Drivers/STM32G4xx_HAL_Driver/Src/stm32g4xx_ll_usb.c ****   /* Prevent unused argument(s) compilation warning */
 157:Drivers/STM32G4xx_HAL_Driver/Src/stm32g4xx_ll_usb.c ****   UNUSED(cfg);
 173              		.loc 1 157 3 is_stmt 1 view .LVU36
 158:Drivers/STM32G4xx_HAL_Driver/Src/stm32g4xx_ll_usb.c **** 
 159:Drivers/STM32G4xx_HAL_Driver/Src/stm32g4xx_ll_usb.c ****   /* Init Device */
 160:Drivers/STM32G4xx_HAL_Driver/Src/stm32g4xx_ll_usb.c ****   /* CNTR_FRES = 1 */
 161:Drivers/STM32G4xx_HAL_Driver/Src/stm32g4xx_ll_usb.c ****   USBx->CNTR = (uint16_t)USB_CNTR_FRES;
 174              		.loc 1 161 3 view .LVU37
 175              		.loc 1 161 14 is_stmt 0 view .LVU38
 176 000a 0122     		movs	r2, #1
 177 000c A3F84020 		strh	r2, [r3, #64]	@ movhi
 162:Drivers/STM32G4xx_HAL_Driver/Src/stm32g4xx_ll_usb.c **** 
 163:Drivers/STM32G4xx_HAL_Driver/Src/stm32g4xx_ll_usb.c ****   /* CNTR_FRES = 0 */
 164:Drivers/STM32G4xx_HAL_Driver/Src/stm32g4xx_ll_usb.c ****   USBx->CNTR = 0U;
 178              		.loc 1 164 3 is_stmt 1 view .LVU39
 179              		.loc 1 164 14 is_stmt 0 view .LVU40
 180 0010 0020     		movs	r0, #0
 181 0012 A3F84000 		strh	r0, [r3, #64]	@ movhi
 165:Drivers/STM32G4xx_HAL_Driver/Src/stm32g4xx_ll_usb.c **** 
 166:Drivers/STM32G4xx_HAL_Driver/Src/stm32g4xx_ll_usb.c ****   /* Clear pending interrupts */
 167:Drivers/STM32G4xx_HAL_Driver/Src/stm32g4xx_ll_usb.c ****   USBx->ISTR = 0U;
 182              		.loc 1 167 3 is_stmt 1 view .LVU41
 183              		.loc 1 167 14 is_stmt 0 view .LVU42
 184 0016 A3F84400 		strh	r0, [r3, #68]	@ movhi
ARM GAS  C:\Users\Nathan\AppData\Local\Temp\ccyJNqjv.s 			page 7


 168:Drivers/STM32G4xx_HAL_Driver/Src/stm32g4xx_ll_usb.c **** 
 169:Drivers/STM32G4xx_HAL_Driver/Src/stm32g4xx_ll_usb.c ****   /*Set Btable Address*/
 170:Drivers/STM32G4xx_HAL_Driver/Src/stm32g4xx_ll_usb.c ****   USBx->BTABLE = BTABLE_ADDRESS;
 185              		.loc 1 170 3 is_stmt 1 view .LVU43
 186              		.loc 1 170 16 is_stmt 0 view .LVU44
 187 001a A3F85000 		strh	r0, [r3, #80]	@ movhi
 171:Drivers/STM32G4xx_HAL_Driver/Src/stm32g4xx_ll_usb.c **** 
 172:Drivers/STM32G4xx_HAL_Driver/Src/stm32g4xx_ll_usb.c ****   return HAL_OK;
 188              		.loc 1 172 3 is_stmt 1 view .LVU45
 173:Drivers/STM32G4xx_HAL_Driver/Src/stm32g4xx_ll_usb.c **** }
 189              		.loc 1 173 1 is_stmt 0 view .LVU46
 190 001e 02B0     		add	sp, sp, #8
 191              		.cfi_def_cfa_offset 0
 192              		@ sp needed
 193 0020 7047     		bx	lr
 194              		.cfi_endproc
 195              	.LFE136:
 197              		.section	.text.USB_FlushTxFifo,"ax",%progbits
 198              		.align	1
 199              		.global	USB_FlushTxFifo
 200              		.syntax unified
 201              		.thumb
 202              		.thumb_func
 204              	USB_FlushTxFifo:
 205              	.LVL11:
 206              	.LFB137:
 174:Drivers/STM32G4xx_HAL_Driver/Src/stm32g4xx_ll_usb.c **** 
 175:Drivers/STM32G4xx_HAL_Driver/Src/stm32g4xx_ll_usb.c **** /**
 176:Drivers/STM32G4xx_HAL_Driver/Src/stm32g4xx_ll_usb.c ****   * @brief  USB_FlushTxFifo : Flush a Tx FIFO
 177:Drivers/STM32G4xx_HAL_Driver/Src/stm32g4xx_ll_usb.c ****   * @param  USBx : Selected device
 178:Drivers/STM32G4xx_HAL_Driver/Src/stm32g4xx_ll_usb.c ****   * @param  num : FIFO number
 179:Drivers/STM32G4xx_HAL_Driver/Src/stm32g4xx_ll_usb.c ****   *         This parameter can be a value from 1 to 15
 180:Drivers/STM32G4xx_HAL_Driver/Src/stm32g4xx_ll_usb.c ****             15 means Flush all Tx FIFOs
 181:Drivers/STM32G4xx_HAL_Driver/Src/stm32g4xx_ll_usb.c ****   * @retval HAL status
 182:Drivers/STM32G4xx_HAL_Driver/Src/stm32g4xx_ll_usb.c ****   */
 183:Drivers/STM32G4xx_HAL_Driver/Src/stm32g4xx_ll_usb.c **** HAL_StatusTypeDef USB_FlushTxFifo(USB_TypeDef const *USBx, uint32_t num)
 184:Drivers/STM32G4xx_HAL_Driver/Src/stm32g4xx_ll_usb.c **** {
 207              		.loc 1 184 1 is_stmt 1 view -0
 208              		.cfi_startproc
 209              		@ args = 0, pretend = 0, frame = 0
 210              		@ frame_needed = 0, uses_anonymous_args = 0
 211              		@ link register save eliminated.
 185:Drivers/STM32G4xx_HAL_Driver/Src/stm32g4xx_ll_usb.c ****   /* Prevent unused argument(s) compilation warning */
 186:Drivers/STM32G4xx_HAL_Driver/Src/stm32g4xx_ll_usb.c ****   UNUSED(USBx);
 212              		.loc 1 186 3 view .LVU48
 187:Drivers/STM32G4xx_HAL_Driver/Src/stm32g4xx_ll_usb.c ****   UNUSED(num);
 213              		.loc 1 187 3 view .LVU49
 188:Drivers/STM32G4xx_HAL_Driver/Src/stm32g4xx_ll_usb.c **** 
 189:Drivers/STM32G4xx_HAL_Driver/Src/stm32g4xx_ll_usb.c ****   /* NOTE : - This function is not required by USB Device FS peripheral, it is used
 190:Drivers/STM32G4xx_HAL_Driver/Src/stm32g4xx_ll_usb.c ****               only by USB OTG FS peripheral.
 191:Drivers/STM32G4xx_HAL_Driver/Src/stm32g4xx_ll_usb.c ****             - This function is added to ensure compatibility across platforms.
 192:Drivers/STM32G4xx_HAL_Driver/Src/stm32g4xx_ll_usb.c ****    */
 193:Drivers/STM32G4xx_HAL_Driver/Src/stm32g4xx_ll_usb.c **** 
 194:Drivers/STM32G4xx_HAL_Driver/Src/stm32g4xx_ll_usb.c ****   return HAL_OK;
 214              		.loc 1 194 3 view .LVU50
 195:Drivers/STM32G4xx_HAL_Driver/Src/stm32g4xx_ll_usb.c **** }
 215              		.loc 1 195 1 is_stmt 0 view .LVU51
ARM GAS  C:\Users\Nathan\AppData\Local\Temp\ccyJNqjv.s 			page 8


 216 0000 0020     		movs	r0, #0
 217              	.LVL12:
 218              		.loc 1 195 1 view .LVU52
 219 0002 7047     		bx	lr
 220              		.cfi_endproc
 221              	.LFE137:
 223              		.section	.text.USB_FlushRxFifo,"ax",%progbits
 224              		.align	1
 225              		.global	USB_FlushRxFifo
 226              		.syntax unified
 227              		.thumb
 228              		.thumb_func
 230              	USB_FlushRxFifo:
 231              	.LVL13:
 232              	.LFB138:
 196:Drivers/STM32G4xx_HAL_Driver/Src/stm32g4xx_ll_usb.c **** 
 197:Drivers/STM32G4xx_HAL_Driver/Src/stm32g4xx_ll_usb.c **** /**
 198:Drivers/STM32G4xx_HAL_Driver/Src/stm32g4xx_ll_usb.c ****   * @brief  USB_FlushRxFifo : Flush Rx FIFO
 199:Drivers/STM32G4xx_HAL_Driver/Src/stm32g4xx_ll_usb.c ****   * @param  USBx : Selected device
 200:Drivers/STM32G4xx_HAL_Driver/Src/stm32g4xx_ll_usb.c ****   * @retval HAL status
 201:Drivers/STM32G4xx_HAL_Driver/Src/stm32g4xx_ll_usb.c ****   */
 202:Drivers/STM32G4xx_HAL_Driver/Src/stm32g4xx_ll_usb.c **** HAL_StatusTypeDef USB_FlushRxFifo(USB_TypeDef const *USBx)
 203:Drivers/STM32G4xx_HAL_Driver/Src/stm32g4xx_ll_usb.c **** {
 233              		.loc 1 203 1 is_stmt 1 view -0
 234              		.cfi_startproc
 235              		@ args = 0, pretend = 0, frame = 0
 236              		@ frame_needed = 0, uses_anonymous_args = 0
 237              		@ link register save eliminated.
 204:Drivers/STM32G4xx_HAL_Driver/Src/stm32g4xx_ll_usb.c ****   /* Prevent unused argument(s) compilation warning */
 205:Drivers/STM32G4xx_HAL_Driver/Src/stm32g4xx_ll_usb.c ****   UNUSED(USBx);
 238              		.loc 1 205 3 view .LVU54
 206:Drivers/STM32G4xx_HAL_Driver/Src/stm32g4xx_ll_usb.c **** 
 207:Drivers/STM32G4xx_HAL_Driver/Src/stm32g4xx_ll_usb.c ****   /* NOTE : - This function is not required by USB Device FS peripheral, it is used
 208:Drivers/STM32G4xx_HAL_Driver/Src/stm32g4xx_ll_usb.c ****               only by USB OTG FS peripheral.
 209:Drivers/STM32G4xx_HAL_Driver/Src/stm32g4xx_ll_usb.c ****             - This function is added to ensure compatibility across platforms.
 210:Drivers/STM32G4xx_HAL_Driver/Src/stm32g4xx_ll_usb.c ****    */
 211:Drivers/STM32G4xx_HAL_Driver/Src/stm32g4xx_ll_usb.c **** 
 212:Drivers/STM32G4xx_HAL_Driver/Src/stm32g4xx_ll_usb.c ****   return HAL_OK;
 239              		.loc 1 212 3 view .LVU55
 213:Drivers/STM32G4xx_HAL_Driver/Src/stm32g4xx_ll_usb.c **** }
 240              		.loc 1 213 1 is_stmt 0 view .LVU56
 241 0000 0020     		movs	r0, #0
 242              	.LVL14:
 243              		.loc 1 213 1 view .LVU57
 244 0002 7047     		bx	lr
 245              		.cfi_endproc
 246              	.LFE138:
 248              		.section	.text.USB_ActivateEndpoint,"ax",%progbits
 249              		.align	1
 250              		.global	USB_ActivateEndpoint
 251              		.syntax unified
 252              		.thumb
 253              		.thumb_func
 255              	USB_ActivateEndpoint:
 256              	.LVL15:
 257              	.LFB139:
 214:Drivers/STM32G4xx_HAL_Driver/Src/stm32g4xx_ll_usb.c **** 
ARM GAS  C:\Users\Nathan\AppData\Local\Temp\ccyJNqjv.s 			page 9


 215:Drivers/STM32G4xx_HAL_Driver/Src/stm32g4xx_ll_usb.c **** 
 216:Drivers/STM32G4xx_HAL_Driver/Src/stm32g4xx_ll_usb.c **** #if defined (HAL_PCD_MODULE_ENABLED)
 217:Drivers/STM32G4xx_HAL_Driver/Src/stm32g4xx_ll_usb.c **** /**
 218:Drivers/STM32G4xx_HAL_Driver/Src/stm32g4xx_ll_usb.c ****   * @brief  Activate and configure an endpoint
 219:Drivers/STM32G4xx_HAL_Driver/Src/stm32g4xx_ll_usb.c ****   * @param  USBx Selected device
 220:Drivers/STM32G4xx_HAL_Driver/Src/stm32g4xx_ll_usb.c ****   * @param  ep pointer to endpoint structure
 221:Drivers/STM32G4xx_HAL_Driver/Src/stm32g4xx_ll_usb.c ****   * @retval HAL status
 222:Drivers/STM32G4xx_HAL_Driver/Src/stm32g4xx_ll_usb.c ****   */
 223:Drivers/STM32G4xx_HAL_Driver/Src/stm32g4xx_ll_usb.c **** HAL_StatusTypeDef USB_ActivateEndpoint(USB_TypeDef *USBx, USB_EPTypeDef *ep)
 224:Drivers/STM32G4xx_HAL_Driver/Src/stm32g4xx_ll_usb.c **** {
 258              		.loc 1 224 1 is_stmt 1 view -0
 259              		.cfi_startproc
 260              		@ args = 0, pretend = 0, frame = 0
 261              		@ frame_needed = 0, uses_anonymous_args = 0
 262              		.loc 1 224 1 is_stmt 0 view .LVU59
 263 0000 10B5     		push	{r4, lr}
 264              		.cfi_def_cfa_offset 8
 265              		.cfi_offset 4, -8
 266              		.cfi_offset 14, -4
 267 0002 0346     		mov	r3, r0
 225:Drivers/STM32G4xx_HAL_Driver/Src/stm32g4xx_ll_usb.c ****   HAL_StatusTypeDef ret = HAL_OK;
 268              		.loc 1 225 3 is_stmt 1 view .LVU60
 269              	.LVL16:
 226:Drivers/STM32G4xx_HAL_Driver/Src/stm32g4xx_ll_usb.c ****   uint16_t wEpRegVal;
 270              		.loc 1 226 3 view .LVU61
 227:Drivers/STM32G4xx_HAL_Driver/Src/stm32g4xx_ll_usb.c **** 
 228:Drivers/STM32G4xx_HAL_Driver/Src/stm32g4xx_ll_usb.c ****   wEpRegVal = PCD_GET_ENDPOINT(USBx, ep->num) & USB_EP_T_MASK;
 271              		.loc 1 228 3 view .LVU62
 272              		.loc 1 228 15 is_stmt 0 view .LVU63
 273 0004 91F800C0 		ldrb	ip, [r1]	@ zero_extendqisi2
 274              		.loc 1 228 47 view .LVU64
 275 0008 30F82C20 		ldrh	r2, [r0, ip, lsl #2]
 276 000c 92B2     		uxth	r2, r2
 277              		.loc 1 228 13 view .LVU65
 278 000e 22F4EC42 		bic	r2, r2, #30208
 279 0012 22F07002 		bic	r2, r2, #112
 280 0016 92B2     		uxth	r2, r2
 281              	.LVL17:
 229:Drivers/STM32G4xx_HAL_Driver/Src/stm32g4xx_ll_usb.c **** 
 230:Drivers/STM32G4xx_HAL_Driver/Src/stm32g4xx_ll_usb.c ****   /* initialize Endpoint */
 231:Drivers/STM32G4xx_HAL_Driver/Src/stm32g4xx_ll_usb.c ****   switch (ep->type)
 282              		.loc 1 231 3 is_stmt 1 view .LVU66
 283              		.loc 1 231 13 is_stmt 0 view .LVU67
 284 0018 C878     		ldrb	r0, [r1, #3]	@ zero_extendqisi2
 285              	.LVL18:
 286              		.loc 1 231 3 view .LVU68
 287 001a 0328     		cmp	r0, #3
 288 001c 61D8     		bhi	.L50
 289 001e DFE800F0 		tbb	[pc, r0]
 290              	.L13:
 291 0022 55       		.byte	(.L16-.L13)/2
 292 0023 5C       		.byte	(.L15-.L13)/2
 293 0024 02       		.byte	(.L14-.L13)/2
 294 0025 58       		.byte	(.L12-.L13)/2
 295              		.p2align 1
 296              	.L14:
 297 0026 0020     		movs	r0, #0
ARM GAS  C:\Users\Nathan\AppData\Local\Temp\ccyJNqjv.s 			page 10


 298              	.L11:
 299              	.LVL19:
 232:Drivers/STM32G4xx_HAL_Driver/Src/stm32g4xx_ll_usb.c ****   {
 233:Drivers/STM32G4xx_HAL_Driver/Src/stm32g4xx_ll_usb.c ****     case EP_TYPE_CTRL:
 234:Drivers/STM32G4xx_HAL_Driver/Src/stm32g4xx_ll_usb.c ****       wEpRegVal |= USB_EP_CONTROL;
 235:Drivers/STM32G4xx_HAL_Driver/Src/stm32g4xx_ll_usb.c ****       break;
 236:Drivers/STM32G4xx_HAL_Driver/Src/stm32g4xx_ll_usb.c **** 
 237:Drivers/STM32G4xx_HAL_Driver/Src/stm32g4xx_ll_usb.c ****     case EP_TYPE_BULK:
 238:Drivers/STM32G4xx_HAL_Driver/Src/stm32g4xx_ll_usb.c ****       wEpRegVal |= USB_EP_BULK;
 239:Drivers/STM32G4xx_HAL_Driver/Src/stm32g4xx_ll_usb.c ****       break;
 240:Drivers/STM32G4xx_HAL_Driver/Src/stm32g4xx_ll_usb.c **** 
 241:Drivers/STM32G4xx_HAL_Driver/Src/stm32g4xx_ll_usb.c ****     case EP_TYPE_INTR:
 242:Drivers/STM32G4xx_HAL_Driver/Src/stm32g4xx_ll_usb.c ****       wEpRegVal |= USB_EP_INTERRUPT;
 243:Drivers/STM32G4xx_HAL_Driver/Src/stm32g4xx_ll_usb.c ****       break;
 244:Drivers/STM32G4xx_HAL_Driver/Src/stm32g4xx_ll_usb.c **** 
 245:Drivers/STM32G4xx_HAL_Driver/Src/stm32g4xx_ll_usb.c ****     case EP_TYPE_ISOC:
 246:Drivers/STM32G4xx_HAL_Driver/Src/stm32g4xx_ll_usb.c ****       wEpRegVal |= USB_EP_ISOCHRONOUS;
 247:Drivers/STM32G4xx_HAL_Driver/Src/stm32g4xx_ll_usb.c ****       break;
 248:Drivers/STM32G4xx_HAL_Driver/Src/stm32g4xx_ll_usb.c **** 
 249:Drivers/STM32G4xx_HAL_Driver/Src/stm32g4xx_ll_usb.c ****     default:
 250:Drivers/STM32G4xx_HAL_Driver/Src/stm32g4xx_ll_usb.c ****       ret = HAL_ERROR;
 251:Drivers/STM32G4xx_HAL_Driver/Src/stm32g4xx_ll_usb.c ****       break;
 252:Drivers/STM32G4xx_HAL_Driver/Src/stm32g4xx_ll_usb.c ****   }
 253:Drivers/STM32G4xx_HAL_Driver/Src/stm32g4xx_ll_usb.c **** 
 254:Drivers/STM32G4xx_HAL_Driver/Src/stm32g4xx_ll_usb.c ****   PCD_SET_ENDPOINT(USBx, ep->num, (wEpRegVal | USB_EP_CTR_RX | USB_EP_CTR_TX));
 300              		.loc 1 254 3 is_stmt 1 view .LVU69
 301 0028 48F2800E 		movw	lr, #32896
 302 002c 42EA0E02 		orr	r2, r2, lr
 303              	.LVL20:
 304              		.loc 1 254 3 is_stmt 0 view .LVU70
 305 0030 23F82C20 		strh	r2, [r3, ip, lsl #2]	@ movhi
 255:Drivers/STM32G4xx_HAL_Driver/Src/stm32g4xx_ll_usb.c **** 
 256:Drivers/STM32G4xx_HAL_Driver/Src/stm32g4xx_ll_usb.c ****   PCD_SET_EP_ADDRESS(USBx, ep->num, ep->num);
 306              		.loc 1 256 3 is_stmt 1 view .LVU71
 307              	.LBB2:
 308              		.loc 1 256 3 view .LVU72
 309              		.loc 1 256 3 view .LVU73
 310 0034 91F800C0 		ldrb	ip, [r1]	@ zero_extendqisi2
 311 0038 33F82C20 		ldrh	r2, [r3, ip, lsl #2]
 312 003c 92B2     		uxth	r2, r2
 313 003e 22F4E042 		bic	r2, r2, #28672
 314 0042 22F07002 		bic	r2, r2, #112
 315 0046 4CEA0202 		orr	r2, ip, r2
 316              	.LVL21:
 317              		.loc 1 256 3 view .LVU74
 318 004a 42EA0E02 		orr	r2, r2, lr
 319              	.LVL22:
 320              		.loc 1 256 3 is_stmt 0 view .LVU75
 321 004e 23F82C20 		strh	r2, [r3, ip, lsl #2]	@ movhi
 322              	.LBE2:
 323              		.loc 1 256 3 is_stmt 1 view .LVU76
 257:Drivers/STM32G4xx_HAL_Driver/Src/stm32g4xx_ll_usb.c **** 
 258:Drivers/STM32G4xx_HAL_Driver/Src/stm32g4xx_ll_usb.c ****   if (ep->doublebuffer == 0U)
 324              		.loc 1 258 3 view .LVU77
 325              		.loc 1 258 9 is_stmt 0 view .LVU78
 326 0052 0A7B     		ldrb	r2, [r1, #12]	@ zero_extendqisi2
 327              		.loc 1 258 6 view .LVU79
ARM GAS  C:\Users\Nathan\AppData\Local\Temp\ccyJNqjv.s 			page 11


 328 0054 002A     		cmp	r2, #0
 329 0056 40F0DC80 		bne	.L17
 259:Drivers/STM32G4xx_HAL_Driver/Src/stm32g4xx_ll_usb.c ****   {
 260:Drivers/STM32G4xx_HAL_Driver/Src/stm32g4xx_ll_usb.c ****     if (ep->is_in != 0U)
 330              		.loc 1 260 5 is_stmt 1 view .LVU80
 331              		.loc 1 260 11 is_stmt 0 view .LVU81
 332 005a 4A78     		ldrb	r2, [r1, #1]	@ zero_extendqisi2
 333              		.loc 1 260 8 view .LVU82
 334 005c 002A     		cmp	r2, #0
 335 005e 51D0     		beq	.L18
 261:Drivers/STM32G4xx_HAL_Driver/Src/stm32g4xx_ll_usb.c ****     {
 262:Drivers/STM32G4xx_HAL_Driver/Src/stm32g4xx_ll_usb.c ****       /*Set the endpoint Transmit buffer address */
 263:Drivers/STM32G4xx_HAL_Driver/Src/stm32g4xx_ll_usb.c ****       PCD_SET_EP_TX_ADDRESS(USBx, ep->num, ep->pmaadress);
 336              		.loc 1 263 7 is_stmt 1 view .LVU83
 337              	.LBB3:
 338              		.loc 1 263 7 view .LVU84
 339              		.loc 1 263 7 view .LVU85
 340              	.LVL23:
 341              		.loc 1 263 7 view .LVU86
 342 0060 B3F85020 		ldrh	r2, [r3, #80]
 343 0064 13FA82F2 		uxtah	r2, r3, r2
 344              	.LVL24:
 345              		.loc 1 263 7 view .LVU87
 346 0068 0C78     		ldrb	r4, [r1]	@ zero_extendqisi2
 347 006a 02EBC402 		add	r2, r2, r4, lsl #3
 348              	.LVL25:
 349              		.loc 1 263 7 view .LVU88
 350 006e B1F806C0 		ldrh	ip, [r1, #6]
 351              		.loc 1 263 7 is_stmt 0 view .LVU89
 352 0072 4FEA5C0C 		lsr	ip, ip, #1
 353 0076 4FEA4C0C 		lsl	ip, ip, #1
 354 007a A2F800C4 		strh	ip, [r2, #1024]	@ movhi
 355              	.LBE3:
 356              		.loc 1 263 7 is_stmt 1 view .LVU90
 264:Drivers/STM32G4xx_HAL_Driver/Src/stm32g4xx_ll_usb.c ****       PCD_CLEAR_TX_DTOG(USBx, ep->num);
 357              		.loc 1 264 7 view .LVU91
 358              	.LBB4:
 359              		.loc 1 264 7 view .LVU92
 360              		.loc 1 264 7 view .LVU93
 361 007e 0C78     		ldrb	r4, [r1]	@ zero_extendqisi2
 362 0080 33F82420 		ldrh	r2, [r3, r4, lsl #2]
 363              	.LVL26:
 364              		.loc 1 264 7 view .LVU94
 365 0084 12F0400F 		tst	r2, #64
 366 0088 0CD0     		beq	.L19
 367              		.loc 1 264 7 discriminator 1 view .LVU95
 368              	.LBB5:
 369              		.loc 1 264 7 discriminator 1 view .LVU96
 370              		.loc 1 264 7 discriminator 1 view .LVU97
 371 008a 33F82420 		ldrh	r2, [r3, r4, lsl #2]
 372              	.LVL27:
 373              		.loc 1 264 7 is_stmt 0 discriminator 1 view .LVU98
 374 008e 92B2     		uxth	r2, r2
 375 0090 22F4E042 		bic	r2, r2, #28672
 376 0094 22F07002 		bic	r2, r2, #112
 377              	.LVL28:
 378              		.loc 1 264 7 is_stmt 1 view .LVU99
ARM GAS  C:\Users\Nathan\AppData\Local\Temp\ccyJNqjv.s 			page 12


 379              		.loc 1 264 7 is_stmt 0 discriminator 1 view .LVU100
 380 0098 42F40042 		orr	r2, r2, #32768
 381              	.LVL29:
 382              		.loc 1 264 7 discriminator 1 view .LVU101
 383 009c 42F0C002 		orr	r2, r2, #192
 384 00a0 23F82420 		strh	r2, [r3, r4, lsl #2]	@ movhi
 385              	.LVL30:
 386              	.L19:
 387              		.loc 1 264 7 discriminator 1 view .LVU102
 388              	.LBE5:
 389              		.loc 1 264 7 is_stmt 1 discriminator 3 view .LVU103
 390              	.LBE4:
 391              		.loc 1 264 7 discriminator 3 view .LVU104
 265:Drivers/STM32G4xx_HAL_Driver/Src/stm32g4xx_ll_usb.c **** 
 266:Drivers/STM32G4xx_HAL_Driver/Src/stm32g4xx_ll_usb.c ****       if (ep->type != EP_TYPE_ISOC)
 392              		.loc 1 266 7 view .LVU105
 393              		.loc 1 266 13 is_stmt 0 view .LVU106
 394 00a4 CA78     		ldrb	r2, [r1, #3]	@ zero_extendqisi2
 395              		.loc 1 266 10 view .LVU107
 396 00a6 012A     		cmp	r2, #1
 397 00a8 1DD0     		beq	.L20
 267:Drivers/STM32G4xx_HAL_Driver/Src/stm32g4xx_ll_usb.c ****       {
 268:Drivers/STM32G4xx_HAL_Driver/Src/stm32g4xx_ll_usb.c ****         /* Configure NAK status for the Endpoint */
 269:Drivers/STM32G4xx_HAL_Driver/Src/stm32g4xx_ll_usb.c ****         PCD_SET_EP_TX_STATUS(USBx, ep->num, USB_EP_TX_NAK);
 398              		.loc 1 269 9 is_stmt 1 view .LVU108
 399              	.LBB6:
 400              		.loc 1 269 9 view .LVU109
 401              		.loc 1 269 9 view .LVU110
 402 00aa 0978     		ldrb	r1, [r1]	@ zero_extendqisi2
 403              	.LVL31:
 404              		.loc 1 269 9 is_stmt 0 view .LVU111
 405 00ac 33F82120 		ldrh	r2, [r3, r1, lsl #2]
 406 00b0 92B2     		uxth	r2, r2
 407 00b2 22F4E042 		bic	r2, r2, #28672
 408 00b6 22F04002 		bic	r2, r2, #64
 409              	.LVL32:
 410              		.loc 1 269 9 is_stmt 1 view .LVU112
 411              		.loc 1 269 9 discriminator 3 view .LVU113
 412              		.loc 1 269 9 discriminator 4 view .LVU114
 413 00ba 82F02002 		eor	r2, r2, #32
 414              	.LVL33:
 415              		.loc 1 269 9 discriminator 6 view .LVU115
 416 00be 42F40042 		orr	r2, r2, #32768
 417              	.LVL34:
 418              		.loc 1 269 9 is_stmt 0 discriminator 6 view .LVU116
 419 00c2 42F08002 		orr	r2, r2, #128
 420 00c6 23F82120 		strh	r2, [r3, r1, lsl #2]	@ movhi
 421              	.LBE6:
 422              		.loc 1 269 9 is_stmt 1 view .LVU117
 423 00ca C3E1     		b	.L21
 424              	.LVL35:
 425              	.L16:
 234:Drivers/STM32G4xx_HAL_Driver/Src/stm32g4xx_ll_usb.c ****       break;
 426              		.loc 1 234 7 view .LVU118
 234:Drivers/STM32G4xx_HAL_Driver/Src/stm32g4xx_ll_usb.c ****       break;
 427              		.loc 1 234 17 is_stmt 0 view .LVU119
 428 00cc 42F40072 		orr	r2, r2, #512
ARM GAS  C:\Users\Nathan\AppData\Local\Temp\ccyJNqjv.s 			page 13


 429              	.LVL36:
 235:Drivers/STM32G4xx_HAL_Driver/Src/stm32g4xx_ll_usb.c **** 
 430              		.loc 1 235 7 is_stmt 1 view .LVU120
 431 00d0 AAE7     		b	.L11
 432              	.L12:
 242:Drivers/STM32G4xx_HAL_Driver/Src/stm32g4xx_ll_usb.c ****       break;
 433              		.loc 1 242 7 view .LVU121
 242:Drivers/STM32G4xx_HAL_Driver/Src/stm32g4xx_ll_usb.c ****       break;
 434              		.loc 1 242 17 is_stmt 0 view .LVU122
 435 00d2 42F4C062 		orr	r2, r2, #1536
 436              	.LVL37:
 243:Drivers/STM32G4xx_HAL_Driver/Src/stm32g4xx_ll_usb.c **** 
 437              		.loc 1 243 7 is_stmt 1 view .LVU123
 225:Drivers/STM32G4xx_HAL_Driver/Src/stm32g4xx_ll_usb.c ****   uint16_t wEpRegVal;
 438              		.loc 1 225 21 is_stmt 0 view .LVU124
 439 00d6 0020     		movs	r0, #0
 243:Drivers/STM32G4xx_HAL_Driver/Src/stm32g4xx_ll_usb.c **** 
 440              		.loc 1 243 7 view .LVU125
 441 00d8 A6E7     		b	.L11
 442              	.L15:
 246:Drivers/STM32G4xx_HAL_Driver/Src/stm32g4xx_ll_usb.c ****       break;
 443              		.loc 1 246 7 is_stmt 1 view .LVU126
 246:Drivers/STM32G4xx_HAL_Driver/Src/stm32g4xx_ll_usb.c ****       break;
 444              		.loc 1 246 17 is_stmt 0 view .LVU127
 445 00da 42F48062 		orr	r2, r2, #1024
 446              	.LVL38:
 247:Drivers/STM32G4xx_HAL_Driver/Src/stm32g4xx_ll_usb.c **** 
 447              		.loc 1 247 7 is_stmt 1 view .LVU128
 225:Drivers/STM32G4xx_HAL_Driver/Src/stm32g4xx_ll_usb.c ****   uint16_t wEpRegVal;
 448              		.loc 1 225 21 is_stmt 0 view .LVU129
 449 00de 0020     		movs	r0, #0
 247:Drivers/STM32G4xx_HAL_Driver/Src/stm32g4xx_ll_usb.c **** 
 450              		.loc 1 247 7 view .LVU130
 451 00e0 A2E7     		b	.L11
 452              	.L50:
 250:Drivers/STM32G4xx_HAL_Driver/Src/stm32g4xx_ll_usb.c ****       break;
 453              		.loc 1 250 11 view .LVU131
 454 00e2 0120     		movs	r0, #1
 455 00e4 A0E7     		b	.L11
 456              	.LVL39:
 457              	.L20:
 270:Drivers/STM32G4xx_HAL_Driver/Src/stm32g4xx_ll_usb.c ****       }
 271:Drivers/STM32G4xx_HAL_Driver/Src/stm32g4xx_ll_usb.c ****       else
 272:Drivers/STM32G4xx_HAL_Driver/Src/stm32g4xx_ll_usb.c ****       {
 273:Drivers/STM32G4xx_HAL_Driver/Src/stm32g4xx_ll_usb.c ****         /* Configure TX Endpoint to disabled state */
 274:Drivers/STM32G4xx_HAL_Driver/Src/stm32g4xx_ll_usb.c ****         PCD_SET_EP_TX_STATUS(USBx, ep->num, USB_EP_TX_DIS);
 458              		.loc 1 274 9 is_stmt 1 view .LVU132
 459              	.LBB7:
 460              		.loc 1 274 9 view .LVU133
 461              		.loc 1 274 9 view .LVU134
 462 00e6 0978     		ldrb	r1, [r1]	@ zero_extendqisi2
 463              	.LVL40:
 464              		.loc 1 274 9 is_stmt 0 view .LVU135
 465 00e8 33F82120 		ldrh	r2, [r3, r1, lsl #2]
 466 00ec 92B2     		uxth	r2, r2
 467 00ee 22F4E042 		bic	r2, r2, #28672
 468 00f2 22F04002 		bic	r2, r2, #64
ARM GAS  C:\Users\Nathan\AppData\Local\Temp\ccyJNqjv.s 			page 14


 469              	.LVL41:
 470              		.loc 1 274 9 is_stmt 1 view .LVU136
 471              		.loc 1 274 9 discriminator 3 view .LVU137
 472              		.loc 1 274 9 discriminator 6 view .LVU138
 473 00f6 42F40042 		orr	r2, r2, #32768
 474              	.LVL42:
 475              		.loc 1 274 9 is_stmt 0 discriminator 6 view .LVU139
 476 00fa 42F08002 		orr	r2, r2, #128
 477 00fe 23F82120 		strh	r2, [r3, r1, lsl #2]	@ movhi
 478 0102 A7E1     		b	.L21
 479              	.LVL43:
 480              	.L18:
 481              		.loc 1 274 9 discriminator 6 view .LVU140
 482              	.LBE7:
 275:Drivers/STM32G4xx_HAL_Driver/Src/stm32g4xx_ll_usb.c ****       }
 276:Drivers/STM32G4xx_HAL_Driver/Src/stm32g4xx_ll_usb.c ****     }
 277:Drivers/STM32G4xx_HAL_Driver/Src/stm32g4xx_ll_usb.c ****     else
 278:Drivers/STM32G4xx_HAL_Driver/Src/stm32g4xx_ll_usb.c ****     {
 279:Drivers/STM32G4xx_HAL_Driver/Src/stm32g4xx_ll_usb.c ****       /* Set the endpoint Receive buffer address */
 280:Drivers/STM32G4xx_HAL_Driver/Src/stm32g4xx_ll_usb.c ****       PCD_SET_EP_RX_ADDRESS(USBx, ep->num, ep->pmaadress);
 483              		.loc 1 280 7 is_stmt 1 view .LVU141
 484              	.LBB8:
 485              		.loc 1 280 7 view .LVU142
 486              		.loc 1 280 7 view .LVU143
 487              		.loc 1 280 7 view .LVU144
 488 0104 B3F85020 		ldrh	r2, [r3, #80]
 489 0108 13FA82F2 		uxtah	r2, r3, r2
 490              	.LVL44:
 491              		.loc 1 280 7 view .LVU145
 492 010c 0C78     		ldrb	r4, [r1]	@ zero_extendqisi2
 493 010e 02EBC402 		add	r2, r2, r4, lsl #3
 494              	.LVL45:
 495              		.loc 1 280 7 view .LVU146
 496 0112 B1F806C0 		ldrh	ip, [r1, #6]
 497              		.loc 1 280 7 is_stmt 0 view .LVU147
 498 0116 4FEA5C0C 		lsr	ip, ip, #1
 499 011a 4FEA4C0C 		lsl	ip, ip, #1
 500 011e A2F804C4 		strh	ip, [r2, #1028]	@ movhi
 501              	.LBE8:
 502              		.loc 1 280 7 is_stmt 1 view .LVU148
 281:Drivers/STM32G4xx_HAL_Driver/Src/stm32g4xx_ll_usb.c **** 
 282:Drivers/STM32G4xx_HAL_Driver/Src/stm32g4xx_ll_usb.c ****       /* Set the endpoint Receive buffer counter */
 283:Drivers/STM32G4xx_HAL_Driver/Src/stm32g4xx_ll_usb.c ****       PCD_SET_EP_RX_CNT(USBx, ep->num, ep->maxpacket);
 503              		.loc 1 283 7 view .LVU149
 504              	.LBB9:
 505              		.loc 1 283 7 view .LVU150
 506              	.LVL46:
 507              		.loc 1 283 7 view .LVU151
 508              		.loc 1 283 7 view .LVU152
 509 0122 B3F85020 		ldrh	r2, [r3, #80]
 510              	.LVL47:
 511              		.loc 1 283 7 is_stmt 0 view .LVU153
 512 0126 13FA82F2 		uxtah	r2, r3, r2
 513              	.LVL48:
 514              		.loc 1 283 7 is_stmt 1 view .LVU154
 515 012a 0C78     		ldrb	r4, [r1]	@ zero_extendqisi2
 516              		.loc 1 283 7 is_stmt 0 view .LVU155
ARM GAS  C:\Users\Nathan\AppData\Local\Temp\ccyJNqjv.s 			page 15


 517 012c 02EBC402 		add	r2, r2, r4, lsl #3
 518              	.LVL49:
 519              		.loc 1 283 7 is_stmt 1 view .LVU156
 520              	.LBB10:
 521              		.loc 1 283 7 view .LVU157
 522              		.loc 1 283 7 view .LVU158
 523 0130 B2F806C4 		ldrh	ip, [r2, #1030]
 524 0134 CCF3090C 		ubfx	ip, ip, #0, #10
 525 0138 A2F806C4 		strh	ip, [r2, #1030]	@ movhi
 526              		.loc 1 283 7 view .LVU159
 527 013c 0C69     		ldr	r4, [r1, #16]
 528 013e 74BB     		cbnz	r4, .L22
 529              		.loc 1 283 7 discriminator 1 view .LVU160
 530 0140 B2F806C4 		ldrh	ip, [r2, #1030]
 531 0144 6FEA4C4C 		mvn	ip, ip, lsl #17
 532 0148 6FEA5C4C 		mvn	ip, ip, lsr #17
 533 014c 1FFA8CFC 		uxth	ip, ip
 534 0150 A2F806C4 		strh	ip, [r2, #1030]	@ movhi
 535              	.L23:
 536              		.loc 1 283 7 discriminator 13 view .LVU161
 537              	.LBE10:
 538              		.loc 1 283 7 discriminator 13 view .LVU162
 539              	.LBE9:
 540              		.loc 1 283 7 discriminator 13 view .LVU163
 284:Drivers/STM32G4xx_HAL_Driver/Src/stm32g4xx_ll_usb.c ****       PCD_CLEAR_RX_DTOG(USBx, ep->num);
 541              		.loc 1 284 7 view .LVU164
 542              	.LBB12:
 543              		.loc 1 284 7 view .LVU165
 544              		.loc 1 284 7 view .LVU166
 545 0154 0C78     		ldrb	r4, [r1]	@ zero_extendqisi2
 546 0156 33F82420 		ldrh	r2, [r3, r4, lsl #2]
 547              	.LVL50:
 548              		.loc 1 284 7 view .LVU167
 549 015a 12F4804F 		tst	r2, #16384
 550 015e 0CD0     		beq	.L27
 551              		.loc 1 284 7 discriminator 1 view .LVU168
 552              	.LBB13:
 553              		.loc 1 284 7 discriminator 1 view .LVU169
 554              		.loc 1 284 7 discriminator 1 view .LVU170
 555 0160 33F82420 		ldrh	r2, [r3, r4, lsl #2]
 556              	.LVL51:
 557              		.loc 1 284 7 is_stmt 0 discriminator 1 view .LVU171
 558 0164 92B2     		uxth	r2, r2
 559 0166 22F4E042 		bic	r2, r2, #28672
 560 016a 22F07002 		bic	r2, r2, #112
 561              	.LVL52:
 562              		.loc 1 284 7 is_stmt 1 view .LVU172
 563              		.loc 1 284 7 is_stmt 0 discriminator 1 view .LVU173
 564 016e 42F44042 		orr	r2, r2, #49152
 565              	.LVL53:
 566              		.loc 1 284 7 discriminator 1 view .LVU174
 567 0172 42F08002 		orr	r2, r2, #128
 568 0176 23F82420 		strh	r2, [r3, r4, lsl #2]	@ movhi
 569              	.LVL54:
 570              	.L27:
 571              		.loc 1 284 7 discriminator 1 view .LVU175
 572              	.LBE13:
ARM GAS  C:\Users\Nathan\AppData\Local\Temp\ccyJNqjv.s 			page 16


 573              		.loc 1 284 7 is_stmt 1 discriminator 3 view .LVU176
 574              	.LBE12:
 575              		.loc 1 284 7 discriminator 3 view .LVU177
 285:Drivers/STM32G4xx_HAL_Driver/Src/stm32g4xx_ll_usb.c **** 
 286:Drivers/STM32G4xx_HAL_Driver/Src/stm32g4xx_ll_usb.c ****       if (ep->num == 0U)
 576              		.loc 1 286 7 view .LVU178
 577              		.loc 1 286 13 is_stmt 0 view .LVU179
 578 017a 0978     		ldrb	r1, [r1]	@ zero_extendqisi2
 579              	.LVL55:
 580              		.loc 1 286 10 view .LVU180
 581 017c C9BB     		cbnz	r1, .L28
 287:Drivers/STM32G4xx_HAL_Driver/Src/stm32g4xx_ll_usb.c ****       {
 288:Drivers/STM32G4xx_HAL_Driver/Src/stm32g4xx_ll_usb.c ****         /* Configure VALID status for EP0 */
 289:Drivers/STM32G4xx_HAL_Driver/Src/stm32g4xx_ll_usb.c ****         PCD_SET_EP_RX_STATUS(USBx, ep->num, USB_EP_RX_VALID);
 582              		.loc 1 289 9 is_stmt 1 view .LVU181
 583              	.LBB14:
 584              		.loc 1 289 9 view .LVU182
 585              		.loc 1 289 9 view .LVU183
 586 017e 33F82120 		ldrh	r2, [r3, r1, lsl #2]
 587 0182 92B2     		uxth	r2, r2
 588 0184 22F48042 		bic	r2, r2, #16384
 589 0188 22F07002 		bic	r2, r2, #112
 590              	.LVL56:
 591              		.loc 1 289 9 view .LVU184
 592              		.loc 1 289 9 discriminator 1 view .LVU185
 593              		.loc 1 289 9 discriminator 3 view .LVU186
 594              		.loc 1 289 9 discriminator 4 view .LVU187
 595 018c 82F44052 		eor	r2, r2, #12288
 596              	.LVL57:
 597              		.loc 1 289 9 discriminator 6 view .LVU188
 598 0190 42F40042 		orr	r2, r2, #32768
 599              	.LVL58:
 600              		.loc 1 289 9 is_stmt 0 discriminator 6 view .LVU189
 601 0194 42F08002 		orr	r2, r2, #128
 602 0198 23F82120 		strh	r2, [r3, r1, lsl #2]	@ movhi
 603              	.LBE14:
 604              		.loc 1 289 9 is_stmt 1 view .LVU190
 605 019c 5AE1     		b	.L21
 606              	.LVL59:
 607              	.L22:
 608              	.LBB15:
 609              	.LBB11:
 283:Drivers/STM32G4xx_HAL_Driver/Src/stm32g4xx_ll_usb.c ****       PCD_CLEAR_RX_DTOG(USBx, ep->num);
 610              		.loc 1 283 7 discriminator 2 view .LVU191
 611 019e 3E2C     		cmp	r4, #62
 612 01a0 12D8     		bhi	.L24
 283:Drivers/STM32G4xx_HAL_Driver/Src/stm32g4xx_ll_usb.c ****       PCD_CLEAR_RX_DTOG(USBx, ep->num);
 613              		.loc 1 283 7 discriminator 4 view .LVU192
 283:Drivers/STM32G4xx_HAL_Driver/Src/stm32g4xx_ll_usb.c ****       PCD_CLEAR_RX_DTOG(USBx, ep->num);
 614              		.loc 1 283 7 discriminator 4 view .LVU193
 615 01a2 4FEA540C 		lsr	ip, r4, #1
 616              	.LVL60:
 283:Drivers/STM32G4xx_HAL_Driver/Src/stm32g4xx_ll_usb.c ****       PCD_CLEAR_RX_DTOG(USBx, ep->num);
 617              		.loc 1 283 7 view .LVU194
 283:Drivers/STM32G4xx_HAL_Driver/Src/stm32g4xx_ll_usb.c ****       PCD_CLEAR_RX_DTOG(USBx, ep->num);
 618              		.loc 1 283 7 is_stmt 0 discriminator 4 view .LVU195
 619 01a6 14F0010F 		tst	r4, #1
ARM GAS  C:\Users\Nathan\AppData\Local\Temp\ccyJNqjv.s 			page 17


 620 01aa 01D0     		beq	.L25
 283:Drivers/STM32G4xx_HAL_Driver/Src/stm32g4xx_ll_usb.c ****       PCD_CLEAR_RX_DTOG(USBx, ep->num);
 621              		.loc 1 283 7 is_stmt 1 discriminator 6 view .LVU196
 622 01ac 0CF1010C 		add	ip, ip, #1
 623              	.LVL61:
 624              	.L25:
 283:Drivers/STM32G4xx_HAL_Driver/Src/stm32g4xx_ll_usb.c ****       PCD_CLEAR_RX_DTOG(USBx, ep->num);
 625              		.loc 1 283 7 discriminator 8 view .LVU197
 626 01b0 B2F80644 		ldrh	r4, [r2, #1030]
 627 01b4 A4B2     		uxth	r4, r4
 628 01b6 4FEA8C2C 		lsl	ip, ip, #10
 629              	.LVL62:
 283:Drivers/STM32G4xx_HAL_Driver/Src/stm32g4xx_ll_usb.c ****       PCD_CLEAR_RX_DTOG(USBx, ep->num);
 630              		.loc 1 283 7 is_stmt 0 discriminator 8 view .LVU198
 631 01ba 1FFA8CFC 		uxth	ip, ip
 632 01be 44EA0C04 		orr	r4, r4, ip
 633 01c2 A2F80644 		strh	r4, [r2, #1030]	@ movhi
 283:Drivers/STM32G4xx_HAL_Driver/Src/stm32g4xx_ll_usb.c ****       PCD_CLEAR_RX_DTOG(USBx, ep->num);
 634              		.loc 1 283 7 is_stmt 1 view .LVU199
 635 01c6 C5E7     		b	.L23
 636              	.LVL63:
 637              	.L24:
 283:Drivers/STM32G4xx_HAL_Driver/Src/stm32g4xx_ll_usb.c ****       PCD_CLEAR_RX_DTOG(USBx, ep->num);
 638              		.loc 1 283 7 discriminator 5 view .LVU200
 283:Drivers/STM32G4xx_HAL_Driver/Src/stm32g4xx_ll_usb.c ****       PCD_CLEAR_RX_DTOG(USBx, ep->num);
 639              		.loc 1 283 7 discriminator 5 view .LVU201
 640 01c8 4FEA541C 		lsr	ip, r4, #5
 641              	.LVL64:
 283:Drivers/STM32G4xx_HAL_Driver/Src/stm32g4xx_ll_usb.c ****       PCD_CLEAR_RX_DTOG(USBx, ep->num);
 642              		.loc 1 283 7 view .LVU202
 283:Drivers/STM32G4xx_HAL_Driver/Src/stm32g4xx_ll_usb.c ****       PCD_CLEAR_RX_DTOG(USBx, ep->num);
 643              		.loc 1 283 7 is_stmt 0 discriminator 5 view .LVU203
 644 01cc 14F01F0F 		tst	r4, #31
 645 01d0 01D1     		bne	.L26
 283:Drivers/STM32G4xx_HAL_Driver/Src/stm32g4xx_ll_usb.c ****       PCD_CLEAR_RX_DTOG(USBx, ep->num);
 646              		.loc 1 283 7 is_stmt 1 discriminator 10 view .LVU204
 647 01d2 0CF1FF3C 		add	ip, ip, #-1
 648              	.LVL65:
 649              	.L26:
 283:Drivers/STM32G4xx_HAL_Driver/Src/stm32g4xx_ll_usb.c ****       PCD_CLEAR_RX_DTOG(USBx, ep->num);
 650              		.loc 1 283 7 discriminator 12 view .LVU205
 651 01d6 B2F80644 		ldrh	r4, [r2, #1030]
 652 01da A4B2     		uxth	r4, r4
 653 01dc 4FEA8C2C 		lsl	ip, ip, #10
 654              	.LVL66:
 283:Drivers/STM32G4xx_HAL_Driver/Src/stm32g4xx_ll_usb.c ****       PCD_CLEAR_RX_DTOG(USBx, ep->num);
 655              		.loc 1 283 7 is_stmt 0 discriminator 12 view .LVU206
 656 01e0 1FFA8CFC 		uxth	ip, ip
 657 01e4 44EA0C04 		orr	r4, r4, ip
 658 01e8 44F40044 		orr	r4, r4, #32768
 659 01ec A2F80644 		strh	r4, [r2, #1030]	@ movhi
 660 01f0 B0E7     		b	.L23
 661              	.LVL67:
 662              	.L28:
 283:Drivers/STM32G4xx_HAL_Driver/Src/stm32g4xx_ll_usb.c ****       PCD_CLEAR_RX_DTOG(USBx, ep->num);
 663              		.loc 1 283 7 discriminator 12 view .LVU207
 664              	.LBE11:
ARM GAS  C:\Users\Nathan\AppData\Local\Temp\ccyJNqjv.s 			page 18


 665              	.LBE15:
 290:Drivers/STM32G4xx_HAL_Driver/Src/stm32g4xx_ll_usb.c ****       }
 291:Drivers/STM32G4xx_HAL_Driver/Src/stm32g4xx_ll_usb.c ****       else
 292:Drivers/STM32G4xx_HAL_Driver/Src/stm32g4xx_ll_usb.c ****       {
 293:Drivers/STM32G4xx_HAL_Driver/Src/stm32g4xx_ll_usb.c ****         /* Configure NAK status for OUT Endpoint */
 294:Drivers/STM32G4xx_HAL_Driver/Src/stm32g4xx_ll_usb.c ****         PCD_SET_EP_RX_STATUS(USBx, ep->num, USB_EP_RX_NAK);
 666              		.loc 1 294 9 is_stmt 1 view .LVU208
 667              	.LBB16:
 668              		.loc 1 294 9 view .LVU209
 669              		.loc 1 294 9 view .LVU210
 670 01f2 33F82120 		ldrh	r2, [r3, r1, lsl #2]
 671 01f6 92B2     		uxth	r2, r2
 672 01f8 22F48042 		bic	r2, r2, #16384
 673 01fc 22F07002 		bic	r2, r2, #112
 674              	.LVL68:
 675              		.loc 1 294 9 view .LVU211
 676              		.loc 1 294 9 discriminator 3 view .LVU212
 677              		.loc 1 294 9 discriminator 4 view .LVU213
 678 0200 82F40052 		eor	r2, r2, #8192
 679              	.LVL69:
 680              		.loc 1 294 9 discriminator 6 view .LVU214
 681 0204 42F40042 		orr	r2, r2, #32768
 682              	.LVL70:
 683              		.loc 1 294 9 is_stmt 0 discriminator 6 view .LVU215
 684 0208 42F08002 		orr	r2, r2, #128
 685 020c 23F82120 		strh	r2, [r3, r1, lsl #2]	@ movhi
 686 0210 20E1     		b	.L21
 687              	.LVL71:
 688              	.L17:
 689              		.loc 1 294 9 discriminator 6 view .LVU216
 690              	.LBE16:
 295:Drivers/STM32G4xx_HAL_Driver/Src/stm32g4xx_ll_usb.c ****       }
 296:Drivers/STM32G4xx_HAL_Driver/Src/stm32g4xx_ll_usb.c ****     }
 297:Drivers/STM32G4xx_HAL_Driver/Src/stm32g4xx_ll_usb.c ****   }
 298:Drivers/STM32G4xx_HAL_Driver/Src/stm32g4xx_ll_usb.c **** #if (USE_USB_DOUBLE_BUFFER == 1U)
 299:Drivers/STM32G4xx_HAL_Driver/Src/stm32g4xx_ll_usb.c ****   /* Double Buffer */
 300:Drivers/STM32G4xx_HAL_Driver/Src/stm32g4xx_ll_usb.c ****   else
 301:Drivers/STM32G4xx_HAL_Driver/Src/stm32g4xx_ll_usb.c ****   {
 302:Drivers/STM32G4xx_HAL_Driver/Src/stm32g4xx_ll_usb.c ****     if (ep->type == EP_TYPE_BULK)
 691              		.loc 1 302 5 is_stmt 1 view .LVU217
 692              		.loc 1 302 11 is_stmt 0 view .LVU218
 693 0212 CA78     		ldrb	r2, [r1, #3]	@ zero_extendqisi2
 694              		.loc 1 302 8 view .LVU219
 695 0214 022A     		cmp	r2, #2
 696 0216 74D0     		beq	.L52
 303:Drivers/STM32G4xx_HAL_Driver/Src/stm32g4xx_ll_usb.c ****     {
 304:Drivers/STM32G4xx_HAL_Driver/Src/stm32g4xx_ll_usb.c ****       /* Set bulk endpoint as double buffered */
 305:Drivers/STM32G4xx_HAL_Driver/Src/stm32g4xx_ll_usb.c ****       PCD_SET_BULK_EP_DBUF(USBx, ep->num);
 306:Drivers/STM32G4xx_HAL_Driver/Src/stm32g4xx_ll_usb.c ****     }
 307:Drivers/STM32G4xx_HAL_Driver/Src/stm32g4xx_ll_usb.c ****     else
 308:Drivers/STM32G4xx_HAL_Driver/Src/stm32g4xx_ll_usb.c ****     {
 309:Drivers/STM32G4xx_HAL_Driver/Src/stm32g4xx_ll_usb.c ****       /* Set the ISOC endpoint in double buffer mode */
 310:Drivers/STM32G4xx_HAL_Driver/Src/stm32g4xx_ll_usb.c ****       PCD_CLEAR_EP_KIND(USBx, ep->num);
 697              		.loc 1 310 7 is_stmt 1 view .LVU220
 698              	.LBB17:
 699              		.loc 1 310 7 view .LVU221
 700              		.loc 1 310 7 view .LVU222
ARM GAS  C:\Users\Nathan\AppData\Local\Temp\ccyJNqjv.s 			page 19


 701 0218 91F800C0 		ldrb	ip, [r1]	@ zero_extendqisi2
 702              		.loc 1 310 7 is_stmt 0 view .LVU223
 703 021c 33F82C20 		ldrh	r2, [r3, ip, lsl #2]
 704 0220 92B2     		uxth	r2, r2
 705 0222 22F4E242 		bic	r2, r2, #28928
 706 0226 22F07002 		bic	r2, r2, #112
 707              	.LVL72:
 708              		.loc 1 310 7 is_stmt 1 view .LVU224
 709 022a 42F40042 		orr	r2, r2, #32768
 710              	.LVL73:
 711              		.loc 1 310 7 is_stmt 0 view .LVU225
 712 022e 42F08002 		orr	r2, r2, #128
 713 0232 23F82C20 		strh	r2, [r3, ip, lsl #2]	@ movhi
 714              	.LVL74:
 715              	.L30:
 716              		.loc 1 310 7 view .LVU226
 717              	.LBE17:
 718              		.loc 1 310 7 is_stmt 1 discriminator 1 view .LVU227
 311:Drivers/STM32G4xx_HAL_Driver/Src/stm32g4xx_ll_usb.c ****     }
 312:Drivers/STM32G4xx_HAL_Driver/Src/stm32g4xx_ll_usb.c **** 
 313:Drivers/STM32G4xx_HAL_Driver/Src/stm32g4xx_ll_usb.c ****     /* Set buffer address for double buffered mode */
 314:Drivers/STM32G4xx_HAL_Driver/Src/stm32g4xx_ll_usb.c ****     PCD_SET_EP_DBUF_ADDR(USBx, ep->num, ep->pmaaddr0, ep->pmaaddr1);
 719              		.loc 1 314 5 view .LVU228
 720              		.loc 1 314 5 view .LVU229
 721              		.loc 1 314 5 view .LVU230
 722              	.LBB18:
 723              		.loc 1 314 5 view .LVU231
 724              		.loc 1 314 5 view .LVU232
 725              		.loc 1 314 5 view .LVU233
 726 0236 B3F85020 		ldrh	r2, [r3, #80]
 727 023a 13FA82F2 		uxtah	r2, r3, r2
 728              	.LVL75:
 729              		.loc 1 314 5 view .LVU234
 730 023e 91F800C0 		ldrb	ip, [r1]	@ zero_extendqisi2
 731 0242 02EBCC02 		add	r2, r2, ip, lsl #3
 732              	.LVL76:
 733              		.loc 1 314 5 view .LVU235
 734 0246 B1F808C0 		ldrh	ip, [r1, #8]
 735 024a 4FEA5C0C 		lsr	ip, ip, #1
 736 024e 4FEA4C0C 		lsl	ip, ip, #1
 737 0252 A2F800C4 		strh	ip, [r2, #1024]	@ movhi
 738              	.LBE18:
 739              		.loc 1 314 5 view .LVU236
 740              		.loc 1 314 5 view .LVU237
 741              		.loc 1 314 5 view .LVU238
 742              		.loc 1 314 5 view .LVU239
 743              	.LBB19:
 744              		.loc 1 314 5 view .LVU240
 745              		.loc 1 314 5 view .LVU241
 746              	.LVL77:
 747              		.loc 1 314 5 view .LVU242
 748 0256 B3F85020 		ldrh	r2, [r3, #80]
 749              	.LVL78:
 750              		.loc 1 314 5 is_stmt 0 view .LVU243
 751 025a 13FA82F2 		uxtah	r2, r3, r2
 752              	.LVL79:
 753              		.loc 1 314 5 is_stmt 1 view .LVU244
ARM GAS  C:\Users\Nathan\AppData\Local\Temp\ccyJNqjv.s 			page 20


 754 025e 91F800C0 		ldrb	ip, [r1]	@ zero_extendqisi2
 755 0262 02EBCC02 		add	r2, r2, ip, lsl #3
 756              	.LVL80:
 757              		.loc 1 314 5 view .LVU245
 758 0266 B1F80AC0 		ldrh	ip, [r1, #10]
 759 026a 4FEA5C0C 		lsr	ip, ip, #1
 760 026e 4FEA4C0C 		lsl	ip, ip, #1
 761 0272 A2F804C4 		strh	ip, [r2, #1028]	@ movhi
 762              	.LBE19:
 763              		.loc 1 314 5 view .LVU246
 764              		.loc 1 314 5 view .LVU247
 765              		.loc 1 314 5 view .LVU248
 315:Drivers/STM32G4xx_HAL_Driver/Src/stm32g4xx_ll_usb.c **** 
 316:Drivers/STM32G4xx_HAL_Driver/Src/stm32g4xx_ll_usb.c ****     if (ep->is_in == 0U)
 766              		.loc 1 316 5 view .LVU249
 767              		.loc 1 316 11 is_stmt 0 view .LVU250
 768 0276 4A78     		ldrb	r2, [r1, #1]	@ zero_extendqisi2
 769              	.LVL81:
 770              		.loc 1 316 8 view .LVU251
 771 0278 002A     		cmp	r2, #0
 772 027a 40F0F780 		bne	.L31
 317:Drivers/STM32G4xx_HAL_Driver/Src/stm32g4xx_ll_usb.c ****     {
 318:Drivers/STM32G4xx_HAL_Driver/Src/stm32g4xx_ll_usb.c ****       /* Clear the data toggle bits for the endpoint IN/OUT */
 319:Drivers/STM32G4xx_HAL_Driver/Src/stm32g4xx_ll_usb.c ****       PCD_CLEAR_RX_DTOG(USBx, ep->num);
 773              		.loc 1 319 7 is_stmt 1 view .LVU252
 774              	.LBB20:
 775              		.loc 1 319 7 view .LVU253
 776              		.loc 1 319 7 view .LVU254
 777 027e 0C78     		ldrb	r4, [r1]	@ zero_extendqisi2
 778 0280 33F82420 		ldrh	r2, [r3, r4, lsl #2]
 779              	.LVL82:
 780              		.loc 1 319 7 view .LVU255
 781 0284 12F4804F 		tst	r2, #16384
 782 0288 0CD0     		beq	.L32
 783              		.loc 1 319 7 discriminator 1 view .LVU256
 784              	.LBB21:
 785              		.loc 1 319 7 discriminator 1 view .LVU257
 786              		.loc 1 319 7 discriminator 1 view .LVU258
 787 028a 33F82420 		ldrh	r2, [r3, r4, lsl #2]
 788              	.LVL83:
 789              		.loc 1 319 7 is_stmt 0 discriminator 1 view .LVU259
 790 028e 92B2     		uxth	r2, r2
 791 0290 22F4E042 		bic	r2, r2, #28672
 792 0294 22F07002 		bic	r2, r2, #112
 793              	.LVL84:
 794              		.loc 1 319 7 is_stmt 1 view .LVU260
 795              		.loc 1 319 7 is_stmt 0 discriminator 1 view .LVU261
 796 0298 42F44042 		orr	r2, r2, #49152
 797              	.LVL85:
 798              		.loc 1 319 7 discriminator 1 view .LVU262
 799 029c 42F08002 		orr	r2, r2, #128
 800 02a0 23F82420 		strh	r2, [r3, r4, lsl #2]	@ movhi
 801              	.LVL86:
 802              	.L32:
 803              		.loc 1 319 7 discriminator 1 view .LVU263
 804              	.LBE21:
 805              		.loc 1 319 7 is_stmt 1 discriminator 3 view .LVU264
ARM GAS  C:\Users\Nathan\AppData\Local\Temp\ccyJNqjv.s 			page 21


 806              	.LBE20:
 807              		.loc 1 319 7 discriminator 3 view .LVU265
 320:Drivers/STM32G4xx_HAL_Driver/Src/stm32g4xx_ll_usb.c ****       PCD_CLEAR_TX_DTOG(USBx, ep->num);
 808              		.loc 1 320 7 view .LVU266
 809              	.LBB22:
 810              		.loc 1 320 7 view .LVU267
 811              		.loc 1 320 7 view .LVU268
 812 02a4 0C78     		ldrb	r4, [r1]	@ zero_extendqisi2
 813 02a6 33F82420 		ldrh	r2, [r3, r4, lsl #2]
 814              	.LVL87:
 815              		.loc 1 320 7 view .LVU269
 816 02aa 12F0400F 		tst	r2, #64
 817 02ae 0CD0     		beq	.L33
 818              		.loc 1 320 7 discriminator 1 view .LVU270
 819              	.LBB23:
 820              		.loc 1 320 7 discriminator 1 view .LVU271
 821              		.loc 1 320 7 discriminator 1 view .LVU272
 822 02b0 33F82420 		ldrh	r2, [r3, r4, lsl #2]
 823              	.LVL88:
 824              		.loc 1 320 7 is_stmt 0 discriminator 1 view .LVU273
 825 02b4 92B2     		uxth	r2, r2
 826 02b6 22F4E042 		bic	r2, r2, #28672
 827 02ba 22F07002 		bic	r2, r2, #112
 828              	.LVL89:
 829              		.loc 1 320 7 is_stmt 1 view .LVU274
 830              		.loc 1 320 7 is_stmt 0 discriminator 1 view .LVU275
 831 02be 42F40042 		orr	r2, r2, #32768
 832              	.LVL90:
 833              		.loc 1 320 7 discriminator 1 view .LVU276
 834 02c2 42F0C002 		orr	r2, r2, #192
 835 02c6 23F82420 		strh	r2, [r3, r4, lsl #2]	@ movhi
 836              	.LVL91:
 837              	.L33:
 838              		.loc 1 320 7 discriminator 1 view .LVU277
 839              	.LBE23:
 840              		.loc 1 320 7 is_stmt 1 discriminator 3 view .LVU278
 841              	.LBE22:
 842              		.loc 1 320 7 discriminator 3 view .LVU279
 321:Drivers/STM32G4xx_HAL_Driver/Src/stm32g4xx_ll_usb.c **** 
 322:Drivers/STM32G4xx_HAL_Driver/Src/stm32g4xx_ll_usb.c ****       /* Set endpoint RX count */
 323:Drivers/STM32G4xx_HAL_Driver/Src/stm32g4xx_ll_usb.c ****       PCD_SET_EP_DBUF_CNT(USBx, ep->num, ep->is_in, ep->maxpacket);
 843              		.loc 1 323 7 view .LVU280
 844              		.loc 1 323 7 view .LVU281
 845              		.loc 1 323 7 view .LVU282
 846 02ca 4A78     		ldrb	r2, [r1, #1]	@ zero_extendqisi2
 847 02cc 002A     		cmp	r2, #0
 848 02ce 51D1     		bne	.L34
 849              		.loc 1 323 7 discriminator 1 view .LVU283
 850              	.LBB24:
 851              		.loc 1 323 7 discriminator 1 view .LVU284
 852              	.LVL92:
 853              		.loc 1 323 7 view .LVU285
 854              		.loc 1 323 7 view .LVU286
 855              		.loc 1 323 7 is_stmt 0 discriminator 1 view .LVU287
 856 02d0 B3F85020 		ldrh	r2, [r3, #80]
 857 02d4 13FA82F2 		uxtah	r2, r3, r2
 858              	.LVL93:
ARM GAS  C:\Users\Nathan\AppData\Local\Temp\ccyJNqjv.s 			page 22


 859              		.loc 1 323 7 is_stmt 1 view .LVU288
 860              		.loc 1 323 7 is_stmt 0 discriminator 1 view .LVU289
 861 02d8 0C78     		ldrb	r4, [r1]	@ zero_extendqisi2
 862 02da 02EBC402 		add	r2, r2, r4, lsl #3
 863              	.LVL94:
 864              		.loc 1 323 7 is_stmt 1 view .LVU290
 865              	.LBB25:
 866              		.loc 1 323 7 view .LVU291
 867              		.loc 1 323 7 view .LVU292
 868              		.loc 1 323 7 is_stmt 0 discriminator 1 view .LVU293
 869 02de B2F80244 		ldrh	r4, [r2, #1026]
 870 02e2 C4F30904 		ubfx	r4, r4, #0, #10
 871 02e6 A2F80244 		strh	r4, [r2, #1026]	@ movhi
 872              		.loc 1 323 7 is_stmt 1 view .LVU294
 873              		.loc 1 323 7 is_stmt 0 discriminator 1 view .LVU295
 874 02ea 0C69     		ldr	r4, [r1, #16]
 875 02ec C4B9     		cbnz	r4, .L35
 876              		.loc 1 323 7 is_stmt 1 discriminator 3 view .LVU296
 877 02ee B2F80244 		ldrh	r4, [r2, #1026]
 878 02f2 6FEA4444 		mvn	r4, r4, lsl #17
 879 02f6 6FEA5444 		mvn	r4, r4, lsr #17
 880 02fa A4B2     		uxth	r4, r4
 881 02fc A2F80244 		strh	r4, [r2, #1026]	@ movhi
 882 0300 3AE0     		b	.L36
 883              	.LVL95:
 884              	.L52:
 885              		.loc 1 323 7 is_stmt 0 discriminator 3 view .LVU297
 886              	.LBE25:
 887              	.LBE24:
 305:Drivers/STM32G4xx_HAL_Driver/Src/stm32g4xx_ll_usb.c ****     }
 888              		.loc 1 305 7 is_stmt 1 view .LVU298
 889              	.LBB27:
 305:Drivers/STM32G4xx_HAL_Driver/Src/stm32g4xx_ll_usb.c ****     }
 890              		.loc 1 305 7 view .LVU299
 305:Drivers/STM32G4xx_HAL_Driver/Src/stm32g4xx_ll_usb.c ****     }
 891              		.loc 1 305 7 view .LVU300
 892 0302 0C78     		ldrb	r4, [r1]	@ zero_extendqisi2
 893 0304 33F82420 		ldrh	r2, [r3, r4, lsl #2]
 894 0308 92B2     		uxth	r2, r2
 895 030a 22F4E042 		bic	r2, r2, #28672
 896 030e 22F07002 		bic	r2, r2, #112
 897              	.LVL96:
 305:Drivers/STM32G4xx_HAL_Driver/Src/stm32g4xx_ll_usb.c ****     }
 898              		.loc 1 305 7 view .LVU301
 899 0312 42F40142 		orr	r2, r2, #33024
 900              	.LVL97:
 305:Drivers/STM32G4xx_HAL_Driver/Src/stm32g4xx_ll_usb.c ****     }
 901              		.loc 1 305 7 is_stmt 0 view .LVU302
 902 0316 42F08002 		orr	r2, r2, #128
 903 031a 23F82420 		strh	r2, [r3, r4, lsl #2]	@ movhi
 904              	.LBE27:
 305:Drivers/STM32G4xx_HAL_Driver/Src/stm32g4xx_ll_usb.c ****     }
 905              		.loc 1 305 7 is_stmt 1 view .LVU303
 906 031e 8AE7     		b	.L30
 907              	.LVL98:
 908              	.L35:
 909              	.LBB28:
ARM GAS  C:\Users\Nathan\AppData\Local\Temp\ccyJNqjv.s 			page 23


 910              	.LBB26:
 911              		.loc 1 323 7 discriminator 4 view .LVU304
 912 0320 3E2C     		cmp	r4, #62
 913 0322 12D8     		bhi	.L37
 914              		.loc 1 323 7 discriminator 6 view .LVU305
 915              		.loc 1 323 7 discriminator 6 view .LVU306
 916 0324 4FEA540C 		lsr	ip, r4, #1
 917              	.LVL99:
 918              		.loc 1 323 7 view .LVU307
 919              		.loc 1 323 7 is_stmt 0 discriminator 6 view .LVU308
 920 0328 14F0010F 		tst	r4, #1
 921 032c 01D0     		beq	.L38
 922              		.loc 1 323 7 is_stmt 1 discriminator 8 view .LVU309
 923 032e 0CF1010C 		add	ip, ip, #1
 924              	.LVL100:
 925              	.L38:
 926              		.loc 1 323 7 discriminator 10 view .LVU310
 927 0332 B2F80244 		ldrh	r4, [r2, #1026]
 928 0336 A4B2     		uxth	r4, r4
 929 0338 4FEA8C2C 		lsl	ip, ip, #10
 930              	.LVL101:
 931              		.loc 1 323 7 is_stmt 0 discriminator 10 view .LVU311
 932 033c 1FFA8CFC 		uxth	ip, ip
 933 0340 44EA0C04 		orr	r4, r4, ip
 934 0344 A2F80244 		strh	r4, [r2, #1026]	@ movhi
 935              		.loc 1 323 7 is_stmt 1 view .LVU312
 936 0348 16E0     		b	.L36
 937              	.LVL102:
 938              	.L37:
 939              		.loc 1 323 7 discriminator 7 view .LVU313
 940              		.loc 1 323 7 discriminator 7 view .LVU314
 941 034a 4FEA541C 		lsr	ip, r4, #5
 942              	.LVL103:
 943              		.loc 1 323 7 view .LVU315
 944              		.loc 1 323 7 is_stmt 0 discriminator 7 view .LVU316
 945 034e 14F01F0F 		tst	r4, #31
 946 0352 01D1     		bne	.L39
 947              		.loc 1 323 7 is_stmt 1 discriminator 12 view .LVU317
 948 0354 0CF1FF3C 		add	ip, ip, #-1
 949              	.LVL104:
 950              	.L39:
 951              		.loc 1 323 7 discriminator 14 view .LVU318
 952 0358 B2F80244 		ldrh	r4, [r2, #1026]
 953 035c A4B2     		uxth	r4, r4
 954 035e 4FEA8C2C 		lsl	ip, ip, #10
 955              	.LVL105:
 956              		.loc 1 323 7 is_stmt 0 discriminator 14 view .LVU319
 957 0362 1FFA8CFC 		uxth	ip, ip
 958 0366 44EA0C04 		orr	r4, r4, ip
 959 036a 44F40044 		orr	r4, r4, #32768
 960 036e A2F80244 		strh	r4, [r2, #1026]	@ movhi
 961 0372 01E0     		b	.L36
 962              	.LVL106:
 963              	.L34:
 964              		.loc 1 323 7 discriminator 14 view .LVU320
 965              	.LBE26:
 966              	.LBE28:
ARM GAS  C:\Users\Nathan\AppData\Local\Temp\ccyJNqjv.s 			page 24


 967              		.loc 1 323 7 is_stmt 1 discriminator 2 view .LVU321
 968 0374 012A     		cmp	r2, #1
 969 0376 1BD0     		beq	.L53
 970              	.L36:
 971              		.loc 1 323 7 discriminator 18 view .LVU322
 972              		.loc 1 323 7 discriminator 18 view .LVU323
 973              		.loc 1 323 7 discriminator 18 view .LVU324
 974              	.LBB29:
 975              		.loc 1 323 7 discriminator 18 view .LVU325
 976              	.LVL107:
 977              		.loc 1 323 7 view .LVU326
 978              		.loc 1 323 7 view .LVU327
 979              		.loc 1 323 7 is_stmt 0 discriminator 18 view .LVU328
 980 0378 4A78     		ldrb	r2, [r1, #1]	@ zero_extendqisi2
 981 037a 002A     		cmp	r2, #0
 982 037c 4DD1     		bne	.L40
 983              		.loc 1 323 7 is_stmt 1 discriminator 19 view .LVU329
 984              	.LBB30:
 985              		.loc 1 323 7 discriminator 19 view .LVU330
 986              	.LVL108:
 987              		.loc 1 323 7 view .LVU331
 988              		.loc 1 323 7 view .LVU332
 989              		.loc 1 323 7 is_stmt 0 discriminator 19 view .LVU333
 990 037e B3F85020 		ldrh	r2, [r3, #80]
 991 0382 13FA82F2 		uxtah	r2, r3, r2
 992              	.LVL109:
 993              		.loc 1 323 7 is_stmt 1 view .LVU334
 994              		.loc 1 323 7 is_stmt 0 discriminator 19 view .LVU335
 995 0386 0C78     		ldrb	r4, [r1]	@ zero_extendqisi2
 996 0388 02EBC402 		add	r2, r2, r4, lsl #3
 997              	.LVL110:
 998              		.loc 1 323 7 is_stmt 1 view .LVU336
 999              	.LBB31:
 1000              		.loc 1 323 7 view .LVU337
 1001              		.loc 1 323 7 view .LVU338
 1002              		.loc 1 323 7 is_stmt 0 discriminator 19 view .LVU339
 1003 038c B2F80644 		ldrh	r4, [r2, #1030]
 1004 0390 C4F30904 		ubfx	r4, r4, #0, #10
 1005 0394 A2F80644 		strh	r4, [r2, #1030]	@ movhi
 1006              		.loc 1 323 7 is_stmt 1 view .LVU340
 1007              		.loc 1 323 7 is_stmt 0 discriminator 19 view .LVU341
 1008 0398 0C69     		ldr	r4, [r1, #16]
 1009 039a A4B9     		cbnz	r4, .L41
 1010              		.loc 1 323 7 is_stmt 1 discriminator 21 view .LVU342
 1011 039c B2F80644 		ldrh	r4, [r2, #1030]
 1012 03a0 6FEA4444 		mvn	r4, r4, lsl #17
 1013 03a4 6FEA5444 		mvn	r4, r4, lsr #17
 1014 03a8 A4B2     		uxth	r4, r4
 1015 03aa A2F80644 		strh	r4, [r2, #1030]	@ movhi
 1016 03ae 36E0     		b	.L42
 1017              	.LVL111:
 1018              	.L53:
 1019              		.loc 1 323 7 is_stmt 0 discriminator 21 view .LVU343
 1020              	.LBE31:
 1021              	.LBE30:
 1022              	.LBE29:
 1023              		.loc 1 323 7 is_stmt 1 discriminator 16 view .LVU344
ARM GAS  C:\Users\Nathan\AppData\Local\Temp\ccyJNqjv.s 			page 25


 1024              	.LBB34:
 1025              		.loc 1 323 7 discriminator 16 view .LVU345
 1026              		.loc 1 323 7 view .LVU346
 1027              		.loc 1 323 7 view .LVU347
 1028              		.loc 1 323 7 is_stmt 0 discriminator 16 view .LVU348
 1029 03b0 B3F85020 		ldrh	r2, [r3, #80]
 1030 03b4 13FA82F2 		uxtah	r2, r3, r2
 1031              	.LVL112:
 1032              		.loc 1 323 7 is_stmt 1 view .LVU349
 1033              		.loc 1 323 7 is_stmt 0 discriminator 16 view .LVU350
 1034 03b8 0C78     		ldrb	r4, [r1]	@ zero_extendqisi2
 1035 03ba 02EBC402 		add	r2, r2, r4, lsl #3
 1036              	.LVL113:
 1037              		.loc 1 323 7 is_stmt 1 view .LVU351
 1038              		.loc 1 323 7 is_stmt 0 discriminator 16 view .LVU352
 1039 03be 0C8A     		ldrh	r4, [r1, #16]
 1040 03c0 A2F80244 		strh	r4, [r2, #1026]	@ movhi
 1041 03c4 D8E7     		b	.L36
 1042              	.LVL114:
 1043              	.L41:
 1044              		.loc 1 323 7 discriminator 16 view .LVU353
 1045              	.LBE34:
 1046              	.LBB35:
 1047              	.LBB33:
 1048              	.LBB32:
 1049              		.loc 1 323 7 is_stmt 1 discriminator 22 view .LVU354
 1050 03c6 3E2C     		cmp	r4, #62
 1051 03c8 12D8     		bhi	.L43
 1052              		.loc 1 323 7 discriminator 24 view .LVU355
 1053              		.loc 1 323 7 discriminator 24 view .LVU356
 1054 03ca 4FEA540C 		lsr	ip, r4, #1
 1055              	.LVL115:
 1056              		.loc 1 323 7 view .LVU357
 1057              		.loc 1 323 7 is_stmt 0 discriminator 24 view .LVU358
 1058 03ce 14F0010F 		tst	r4, #1
 1059 03d2 01D0     		beq	.L44
 1060              		.loc 1 323 7 is_stmt 1 discriminator 26 view .LVU359
 1061 03d4 0CF1010C 		add	ip, ip, #1
 1062              	.LVL116:
 1063              	.L44:
 1064              		.loc 1 323 7 discriminator 28 view .LVU360
 1065 03d8 B2F80644 		ldrh	r4, [r2, #1030]
 1066 03dc A4B2     		uxth	r4, r4
 1067 03de 4FEA8C2C 		lsl	ip, ip, #10
 1068              	.LVL117:
 1069              		.loc 1 323 7 is_stmt 0 discriminator 28 view .LVU361
 1070 03e2 1FFA8CFC 		uxth	ip, ip
 1071 03e6 44EA0C04 		orr	r4, r4, ip
 1072 03ea A2F80644 		strh	r4, [r2, #1030]	@ movhi
 1073              		.loc 1 323 7 is_stmt 1 view .LVU362
 1074 03ee 16E0     		b	.L42
 1075              	.LVL118:
 1076              	.L43:
 1077              		.loc 1 323 7 discriminator 25 view .LVU363
 1078              		.loc 1 323 7 discriminator 25 view .LVU364
 1079 03f0 4FEA541C 		lsr	ip, r4, #5
 1080              	.LVL119:
ARM GAS  C:\Users\Nathan\AppData\Local\Temp\ccyJNqjv.s 			page 26


 1081              		.loc 1 323 7 view .LVU365
 1082              		.loc 1 323 7 is_stmt 0 discriminator 25 view .LVU366
 1083 03f4 14F01F0F 		tst	r4, #31
 1084 03f8 01D1     		bne	.L45
 1085              		.loc 1 323 7 is_stmt 1 discriminator 30 view .LVU367
 1086 03fa 0CF1FF3C 		add	ip, ip, #-1
 1087              	.LVL120:
 1088              	.L45:
 1089              		.loc 1 323 7 discriminator 32 view .LVU368
 1090 03fe B2F80644 		ldrh	r4, [r2, #1030]
 1091 0402 A4B2     		uxth	r4, r4
 1092 0404 4FEA8C2C 		lsl	ip, ip, #10
 1093              	.LVL121:
 1094              		.loc 1 323 7 is_stmt 0 discriminator 32 view .LVU369
 1095 0408 1FFA8CFC 		uxth	ip, ip
 1096 040c 44EA0C04 		orr	r4, r4, ip
 1097 0410 44F40044 		orr	r4, r4, #32768
 1098 0414 A2F80644 		strh	r4, [r2, #1030]	@ movhi
 1099 0418 01E0     		b	.L42
 1100              	.LVL122:
 1101              	.L40:
 1102              		.loc 1 323 7 discriminator 32 view .LVU370
 1103              	.LBE32:
 1104              	.LBE33:
 1105              		.loc 1 323 7 is_stmt 1 discriminator 20 view .LVU371
 1106 041a 012A     		cmp	r2, #1
 1107 041c 1BD0     		beq	.L54
 1108              	.LVL123:
 1109              	.L42:
 1110              		.loc 1 323 7 is_stmt 0 discriminator 20 view .LVU372
 1111              	.LBE35:
 1112              		.loc 1 323 7 is_stmt 1 discriminator 36 view .LVU373
 1113              		.loc 1 323 7 discriminator 36 view .LVU374
 324:Drivers/STM32G4xx_HAL_Driver/Src/stm32g4xx_ll_usb.c **** 
 325:Drivers/STM32G4xx_HAL_Driver/Src/stm32g4xx_ll_usb.c ****       /* Set endpoint RX to valid state */
 326:Drivers/STM32G4xx_HAL_Driver/Src/stm32g4xx_ll_usb.c ****       PCD_SET_EP_RX_STATUS(USBx, ep->num, USB_EP_RX_VALID);
 1114              		.loc 1 326 7 view .LVU375
 1115              	.LBB36:
 1116              		.loc 1 326 7 view .LVU376
 1117              		.loc 1 326 7 view .LVU377
 1118 041e 91F800C0 		ldrb	ip, [r1]	@ zero_extendqisi2
 1119 0422 33F82C20 		ldrh	r2, [r3, ip, lsl #2]
 1120 0426 92B2     		uxth	r2, r2
 1121 0428 22F48042 		bic	r2, r2, #16384
 1122 042c 22F07002 		bic	r2, r2, #112
 1123              	.LVL124:
 1124              		.loc 1 326 7 view .LVU378
 1125              		.loc 1 326 7 discriminator 1 view .LVU379
 1126              		.loc 1 326 7 discriminator 3 view .LVU380
 1127              		.loc 1 326 7 discriminator 4 view .LVU381
 1128 0430 82F44052 		eor	r2, r2, #12288
 1129              	.LVL125:
 1130              		.loc 1 326 7 discriminator 6 view .LVU382
 1131 0434 48F28004 		movw	r4, #32896
 1132 0438 2243     		orrs	r2, r2, r4
 1133              	.LVL126:
 1134              		.loc 1 326 7 is_stmt 0 discriminator 6 view .LVU383
ARM GAS  C:\Users\Nathan\AppData\Local\Temp\ccyJNqjv.s 			page 27


 1135 043a 23F82C20 		strh	r2, [r3, ip, lsl #2]	@ movhi
 1136              	.LBE36:
 1137              		.loc 1 326 7 is_stmt 1 view .LVU384
 327:Drivers/STM32G4xx_HAL_Driver/Src/stm32g4xx_ll_usb.c ****       PCD_SET_EP_TX_STATUS(USBx, ep->num, USB_EP_TX_DIS);
 1138              		.loc 1 327 7 view .LVU385
 1139              	.LBB37:
 1140              		.loc 1 327 7 view .LVU386
 1141              		.loc 1 327 7 view .LVU387
 1142 043e 0978     		ldrb	r1, [r1]	@ zero_extendqisi2
 1143              	.LVL127:
 1144              		.loc 1 327 7 is_stmt 0 view .LVU388
 1145 0440 33F82120 		ldrh	r2, [r3, r1, lsl #2]
 1146 0444 92B2     		uxth	r2, r2
 1147 0446 22F4E042 		bic	r2, r2, #28672
 1148 044a 22F04002 		bic	r2, r2, #64
 1149              	.LVL128:
 1150              		.loc 1 327 7 is_stmt 1 view .LVU389
 1151              		.loc 1 327 7 discriminator 3 view .LVU390
 1152              		.loc 1 327 7 discriminator 6 view .LVU391
 1153 044e 2243     		orrs	r2, r2, r4
 1154              	.LVL129:
 1155              		.loc 1 327 7 is_stmt 0 discriminator 6 view .LVU392
 1156 0450 23F82120 		strh	r2, [r3, r1, lsl #2]	@ movhi
 1157              	.LBE37:
 1158              		.loc 1 327 7 is_stmt 1 view .LVU393
 1159              	.LVL130:
 1160              	.L21:
 328:Drivers/STM32G4xx_HAL_Driver/Src/stm32g4xx_ll_usb.c ****     }
 329:Drivers/STM32G4xx_HAL_Driver/Src/stm32g4xx_ll_usb.c ****     else
 330:Drivers/STM32G4xx_HAL_Driver/Src/stm32g4xx_ll_usb.c ****     {
 331:Drivers/STM32G4xx_HAL_Driver/Src/stm32g4xx_ll_usb.c ****       /* Clear the data toggle bits for the endpoint IN/OUT */
 332:Drivers/STM32G4xx_HAL_Driver/Src/stm32g4xx_ll_usb.c ****       PCD_CLEAR_RX_DTOG(USBx, ep->num);
 333:Drivers/STM32G4xx_HAL_Driver/Src/stm32g4xx_ll_usb.c ****       PCD_CLEAR_TX_DTOG(USBx, ep->num);
 334:Drivers/STM32G4xx_HAL_Driver/Src/stm32g4xx_ll_usb.c **** 
 335:Drivers/STM32G4xx_HAL_Driver/Src/stm32g4xx_ll_usb.c ****       if (ep->type != EP_TYPE_ISOC)
 336:Drivers/STM32G4xx_HAL_Driver/Src/stm32g4xx_ll_usb.c ****       {
 337:Drivers/STM32G4xx_HAL_Driver/Src/stm32g4xx_ll_usb.c ****         /* Configure NAK status for the Endpoint */
 338:Drivers/STM32G4xx_HAL_Driver/Src/stm32g4xx_ll_usb.c ****         PCD_SET_EP_TX_STATUS(USBx, ep->num, USB_EP_TX_NAK);
 339:Drivers/STM32G4xx_HAL_Driver/Src/stm32g4xx_ll_usb.c ****       }
 340:Drivers/STM32G4xx_HAL_Driver/Src/stm32g4xx_ll_usb.c ****       else
 341:Drivers/STM32G4xx_HAL_Driver/Src/stm32g4xx_ll_usb.c ****       {
 342:Drivers/STM32G4xx_HAL_Driver/Src/stm32g4xx_ll_usb.c ****         /* Configure TX Endpoint to disabled state */
 343:Drivers/STM32G4xx_HAL_Driver/Src/stm32g4xx_ll_usb.c ****         PCD_SET_EP_TX_STATUS(USBx, ep->num, USB_EP_TX_DIS);
 344:Drivers/STM32G4xx_HAL_Driver/Src/stm32g4xx_ll_usb.c ****       }
 345:Drivers/STM32G4xx_HAL_Driver/Src/stm32g4xx_ll_usb.c **** 
 346:Drivers/STM32G4xx_HAL_Driver/Src/stm32g4xx_ll_usb.c ****       PCD_SET_EP_RX_STATUS(USBx, ep->num, USB_EP_RX_DIS);
 1161              		.loc 1 346 7 discriminator 7 view .LVU394
 347:Drivers/STM32G4xx_HAL_Driver/Src/stm32g4xx_ll_usb.c ****     }
 348:Drivers/STM32G4xx_HAL_Driver/Src/stm32g4xx_ll_usb.c ****   }
 349:Drivers/STM32G4xx_HAL_Driver/Src/stm32g4xx_ll_usb.c **** #endif /* (USE_USB_DOUBLE_BUFFER == 1U) */
 350:Drivers/STM32G4xx_HAL_Driver/Src/stm32g4xx_ll_usb.c **** 
 351:Drivers/STM32G4xx_HAL_Driver/Src/stm32g4xx_ll_usb.c ****   return ret;
 1162              		.loc 1 351 3 view .LVU395
 352:Drivers/STM32G4xx_HAL_Driver/Src/stm32g4xx_ll_usb.c **** }
 1163              		.loc 1 352 1 is_stmt 0 view .LVU396
 1164 0454 10BD     		pop	{r4, pc}
 1165              	.LVL131:
ARM GAS  C:\Users\Nathan\AppData\Local\Temp\ccyJNqjv.s 			page 28


 1166              	.L54:
 1167              	.LBB38:
 323:Drivers/STM32G4xx_HAL_Driver/Src/stm32g4xx_ll_usb.c **** 
 1168              		.loc 1 323 7 is_stmt 1 discriminator 34 view .LVU397
 1169 0456 B3F85020 		ldrh	r2, [r3, #80]
 1170 045a 13FA82F2 		uxtah	r2, r3, r2
 1171              	.LVL132:
 323:Drivers/STM32G4xx_HAL_Driver/Src/stm32g4xx_ll_usb.c **** 
 1172              		.loc 1 323 7 view .LVU398
 323:Drivers/STM32G4xx_HAL_Driver/Src/stm32g4xx_ll_usb.c **** 
 1173              		.loc 1 323 7 is_stmt 0 discriminator 34 view .LVU399
 1174 045e 0C78     		ldrb	r4, [r1]	@ zero_extendqisi2
 1175 0460 02EBC402 		add	r2, r2, r4, lsl #3
 1176              	.LVL133:
 323:Drivers/STM32G4xx_HAL_Driver/Src/stm32g4xx_ll_usb.c **** 
 1177              		.loc 1 323 7 is_stmt 1 view .LVU400
 323:Drivers/STM32G4xx_HAL_Driver/Src/stm32g4xx_ll_usb.c **** 
 1178              		.loc 1 323 7 is_stmt 0 discriminator 34 view .LVU401
 1179 0464 0C8A     		ldrh	r4, [r1, #16]
 1180 0466 A2F80644 		strh	r4, [r2, #1030]	@ movhi
 1181 046a D8E7     		b	.L42
 1182              	.LVL134:
 1183              	.L31:
 323:Drivers/STM32G4xx_HAL_Driver/Src/stm32g4xx_ll_usb.c **** 
 1184              		.loc 1 323 7 discriminator 34 view .LVU402
 1185              	.LBE38:
 332:Drivers/STM32G4xx_HAL_Driver/Src/stm32g4xx_ll_usb.c ****       PCD_CLEAR_TX_DTOG(USBx, ep->num);
 1186              		.loc 1 332 7 is_stmt 1 view .LVU403
 1187              	.LBB39:
 332:Drivers/STM32G4xx_HAL_Driver/Src/stm32g4xx_ll_usb.c ****       PCD_CLEAR_TX_DTOG(USBx, ep->num);
 1188              		.loc 1 332 7 view .LVU404
 332:Drivers/STM32G4xx_HAL_Driver/Src/stm32g4xx_ll_usb.c ****       PCD_CLEAR_TX_DTOG(USBx, ep->num);
 1189              		.loc 1 332 7 view .LVU405
 1190 046c 0C78     		ldrb	r4, [r1]	@ zero_extendqisi2
 1191 046e 33F82420 		ldrh	r2, [r3, r4, lsl #2]
 1192              	.LVL135:
 332:Drivers/STM32G4xx_HAL_Driver/Src/stm32g4xx_ll_usb.c ****       PCD_CLEAR_TX_DTOG(USBx, ep->num);
 1193              		.loc 1 332 7 view .LVU406
 1194 0472 12F4804F 		tst	r2, #16384
 1195 0476 0CD0     		beq	.L46
 332:Drivers/STM32G4xx_HAL_Driver/Src/stm32g4xx_ll_usb.c ****       PCD_CLEAR_TX_DTOG(USBx, ep->num);
 1196              		.loc 1 332 7 discriminator 1 view .LVU407
 1197              	.LBB40:
 332:Drivers/STM32G4xx_HAL_Driver/Src/stm32g4xx_ll_usb.c ****       PCD_CLEAR_TX_DTOG(USBx, ep->num);
 1198              		.loc 1 332 7 discriminator 1 view .LVU408
 332:Drivers/STM32G4xx_HAL_Driver/Src/stm32g4xx_ll_usb.c ****       PCD_CLEAR_TX_DTOG(USBx, ep->num);
 1199              		.loc 1 332 7 discriminator 1 view .LVU409
 1200 0478 33F82420 		ldrh	r2, [r3, r4, lsl #2]
 1201              	.LVL136:
 332:Drivers/STM32G4xx_HAL_Driver/Src/stm32g4xx_ll_usb.c ****       PCD_CLEAR_TX_DTOG(USBx, ep->num);
 1202              		.loc 1 332 7 is_stmt 0 discriminator 1 view .LVU410
 1203 047c 92B2     		uxth	r2, r2
 1204 047e 22F4E042 		bic	r2, r2, #28672
 1205 0482 22F07002 		bic	r2, r2, #112
 1206              	.LVL137:
 332:Drivers/STM32G4xx_HAL_Driver/Src/stm32g4xx_ll_usb.c ****       PCD_CLEAR_TX_DTOG(USBx, ep->num);
 1207              		.loc 1 332 7 is_stmt 1 view .LVU411
ARM GAS  C:\Users\Nathan\AppData\Local\Temp\ccyJNqjv.s 			page 29


 332:Drivers/STM32G4xx_HAL_Driver/Src/stm32g4xx_ll_usb.c ****       PCD_CLEAR_TX_DTOG(USBx, ep->num);
 1208              		.loc 1 332 7 is_stmt 0 discriminator 1 view .LVU412
 1209 0486 42F44042 		orr	r2, r2, #49152
 1210              	.LVL138:
 332:Drivers/STM32G4xx_HAL_Driver/Src/stm32g4xx_ll_usb.c ****       PCD_CLEAR_TX_DTOG(USBx, ep->num);
 1211              		.loc 1 332 7 discriminator 1 view .LVU413
 1212 048a 42F08002 		orr	r2, r2, #128
 1213 048e 23F82420 		strh	r2, [r3, r4, lsl #2]	@ movhi
 1214              	.LVL139:
 1215              	.L46:
 332:Drivers/STM32G4xx_HAL_Driver/Src/stm32g4xx_ll_usb.c ****       PCD_CLEAR_TX_DTOG(USBx, ep->num);
 1216              		.loc 1 332 7 discriminator 1 view .LVU414
 1217              	.LBE40:
 332:Drivers/STM32G4xx_HAL_Driver/Src/stm32g4xx_ll_usb.c ****       PCD_CLEAR_TX_DTOG(USBx, ep->num);
 1218              		.loc 1 332 7 is_stmt 1 discriminator 3 view .LVU415
 1219              	.LBE39:
 332:Drivers/STM32G4xx_HAL_Driver/Src/stm32g4xx_ll_usb.c ****       PCD_CLEAR_TX_DTOG(USBx, ep->num);
 1220              		.loc 1 332 7 discriminator 3 view .LVU416
 333:Drivers/STM32G4xx_HAL_Driver/Src/stm32g4xx_ll_usb.c **** 
 1221              		.loc 1 333 7 view .LVU417
 1222              	.LBB41:
 333:Drivers/STM32G4xx_HAL_Driver/Src/stm32g4xx_ll_usb.c **** 
 1223              		.loc 1 333 7 view .LVU418
 333:Drivers/STM32G4xx_HAL_Driver/Src/stm32g4xx_ll_usb.c **** 
 1224              		.loc 1 333 7 view .LVU419
 1225 0492 0C78     		ldrb	r4, [r1]	@ zero_extendqisi2
 1226 0494 33F82420 		ldrh	r2, [r3, r4, lsl #2]
 1227              	.LVL140:
 333:Drivers/STM32G4xx_HAL_Driver/Src/stm32g4xx_ll_usb.c **** 
 1228              		.loc 1 333 7 view .LVU420
 1229 0498 12F0400F 		tst	r2, #64
 1230 049c 0CD0     		beq	.L47
 333:Drivers/STM32G4xx_HAL_Driver/Src/stm32g4xx_ll_usb.c **** 
 1231              		.loc 1 333 7 discriminator 1 view .LVU421
 1232              	.LBB42:
 333:Drivers/STM32G4xx_HAL_Driver/Src/stm32g4xx_ll_usb.c **** 
 1233              		.loc 1 333 7 discriminator 1 view .LVU422
 333:Drivers/STM32G4xx_HAL_Driver/Src/stm32g4xx_ll_usb.c **** 
 1234              		.loc 1 333 7 discriminator 1 view .LVU423
 1235 049e 33F82420 		ldrh	r2, [r3, r4, lsl #2]
 1236              	.LVL141:
 333:Drivers/STM32G4xx_HAL_Driver/Src/stm32g4xx_ll_usb.c **** 
 1237              		.loc 1 333 7 is_stmt 0 discriminator 1 view .LVU424
 1238 04a2 92B2     		uxth	r2, r2
 1239 04a4 22F4E042 		bic	r2, r2, #28672
 1240 04a8 22F07002 		bic	r2, r2, #112
 1241              	.LVL142:
 333:Drivers/STM32G4xx_HAL_Driver/Src/stm32g4xx_ll_usb.c **** 
 1242              		.loc 1 333 7 is_stmt 1 view .LVU425
 333:Drivers/STM32G4xx_HAL_Driver/Src/stm32g4xx_ll_usb.c **** 
 1243              		.loc 1 333 7 is_stmt 0 discriminator 1 view .LVU426
 1244 04ac 42F40042 		orr	r2, r2, #32768
 1245              	.LVL143:
 333:Drivers/STM32G4xx_HAL_Driver/Src/stm32g4xx_ll_usb.c **** 
 1246              		.loc 1 333 7 discriminator 1 view .LVU427
 1247 04b0 42F0C002 		orr	r2, r2, #192
 1248 04b4 23F82420 		strh	r2, [r3, r4, lsl #2]	@ movhi
ARM GAS  C:\Users\Nathan\AppData\Local\Temp\ccyJNqjv.s 			page 30


 1249              	.LVL144:
 1250              	.L47:
 333:Drivers/STM32G4xx_HAL_Driver/Src/stm32g4xx_ll_usb.c **** 
 1251              		.loc 1 333 7 discriminator 1 view .LVU428
 1252              	.LBE42:
 333:Drivers/STM32G4xx_HAL_Driver/Src/stm32g4xx_ll_usb.c **** 
 1253              		.loc 1 333 7 is_stmt 1 discriminator 3 view .LVU429
 1254              	.LBE41:
 333:Drivers/STM32G4xx_HAL_Driver/Src/stm32g4xx_ll_usb.c **** 
 1255              		.loc 1 333 7 discriminator 3 view .LVU430
 335:Drivers/STM32G4xx_HAL_Driver/Src/stm32g4xx_ll_usb.c ****       {
 1256              		.loc 1 335 7 view .LVU431
 335:Drivers/STM32G4xx_HAL_Driver/Src/stm32g4xx_ll_usb.c ****       {
 1257              		.loc 1 335 13 is_stmt 0 view .LVU432
 1258 04b8 CA78     		ldrb	r2, [r1, #3]	@ zero_extendqisi2
 335:Drivers/STM32G4xx_HAL_Driver/Src/stm32g4xx_ll_usb.c ****       {
 1259              		.loc 1 335 10 view .LVU433
 1260 04ba 012A     		cmp	r2, #1
 1261 04bc 1ED0     		beq	.L48
 338:Drivers/STM32G4xx_HAL_Driver/Src/stm32g4xx_ll_usb.c ****       }
 1262              		.loc 1 338 9 is_stmt 1 view .LVU434
 1263              	.LBB43:
 338:Drivers/STM32G4xx_HAL_Driver/Src/stm32g4xx_ll_usb.c ****       }
 1264              		.loc 1 338 9 view .LVU435
 338:Drivers/STM32G4xx_HAL_Driver/Src/stm32g4xx_ll_usb.c ****       }
 1265              		.loc 1 338 9 view .LVU436
 1266 04be 0C78     		ldrb	r4, [r1]	@ zero_extendqisi2
 1267 04c0 33F82420 		ldrh	r2, [r3, r4, lsl #2]
 1268 04c4 92B2     		uxth	r2, r2
 1269 04c6 22F4E042 		bic	r2, r2, #28672
 1270 04ca 22F04002 		bic	r2, r2, #64
 1271              	.LVL145:
 338:Drivers/STM32G4xx_HAL_Driver/Src/stm32g4xx_ll_usb.c ****       }
 1272              		.loc 1 338 9 view .LVU437
 338:Drivers/STM32G4xx_HAL_Driver/Src/stm32g4xx_ll_usb.c ****       }
 1273              		.loc 1 338 9 discriminator 3 view .LVU438
 338:Drivers/STM32G4xx_HAL_Driver/Src/stm32g4xx_ll_usb.c ****       }
 1274              		.loc 1 338 9 discriminator 4 view .LVU439
 1275 04ce 82F02002 		eor	r2, r2, #32
 1276              	.LVL146:
 338:Drivers/STM32G4xx_HAL_Driver/Src/stm32g4xx_ll_usb.c ****       }
 1277              		.loc 1 338 9 discriminator 6 view .LVU440
 1278 04d2 42F40042 		orr	r2, r2, #32768
 1279              	.LVL147:
 338:Drivers/STM32G4xx_HAL_Driver/Src/stm32g4xx_ll_usb.c ****       }
 1280              		.loc 1 338 9 is_stmt 0 discriminator 6 view .LVU441
 1281 04d6 42F08002 		orr	r2, r2, #128
 1282 04da 23F82420 		strh	r2, [r3, r4, lsl #2]	@ movhi
 1283              	.LBE43:
 338:Drivers/STM32G4xx_HAL_Driver/Src/stm32g4xx_ll_usb.c ****       }
 1284              		.loc 1 338 9 is_stmt 1 view .LVU442
 1285              	.LVL148:
 1286              	.L49:
 343:Drivers/STM32G4xx_HAL_Driver/Src/stm32g4xx_ll_usb.c ****       }
 1287              		.loc 1 343 9 discriminator 7 view .LVU443
 346:Drivers/STM32G4xx_HAL_Driver/Src/stm32g4xx_ll_usb.c ****     }
 1288              		.loc 1 346 7 view .LVU444
ARM GAS  C:\Users\Nathan\AppData\Local\Temp\ccyJNqjv.s 			page 31


 1289              	.LBB44:
 346:Drivers/STM32G4xx_HAL_Driver/Src/stm32g4xx_ll_usb.c ****     }
 1290              		.loc 1 346 7 view .LVU445
 346:Drivers/STM32G4xx_HAL_Driver/Src/stm32g4xx_ll_usb.c ****     }
 1291              		.loc 1 346 7 view .LVU446
 1292 04de 0978     		ldrb	r1, [r1]	@ zero_extendqisi2
 1293              	.LVL149:
 346:Drivers/STM32G4xx_HAL_Driver/Src/stm32g4xx_ll_usb.c ****     }
 1294              		.loc 1 346 7 is_stmt 0 view .LVU447
 1295 04e0 33F82120 		ldrh	r2, [r3, r1, lsl #2]
 1296 04e4 92B2     		uxth	r2, r2
 1297 04e6 22F48042 		bic	r2, r2, #16384
 1298 04ea 22F07002 		bic	r2, r2, #112
 1299              	.LVL150:
 346:Drivers/STM32G4xx_HAL_Driver/Src/stm32g4xx_ll_usb.c ****     }
 1300              		.loc 1 346 7 is_stmt 1 view .LVU448
 346:Drivers/STM32G4xx_HAL_Driver/Src/stm32g4xx_ll_usb.c ****     }
 1301              		.loc 1 346 7 discriminator 3 view .LVU449
 346:Drivers/STM32G4xx_HAL_Driver/Src/stm32g4xx_ll_usb.c ****     }
 1302              		.loc 1 346 7 discriminator 6 view .LVU450
 1303 04ee 42F40042 		orr	r2, r2, #32768
 1304              	.LVL151:
 346:Drivers/STM32G4xx_HAL_Driver/Src/stm32g4xx_ll_usb.c ****     }
 1305              		.loc 1 346 7 is_stmt 0 discriminator 6 view .LVU451
 1306 04f2 42F08002 		orr	r2, r2, #128
 1307 04f6 23F82120 		strh	r2, [r3, r1, lsl #2]	@ movhi
 1308 04fa ABE7     		b	.L21
 1309              	.LVL152:
 1310              	.L48:
 346:Drivers/STM32G4xx_HAL_Driver/Src/stm32g4xx_ll_usb.c ****     }
 1311              		.loc 1 346 7 discriminator 6 view .LVU452
 1312              	.LBE44:
 343:Drivers/STM32G4xx_HAL_Driver/Src/stm32g4xx_ll_usb.c ****       }
 1313              		.loc 1 343 9 is_stmt 1 view .LVU453
 1314              	.LBB45:
 343:Drivers/STM32G4xx_HAL_Driver/Src/stm32g4xx_ll_usb.c ****       }
 1315              		.loc 1 343 9 view .LVU454
 343:Drivers/STM32G4xx_HAL_Driver/Src/stm32g4xx_ll_usb.c ****       }
 1316              		.loc 1 343 9 view .LVU455
 1317 04fc 0C78     		ldrb	r4, [r1]	@ zero_extendqisi2
 1318 04fe 33F82420 		ldrh	r2, [r3, r4, lsl #2]
 1319 0502 92B2     		uxth	r2, r2
 1320 0504 22F4E042 		bic	r2, r2, #28672
 1321 0508 22F04002 		bic	r2, r2, #64
 1322              	.LVL153:
 343:Drivers/STM32G4xx_HAL_Driver/Src/stm32g4xx_ll_usb.c ****       }
 1323              		.loc 1 343 9 view .LVU456
 343:Drivers/STM32G4xx_HAL_Driver/Src/stm32g4xx_ll_usb.c ****       }
 1324              		.loc 1 343 9 discriminator 3 view .LVU457
 343:Drivers/STM32G4xx_HAL_Driver/Src/stm32g4xx_ll_usb.c ****       }
 1325              		.loc 1 343 9 discriminator 6 view .LVU458
 1326 050c 42F40042 		orr	r2, r2, #32768
 1327              	.LVL154:
 343:Drivers/STM32G4xx_HAL_Driver/Src/stm32g4xx_ll_usb.c ****       }
 1328              		.loc 1 343 9 is_stmt 0 discriminator 6 view .LVU459
 1329 0510 42F08002 		orr	r2, r2, #128
 1330 0514 23F82420 		strh	r2, [r3, r4, lsl #2]	@ movhi
ARM GAS  C:\Users\Nathan\AppData\Local\Temp\ccyJNqjv.s 			page 32


 1331 0518 E1E7     		b	.L49
 1332              	.LBE45:
 1333              		.cfi_endproc
 1334              	.LFE139:
 1336              		.section	.text.USB_DeactivateEndpoint,"ax",%progbits
 1337              		.align	1
 1338              		.global	USB_DeactivateEndpoint
 1339              		.syntax unified
 1340              		.thumb
 1341              		.thumb_func
 1343              	USB_DeactivateEndpoint:
 1344              	.LVL155:
 1345              	.LFB140:
 353:Drivers/STM32G4xx_HAL_Driver/Src/stm32g4xx_ll_usb.c **** 
 354:Drivers/STM32G4xx_HAL_Driver/Src/stm32g4xx_ll_usb.c **** /**
 355:Drivers/STM32G4xx_HAL_Driver/Src/stm32g4xx_ll_usb.c ****   * @brief  De-activate and de-initialize an endpoint
 356:Drivers/STM32G4xx_HAL_Driver/Src/stm32g4xx_ll_usb.c ****   * @param  USBx Selected device
 357:Drivers/STM32G4xx_HAL_Driver/Src/stm32g4xx_ll_usb.c ****   * @param  ep pointer to endpoint structure
 358:Drivers/STM32G4xx_HAL_Driver/Src/stm32g4xx_ll_usb.c ****   * @retval HAL status
 359:Drivers/STM32G4xx_HAL_Driver/Src/stm32g4xx_ll_usb.c ****   */
 360:Drivers/STM32G4xx_HAL_Driver/Src/stm32g4xx_ll_usb.c **** HAL_StatusTypeDef USB_DeactivateEndpoint(USB_TypeDef *USBx, USB_EPTypeDef *ep)
 361:Drivers/STM32G4xx_HAL_Driver/Src/stm32g4xx_ll_usb.c **** {
 1346              		.loc 1 361 1 is_stmt 1 view -0
 1347              		.cfi_startproc
 1348              		@ args = 0, pretend = 0, frame = 0
 1349              		@ frame_needed = 0, uses_anonymous_args = 0
 1350              		@ link register save eliminated.
 362:Drivers/STM32G4xx_HAL_Driver/Src/stm32g4xx_ll_usb.c ****   if (ep->doublebuffer == 0U)
 1351              		.loc 1 362 3 view .LVU461
 1352              		.loc 1 362 9 is_stmt 0 view .LVU462
 1353 0000 0B7B     		ldrb	r3, [r1, #12]	@ zero_extendqisi2
 1354              		.loc 1 362 6 view .LVU463
 1355 0002 002B     		cmp	r3, #0
 1356 0004 46D1     		bne	.L56
 363:Drivers/STM32G4xx_HAL_Driver/Src/stm32g4xx_ll_usb.c ****   {
 364:Drivers/STM32G4xx_HAL_Driver/Src/stm32g4xx_ll_usb.c ****     if (ep->is_in != 0U)
 1357              		.loc 1 364 5 is_stmt 1 view .LVU464
 1358              		.loc 1 364 11 is_stmt 0 view .LVU465
 1359 0006 4B78     		ldrb	r3, [r1, #1]	@ zero_extendqisi2
 1360              		.loc 1 364 8 view .LVU466
 1361 0008 13B3     		cbz	r3, .L57
 365:Drivers/STM32G4xx_HAL_Driver/Src/stm32g4xx_ll_usb.c ****     {
 366:Drivers/STM32G4xx_HAL_Driver/Src/stm32g4xx_ll_usb.c ****       PCD_CLEAR_TX_DTOG(USBx, ep->num);
 1362              		.loc 1 366 7 is_stmt 1 view .LVU467
 1363              	.LBB46:
 1364              		.loc 1 366 7 view .LVU468
 1365              		.loc 1 366 7 view .LVU469
 1366 000a 0A78     		ldrb	r2, [r1]	@ zero_extendqisi2
 1367 000c 30F82230 		ldrh	r3, [r0, r2, lsl #2]
 1368              	.LVL156:
 1369              		.loc 1 366 7 view .LVU470
 1370 0010 13F0400F 		tst	r3, #64
 1371 0014 0CD0     		beq	.L58
 1372              		.loc 1 366 7 discriminator 1 view .LVU471
 1373              	.LBB47:
 1374              		.loc 1 366 7 discriminator 1 view .LVU472
 1375              		.loc 1 366 7 discriminator 1 view .LVU473
ARM GAS  C:\Users\Nathan\AppData\Local\Temp\ccyJNqjv.s 			page 33


 1376 0016 30F82230 		ldrh	r3, [r0, r2, lsl #2]
 1377              	.LVL157:
 1378              		.loc 1 366 7 is_stmt 0 discriminator 1 view .LVU474
 1379 001a 9BB2     		uxth	r3, r3
 1380 001c 23F4E043 		bic	r3, r3, #28672
 1381 0020 23F07003 		bic	r3, r3, #112
 1382              	.LVL158:
 1383              		.loc 1 366 7 is_stmt 1 view .LVU475
 1384              		.loc 1 366 7 is_stmt 0 discriminator 1 view .LVU476
 1385 0024 43F40043 		orr	r3, r3, #32768
 1386              	.LVL159:
 1387              		.loc 1 366 7 discriminator 1 view .LVU477
 1388 0028 43F0C003 		orr	r3, r3, #192
 1389 002c 20F82230 		strh	r3, [r0, r2, lsl #2]	@ movhi
 1390              	.LVL160:
 1391              	.L58:
 1392              		.loc 1 366 7 discriminator 1 view .LVU478
 1393              	.LBE47:
 1394              		.loc 1 366 7 is_stmt 1 discriminator 3 view .LVU479
 1395              	.LBE46:
 1396              		.loc 1 366 7 discriminator 3 view .LVU480
 367:Drivers/STM32G4xx_HAL_Driver/Src/stm32g4xx_ll_usb.c **** 
 368:Drivers/STM32G4xx_HAL_Driver/Src/stm32g4xx_ll_usb.c ****       /* Configure DISABLE status for the Endpoint */
 369:Drivers/STM32G4xx_HAL_Driver/Src/stm32g4xx_ll_usb.c ****       PCD_SET_EP_TX_STATUS(USBx, ep->num, USB_EP_TX_DIS);
 1397              		.loc 1 369 7 view .LVU481
 1398              	.LBB48:
 1399              		.loc 1 369 7 view .LVU482
 1400              		.loc 1 369 7 view .LVU483
 1401 0030 0A78     		ldrb	r2, [r1]	@ zero_extendqisi2
 1402 0032 30F82230 		ldrh	r3, [r0, r2, lsl #2]
 1403 0036 9BB2     		uxth	r3, r3
 1404 0038 23F4E043 		bic	r3, r3, #28672
 1405 003c 23F04003 		bic	r3, r3, #64
 1406              	.LVL161:
 1407              		.loc 1 369 7 view .LVU484
 1408              		.loc 1 369 7 discriminator 3 view .LVU485
 1409              		.loc 1 369 7 discriminator 6 view .LVU486
 1410 0040 43F40043 		orr	r3, r3, #32768
 1411              	.LVL162:
 1412              		.loc 1 369 7 is_stmt 0 discriminator 6 view .LVU487
 1413 0044 43F08003 		orr	r3, r3, #128
 1414 0048 20F82230 		strh	r3, [r0, r2, lsl #2]	@ movhi
 1415              	.LBE48:
 1416              		.loc 1 369 7 is_stmt 1 view .LVU488
 1417              	.LVL163:
 1418              	.L59:
 370:Drivers/STM32G4xx_HAL_Driver/Src/stm32g4xx_ll_usb.c ****     }
 371:Drivers/STM32G4xx_HAL_Driver/Src/stm32g4xx_ll_usb.c **** 
 372:Drivers/STM32G4xx_HAL_Driver/Src/stm32g4xx_ll_usb.c ****     else
 373:Drivers/STM32G4xx_HAL_Driver/Src/stm32g4xx_ll_usb.c ****     {
 374:Drivers/STM32G4xx_HAL_Driver/Src/stm32g4xx_ll_usb.c ****       PCD_CLEAR_RX_DTOG(USBx, ep->num);
 375:Drivers/STM32G4xx_HAL_Driver/Src/stm32g4xx_ll_usb.c **** 
 376:Drivers/STM32G4xx_HAL_Driver/Src/stm32g4xx_ll_usb.c ****       /* Configure DISABLE status for the Endpoint */
 377:Drivers/STM32G4xx_HAL_Driver/Src/stm32g4xx_ll_usb.c ****       PCD_SET_EP_RX_STATUS(USBx, ep->num, USB_EP_RX_DIS);
 378:Drivers/STM32G4xx_HAL_Driver/Src/stm32g4xx_ll_usb.c ****     }
 379:Drivers/STM32G4xx_HAL_Driver/Src/stm32g4xx_ll_usb.c ****   }
 380:Drivers/STM32G4xx_HAL_Driver/Src/stm32g4xx_ll_usb.c **** #if (USE_USB_DOUBLE_BUFFER == 1U)
ARM GAS  C:\Users\Nathan\AppData\Local\Temp\ccyJNqjv.s 			page 34


 381:Drivers/STM32G4xx_HAL_Driver/Src/stm32g4xx_ll_usb.c ****   /* Double Buffer */
 382:Drivers/STM32G4xx_HAL_Driver/Src/stm32g4xx_ll_usb.c ****   else
 383:Drivers/STM32G4xx_HAL_Driver/Src/stm32g4xx_ll_usb.c ****   {
 384:Drivers/STM32G4xx_HAL_Driver/Src/stm32g4xx_ll_usb.c ****     if (ep->is_in == 0U)
 385:Drivers/STM32G4xx_HAL_Driver/Src/stm32g4xx_ll_usb.c ****     {
 386:Drivers/STM32G4xx_HAL_Driver/Src/stm32g4xx_ll_usb.c ****       /* Clear the data toggle bits for the endpoint IN/OUT*/
 387:Drivers/STM32G4xx_HAL_Driver/Src/stm32g4xx_ll_usb.c ****       PCD_CLEAR_RX_DTOG(USBx, ep->num);
 388:Drivers/STM32G4xx_HAL_Driver/Src/stm32g4xx_ll_usb.c ****       PCD_CLEAR_TX_DTOG(USBx, ep->num);
 389:Drivers/STM32G4xx_HAL_Driver/Src/stm32g4xx_ll_usb.c **** 
 390:Drivers/STM32G4xx_HAL_Driver/Src/stm32g4xx_ll_usb.c ****       /* Reset value of the data toggle bits for the endpoint out*/
 391:Drivers/STM32G4xx_HAL_Driver/Src/stm32g4xx_ll_usb.c ****       PCD_TX_DTOG(USBx, ep->num);
 392:Drivers/STM32G4xx_HAL_Driver/Src/stm32g4xx_ll_usb.c **** 
 393:Drivers/STM32G4xx_HAL_Driver/Src/stm32g4xx_ll_usb.c ****       PCD_SET_EP_RX_STATUS(USBx, ep->num, USB_EP_RX_DIS);
 394:Drivers/STM32G4xx_HAL_Driver/Src/stm32g4xx_ll_usb.c ****       PCD_SET_EP_TX_STATUS(USBx, ep->num, USB_EP_TX_DIS);
 395:Drivers/STM32G4xx_HAL_Driver/Src/stm32g4xx_ll_usb.c ****     }
 396:Drivers/STM32G4xx_HAL_Driver/Src/stm32g4xx_ll_usb.c ****     else
 397:Drivers/STM32G4xx_HAL_Driver/Src/stm32g4xx_ll_usb.c ****     {
 398:Drivers/STM32G4xx_HAL_Driver/Src/stm32g4xx_ll_usb.c ****       /* Clear the data toggle bits for the endpoint IN/OUT*/
 399:Drivers/STM32G4xx_HAL_Driver/Src/stm32g4xx_ll_usb.c ****       PCD_CLEAR_RX_DTOG(USBx, ep->num);
 400:Drivers/STM32G4xx_HAL_Driver/Src/stm32g4xx_ll_usb.c ****       PCD_CLEAR_TX_DTOG(USBx, ep->num);
 401:Drivers/STM32G4xx_HAL_Driver/Src/stm32g4xx_ll_usb.c ****       PCD_RX_DTOG(USBx, ep->num);
 402:Drivers/STM32G4xx_HAL_Driver/Src/stm32g4xx_ll_usb.c **** 
 403:Drivers/STM32G4xx_HAL_Driver/Src/stm32g4xx_ll_usb.c ****       /* Configure DISABLE status for the Endpoint*/
 404:Drivers/STM32G4xx_HAL_Driver/Src/stm32g4xx_ll_usb.c ****       PCD_SET_EP_TX_STATUS(USBx, ep->num, USB_EP_TX_DIS);
 405:Drivers/STM32G4xx_HAL_Driver/Src/stm32g4xx_ll_usb.c ****       PCD_SET_EP_RX_STATUS(USBx, ep->num, USB_EP_RX_DIS);
 1419              		.loc 1 405 7 discriminator 7 view .LVU489
 406:Drivers/STM32G4xx_HAL_Driver/Src/stm32g4xx_ll_usb.c ****     }
 407:Drivers/STM32G4xx_HAL_Driver/Src/stm32g4xx_ll_usb.c ****   }
 408:Drivers/STM32G4xx_HAL_Driver/Src/stm32g4xx_ll_usb.c **** #endif /* (USE_USB_DOUBLE_BUFFER == 1U) */
 409:Drivers/STM32G4xx_HAL_Driver/Src/stm32g4xx_ll_usb.c **** 
 410:Drivers/STM32G4xx_HAL_Driver/Src/stm32g4xx_ll_usb.c ****   return HAL_OK;
 1420              		.loc 1 410 3 view .LVU490
 411:Drivers/STM32G4xx_HAL_Driver/Src/stm32g4xx_ll_usb.c **** }
 1421              		.loc 1 411 1 is_stmt 0 view .LVU491
 1422 004c 0020     		movs	r0, #0
 1423              	.LVL164:
 1424              		.loc 1 411 1 view .LVU492
 1425 004e 7047     		bx	lr
 1426              	.LVL165:
 1427              	.L57:
 374:Drivers/STM32G4xx_HAL_Driver/Src/stm32g4xx_ll_usb.c **** 
 1428              		.loc 1 374 7 is_stmt 1 view .LVU493
 1429              	.LBB49:
 374:Drivers/STM32G4xx_HAL_Driver/Src/stm32g4xx_ll_usb.c **** 
 1430              		.loc 1 374 7 view .LVU494
 374:Drivers/STM32G4xx_HAL_Driver/Src/stm32g4xx_ll_usb.c **** 
 1431              		.loc 1 374 7 view .LVU495
 1432 0050 0A78     		ldrb	r2, [r1]	@ zero_extendqisi2
 1433 0052 30F82230 		ldrh	r3, [r0, r2, lsl #2]
 1434              	.LVL166:
 374:Drivers/STM32G4xx_HAL_Driver/Src/stm32g4xx_ll_usb.c **** 
 1435              		.loc 1 374 7 view .LVU496
 1436 0056 13F4804F 		tst	r3, #16384
 1437 005a 0CD0     		beq	.L60
 374:Drivers/STM32G4xx_HAL_Driver/Src/stm32g4xx_ll_usb.c **** 
 1438              		.loc 1 374 7 discriminator 1 view .LVU497
 1439              	.LBB50:
ARM GAS  C:\Users\Nathan\AppData\Local\Temp\ccyJNqjv.s 			page 35


 374:Drivers/STM32G4xx_HAL_Driver/Src/stm32g4xx_ll_usb.c **** 
 1440              		.loc 1 374 7 discriminator 1 view .LVU498
 374:Drivers/STM32G4xx_HAL_Driver/Src/stm32g4xx_ll_usb.c **** 
 1441              		.loc 1 374 7 discriminator 1 view .LVU499
 1442 005c 30F82230 		ldrh	r3, [r0, r2, lsl #2]
 1443              	.LVL167:
 374:Drivers/STM32G4xx_HAL_Driver/Src/stm32g4xx_ll_usb.c **** 
 1444              		.loc 1 374 7 is_stmt 0 discriminator 1 view .LVU500
 1445 0060 9BB2     		uxth	r3, r3
 1446 0062 23F4E043 		bic	r3, r3, #28672
 1447 0066 23F07003 		bic	r3, r3, #112
 1448              	.LVL168:
 374:Drivers/STM32G4xx_HAL_Driver/Src/stm32g4xx_ll_usb.c **** 
 1449              		.loc 1 374 7 is_stmt 1 view .LVU501
 374:Drivers/STM32G4xx_HAL_Driver/Src/stm32g4xx_ll_usb.c **** 
 1450              		.loc 1 374 7 is_stmt 0 discriminator 1 view .LVU502
 1451 006a 43F44043 		orr	r3, r3, #49152
 1452              	.LVL169:
 374:Drivers/STM32G4xx_HAL_Driver/Src/stm32g4xx_ll_usb.c **** 
 1453              		.loc 1 374 7 discriminator 1 view .LVU503
 1454 006e 43F08003 		orr	r3, r3, #128
 1455 0072 20F82230 		strh	r3, [r0, r2, lsl #2]	@ movhi
 1456              	.LVL170:
 1457              	.L60:
 374:Drivers/STM32G4xx_HAL_Driver/Src/stm32g4xx_ll_usb.c **** 
 1458              		.loc 1 374 7 discriminator 1 view .LVU504
 1459              	.LBE50:
 374:Drivers/STM32G4xx_HAL_Driver/Src/stm32g4xx_ll_usb.c **** 
 1460              		.loc 1 374 7 is_stmt 1 discriminator 3 view .LVU505
 1461              	.LBE49:
 374:Drivers/STM32G4xx_HAL_Driver/Src/stm32g4xx_ll_usb.c **** 
 1462              		.loc 1 374 7 discriminator 3 view .LVU506
 377:Drivers/STM32G4xx_HAL_Driver/Src/stm32g4xx_ll_usb.c ****     }
 1463              		.loc 1 377 7 view .LVU507
 1464              	.LBB51:
 377:Drivers/STM32G4xx_HAL_Driver/Src/stm32g4xx_ll_usb.c ****     }
 1465              		.loc 1 377 7 view .LVU508
 377:Drivers/STM32G4xx_HAL_Driver/Src/stm32g4xx_ll_usb.c ****     }
 1466              		.loc 1 377 7 view .LVU509
 1467 0076 0A78     		ldrb	r2, [r1]	@ zero_extendqisi2
 1468 0078 30F82230 		ldrh	r3, [r0, r2, lsl #2]
 1469 007c 9BB2     		uxth	r3, r3
 1470 007e 23F48043 		bic	r3, r3, #16384
 1471 0082 23F07003 		bic	r3, r3, #112
 1472              	.LVL171:
 377:Drivers/STM32G4xx_HAL_Driver/Src/stm32g4xx_ll_usb.c ****     }
 1473              		.loc 1 377 7 view .LVU510
 377:Drivers/STM32G4xx_HAL_Driver/Src/stm32g4xx_ll_usb.c ****     }
 1474              		.loc 1 377 7 discriminator 3 view .LVU511
 377:Drivers/STM32G4xx_HAL_Driver/Src/stm32g4xx_ll_usb.c ****     }
 1475              		.loc 1 377 7 discriminator 6 view .LVU512
 1476 0086 43F40043 		orr	r3, r3, #32768
 1477              	.LVL172:
 377:Drivers/STM32G4xx_HAL_Driver/Src/stm32g4xx_ll_usb.c ****     }
 1478              		.loc 1 377 7 is_stmt 0 discriminator 6 view .LVU513
 1479 008a 43F08003 		orr	r3, r3, #128
 1480 008e 20F82230 		strh	r3, [r0, r2, lsl #2]	@ movhi
ARM GAS  C:\Users\Nathan\AppData\Local\Temp\ccyJNqjv.s 			page 36


 1481 0092 DBE7     		b	.L59
 1482              	.LVL173:
 1483              	.L56:
 377:Drivers/STM32G4xx_HAL_Driver/Src/stm32g4xx_ll_usb.c ****     }
 1484              		.loc 1 377 7 discriminator 6 view .LVU514
 1485              	.LBE51:
 384:Drivers/STM32G4xx_HAL_Driver/Src/stm32g4xx_ll_usb.c ****     {
 1486              		.loc 1 384 5 is_stmt 1 view .LVU515
 384:Drivers/STM32G4xx_HAL_Driver/Src/stm32g4xx_ll_usb.c ****     {
 1487              		.loc 1 384 11 is_stmt 0 view .LVU516
 1488 0094 4B78     		ldrb	r3, [r1, #1]	@ zero_extendqisi2
 384:Drivers/STM32G4xx_HAL_Driver/Src/stm32g4xx_ll_usb.c ****     {
 1489              		.loc 1 384 8 view .LVU517
 1490 0096 002B     		cmp	r3, #0
 1491 0098 4ED1     		bne	.L61
 387:Drivers/STM32G4xx_HAL_Driver/Src/stm32g4xx_ll_usb.c ****       PCD_CLEAR_TX_DTOG(USBx, ep->num);
 1492              		.loc 1 387 7 is_stmt 1 view .LVU518
 1493              	.LBB52:
 387:Drivers/STM32G4xx_HAL_Driver/Src/stm32g4xx_ll_usb.c ****       PCD_CLEAR_TX_DTOG(USBx, ep->num);
 1494              		.loc 1 387 7 view .LVU519
 387:Drivers/STM32G4xx_HAL_Driver/Src/stm32g4xx_ll_usb.c ****       PCD_CLEAR_TX_DTOG(USBx, ep->num);
 1495              		.loc 1 387 7 view .LVU520
 1496 009a 0A78     		ldrb	r2, [r1]	@ zero_extendqisi2
 1497 009c 30F82230 		ldrh	r3, [r0, r2, lsl #2]
 1498              	.LVL174:
 387:Drivers/STM32G4xx_HAL_Driver/Src/stm32g4xx_ll_usb.c ****       PCD_CLEAR_TX_DTOG(USBx, ep->num);
 1499              		.loc 1 387 7 view .LVU521
 1500 00a0 13F4804F 		tst	r3, #16384
 1501 00a4 0CD0     		beq	.L62
 387:Drivers/STM32G4xx_HAL_Driver/Src/stm32g4xx_ll_usb.c ****       PCD_CLEAR_TX_DTOG(USBx, ep->num);
 1502              		.loc 1 387 7 discriminator 1 view .LVU522
 1503              	.LBB53:
 387:Drivers/STM32G4xx_HAL_Driver/Src/stm32g4xx_ll_usb.c ****       PCD_CLEAR_TX_DTOG(USBx, ep->num);
 1504              		.loc 1 387 7 discriminator 1 view .LVU523
 387:Drivers/STM32G4xx_HAL_Driver/Src/stm32g4xx_ll_usb.c ****       PCD_CLEAR_TX_DTOG(USBx, ep->num);
 1505              		.loc 1 387 7 discriminator 1 view .LVU524
 1506 00a6 30F82230 		ldrh	r3, [r0, r2, lsl #2]
 1507              	.LVL175:
 387:Drivers/STM32G4xx_HAL_Driver/Src/stm32g4xx_ll_usb.c ****       PCD_CLEAR_TX_DTOG(USBx, ep->num);
 1508              		.loc 1 387 7 is_stmt 0 discriminator 1 view .LVU525
 1509 00aa 9BB2     		uxth	r3, r3
 1510 00ac 23F4E043 		bic	r3, r3, #28672
 1511 00b0 23F07003 		bic	r3, r3, #112
 1512              	.LVL176:
 387:Drivers/STM32G4xx_HAL_Driver/Src/stm32g4xx_ll_usb.c ****       PCD_CLEAR_TX_DTOG(USBx, ep->num);
 1513              		.loc 1 387 7 is_stmt 1 view .LVU526
 387:Drivers/STM32G4xx_HAL_Driver/Src/stm32g4xx_ll_usb.c ****       PCD_CLEAR_TX_DTOG(USBx, ep->num);
 1514              		.loc 1 387 7 is_stmt 0 discriminator 1 view .LVU527
 1515 00b4 43F44043 		orr	r3, r3, #49152
 1516              	.LVL177:
 387:Drivers/STM32G4xx_HAL_Driver/Src/stm32g4xx_ll_usb.c ****       PCD_CLEAR_TX_DTOG(USBx, ep->num);
 1517              		.loc 1 387 7 discriminator 1 view .LVU528
 1518 00b8 43F08003 		orr	r3, r3, #128
 1519 00bc 20F82230 		strh	r3, [r0, r2, lsl #2]	@ movhi
 1520              	.LVL178:
 1521              	.L62:
 387:Drivers/STM32G4xx_HAL_Driver/Src/stm32g4xx_ll_usb.c ****       PCD_CLEAR_TX_DTOG(USBx, ep->num);
ARM GAS  C:\Users\Nathan\AppData\Local\Temp\ccyJNqjv.s 			page 37


 1522              		.loc 1 387 7 discriminator 1 view .LVU529
 1523              	.LBE53:
 387:Drivers/STM32G4xx_HAL_Driver/Src/stm32g4xx_ll_usb.c ****       PCD_CLEAR_TX_DTOG(USBx, ep->num);
 1524              		.loc 1 387 7 is_stmt 1 discriminator 3 view .LVU530
 1525              	.LBE52:
 387:Drivers/STM32G4xx_HAL_Driver/Src/stm32g4xx_ll_usb.c ****       PCD_CLEAR_TX_DTOG(USBx, ep->num);
 1526              		.loc 1 387 7 discriminator 3 view .LVU531
 388:Drivers/STM32G4xx_HAL_Driver/Src/stm32g4xx_ll_usb.c **** 
 1527              		.loc 1 388 7 view .LVU532
 1528              	.LBB54:
 388:Drivers/STM32G4xx_HAL_Driver/Src/stm32g4xx_ll_usb.c **** 
 1529              		.loc 1 388 7 view .LVU533
 388:Drivers/STM32G4xx_HAL_Driver/Src/stm32g4xx_ll_usb.c **** 
 1530              		.loc 1 388 7 view .LVU534
 1531 00c0 0A78     		ldrb	r2, [r1]	@ zero_extendqisi2
 1532 00c2 30F82230 		ldrh	r3, [r0, r2, lsl #2]
 1533              	.LVL179:
 388:Drivers/STM32G4xx_HAL_Driver/Src/stm32g4xx_ll_usb.c **** 
 1534              		.loc 1 388 7 view .LVU535
 1535 00c6 13F0400F 		tst	r3, #64
 1536 00ca 0CD0     		beq	.L63
 388:Drivers/STM32G4xx_HAL_Driver/Src/stm32g4xx_ll_usb.c **** 
 1537              		.loc 1 388 7 discriminator 1 view .LVU536
 1538              	.LBB55:
 388:Drivers/STM32G4xx_HAL_Driver/Src/stm32g4xx_ll_usb.c **** 
 1539              		.loc 1 388 7 discriminator 1 view .LVU537
 388:Drivers/STM32G4xx_HAL_Driver/Src/stm32g4xx_ll_usb.c **** 
 1540              		.loc 1 388 7 discriminator 1 view .LVU538
 1541 00cc 30F82230 		ldrh	r3, [r0, r2, lsl #2]
 1542              	.LVL180:
 388:Drivers/STM32G4xx_HAL_Driver/Src/stm32g4xx_ll_usb.c **** 
 1543              		.loc 1 388 7 is_stmt 0 discriminator 1 view .LVU539
 1544 00d0 9BB2     		uxth	r3, r3
 1545 00d2 23F4E043 		bic	r3, r3, #28672
 1546 00d6 23F07003 		bic	r3, r3, #112
 1547              	.LVL181:
 388:Drivers/STM32G4xx_HAL_Driver/Src/stm32g4xx_ll_usb.c **** 
 1548              		.loc 1 388 7 is_stmt 1 view .LVU540
 388:Drivers/STM32G4xx_HAL_Driver/Src/stm32g4xx_ll_usb.c **** 
 1549              		.loc 1 388 7 is_stmt 0 discriminator 1 view .LVU541
 1550 00da 43F40043 		orr	r3, r3, #32768
 1551              	.LVL182:
 388:Drivers/STM32G4xx_HAL_Driver/Src/stm32g4xx_ll_usb.c **** 
 1552              		.loc 1 388 7 discriminator 1 view .LVU542
 1553 00de 43F0C003 		orr	r3, r3, #192
 1554 00e2 20F82230 		strh	r3, [r0, r2, lsl #2]	@ movhi
 1555              	.LVL183:
 1556              	.L63:
 388:Drivers/STM32G4xx_HAL_Driver/Src/stm32g4xx_ll_usb.c **** 
 1557              		.loc 1 388 7 discriminator 1 view .LVU543
 1558              	.LBE55:
 388:Drivers/STM32G4xx_HAL_Driver/Src/stm32g4xx_ll_usb.c **** 
 1559              		.loc 1 388 7 is_stmt 1 discriminator 3 view .LVU544
 1560              	.LBE54:
 388:Drivers/STM32G4xx_HAL_Driver/Src/stm32g4xx_ll_usb.c **** 
 1561              		.loc 1 388 7 discriminator 3 view .LVU545
 391:Drivers/STM32G4xx_HAL_Driver/Src/stm32g4xx_ll_usb.c **** 
ARM GAS  C:\Users\Nathan\AppData\Local\Temp\ccyJNqjv.s 			page 38


 1562              		.loc 1 391 7 view .LVU546
 1563              	.LBB56:
 391:Drivers/STM32G4xx_HAL_Driver/Src/stm32g4xx_ll_usb.c **** 
 1564              		.loc 1 391 7 view .LVU547
 391:Drivers/STM32G4xx_HAL_Driver/Src/stm32g4xx_ll_usb.c **** 
 1565              		.loc 1 391 7 view .LVU548
 1566 00e6 0A78     		ldrb	r2, [r1]	@ zero_extendqisi2
 1567 00e8 30F82230 		ldrh	r3, [r0, r2, lsl #2]
 1568 00ec 9BB2     		uxth	r3, r3
 1569 00ee 23F4E043 		bic	r3, r3, #28672
 1570 00f2 23F07003 		bic	r3, r3, #112
 1571              	.LVL184:
 391:Drivers/STM32G4xx_HAL_Driver/Src/stm32g4xx_ll_usb.c **** 
 1572              		.loc 1 391 7 view .LVU549
 1573 00f6 43F40043 		orr	r3, r3, #32768
 1574              	.LVL185:
 391:Drivers/STM32G4xx_HAL_Driver/Src/stm32g4xx_ll_usb.c **** 
 1575              		.loc 1 391 7 is_stmt 0 view .LVU550
 1576 00fa 43F0C003 		orr	r3, r3, #192
 1577 00fe 20F82230 		strh	r3, [r0, r2, lsl #2]	@ movhi
 1578              	.LBE56:
 391:Drivers/STM32G4xx_HAL_Driver/Src/stm32g4xx_ll_usb.c **** 
 1579              		.loc 1 391 7 is_stmt 1 view .LVU551
 393:Drivers/STM32G4xx_HAL_Driver/Src/stm32g4xx_ll_usb.c ****       PCD_SET_EP_TX_STATUS(USBx, ep->num, USB_EP_TX_DIS);
 1580              		.loc 1 393 7 view .LVU552
 1581              	.LBB57:
 393:Drivers/STM32G4xx_HAL_Driver/Src/stm32g4xx_ll_usb.c ****       PCD_SET_EP_TX_STATUS(USBx, ep->num, USB_EP_TX_DIS);
 1582              		.loc 1 393 7 view .LVU553
 393:Drivers/STM32G4xx_HAL_Driver/Src/stm32g4xx_ll_usb.c ****       PCD_SET_EP_TX_STATUS(USBx, ep->num, USB_EP_TX_DIS);
 1583              		.loc 1 393 7 view .LVU554
 1584 0102 0A78     		ldrb	r2, [r1]	@ zero_extendqisi2
 1585 0104 30F82230 		ldrh	r3, [r0, r2, lsl #2]
 1586 0108 9BB2     		uxth	r3, r3
 1587 010a 23F48043 		bic	r3, r3, #16384
 1588 010e 23F07003 		bic	r3, r3, #112
 1589              	.LVL186:
 393:Drivers/STM32G4xx_HAL_Driver/Src/stm32g4xx_ll_usb.c ****       PCD_SET_EP_TX_STATUS(USBx, ep->num, USB_EP_TX_DIS);
 1590              		.loc 1 393 7 view .LVU555
 393:Drivers/STM32G4xx_HAL_Driver/Src/stm32g4xx_ll_usb.c ****       PCD_SET_EP_TX_STATUS(USBx, ep->num, USB_EP_TX_DIS);
 1591              		.loc 1 393 7 discriminator 3 view .LVU556
 393:Drivers/STM32G4xx_HAL_Driver/Src/stm32g4xx_ll_usb.c ****       PCD_SET_EP_TX_STATUS(USBx, ep->num, USB_EP_TX_DIS);
 1592              		.loc 1 393 7 discriminator 6 view .LVU557
 1593 0112 48F2800C 		movw	ip, #32896
 1594 0116 43EA0C03 		orr	r3, r3, ip
 1595              	.LVL187:
 393:Drivers/STM32G4xx_HAL_Driver/Src/stm32g4xx_ll_usb.c ****       PCD_SET_EP_TX_STATUS(USBx, ep->num, USB_EP_TX_DIS);
 1596              		.loc 1 393 7 is_stmt 0 discriminator 6 view .LVU558
 1597 011a 20F82230 		strh	r3, [r0, r2, lsl #2]	@ movhi
 1598              	.LBE57:
 393:Drivers/STM32G4xx_HAL_Driver/Src/stm32g4xx_ll_usb.c ****       PCD_SET_EP_TX_STATUS(USBx, ep->num, USB_EP_TX_DIS);
 1599              		.loc 1 393 7 is_stmt 1 view .LVU559
 394:Drivers/STM32G4xx_HAL_Driver/Src/stm32g4xx_ll_usb.c ****     }
 1600              		.loc 1 394 7 view .LVU560
 1601              	.LBB58:
 394:Drivers/STM32G4xx_HAL_Driver/Src/stm32g4xx_ll_usb.c ****     }
 1602              		.loc 1 394 7 view .LVU561
 394:Drivers/STM32G4xx_HAL_Driver/Src/stm32g4xx_ll_usb.c ****     }
ARM GAS  C:\Users\Nathan\AppData\Local\Temp\ccyJNqjv.s 			page 39


 1603              		.loc 1 394 7 view .LVU562
 1604 011e 0A78     		ldrb	r2, [r1]	@ zero_extendqisi2
 1605 0120 30F82230 		ldrh	r3, [r0, r2, lsl #2]
 1606 0124 9BB2     		uxth	r3, r3
 1607 0126 23F4E043 		bic	r3, r3, #28672
 1608 012a 23F04003 		bic	r3, r3, #64
 1609              	.LVL188:
 394:Drivers/STM32G4xx_HAL_Driver/Src/stm32g4xx_ll_usb.c ****     }
 1610              		.loc 1 394 7 view .LVU563
 394:Drivers/STM32G4xx_HAL_Driver/Src/stm32g4xx_ll_usb.c ****     }
 1611              		.loc 1 394 7 discriminator 3 view .LVU564
 394:Drivers/STM32G4xx_HAL_Driver/Src/stm32g4xx_ll_usb.c ****     }
 1612              		.loc 1 394 7 discriminator 6 view .LVU565
 1613 012e 43EA0C03 		orr	r3, r3, ip
 1614              	.LVL189:
 394:Drivers/STM32G4xx_HAL_Driver/Src/stm32g4xx_ll_usb.c ****     }
 1615              		.loc 1 394 7 is_stmt 0 discriminator 6 view .LVU566
 1616 0132 20F82230 		strh	r3, [r0, r2, lsl #2]	@ movhi
 1617              	.LBE58:
 394:Drivers/STM32G4xx_HAL_Driver/Src/stm32g4xx_ll_usb.c ****     }
 1618              		.loc 1 394 7 is_stmt 1 view .LVU567
 1619 0136 89E7     		b	.L59
 1620              	.LVL190:
 1621              	.L61:
 399:Drivers/STM32G4xx_HAL_Driver/Src/stm32g4xx_ll_usb.c ****       PCD_CLEAR_TX_DTOG(USBx, ep->num);
 1622              		.loc 1 399 7 view .LVU568
 1623              	.LBB59:
 399:Drivers/STM32G4xx_HAL_Driver/Src/stm32g4xx_ll_usb.c ****       PCD_CLEAR_TX_DTOG(USBx, ep->num);
 1624              		.loc 1 399 7 view .LVU569
 399:Drivers/STM32G4xx_HAL_Driver/Src/stm32g4xx_ll_usb.c ****       PCD_CLEAR_TX_DTOG(USBx, ep->num);
 1625              		.loc 1 399 7 view .LVU570
 1626 0138 0A78     		ldrb	r2, [r1]	@ zero_extendqisi2
 1627 013a 30F82230 		ldrh	r3, [r0, r2, lsl #2]
 1628              	.LVL191:
 399:Drivers/STM32G4xx_HAL_Driver/Src/stm32g4xx_ll_usb.c ****       PCD_CLEAR_TX_DTOG(USBx, ep->num);
 1629              		.loc 1 399 7 view .LVU571
 1630 013e 13F4804F 		tst	r3, #16384
 1631 0142 0CD0     		beq	.L64
 399:Drivers/STM32G4xx_HAL_Driver/Src/stm32g4xx_ll_usb.c ****       PCD_CLEAR_TX_DTOG(USBx, ep->num);
 1632              		.loc 1 399 7 discriminator 1 view .LVU572
 1633              	.LBB60:
 399:Drivers/STM32G4xx_HAL_Driver/Src/stm32g4xx_ll_usb.c ****       PCD_CLEAR_TX_DTOG(USBx, ep->num);
 1634              		.loc 1 399 7 discriminator 1 view .LVU573
 399:Drivers/STM32G4xx_HAL_Driver/Src/stm32g4xx_ll_usb.c ****       PCD_CLEAR_TX_DTOG(USBx, ep->num);
 1635              		.loc 1 399 7 discriminator 1 view .LVU574
 1636 0144 30F82230 		ldrh	r3, [r0, r2, lsl #2]
 1637              	.LVL192:
 399:Drivers/STM32G4xx_HAL_Driver/Src/stm32g4xx_ll_usb.c ****       PCD_CLEAR_TX_DTOG(USBx, ep->num);
 1638              		.loc 1 399 7 is_stmt 0 discriminator 1 view .LVU575
 1639 0148 9BB2     		uxth	r3, r3
 1640 014a 23F4E043 		bic	r3, r3, #28672
 1641 014e 23F07003 		bic	r3, r3, #112
 1642              	.LVL193:
 399:Drivers/STM32G4xx_HAL_Driver/Src/stm32g4xx_ll_usb.c ****       PCD_CLEAR_TX_DTOG(USBx, ep->num);
 1643              		.loc 1 399 7 is_stmt 1 view .LVU576
 399:Drivers/STM32G4xx_HAL_Driver/Src/stm32g4xx_ll_usb.c ****       PCD_CLEAR_TX_DTOG(USBx, ep->num);
 1644              		.loc 1 399 7 is_stmt 0 discriminator 1 view .LVU577
ARM GAS  C:\Users\Nathan\AppData\Local\Temp\ccyJNqjv.s 			page 40


 1645 0152 43F44043 		orr	r3, r3, #49152
 1646              	.LVL194:
 399:Drivers/STM32G4xx_HAL_Driver/Src/stm32g4xx_ll_usb.c ****       PCD_CLEAR_TX_DTOG(USBx, ep->num);
 1647              		.loc 1 399 7 discriminator 1 view .LVU578
 1648 0156 43F08003 		orr	r3, r3, #128
 1649 015a 20F82230 		strh	r3, [r0, r2, lsl #2]	@ movhi
 1650              	.LVL195:
 1651              	.L64:
 399:Drivers/STM32G4xx_HAL_Driver/Src/stm32g4xx_ll_usb.c ****       PCD_CLEAR_TX_DTOG(USBx, ep->num);
 1652              		.loc 1 399 7 discriminator 1 view .LVU579
 1653              	.LBE60:
 399:Drivers/STM32G4xx_HAL_Driver/Src/stm32g4xx_ll_usb.c ****       PCD_CLEAR_TX_DTOG(USBx, ep->num);
 1654              		.loc 1 399 7 is_stmt 1 discriminator 3 view .LVU580
 1655              	.LBE59:
 399:Drivers/STM32G4xx_HAL_Driver/Src/stm32g4xx_ll_usb.c ****       PCD_CLEAR_TX_DTOG(USBx, ep->num);
 1656              		.loc 1 399 7 discriminator 3 view .LVU581
 400:Drivers/STM32G4xx_HAL_Driver/Src/stm32g4xx_ll_usb.c ****       PCD_RX_DTOG(USBx, ep->num);
 1657              		.loc 1 400 7 view .LVU582
 1658              	.LBB61:
 400:Drivers/STM32G4xx_HAL_Driver/Src/stm32g4xx_ll_usb.c ****       PCD_RX_DTOG(USBx, ep->num);
 1659              		.loc 1 400 7 view .LVU583
 400:Drivers/STM32G4xx_HAL_Driver/Src/stm32g4xx_ll_usb.c ****       PCD_RX_DTOG(USBx, ep->num);
 1660              		.loc 1 400 7 view .LVU584
 1661 015e 0A78     		ldrb	r2, [r1]	@ zero_extendqisi2
 1662 0160 30F82230 		ldrh	r3, [r0, r2, lsl #2]
 1663              	.LVL196:
 400:Drivers/STM32G4xx_HAL_Driver/Src/stm32g4xx_ll_usb.c ****       PCD_RX_DTOG(USBx, ep->num);
 1664              		.loc 1 400 7 view .LVU585
 1665 0164 13F0400F 		tst	r3, #64
 1666 0168 0CD0     		beq	.L65
 400:Drivers/STM32G4xx_HAL_Driver/Src/stm32g4xx_ll_usb.c ****       PCD_RX_DTOG(USBx, ep->num);
 1667              		.loc 1 400 7 discriminator 1 view .LVU586
 1668              	.LBB62:
 400:Drivers/STM32G4xx_HAL_Driver/Src/stm32g4xx_ll_usb.c ****       PCD_RX_DTOG(USBx, ep->num);
 1669              		.loc 1 400 7 discriminator 1 view .LVU587
 400:Drivers/STM32G4xx_HAL_Driver/Src/stm32g4xx_ll_usb.c ****       PCD_RX_DTOG(USBx, ep->num);
 1670              		.loc 1 400 7 discriminator 1 view .LVU588
 1671 016a 30F82230 		ldrh	r3, [r0, r2, lsl #2]
 1672              	.LVL197:
 400:Drivers/STM32G4xx_HAL_Driver/Src/stm32g4xx_ll_usb.c ****       PCD_RX_DTOG(USBx, ep->num);
 1673              		.loc 1 400 7 is_stmt 0 discriminator 1 view .LVU589
 1674 016e 9BB2     		uxth	r3, r3
 1675 0170 23F4E043 		bic	r3, r3, #28672
 1676 0174 23F07003 		bic	r3, r3, #112
 1677              	.LVL198:
 400:Drivers/STM32G4xx_HAL_Driver/Src/stm32g4xx_ll_usb.c ****       PCD_RX_DTOG(USBx, ep->num);
 1678              		.loc 1 400 7 is_stmt 1 view .LVU590
 400:Drivers/STM32G4xx_HAL_Driver/Src/stm32g4xx_ll_usb.c ****       PCD_RX_DTOG(USBx, ep->num);
 1679              		.loc 1 400 7 is_stmt 0 discriminator 1 view .LVU591
 1680 0178 43F40043 		orr	r3, r3, #32768
 1681              	.LVL199:
 400:Drivers/STM32G4xx_HAL_Driver/Src/stm32g4xx_ll_usb.c ****       PCD_RX_DTOG(USBx, ep->num);
 1682              		.loc 1 400 7 discriminator 1 view .LVU592
 1683 017c 43F0C003 		orr	r3, r3, #192
 1684 0180 20F82230 		strh	r3, [r0, r2, lsl #2]	@ movhi
 1685              	.LVL200:
 1686              	.L65:
ARM GAS  C:\Users\Nathan\AppData\Local\Temp\ccyJNqjv.s 			page 41


 400:Drivers/STM32G4xx_HAL_Driver/Src/stm32g4xx_ll_usb.c ****       PCD_RX_DTOG(USBx, ep->num);
 1687              		.loc 1 400 7 discriminator 1 view .LVU593
 1688              	.LBE62:
 400:Drivers/STM32G4xx_HAL_Driver/Src/stm32g4xx_ll_usb.c ****       PCD_RX_DTOG(USBx, ep->num);
 1689              		.loc 1 400 7 is_stmt 1 discriminator 3 view .LVU594
 1690              	.LBE61:
 400:Drivers/STM32G4xx_HAL_Driver/Src/stm32g4xx_ll_usb.c ****       PCD_RX_DTOG(USBx, ep->num);
 1691              		.loc 1 400 7 discriminator 3 view .LVU595
 401:Drivers/STM32G4xx_HAL_Driver/Src/stm32g4xx_ll_usb.c **** 
 1692              		.loc 1 401 7 view .LVU596
 1693              	.LBB63:
 401:Drivers/STM32G4xx_HAL_Driver/Src/stm32g4xx_ll_usb.c **** 
 1694              		.loc 1 401 7 view .LVU597
 401:Drivers/STM32G4xx_HAL_Driver/Src/stm32g4xx_ll_usb.c **** 
 1695              		.loc 1 401 7 view .LVU598
 1696 0184 0A78     		ldrb	r2, [r1]	@ zero_extendqisi2
 1697 0186 30F82230 		ldrh	r3, [r0, r2, lsl #2]
 1698 018a 9BB2     		uxth	r3, r3
 1699 018c 23F4E043 		bic	r3, r3, #28672
 1700 0190 23F07003 		bic	r3, r3, #112
 1701              	.LVL201:
 401:Drivers/STM32G4xx_HAL_Driver/Src/stm32g4xx_ll_usb.c **** 
 1702              		.loc 1 401 7 view .LVU599
 1703 0194 43F44043 		orr	r3, r3, #49152
 1704              	.LVL202:
 401:Drivers/STM32G4xx_HAL_Driver/Src/stm32g4xx_ll_usb.c **** 
 1705              		.loc 1 401 7 is_stmt 0 view .LVU600
 1706 0198 43F08003 		orr	r3, r3, #128
 1707 019c 20F82230 		strh	r3, [r0, r2, lsl #2]	@ movhi
 1708              	.LBE63:
 401:Drivers/STM32G4xx_HAL_Driver/Src/stm32g4xx_ll_usb.c **** 
 1709              		.loc 1 401 7 is_stmt 1 view .LVU601
 404:Drivers/STM32G4xx_HAL_Driver/Src/stm32g4xx_ll_usb.c ****       PCD_SET_EP_RX_STATUS(USBx, ep->num, USB_EP_RX_DIS);
 1710              		.loc 1 404 7 view .LVU602
 1711              	.LBB64:
 404:Drivers/STM32G4xx_HAL_Driver/Src/stm32g4xx_ll_usb.c ****       PCD_SET_EP_RX_STATUS(USBx, ep->num, USB_EP_RX_DIS);
 1712              		.loc 1 404 7 view .LVU603
 404:Drivers/STM32G4xx_HAL_Driver/Src/stm32g4xx_ll_usb.c ****       PCD_SET_EP_RX_STATUS(USBx, ep->num, USB_EP_RX_DIS);
 1713              		.loc 1 404 7 view .LVU604
 1714 01a0 0A78     		ldrb	r2, [r1]	@ zero_extendqisi2
 1715 01a2 30F82230 		ldrh	r3, [r0, r2, lsl #2]
 1716 01a6 9BB2     		uxth	r3, r3
 1717 01a8 23F4E043 		bic	r3, r3, #28672
 1718 01ac 23F04003 		bic	r3, r3, #64
 1719              	.LVL203:
 404:Drivers/STM32G4xx_HAL_Driver/Src/stm32g4xx_ll_usb.c ****       PCD_SET_EP_RX_STATUS(USBx, ep->num, USB_EP_RX_DIS);
 1720              		.loc 1 404 7 view .LVU605
 404:Drivers/STM32G4xx_HAL_Driver/Src/stm32g4xx_ll_usb.c ****       PCD_SET_EP_RX_STATUS(USBx, ep->num, USB_EP_RX_DIS);
 1721              		.loc 1 404 7 discriminator 3 view .LVU606
 404:Drivers/STM32G4xx_HAL_Driver/Src/stm32g4xx_ll_usb.c ****       PCD_SET_EP_RX_STATUS(USBx, ep->num, USB_EP_RX_DIS);
 1722              		.loc 1 404 7 discriminator 6 view .LVU607
 1723 01b0 48F2800C 		movw	ip, #32896
 1724 01b4 43EA0C03 		orr	r3, r3, ip
 1725              	.LVL204:
 404:Drivers/STM32G4xx_HAL_Driver/Src/stm32g4xx_ll_usb.c ****       PCD_SET_EP_RX_STATUS(USBx, ep->num, USB_EP_RX_DIS);
 1726              		.loc 1 404 7 is_stmt 0 discriminator 6 view .LVU608
 1727 01b8 20F82230 		strh	r3, [r0, r2, lsl #2]	@ movhi
ARM GAS  C:\Users\Nathan\AppData\Local\Temp\ccyJNqjv.s 			page 42


 1728              	.LBE64:
 404:Drivers/STM32G4xx_HAL_Driver/Src/stm32g4xx_ll_usb.c ****       PCD_SET_EP_RX_STATUS(USBx, ep->num, USB_EP_RX_DIS);
 1729              		.loc 1 404 7 is_stmt 1 view .LVU609
 405:Drivers/STM32G4xx_HAL_Driver/Src/stm32g4xx_ll_usb.c ****     }
 1730              		.loc 1 405 7 view .LVU610
 1731              	.LBB65:
 405:Drivers/STM32G4xx_HAL_Driver/Src/stm32g4xx_ll_usb.c ****     }
 1732              		.loc 1 405 7 view .LVU611
 405:Drivers/STM32G4xx_HAL_Driver/Src/stm32g4xx_ll_usb.c ****     }
 1733              		.loc 1 405 7 view .LVU612
 1734 01bc 0A78     		ldrb	r2, [r1]	@ zero_extendqisi2
 1735 01be 30F82230 		ldrh	r3, [r0, r2, lsl #2]
 1736 01c2 9BB2     		uxth	r3, r3
 1737 01c4 23F48043 		bic	r3, r3, #16384
 1738 01c8 23F07003 		bic	r3, r3, #112
 1739              	.LVL205:
 405:Drivers/STM32G4xx_HAL_Driver/Src/stm32g4xx_ll_usb.c ****     }
 1740              		.loc 1 405 7 view .LVU613
 405:Drivers/STM32G4xx_HAL_Driver/Src/stm32g4xx_ll_usb.c ****     }
 1741              		.loc 1 405 7 discriminator 3 view .LVU614
 405:Drivers/STM32G4xx_HAL_Driver/Src/stm32g4xx_ll_usb.c ****     }
 1742              		.loc 1 405 7 discriminator 6 view .LVU615
 1743 01cc 43EA0C03 		orr	r3, r3, ip
 1744              	.LVL206:
 405:Drivers/STM32G4xx_HAL_Driver/Src/stm32g4xx_ll_usb.c ****     }
 1745              		.loc 1 405 7 is_stmt 0 discriminator 6 view .LVU616
 1746 01d0 20F82230 		strh	r3, [r0, r2, lsl #2]	@ movhi
 1747 01d4 3AE7     		b	.L59
 1748              	.LBE65:
 1749              		.cfi_endproc
 1750              	.LFE140:
 1752              		.section	.text.USB_EPSetStall,"ax",%progbits
 1753              		.align	1
 1754              		.global	USB_EPSetStall
 1755              		.syntax unified
 1756              		.thumb
 1757              		.thumb_func
 1759              	USB_EPSetStall:
 1760              	.LVL207:
 1761              	.LFB142:
 412:Drivers/STM32G4xx_HAL_Driver/Src/stm32g4xx_ll_usb.c **** 
 413:Drivers/STM32G4xx_HAL_Driver/Src/stm32g4xx_ll_usb.c **** /**
 414:Drivers/STM32G4xx_HAL_Driver/Src/stm32g4xx_ll_usb.c ****   * @brief  USB_EPStartXfer setup and starts a transfer over an EP
 415:Drivers/STM32G4xx_HAL_Driver/Src/stm32g4xx_ll_usb.c ****   * @param  USBx Selected device
 416:Drivers/STM32G4xx_HAL_Driver/Src/stm32g4xx_ll_usb.c ****   * @param  ep pointer to endpoint structure
 417:Drivers/STM32G4xx_HAL_Driver/Src/stm32g4xx_ll_usb.c ****   * @retval HAL status
 418:Drivers/STM32G4xx_HAL_Driver/Src/stm32g4xx_ll_usb.c ****   */
 419:Drivers/STM32G4xx_HAL_Driver/Src/stm32g4xx_ll_usb.c **** HAL_StatusTypeDef USB_EPStartXfer(USB_TypeDef *USBx, USB_EPTypeDef *ep)
 420:Drivers/STM32G4xx_HAL_Driver/Src/stm32g4xx_ll_usb.c **** {
 421:Drivers/STM32G4xx_HAL_Driver/Src/stm32g4xx_ll_usb.c ****   uint32_t len;
 422:Drivers/STM32G4xx_HAL_Driver/Src/stm32g4xx_ll_usb.c **** #if (USE_USB_DOUBLE_BUFFER == 1U)
 423:Drivers/STM32G4xx_HAL_Driver/Src/stm32g4xx_ll_usb.c ****   uint16_t pmabuffer;
 424:Drivers/STM32G4xx_HAL_Driver/Src/stm32g4xx_ll_usb.c ****   uint16_t wEPVal;
 425:Drivers/STM32G4xx_HAL_Driver/Src/stm32g4xx_ll_usb.c **** #endif /* (USE_USB_DOUBLE_BUFFER == 1U) */
 426:Drivers/STM32G4xx_HAL_Driver/Src/stm32g4xx_ll_usb.c **** 
 427:Drivers/STM32G4xx_HAL_Driver/Src/stm32g4xx_ll_usb.c ****   /* IN endpoint */
 428:Drivers/STM32G4xx_HAL_Driver/Src/stm32g4xx_ll_usb.c ****   if (ep->is_in == 1U)
ARM GAS  C:\Users\Nathan\AppData\Local\Temp\ccyJNqjv.s 			page 43


 429:Drivers/STM32G4xx_HAL_Driver/Src/stm32g4xx_ll_usb.c ****   {
 430:Drivers/STM32G4xx_HAL_Driver/Src/stm32g4xx_ll_usb.c ****     /* Multi packet transfer */
 431:Drivers/STM32G4xx_HAL_Driver/Src/stm32g4xx_ll_usb.c ****     if (ep->xfer_len > ep->maxpacket)
 432:Drivers/STM32G4xx_HAL_Driver/Src/stm32g4xx_ll_usb.c ****     {
 433:Drivers/STM32G4xx_HAL_Driver/Src/stm32g4xx_ll_usb.c ****       len = ep->maxpacket;
 434:Drivers/STM32G4xx_HAL_Driver/Src/stm32g4xx_ll_usb.c ****     }
 435:Drivers/STM32G4xx_HAL_Driver/Src/stm32g4xx_ll_usb.c ****     else
 436:Drivers/STM32G4xx_HAL_Driver/Src/stm32g4xx_ll_usb.c ****     {
 437:Drivers/STM32G4xx_HAL_Driver/Src/stm32g4xx_ll_usb.c ****       len = ep->xfer_len;
 438:Drivers/STM32G4xx_HAL_Driver/Src/stm32g4xx_ll_usb.c ****     }
 439:Drivers/STM32G4xx_HAL_Driver/Src/stm32g4xx_ll_usb.c **** 
 440:Drivers/STM32G4xx_HAL_Driver/Src/stm32g4xx_ll_usb.c ****     /* configure and validate Tx endpoint */
 441:Drivers/STM32G4xx_HAL_Driver/Src/stm32g4xx_ll_usb.c ****     if (ep->doublebuffer == 0U)
 442:Drivers/STM32G4xx_HAL_Driver/Src/stm32g4xx_ll_usb.c ****     {
 443:Drivers/STM32G4xx_HAL_Driver/Src/stm32g4xx_ll_usb.c ****       USB_WritePMA(USBx, ep->xfer_buff, ep->pmaadress, (uint16_t)len);
 444:Drivers/STM32G4xx_HAL_Driver/Src/stm32g4xx_ll_usb.c ****       PCD_SET_EP_TX_CNT(USBx, ep->num, len);
 445:Drivers/STM32G4xx_HAL_Driver/Src/stm32g4xx_ll_usb.c ****     }
 446:Drivers/STM32G4xx_HAL_Driver/Src/stm32g4xx_ll_usb.c **** #if (USE_USB_DOUBLE_BUFFER == 1U)
 447:Drivers/STM32G4xx_HAL_Driver/Src/stm32g4xx_ll_usb.c ****     else
 448:Drivers/STM32G4xx_HAL_Driver/Src/stm32g4xx_ll_usb.c ****     {
 449:Drivers/STM32G4xx_HAL_Driver/Src/stm32g4xx_ll_usb.c ****       /* double buffer bulk management */
 450:Drivers/STM32G4xx_HAL_Driver/Src/stm32g4xx_ll_usb.c ****       if (ep->type == EP_TYPE_BULK)
 451:Drivers/STM32G4xx_HAL_Driver/Src/stm32g4xx_ll_usb.c ****       {
 452:Drivers/STM32G4xx_HAL_Driver/Src/stm32g4xx_ll_usb.c ****         if (ep->xfer_len_db > ep->maxpacket)
 453:Drivers/STM32G4xx_HAL_Driver/Src/stm32g4xx_ll_usb.c ****         {
 454:Drivers/STM32G4xx_HAL_Driver/Src/stm32g4xx_ll_usb.c ****           /* enable double buffer */
 455:Drivers/STM32G4xx_HAL_Driver/Src/stm32g4xx_ll_usb.c ****           PCD_SET_BULK_EP_DBUF(USBx, ep->num);
 456:Drivers/STM32G4xx_HAL_Driver/Src/stm32g4xx_ll_usb.c **** 
 457:Drivers/STM32G4xx_HAL_Driver/Src/stm32g4xx_ll_usb.c ****           /* each Time to write in PMA xfer_len_db will */
 458:Drivers/STM32G4xx_HAL_Driver/Src/stm32g4xx_ll_usb.c ****           ep->xfer_len_db -= len;
 459:Drivers/STM32G4xx_HAL_Driver/Src/stm32g4xx_ll_usb.c **** 
 460:Drivers/STM32G4xx_HAL_Driver/Src/stm32g4xx_ll_usb.c ****           /* Fill the two first buffer in the Buffer0 & Buffer1 */
 461:Drivers/STM32G4xx_HAL_Driver/Src/stm32g4xx_ll_usb.c ****           if ((PCD_GET_ENDPOINT(USBx, ep->num) & USB_EP_DTOG_TX) != 0U)
 462:Drivers/STM32G4xx_HAL_Driver/Src/stm32g4xx_ll_usb.c ****           {
 463:Drivers/STM32G4xx_HAL_Driver/Src/stm32g4xx_ll_usb.c ****             /* Set the Double buffer counter for pmabuffer1 */
 464:Drivers/STM32G4xx_HAL_Driver/Src/stm32g4xx_ll_usb.c ****             PCD_SET_EP_DBUF1_CNT(USBx, ep->num, ep->is_in, len);
 465:Drivers/STM32G4xx_HAL_Driver/Src/stm32g4xx_ll_usb.c ****             pmabuffer = ep->pmaaddr1;
 466:Drivers/STM32G4xx_HAL_Driver/Src/stm32g4xx_ll_usb.c **** 
 467:Drivers/STM32G4xx_HAL_Driver/Src/stm32g4xx_ll_usb.c ****             /* Write the user buffer to USB PMA */
 468:Drivers/STM32G4xx_HAL_Driver/Src/stm32g4xx_ll_usb.c ****             USB_WritePMA(USBx, ep->xfer_buff, pmabuffer, (uint16_t)len);
 469:Drivers/STM32G4xx_HAL_Driver/Src/stm32g4xx_ll_usb.c ****             ep->xfer_buff += len;
 470:Drivers/STM32G4xx_HAL_Driver/Src/stm32g4xx_ll_usb.c **** 
 471:Drivers/STM32G4xx_HAL_Driver/Src/stm32g4xx_ll_usb.c ****             if (ep->xfer_len_db > ep->maxpacket)
 472:Drivers/STM32G4xx_HAL_Driver/Src/stm32g4xx_ll_usb.c ****             {
 473:Drivers/STM32G4xx_HAL_Driver/Src/stm32g4xx_ll_usb.c ****               ep->xfer_len_db -= len;
 474:Drivers/STM32G4xx_HAL_Driver/Src/stm32g4xx_ll_usb.c ****             }
 475:Drivers/STM32G4xx_HAL_Driver/Src/stm32g4xx_ll_usb.c ****             else
 476:Drivers/STM32G4xx_HAL_Driver/Src/stm32g4xx_ll_usb.c ****             {
 477:Drivers/STM32G4xx_HAL_Driver/Src/stm32g4xx_ll_usb.c ****               len = ep->xfer_len_db;
 478:Drivers/STM32G4xx_HAL_Driver/Src/stm32g4xx_ll_usb.c ****               ep->xfer_len_db = 0U;
 479:Drivers/STM32G4xx_HAL_Driver/Src/stm32g4xx_ll_usb.c ****             }
 480:Drivers/STM32G4xx_HAL_Driver/Src/stm32g4xx_ll_usb.c **** 
 481:Drivers/STM32G4xx_HAL_Driver/Src/stm32g4xx_ll_usb.c ****             /* Set the Double buffer counter for pmabuffer0 */
 482:Drivers/STM32G4xx_HAL_Driver/Src/stm32g4xx_ll_usb.c ****             PCD_SET_EP_DBUF0_CNT(USBx, ep->num, ep->is_in, len);
 483:Drivers/STM32G4xx_HAL_Driver/Src/stm32g4xx_ll_usb.c ****             pmabuffer = ep->pmaaddr0;
 484:Drivers/STM32G4xx_HAL_Driver/Src/stm32g4xx_ll_usb.c **** 
 485:Drivers/STM32G4xx_HAL_Driver/Src/stm32g4xx_ll_usb.c ****             /* Write the user buffer to USB PMA */
ARM GAS  C:\Users\Nathan\AppData\Local\Temp\ccyJNqjv.s 			page 44


 486:Drivers/STM32G4xx_HAL_Driver/Src/stm32g4xx_ll_usb.c ****             USB_WritePMA(USBx, ep->xfer_buff, pmabuffer, (uint16_t)len);
 487:Drivers/STM32G4xx_HAL_Driver/Src/stm32g4xx_ll_usb.c ****           }
 488:Drivers/STM32G4xx_HAL_Driver/Src/stm32g4xx_ll_usb.c ****           else
 489:Drivers/STM32G4xx_HAL_Driver/Src/stm32g4xx_ll_usb.c ****           {
 490:Drivers/STM32G4xx_HAL_Driver/Src/stm32g4xx_ll_usb.c ****             /* Set the Double buffer counter for pmabuffer0 */
 491:Drivers/STM32G4xx_HAL_Driver/Src/stm32g4xx_ll_usb.c ****             PCD_SET_EP_DBUF0_CNT(USBx, ep->num, ep->is_in, len);
 492:Drivers/STM32G4xx_HAL_Driver/Src/stm32g4xx_ll_usb.c ****             pmabuffer = ep->pmaaddr0;
 493:Drivers/STM32G4xx_HAL_Driver/Src/stm32g4xx_ll_usb.c **** 
 494:Drivers/STM32G4xx_HAL_Driver/Src/stm32g4xx_ll_usb.c ****             /* Write the user buffer to USB PMA */
 495:Drivers/STM32G4xx_HAL_Driver/Src/stm32g4xx_ll_usb.c ****             USB_WritePMA(USBx, ep->xfer_buff, pmabuffer, (uint16_t)len);
 496:Drivers/STM32G4xx_HAL_Driver/Src/stm32g4xx_ll_usb.c ****             ep->xfer_buff += len;
 497:Drivers/STM32G4xx_HAL_Driver/Src/stm32g4xx_ll_usb.c **** 
 498:Drivers/STM32G4xx_HAL_Driver/Src/stm32g4xx_ll_usb.c ****             if (ep->xfer_len_db > ep->maxpacket)
 499:Drivers/STM32G4xx_HAL_Driver/Src/stm32g4xx_ll_usb.c ****             {
 500:Drivers/STM32G4xx_HAL_Driver/Src/stm32g4xx_ll_usb.c ****               ep->xfer_len_db -= len;
 501:Drivers/STM32G4xx_HAL_Driver/Src/stm32g4xx_ll_usb.c ****             }
 502:Drivers/STM32G4xx_HAL_Driver/Src/stm32g4xx_ll_usb.c ****             else
 503:Drivers/STM32G4xx_HAL_Driver/Src/stm32g4xx_ll_usb.c ****             {
 504:Drivers/STM32G4xx_HAL_Driver/Src/stm32g4xx_ll_usb.c ****               len = ep->xfer_len_db;
 505:Drivers/STM32G4xx_HAL_Driver/Src/stm32g4xx_ll_usb.c ****               ep->xfer_len_db = 0U;
 506:Drivers/STM32G4xx_HAL_Driver/Src/stm32g4xx_ll_usb.c ****             }
 507:Drivers/STM32G4xx_HAL_Driver/Src/stm32g4xx_ll_usb.c **** 
 508:Drivers/STM32G4xx_HAL_Driver/Src/stm32g4xx_ll_usb.c ****             /* Set the Double buffer counter for pmabuffer1 */
 509:Drivers/STM32G4xx_HAL_Driver/Src/stm32g4xx_ll_usb.c ****             PCD_SET_EP_DBUF1_CNT(USBx, ep->num, ep->is_in, len);
 510:Drivers/STM32G4xx_HAL_Driver/Src/stm32g4xx_ll_usb.c ****             pmabuffer = ep->pmaaddr1;
 511:Drivers/STM32G4xx_HAL_Driver/Src/stm32g4xx_ll_usb.c **** 
 512:Drivers/STM32G4xx_HAL_Driver/Src/stm32g4xx_ll_usb.c ****             /* Write the user buffer to USB PMA */
 513:Drivers/STM32G4xx_HAL_Driver/Src/stm32g4xx_ll_usb.c ****             USB_WritePMA(USBx, ep->xfer_buff, pmabuffer, (uint16_t)len);
 514:Drivers/STM32G4xx_HAL_Driver/Src/stm32g4xx_ll_usb.c ****           }
 515:Drivers/STM32G4xx_HAL_Driver/Src/stm32g4xx_ll_usb.c ****         }
 516:Drivers/STM32G4xx_HAL_Driver/Src/stm32g4xx_ll_usb.c ****         /* auto Switch to single buffer mode when transfer <Mps no need to manage in double buffer 
 517:Drivers/STM32G4xx_HAL_Driver/Src/stm32g4xx_ll_usb.c ****         else
 518:Drivers/STM32G4xx_HAL_Driver/Src/stm32g4xx_ll_usb.c ****         {
 519:Drivers/STM32G4xx_HAL_Driver/Src/stm32g4xx_ll_usb.c ****           len = ep->xfer_len_db;
 520:Drivers/STM32G4xx_HAL_Driver/Src/stm32g4xx_ll_usb.c **** 
 521:Drivers/STM32G4xx_HAL_Driver/Src/stm32g4xx_ll_usb.c ****           /* disable double buffer mode for Bulk endpoint */
 522:Drivers/STM32G4xx_HAL_Driver/Src/stm32g4xx_ll_usb.c ****           PCD_CLEAR_BULK_EP_DBUF(USBx, ep->num);
 523:Drivers/STM32G4xx_HAL_Driver/Src/stm32g4xx_ll_usb.c **** 
 524:Drivers/STM32G4xx_HAL_Driver/Src/stm32g4xx_ll_usb.c ****           /* Set Tx count with nbre of byte to be transmitted */
 525:Drivers/STM32G4xx_HAL_Driver/Src/stm32g4xx_ll_usb.c ****           PCD_SET_EP_TX_CNT(USBx, ep->num, len);
 526:Drivers/STM32G4xx_HAL_Driver/Src/stm32g4xx_ll_usb.c ****           pmabuffer = ep->pmaaddr0;
 527:Drivers/STM32G4xx_HAL_Driver/Src/stm32g4xx_ll_usb.c **** 
 528:Drivers/STM32G4xx_HAL_Driver/Src/stm32g4xx_ll_usb.c ****           /* Write the user buffer to USB PMA */
 529:Drivers/STM32G4xx_HAL_Driver/Src/stm32g4xx_ll_usb.c ****           USB_WritePMA(USBx, ep->xfer_buff, pmabuffer, (uint16_t)len);
 530:Drivers/STM32G4xx_HAL_Driver/Src/stm32g4xx_ll_usb.c ****         }
 531:Drivers/STM32G4xx_HAL_Driver/Src/stm32g4xx_ll_usb.c ****       }
 532:Drivers/STM32G4xx_HAL_Driver/Src/stm32g4xx_ll_usb.c ****       else /* Manage isochronous double buffer IN mode */
 533:Drivers/STM32G4xx_HAL_Driver/Src/stm32g4xx_ll_usb.c ****       {
 534:Drivers/STM32G4xx_HAL_Driver/Src/stm32g4xx_ll_usb.c ****         /* Each Time to write in PMA xfer_len_db will */
 535:Drivers/STM32G4xx_HAL_Driver/Src/stm32g4xx_ll_usb.c ****         ep->xfer_len_db -= len;
 536:Drivers/STM32G4xx_HAL_Driver/Src/stm32g4xx_ll_usb.c **** 
 537:Drivers/STM32G4xx_HAL_Driver/Src/stm32g4xx_ll_usb.c ****         /* Fill the data buffer */
 538:Drivers/STM32G4xx_HAL_Driver/Src/stm32g4xx_ll_usb.c ****         if ((PCD_GET_ENDPOINT(USBx, ep->num) & USB_EP_DTOG_TX) != 0U)
 539:Drivers/STM32G4xx_HAL_Driver/Src/stm32g4xx_ll_usb.c ****         {
 540:Drivers/STM32G4xx_HAL_Driver/Src/stm32g4xx_ll_usb.c ****           /* Set the Double buffer counter for pmabuffer1 */
 541:Drivers/STM32G4xx_HAL_Driver/Src/stm32g4xx_ll_usb.c ****           PCD_SET_EP_DBUF1_CNT(USBx, ep->num, ep->is_in, len);
 542:Drivers/STM32G4xx_HAL_Driver/Src/stm32g4xx_ll_usb.c ****           pmabuffer = ep->pmaaddr1;
ARM GAS  C:\Users\Nathan\AppData\Local\Temp\ccyJNqjv.s 			page 45


 543:Drivers/STM32G4xx_HAL_Driver/Src/stm32g4xx_ll_usb.c **** 
 544:Drivers/STM32G4xx_HAL_Driver/Src/stm32g4xx_ll_usb.c ****           /* Write the user buffer to USB PMA */
 545:Drivers/STM32G4xx_HAL_Driver/Src/stm32g4xx_ll_usb.c ****           USB_WritePMA(USBx, ep->xfer_buff, pmabuffer, (uint16_t)len);
 546:Drivers/STM32G4xx_HAL_Driver/Src/stm32g4xx_ll_usb.c ****         }
 547:Drivers/STM32G4xx_HAL_Driver/Src/stm32g4xx_ll_usb.c ****         else
 548:Drivers/STM32G4xx_HAL_Driver/Src/stm32g4xx_ll_usb.c ****         {
 549:Drivers/STM32G4xx_HAL_Driver/Src/stm32g4xx_ll_usb.c ****           /* Set the Double buffer counter for pmabuffer0 */
 550:Drivers/STM32G4xx_HAL_Driver/Src/stm32g4xx_ll_usb.c ****           PCD_SET_EP_DBUF0_CNT(USBx, ep->num, ep->is_in, len);
 551:Drivers/STM32G4xx_HAL_Driver/Src/stm32g4xx_ll_usb.c ****           pmabuffer = ep->pmaaddr0;
 552:Drivers/STM32G4xx_HAL_Driver/Src/stm32g4xx_ll_usb.c **** 
 553:Drivers/STM32G4xx_HAL_Driver/Src/stm32g4xx_ll_usb.c ****           /* Write the user buffer to USB PMA */
 554:Drivers/STM32G4xx_HAL_Driver/Src/stm32g4xx_ll_usb.c ****           USB_WritePMA(USBx, ep->xfer_buff, pmabuffer, (uint16_t)len);
 555:Drivers/STM32G4xx_HAL_Driver/Src/stm32g4xx_ll_usb.c ****         }
 556:Drivers/STM32G4xx_HAL_Driver/Src/stm32g4xx_ll_usb.c ****       }
 557:Drivers/STM32G4xx_HAL_Driver/Src/stm32g4xx_ll_usb.c ****     }
 558:Drivers/STM32G4xx_HAL_Driver/Src/stm32g4xx_ll_usb.c **** #endif /* (USE_USB_DOUBLE_BUFFER == 1U) */
 559:Drivers/STM32G4xx_HAL_Driver/Src/stm32g4xx_ll_usb.c **** 
 560:Drivers/STM32G4xx_HAL_Driver/Src/stm32g4xx_ll_usb.c ****     PCD_SET_EP_TX_STATUS(USBx, ep->num, USB_EP_TX_VALID);
 561:Drivers/STM32G4xx_HAL_Driver/Src/stm32g4xx_ll_usb.c ****   }
 562:Drivers/STM32G4xx_HAL_Driver/Src/stm32g4xx_ll_usb.c ****   else /* OUT endpoint */
 563:Drivers/STM32G4xx_HAL_Driver/Src/stm32g4xx_ll_usb.c ****   {
 564:Drivers/STM32G4xx_HAL_Driver/Src/stm32g4xx_ll_usb.c ****     if (ep->doublebuffer == 0U)
 565:Drivers/STM32G4xx_HAL_Driver/Src/stm32g4xx_ll_usb.c ****     {
 566:Drivers/STM32G4xx_HAL_Driver/Src/stm32g4xx_ll_usb.c ****       if ((ep->xfer_len == 0U) && (ep->type == EP_TYPE_CTRL))
 567:Drivers/STM32G4xx_HAL_Driver/Src/stm32g4xx_ll_usb.c ****       {
 568:Drivers/STM32G4xx_HAL_Driver/Src/stm32g4xx_ll_usb.c ****         /* This is a status out stage set the OUT_STATUS */
 569:Drivers/STM32G4xx_HAL_Driver/Src/stm32g4xx_ll_usb.c ****         PCD_SET_OUT_STATUS(USBx, ep->num);
 570:Drivers/STM32G4xx_HAL_Driver/Src/stm32g4xx_ll_usb.c ****       }
 571:Drivers/STM32G4xx_HAL_Driver/Src/stm32g4xx_ll_usb.c ****       else
 572:Drivers/STM32G4xx_HAL_Driver/Src/stm32g4xx_ll_usb.c ****       {
 573:Drivers/STM32G4xx_HAL_Driver/Src/stm32g4xx_ll_usb.c ****         PCD_CLEAR_OUT_STATUS(USBx, ep->num);
 574:Drivers/STM32G4xx_HAL_Driver/Src/stm32g4xx_ll_usb.c ****       }
 575:Drivers/STM32G4xx_HAL_Driver/Src/stm32g4xx_ll_usb.c **** 
 576:Drivers/STM32G4xx_HAL_Driver/Src/stm32g4xx_ll_usb.c ****       /* Multi packet transfer */
 577:Drivers/STM32G4xx_HAL_Driver/Src/stm32g4xx_ll_usb.c ****       if (ep->xfer_len > ep->maxpacket)
 578:Drivers/STM32G4xx_HAL_Driver/Src/stm32g4xx_ll_usb.c ****       {
 579:Drivers/STM32G4xx_HAL_Driver/Src/stm32g4xx_ll_usb.c ****         ep->xfer_len -= ep->maxpacket;
 580:Drivers/STM32G4xx_HAL_Driver/Src/stm32g4xx_ll_usb.c ****       }
 581:Drivers/STM32G4xx_HAL_Driver/Src/stm32g4xx_ll_usb.c ****       else
 582:Drivers/STM32G4xx_HAL_Driver/Src/stm32g4xx_ll_usb.c ****       {
 583:Drivers/STM32G4xx_HAL_Driver/Src/stm32g4xx_ll_usb.c ****         ep->xfer_len = 0U;
 584:Drivers/STM32G4xx_HAL_Driver/Src/stm32g4xx_ll_usb.c ****       }
 585:Drivers/STM32G4xx_HAL_Driver/Src/stm32g4xx_ll_usb.c ****     }
 586:Drivers/STM32G4xx_HAL_Driver/Src/stm32g4xx_ll_usb.c **** #if (USE_USB_DOUBLE_BUFFER == 1U)
 587:Drivers/STM32G4xx_HAL_Driver/Src/stm32g4xx_ll_usb.c ****     else
 588:Drivers/STM32G4xx_HAL_Driver/Src/stm32g4xx_ll_usb.c ****     {
 589:Drivers/STM32G4xx_HAL_Driver/Src/stm32g4xx_ll_usb.c ****       /* First Transfer Coming From HAL_PCD_EP_Receive & From ISR */
 590:Drivers/STM32G4xx_HAL_Driver/Src/stm32g4xx_ll_usb.c ****       /* Set the Double buffer counter */
 591:Drivers/STM32G4xx_HAL_Driver/Src/stm32g4xx_ll_usb.c ****       if (ep->type == EP_TYPE_BULK)
 592:Drivers/STM32G4xx_HAL_Driver/Src/stm32g4xx_ll_usb.c ****       {
 593:Drivers/STM32G4xx_HAL_Driver/Src/stm32g4xx_ll_usb.c ****         /* Coming from ISR */
 594:Drivers/STM32G4xx_HAL_Driver/Src/stm32g4xx_ll_usb.c ****         if (ep->xfer_count != 0U)
 595:Drivers/STM32G4xx_HAL_Driver/Src/stm32g4xx_ll_usb.c ****         {
 596:Drivers/STM32G4xx_HAL_Driver/Src/stm32g4xx_ll_usb.c ****           /* Update last value to check if there is blocking state */
 597:Drivers/STM32G4xx_HAL_Driver/Src/stm32g4xx_ll_usb.c ****           wEPVal = PCD_GET_ENDPOINT(USBx, ep->num);
 598:Drivers/STM32G4xx_HAL_Driver/Src/stm32g4xx_ll_usb.c **** 
 599:Drivers/STM32G4xx_HAL_Driver/Src/stm32g4xx_ll_usb.c ****           /* Blocking State */
ARM GAS  C:\Users\Nathan\AppData\Local\Temp\ccyJNqjv.s 			page 46


 600:Drivers/STM32G4xx_HAL_Driver/Src/stm32g4xx_ll_usb.c ****           if ((((wEPVal & USB_EP_DTOG_RX) != 0U) && ((wEPVal & USB_EP_DTOG_TX) != 0U)) ||
 601:Drivers/STM32G4xx_HAL_Driver/Src/stm32g4xx_ll_usb.c ****               (((wEPVal & USB_EP_DTOG_RX) == 0U) && ((wEPVal & USB_EP_DTOG_TX) == 0U)))
 602:Drivers/STM32G4xx_HAL_Driver/Src/stm32g4xx_ll_usb.c ****           {
 603:Drivers/STM32G4xx_HAL_Driver/Src/stm32g4xx_ll_usb.c ****             PCD_FREE_USER_BUFFER(USBx, ep->num, 0U);
 604:Drivers/STM32G4xx_HAL_Driver/Src/stm32g4xx_ll_usb.c ****           }
 605:Drivers/STM32G4xx_HAL_Driver/Src/stm32g4xx_ll_usb.c ****         }
 606:Drivers/STM32G4xx_HAL_Driver/Src/stm32g4xx_ll_usb.c ****       }
 607:Drivers/STM32G4xx_HAL_Driver/Src/stm32g4xx_ll_usb.c ****       /* iso out double */
 608:Drivers/STM32G4xx_HAL_Driver/Src/stm32g4xx_ll_usb.c ****       else if (ep->type == EP_TYPE_ISOC)
 609:Drivers/STM32G4xx_HAL_Driver/Src/stm32g4xx_ll_usb.c ****       {
 610:Drivers/STM32G4xx_HAL_Driver/Src/stm32g4xx_ll_usb.c ****         /* Only single packet transfer supported in FS */
 611:Drivers/STM32G4xx_HAL_Driver/Src/stm32g4xx_ll_usb.c ****         ep->xfer_len = 0U;
 612:Drivers/STM32G4xx_HAL_Driver/Src/stm32g4xx_ll_usb.c ****       }
 613:Drivers/STM32G4xx_HAL_Driver/Src/stm32g4xx_ll_usb.c ****       else
 614:Drivers/STM32G4xx_HAL_Driver/Src/stm32g4xx_ll_usb.c ****       {
 615:Drivers/STM32G4xx_HAL_Driver/Src/stm32g4xx_ll_usb.c ****         return HAL_ERROR;
 616:Drivers/STM32G4xx_HAL_Driver/Src/stm32g4xx_ll_usb.c ****       }
 617:Drivers/STM32G4xx_HAL_Driver/Src/stm32g4xx_ll_usb.c ****     }
 618:Drivers/STM32G4xx_HAL_Driver/Src/stm32g4xx_ll_usb.c **** #endif /* (USE_USB_DOUBLE_BUFFER == 1U) */
 619:Drivers/STM32G4xx_HAL_Driver/Src/stm32g4xx_ll_usb.c **** 
 620:Drivers/STM32G4xx_HAL_Driver/Src/stm32g4xx_ll_usb.c ****     PCD_SET_EP_RX_STATUS(USBx, ep->num, USB_EP_RX_VALID);
 621:Drivers/STM32G4xx_HAL_Driver/Src/stm32g4xx_ll_usb.c ****   }
 622:Drivers/STM32G4xx_HAL_Driver/Src/stm32g4xx_ll_usb.c **** 
 623:Drivers/STM32G4xx_HAL_Driver/Src/stm32g4xx_ll_usb.c ****   return HAL_OK;
 624:Drivers/STM32G4xx_HAL_Driver/Src/stm32g4xx_ll_usb.c **** }
 625:Drivers/STM32G4xx_HAL_Driver/Src/stm32g4xx_ll_usb.c **** 
 626:Drivers/STM32G4xx_HAL_Driver/Src/stm32g4xx_ll_usb.c **** 
 627:Drivers/STM32G4xx_HAL_Driver/Src/stm32g4xx_ll_usb.c **** /**
 628:Drivers/STM32G4xx_HAL_Driver/Src/stm32g4xx_ll_usb.c ****   * @brief  USB_EPSetStall set a stall condition over an EP
 629:Drivers/STM32G4xx_HAL_Driver/Src/stm32g4xx_ll_usb.c ****   * @param  USBx Selected device
 630:Drivers/STM32G4xx_HAL_Driver/Src/stm32g4xx_ll_usb.c ****   * @param  ep pointer to endpoint structure
 631:Drivers/STM32G4xx_HAL_Driver/Src/stm32g4xx_ll_usb.c ****   * @retval HAL status
 632:Drivers/STM32G4xx_HAL_Driver/Src/stm32g4xx_ll_usb.c ****   */
 633:Drivers/STM32G4xx_HAL_Driver/Src/stm32g4xx_ll_usb.c **** HAL_StatusTypeDef USB_EPSetStall(USB_TypeDef *USBx, USB_EPTypeDef *ep)
 634:Drivers/STM32G4xx_HAL_Driver/Src/stm32g4xx_ll_usb.c **** {
 1762              		.loc 1 634 1 is_stmt 1 view -0
 1763              		.cfi_startproc
 1764              		@ args = 0, pretend = 0, frame = 0
 1765              		@ frame_needed = 0, uses_anonymous_args = 0
 1766              		@ link register save eliminated.
 635:Drivers/STM32G4xx_HAL_Driver/Src/stm32g4xx_ll_usb.c ****   if (ep->is_in != 0U)
 1767              		.loc 1 635 3 view .LVU618
 1768              		.loc 1 635 9 is_stmt 0 view .LVU619
 1769 0000 4B78     		ldrb	r3, [r1, #1]	@ zero_extendqisi2
 1770              		.loc 1 635 6 view .LVU620
 1771 0002 8BB1     		cbz	r3, .L67
 636:Drivers/STM32G4xx_HAL_Driver/Src/stm32g4xx_ll_usb.c ****   {
 637:Drivers/STM32G4xx_HAL_Driver/Src/stm32g4xx_ll_usb.c ****     PCD_SET_EP_TX_STATUS(USBx, ep->num, USB_EP_TX_STALL);
 1772              		.loc 1 637 5 is_stmt 1 view .LVU621
 1773              	.LBB66:
 1774              		.loc 1 637 5 view .LVU622
 1775              		.loc 1 637 5 view .LVU623
 1776 0004 0A78     		ldrb	r2, [r1]	@ zero_extendqisi2
 1777 0006 30F82230 		ldrh	r3, [r0, r2, lsl #2]
 1778 000a 9BB2     		uxth	r3, r3
 1779 000c 23F4E043 		bic	r3, r3, #28672
 1780 0010 23F04003 		bic	r3, r3, #64
ARM GAS  C:\Users\Nathan\AppData\Local\Temp\ccyJNqjv.s 			page 47


 1781              	.LVL208:
 1782              		.loc 1 637 5 view .LVU624
 1783              		.loc 1 637 5 discriminator 1 view .LVU625
 1784 0014 83F01003 		eor	r3, r3, #16
 1785              	.LVL209:
 1786              		.loc 1 637 5 discriminator 3 view .LVU626
 1787              		.loc 1 637 5 discriminator 6 view .LVU627
 1788 0018 43F40043 		orr	r3, r3, #32768
 1789              	.LVL210:
 1790              		.loc 1 637 5 is_stmt 0 discriminator 6 view .LVU628
 1791 001c 43F08003 		orr	r3, r3, #128
 1792 0020 20F82230 		strh	r3, [r0, r2, lsl #2]	@ movhi
 1793              	.LBE66:
 1794              		.loc 1 637 5 is_stmt 1 view .LVU629
 1795              	.LVL211:
 1796              	.L68:
 638:Drivers/STM32G4xx_HAL_Driver/Src/stm32g4xx_ll_usb.c ****   }
 639:Drivers/STM32G4xx_HAL_Driver/Src/stm32g4xx_ll_usb.c ****   else
 640:Drivers/STM32G4xx_HAL_Driver/Src/stm32g4xx_ll_usb.c ****   {
 641:Drivers/STM32G4xx_HAL_Driver/Src/stm32g4xx_ll_usb.c ****     PCD_SET_EP_RX_STATUS(USBx, ep->num, USB_EP_RX_STALL);
 1797              		.loc 1 641 5 discriminator 7 view .LVU630
 642:Drivers/STM32G4xx_HAL_Driver/Src/stm32g4xx_ll_usb.c ****   }
 643:Drivers/STM32G4xx_HAL_Driver/Src/stm32g4xx_ll_usb.c **** 
 644:Drivers/STM32G4xx_HAL_Driver/Src/stm32g4xx_ll_usb.c ****   return HAL_OK;
 1798              		.loc 1 644 3 view .LVU631
 645:Drivers/STM32G4xx_HAL_Driver/Src/stm32g4xx_ll_usb.c **** }
 1799              		.loc 1 645 1 is_stmt 0 view .LVU632
 1800 0024 0020     		movs	r0, #0
 1801              	.LVL212:
 1802              		.loc 1 645 1 view .LVU633
 1803 0026 7047     		bx	lr
 1804              	.LVL213:
 1805              	.L67:
 641:Drivers/STM32G4xx_HAL_Driver/Src/stm32g4xx_ll_usb.c ****   }
 1806              		.loc 1 641 5 is_stmt 1 view .LVU634
 1807              	.LBB67:
 641:Drivers/STM32G4xx_HAL_Driver/Src/stm32g4xx_ll_usb.c ****   }
 1808              		.loc 1 641 5 view .LVU635
 641:Drivers/STM32G4xx_HAL_Driver/Src/stm32g4xx_ll_usb.c ****   }
 1809              		.loc 1 641 5 view .LVU636
 1810 0028 0A78     		ldrb	r2, [r1]	@ zero_extendqisi2
 1811 002a 30F82230 		ldrh	r3, [r0, r2, lsl #2]
 1812 002e 9BB2     		uxth	r3, r3
 1813 0030 23F48043 		bic	r3, r3, #16384
 1814 0034 23F07003 		bic	r3, r3, #112
 1815              	.LVL214:
 641:Drivers/STM32G4xx_HAL_Driver/Src/stm32g4xx_ll_usb.c ****   }
 1816              		.loc 1 641 5 view .LVU637
 641:Drivers/STM32G4xx_HAL_Driver/Src/stm32g4xx_ll_usb.c ****   }
 1817              		.loc 1 641 5 discriminator 1 view .LVU638
 1818 0038 83F48053 		eor	r3, r3, #4096
 1819              	.LVL215:
 641:Drivers/STM32G4xx_HAL_Driver/Src/stm32g4xx_ll_usb.c ****   }
 1820              		.loc 1 641 5 discriminator 3 view .LVU639
 641:Drivers/STM32G4xx_HAL_Driver/Src/stm32g4xx_ll_usb.c ****   }
 1821              		.loc 1 641 5 discriminator 6 view .LVU640
 1822 003c 43F40043 		orr	r3, r3, #32768
ARM GAS  C:\Users\Nathan\AppData\Local\Temp\ccyJNqjv.s 			page 48


 1823              	.LVL216:
 641:Drivers/STM32G4xx_HAL_Driver/Src/stm32g4xx_ll_usb.c ****   }
 1824              		.loc 1 641 5 is_stmt 0 discriminator 6 view .LVU641
 1825 0040 43F08003 		orr	r3, r3, #128
 1826 0044 20F82230 		strh	r3, [r0, r2, lsl #2]	@ movhi
 1827 0048 ECE7     		b	.L68
 1828              	.LBE67:
 1829              		.cfi_endproc
 1830              	.LFE142:
 1832              		.section	.text.USB_EPClearStall,"ax",%progbits
 1833              		.align	1
 1834              		.global	USB_EPClearStall
 1835              		.syntax unified
 1836              		.thumb
 1837              		.thumb_func
 1839              	USB_EPClearStall:
 1840              	.LVL217:
 1841              	.LFB143:
 646:Drivers/STM32G4xx_HAL_Driver/Src/stm32g4xx_ll_usb.c **** 
 647:Drivers/STM32G4xx_HAL_Driver/Src/stm32g4xx_ll_usb.c **** /**
 648:Drivers/STM32G4xx_HAL_Driver/Src/stm32g4xx_ll_usb.c ****   * @brief  USB_EPClearStall Clear a stall condition over an EP
 649:Drivers/STM32G4xx_HAL_Driver/Src/stm32g4xx_ll_usb.c ****   * @param  USBx Selected device
 650:Drivers/STM32G4xx_HAL_Driver/Src/stm32g4xx_ll_usb.c ****   * @param  ep pointer to endpoint structure
 651:Drivers/STM32G4xx_HAL_Driver/Src/stm32g4xx_ll_usb.c ****   * @retval HAL status
 652:Drivers/STM32G4xx_HAL_Driver/Src/stm32g4xx_ll_usb.c ****   */
 653:Drivers/STM32G4xx_HAL_Driver/Src/stm32g4xx_ll_usb.c **** HAL_StatusTypeDef USB_EPClearStall(USB_TypeDef *USBx, USB_EPTypeDef *ep)
 654:Drivers/STM32G4xx_HAL_Driver/Src/stm32g4xx_ll_usb.c **** {
 1842              		.loc 1 654 1 is_stmt 1 view -0
 1843              		.cfi_startproc
 1844              		@ args = 0, pretend = 0, frame = 0
 1845              		@ frame_needed = 0, uses_anonymous_args = 0
 1846              		@ link register save eliminated.
 655:Drivers/STM32G4xx_HAL_Driver/Src/stm32g4xx_ll_usb.c ****   if (ep->is_in != 0U)
 1847              		.loc 1 655 3 view .LVU643
 1848              		.loc 1 655 9 is_stmt 0 view .LVU644
 1849 0000 4B78     		ldrb	r3, [r1, #1]	@ zero_extendqisi2
 1850              		.loc 1 655 6 view .LVU645
 1851 0002 33B3     		cbz	r3, .L70
 656:Drivers/STM32G4xx_HAL_Driver/Src/stm32g4xx_ll_usb.c ****   {
 657:Drivers/STM32G4xx_HAL_Driver/Src/stm32g4xx_ll_usb.c ****     PCD_CLEAR_TX_DTOG(USBx, ep->num);
 1852              		.loc 1 657 5 is_stmt 1 view .LVU646
 1853              	.LBB68:
 1854              		.loc 1 657 5 view .LVU647
 1855              		.loc 1 657 5 view .LVU648
 1856 0004 0A78     		ldrb	r2, [r1]	@ zero_extendqisi2
 1857 0006 30F82230 		ldrh	r3, [r0, r2, lsl #2]
 1858              	.LVL218:
 1859              		.loc 1 657 5 view .LVU649
 1860 000a 13F0400F 		tst	r3, #64
 1861 000e 0CD0     		beq	.L71
 1862              		.loc 1 657 5 discriminator 1 view .LVU650
 1863              	.LBB69:
 1864              		.loc 1 657 5 discriminator 1 view .LVU651
 1865              		.loc 1 657 5 discriminator 1 view .LVU652
 1866 0010 30F82230 		ldrh	r3, [r0, r2, lsl #2]
 1867              	.LVL219:
 1868              		.loc 1 657 5 is_stmt 0 discriminator 1 view .LVU653
ARM GAS  C:\Users\Nathan\AppData\Local\Temp\ccyJNqjv.s 			page 49


 1869 0014 9BB2     		uxth	r3, r3
 1870 0016 23F4E043 		bic	r3, r3, #28672
 1871 001a 23F07003 		bic	r3, r3, #112
 1872              	.LVL220:
 1873              		.loc 1 657 5 is_stmt 1 view .LVU654
 1874              		.loc 1 657 5 is_stmt 0 discriminator 1 view .LVU655
 1875 001e 43F40043 		orr	r3, r3, #32768
 1876              	.LVL221:
 1877              		.loc 1 657 5 discriminator 1 view .LVU656
 1878 0022 43F0C003 		orr	r3, r3, #192
 1879 0026 20F82230 		strh	r3, [r0, r2, lsl #2]	@ movhi
 1880              	.LVL222:
 1881              	.L71:
 1882              		.loc 1 657 5 discriminator 1 view .LVU657
 1883              	.LBE69:
 1884              		.loc 1 657 5 is_stmt 1 discriminator 3 view .LVU658
 1885              	.LBE68:
 1886              		.loc 1 657 5 discriminator 3 view .LVU659
 658:Drivers/STM32G4xx_HAL_Driver/Src/stm32g4xx_ll_usb.c **** 
 659:Drivers/STM32G4xx_HAL_Driver/Src/stm32g4xx_ll_usb.c ****     if (ep->type != EP_TYPE_ISOC)
 1887              		.loc 1 659 5 view .LVU660
 1888              		.loc 1 659 11 is_stmt 0 view .LVU661
 1889 002a CB78     		ldrb	r3, [r1, #3]	@ zero_extendqisi2
 1890              		.loc 1 659 8 view .LVU662
 1891 002c 012B     		cmp	r3, #1
 1892 002e 33D0     		beq	.L72
 660:Drivers/STM32G4xx_HAL_Driver/Src/stm32g4xx_ll_usb.c ****     {
 661:Drivers/STM32G4xx_HAL_Driver/Src/stm32g4xx_ll_usb.c ****       /* Configure NAK status for the Endpoint */
 662:Drivers/STM32G4xx_HAL_Driver/Src/stm32g4xx_ll_usb.c ****       PCD_SET_EP_TX_STATUS(USBx, ep->num, USB_EP_TX_NAK);
 1893              		.loc 1 662 7 is_stmt 1 view .LVU663
 1894              	.LBB70:
 1895              		.loc 1 662 7 view .LVU664
 1896              		.loc 1 662 7 view .LVU665
 1897 0030 0A78     		ldrb	r2, [r1]	@ zero_extendqisi2
 1898 0032 30F82230 		ldrh	r3, [r0, r2, lsl #2]
 1899 0036 9BB2     		uxth	r3, r3
 1900 0038 23F4E043 		bic	r3, r3, #28672
 1901 003c 23F04003 		bic	r3, r3, #64
 1902              	.LVL223:
 1903              		.loc 1 662 7 view .LVU666
 1904              		.loc 1 662 7 discriminator 3 view .LVU667
 1905              		.loc 1 662 7 discriminator 4 view .LVU668
 1906 0040 83F02003 		eor	r3, r3, #32
 1907              	.LVL224:
 1908              		.loc 1 662 7 discriminator 6 view .LVU669
 1909 0044 43F40043 		orr	r3, r3, #32768
 1910              	.LVL225:
 1911              		.loc 1 662 7 is_stmt 0 discriminator 6 view .LVU670
 1912 0048 43F08003 		orr	r3, r3, #128
 1913 004c 20F82230 		strh	r3, [r0, r2, lsl #2]	@ movhi
 1914 0050 22E0     		b	.L72
 1915              	.LVL226:
 1916              	.L70:
 1917              		.loc 1 662 7 discriminator 6 view .LVU671
 1918              	.LBE70:
 663:Drivers/STM32G4xx_HAL_Driver/Src/stm32g4xx_ll_usb.c ****     }
 664:Drivers/STM32G4xx_HAL_Driver/Src/stm32g4xx_ll_usb.c ****   }
ARM GAS  C:\Users\Nathan\AppData\Local\Temp\ccyJNqjv.s 			page 50


 665:Drivers/STM32G4xx_HAL_Driver/Src/stm32g4xx_ll_usb.c ****   else
 666:Drivers/STM32G4xx_HAL_Driver/Src/stm32g4xx_ll_usb.c ****   {
 667:Drivers/STM32G4xx_HAL_Driver/Src/stm32g4xx_ll_usb.c ****     PCD_CLEAR_RX_DTOG(USBx, ep->num);
 1919              		.loc 1 667 5 is_stmt 1 view .LVU672
 1920              	.LBB71:
 1921              		.loc 1 667 5 view .LVU673
 1922              		.loc 1 667 5 view .LVU674
 1923 0052 0A78     		ldrb	r2, [r1]	@ zero_extendqisi2
 1924 0054 30F82230 		ldrh	r3, [r0, r2, lsl #2]
 1925              	.LVL227:
 1926              		.loc 1 667 5 view .LVU675
 1927 0058 13F4804F 		tst	r3, #16384
 1928 005c 0CD0     		beq	.L73
 1929              		.loc 1 667 5 discriminator 1 view .LVU676
 1930              	.LBB72:
 1931              		.loc 1 667 5 discriminator 1 view .LVU677
 1932              		.loc 1 667 5 discriminator 1 view .LVU678
 1933 005e 30F82230 		ldrh	r3, [r0, r2, lsl #2]
 1934              	.LVL228:
 1935              		.loc 1 667 5 is_stmt 0 discriminator 1 view .LVU679
 1936 0062 9BB2     		uxth	r3, r3
 1937 0064 23F4E043 		bic	r3, r3, #28672
 1938 0068 23F07003 		bic	r3, r3, #112
 1939              	.LVL229:
 1940              		.loc 1 667 5 is_stmt 1 view .LVU680
 1941              		.loc 1 667 5 is_stmt 0 discriminator 1 view .LVU681
 1942 006c 43F44043 		orr	r3, r3, #49152
 1943              	.LVL230:
 1944              		.loc 1 667 5 discriminator 1 view .LVU682
 1945 0070 43F08003 		orr	r3, r3, #128
 1946 0074 20F82230 		strh	r3, [r0, r2, lsl #2]	@ movhi
 1947              	.LVL231:
 1948              	.L73:
 1949              		.loc 1 667 5 discriminator 1 view .LVU683
 1950              	.LBE72:
 1951              		.loc 1 667 5 is_stmt 1 discriminator 3 view .LVU684
 1952              	.LBE71:
 1953              		.loc 1 667 5 discriminator 3 view .LVU685
 668:Drivers/STM32G4xx_HAL_Driver/Src/stm32g4xx_ll_usb.c **** 
 669:Drivers/STM32G4xx_HAL_Driver/Src/stm32g4xx_ll_usb.c ****     /* Configure VALID status for the Endpoint */
 670:Drivers/STM32G4xx_HAL_Driver/Src/stm32g4xx_ll_usb.c ****     PCD_SET_EP_RX_STATUS(USBx, ep->num, USB_EP_RX_VALID);
 1954              		.loc 1 670 5 view .LVU686
 1955              	.LBB73:
 1956              		.loc 1 670 5 view .LVU687
 1957              		.loc 1 670 5 view .LVU688
 1958 0078 0A78     		ldrb	r2, [r1]	@ zero_extendqisi2
 1959 007a 30F82230 		ldrh	r3, [r0, r2, lsl #2]
 1960 007e 9BB2     		uxth	r3, r3
 1961 0080 23F48043 		bic	r3, r3, #16384
 1962 0084 23F07003 		bic	r3, r3, #112
 1963              	.LVL232:
 1964              		.loc 1 670 5 view .LVU689
 1965              		.loc 1 670 5 discriminator 1 view .LVU690
 1966              		.loc 1 670 5 discriminator 3 view .LVU691
 1967              		.loc 1 670 5 discriminator 4 view .LVU692
 1968 0088 83F44053 		eor	r3, r3, #12288
 1969              	.LVL233:
ARM GAS  C:\Users\Nathan\AppData\Local\Temp\ccyJNqjv.s 			page 51


 1970              		.loc 1 670 5 discriminator 6 view .LVU693
 1971 008c 43F40043 		orr	r3, r3, #32768
 1972              	.LVL234:
 1973              		.loc 1 670 5 is_stmt 0 discriminator 6 view .LVU694
 1974 0090 43F08003 		orr	r3, r3, #128
 1975 0094 20F82230 		strh	r3, [r0, r2, lsl #2]	@ movhi
 1976              	.LVL235:
 1977              	.L72:
 1978              		.loc 1 670 5 discriminator 6 view .LVU695
 1979              	.LBE73:
 1980              		.loc 1 670 5 is_stmt 1 discriminator 7 view .LVU696
 671:Drivers/STM32G4xx_HAL_Driver/Src/stm32g4xx_ll_usb.c ****   }
 672:Drivers/STM32G4xx_HAL_Driver/Src/stm32g4xx_ll_usb.c **** 
 673:Drivers/STM32G4xx_HAL_Driver/Src/stm32g4xx_ll_usb.c ****   return HAL_OK;
 1981              		.loc 1 673 3 view .LVU697
 674:Drivers/STM32G4xx_HAL_Driver/Src/stm32g4xx_ll_usb.c **** }
 1982              		.loc 1 674 1 is_stmt 0 view .LVU698
 1983 0098 0020     		movs	r0, #0
 1984              	.LVL236:
 1985              		.loc 1 674 1 view .LVU699
 1986 009a 7047     		bx	lr
 1987              		.cfi_endproc
 1988              	.LFE143:
 1990              		.section	.text.USB_EPStopXfer,"ax",%progbits
 1991              		.align	1
 1992              		.global	USB_EPStopXfer
 1993              		.syntax unified
 1994              		.thumb
 1995              		.thumb_func
 1997              	USB_EPStopXfer:
 1998              	.LVL237:
 1999              	.LFB144:
 675:Drivers/STM32G4xx_HAL_Driver/Src/stm32g4xx_ll_usb.c **** 
 676:Drivers/STM32G4xx_HAL_Driver/Src/stm32g4xx_ll_usb.c **** /**
 677:Drivers/STM32G4xx_HAL_Driver/Src/stm32g4xx_ll_usb.c ****    * @brief  USB_EPStoptXfer  Stop transfer on an EP
 678:Drivers/STM32G4xx_HAL_Driver/Src/stm32g4xx_ll_usb.c ****    * @param  USBx  usb device instance
 679:Drivers/STM32G4xx_HAL_Driver/Src/stm32g4xx_ll_usb.c ****    * @param  ep pointer to endpoint structure
 680:Drivers/STM32G4xx_HAL_Driver/Src/stm32g4xx_ll_usb.c ****    * @retval HAL status
 681:Drivers/STM32G4xx_HAL_Driver/Src/stm32g4xx_ll_usb.c ****    */
 682:Drivers/STM32G4xx_HAL_Driver/Src/stm32g4xx_ll_usb.c **** HAL_StatusTypeDef USB_EPStopXfer(USB_TypeDef *USBx, USB_EPTypeDef *ep)
 683:Drivers/STM32G4xx_HAL_Driver/Src/stm32g4xx_ll_usb.c **** {
 2000              		.loc 1 683 1 is_stmt 1 view -0
 2001              		.cfi_startproc
 2002              		@ args = 0, pretend = 0, frame = 0
 2003              		@ frame_needed = 0, uses_anonymous_args = 0
 2004              		@ link register save eliminated.
 684:Drivers/STM32G4xx_HAL_Driver/Src/stm32g4xx_ll_usb.c ****   /* IN endpoint */
 685:Drivers/STM32G4xx_HAL_Driver/Src/stm32g4xx_ll_usb.c ****   if (ep->is_in == 1U)
 2005              		.loc 1 685 3 view .LVU701
 2006              		.loc 1 685 9 is_stmt 0 view .LVU702
 2007 0000 4B78     		ldrb	r3, [r1, #1]	@ zero_extendqisi2
 2008              		.loc 1 685 6 view .LVU703
 2009 0002 012B     		cmp	r3, #1
 2010 0004 16D0     		beq	.L79
 686:Drivers/STM32G4xx_HAL_Driver/Src/stm32g4xx_ll_usb.c ****   {
 687:Drivers/STM32G4xx_HAL_Driver/Src/stm32g4xx_ll_usb.c ****     if (ep->doublebuffer == 0U)
 688:Drivers/STM32G4xx_HAL_Driver/Src/stm32g4xx_ll_usb.c ****     {
ARM GAS  C:\Users\Nathan\AppData\Local\Temp\ccyJNqjv.s 			page 52


 689:Drivers/STM32G4xx_HAL_Driver/Src/stm32g4xx_ll_usb.c ****       if (ep->type != EP_TYPE_ISOC)
 690:Drivers/STM32G4xx_HAL_Driver/Src/stm32g4xx_ll_usb.c ****       {
 691:Drivers/STM32G4xx_HAL_Driver/Src/stm32g4xx_ll_usb.c ****         /* Configure NAK status for the Endpoint */
 692:Drivers/STM32G4xx_HAL_Driver/Src/stm32g4xx_ll_usb.c ****         PCD_SET_EP_TX_STATUS(USBx, ep->num, USB_EP_TX_NAK);
 693:Drivers/STM32G4xx_HAL_Driver/Src/stm32g4xx_ll_usb.c ****       }
 694:Drivers/STM32G4xx_HAL_Driver/Src/stm32g4xx_ll_usb.c ****       else
 695:Drivers/STM32G4xx_HAL_Driver/Src/stm32g4xx_ll_usb.c ****       {
 696:Drivers/STM32G4xx_HAL_Driver/Src/stm32g4xx_ll_usb.c ****         /* Configure TX Endpoint to disabled state */
 697:Drivers/STM32G4xx_HAL_Driver/Src/stm32g4xx_ll_usb.c ****         PCD_SET_EP_TX_STATUS(USBx, ep->num, USB_EP_TX_DIS);
 698:Drivers/STM32G4xx_HAL_Driver/Src/stm32g4xx_ll_usb.c ****       }
 699:Drivers/STM32G4xx_HAL_Driver/Src/stm32g4xx_ll_usb.c ****     }
 700:Drivers/STM32G4xx_HAL_Driver/Src/stm32g4xx_ll_usb.c ****   }
 701:Drivers/STM32G4xx_HAL_Driver/Src/stm32g4xx_ll_usb.c ****   else /* OUT endpoint */
 702:Drivers/STM32G4xx_HAL_Driver/Src/stm32g4xx_ll_usb.c ****   {
 703:Drivers/STM32G4xx_HAL_Driver/Src/stm32g4xx_ll_usb.c ****     if (ep->doublebuffer == 0U)
 2011              		.loc 1 703 5 is_stmt 1 view .LVU704
 2012              		.loc 1 703 11 is_stmt 0 view .LVU705
 2013 0006 0B7B     		ldrb	r3, [r1, #12]	@ zero_extendqisi2
 2014              		.loc 1 703 8 view .LVU706
 2015 0008 93B9     		cbnz	r3, .L76
 704:Drivers/STM32G4xx_HAL_Driver/Src/stm32g4xx_ll_usb.c ****     {
 705:Drivers/STM32G4xx_HAL_Driver/Src/stm32g4xx_ll_usb.c ****       if (ep->type != EP_TYPE_ISOC)
 2016              		.loc 1 705 7 is_stmt 1 view .LVU707
 2017              		.loc 1 705 13 is_stmt 0 view .LVU708
 2018 000a CB78     		ldrb	r3, [r1, #3]	@ zero_extendqisi2
 2019              		.loc 1 705 10 view .LVU709
 2020 000c 012B     		cmp	r3, #1
 2021 000e 37D0     		beq	.L78
 706:Drivers/STM32G4xx_HAL_Driver/Src/stm32g4xx_ll_usb.c ****       {
 707:Drivers/STM32G4xx_HAL_Driver/Src/stm32g4xx_ll_usb.c ****         /* Configure NAK status for the Endpoint */
 708:Drivers/STM32G4xx_HAL_Driver/Src/stm32g4xx_ll_usb.c ****         PCD_SET_EP_RX_STATUS(USBx, ep->num, USB_EP_RX_NAK);
 2022              		.loc 1 708 9 is_stmt 1 view .LVU710
 2023              	.LBB74:
 2024              		.loc 1 708 9 view .LVU711
 2025              		.loc 1 708 9 view .LVU712
 2026 0010 0A78     		ldrb	r2, [r1]	@ zero_extendqisi2
 2027 0012 30F82230 		ldrh	r3, [r0, r2, lsl #2]
 2028 0016 9BB2     		uxth	r3, r3
 2029 0018 23F48043 		bic	r3, r3, #16384
 2030 001c 23F07003 		bic	r3, r3, #112
 2031              	.LVL238:
 2032              		.loc 1 708 9 view .LVU713
 2033              		.loc 1 708 9 discriminator 3 view .LVU714
 2034              		.loc 1 708 9 discriminator 4 view .LVU715
 2035 0020 83F40053 		eor	r3, r3, #8192
 2036              	.LVL239:
 2037              		.loc 1 708 9 discriminator 6 view .LVU716
 2038 0024 43F40043 		orr	r3, r3, #32768
 2039              	.LVL240:
 2040              		.loc 1 708 9 is_stmt 0 discriminator 6 view .LVU717
 2041 0028 43F08003 		orr	r3, r3, #128
 2042 002c 20F82230 		strh	r3, [r0, r2, lsl #2]	@ movhi
 2043              	.LBE74:
 2044              		.loc 1 708 9 is_stmt 1 view .LVU718
 2045              	.LVL241:
 2046              	.L76:
 709:Drivers/STM32G4xx_HAL_Driver/Src/stm32g4xx_ll_usb.c ****       }
ARM GAS  C:\Users\Nathan\AppData\Local\Temp\ccyJNqjv.s 			page 53


 710:Drivers/STM32G4xx_HAL_Driver/Src/stm32g4xx_ll_usb.c ****       else
 711:Drivers/STM32G4xx_HAL_Driver/Src/stm32g4xx_ll_usb.c ****       {
 712:Drivers/STM32G4xx_HAL_Driver/Src/stm32g4xx_ll_usb.c ****         /* Configure RX Endpoint to disabled state */
 713:Drivers/STM32G4xx_HAL_Driver/Src/stm32g4xx_ll_usb.c ****         PCD_SET_EP_RX_STATUS(USBx, ep->num, USB_EP_RX_DIS);
 2047              		.loc 1 713 9 discriminator 7 view .LVU719
 714:Drivers/STM32G4xx_HAL_Driver/Src/stm32g4xx_ll_usb.c ****       }
 715:Drivers/STM32G4xx_HAL_Driver/Src/stm32g4xx_ll_usb.c ****     }
 716:Drivers/STM32G4xx_HAL_Driver/Src/stm32g4xx_ll_usb.c ****   }
 717:Drivers/STM32G4xx_HAL_Driver/Src/stm32g4xx_ll_usb.c **** 
 718:Drivers/STM32G4xx_HAL_Driver/Src/stm32g4xx_ll_usb.c ****   return HAL_OK;
 2048              		.loc 1 718 3 view .LVU720
 719:Drivers/STM32G4xx_HAL_Driver/Src/stm32g4xx_ll_usb.c **** }
 2049              		.loc 1 719 1 is_stmt 0 view .LVU721
 2050 0030 0020     		movs	r0, #0
 2051              	.LVL242:
 2052              		.loc 1 719 1 view .LVU722
 2053 0032 7047     		bx	lr
 2054              	.LVL243:
 2055              	.L79:
 687:Drivers/STM32G4xx_HAL_Driver/Src/stm32g4xx_ll_usb.c ****     {
 2056              		.loc 1 687 5 is_stmt 1 view .LVU723
 687:Drivers/STM32G4xx_HAL_Driver/Src/stm32g4xx_ll_usb.c ****     {
 2057              		.loc 1 687 11 is_stmt 0 view .LVU724
 2058 0034 0B7B     		ldrb	r3, [r1, #12]	@ zero_extendqisi2
 687:Drivers/STM32G4xx_HAL_Driver/Src/stm32g4xx_ll_usb.c ****     {
 2059              		.loc 1 687 8 view .LVU725
 2060 0036 002B     		cmp	r3, #0
 2061 0038 FAD1     		bne	.L76
 689:Drivers/STM32G4xx_HAL_Driver/Src/stm32g4xx_ll_usb.c ****       {
 2062              		.loc 1 689 7 is_stmt 1 view .LVU726
 689:Drivers/STM32G4xx_HAL_Driver/Src/stm32g4xx_ll_usb.c ****       {
 2063              		.loc 1 689 13 is_stmt 0 view .LVU727
 2064 003a CB78     		ldrb	r3, [r1, #3]	@ zero_extendqisi2
 689:Drivers/STM32G4xx_HAL_Driver/Src/stm32g4xx_ll_usb.c ****       {
 2065              		.loc 1 689 10 view .LVU728
 2066 003c 012B     		cmp	r3, #1
 2067 003e 10D0     		beq	.L77
 692:Drivers/STM32G4xx_HAL_Driver/Src/stm32g4xx_ll_usb.c ****       }
 2068              		.loc 1 692 9 is_stmt 1 view .LVU729
 2069              	.LBB75:
 692:Drivers/STM32G4xx_HAL_Driver/Src/stm32g4xx_ll_usb.c ****       }
 2070              		.loc 1 692 9 view .LVU730
 692:Drivers/STM32G4xx_HAL_Driver/Src/stm32g4xx_ll_usb.c ****       }
 2071              		.loc 1 692 9 view .LVU731
 2072 0040 0A78     		ldrb	r2, [r1]	@ zero_extendqisi2
 2073 0042 30F82230 		ldrh	r3, [r0, r2, lsl #2]
 2074 0046 9BB2     		uxth	r3, r3
 2075 0048 23F4E043 		bic	r3, r3, #28672
 2076 004c 23F04003 		bic	r3, r3, #64
 2077              	.LVL244:
 692:Drivers/STM32G4xx_HAL_Driver/Src/stm32g4xx_ll_usb.c ****       }
 2078              		.loc 1 692 9 view .LVU732
 692:Drivers/STM32G4xx_HAL_Driver/Src/stm32g4xx_ll_usb.c ****       }
 2079              		.loc 1 692 9 discriminator 3 view .LVU733
 692:Drivers/STM32G4xx_HAL_Driver/Src/stm32g4xx_ll_usb.c ****       }
 2080              		.loc 1 692 9 discriminator 4 view .LVU734
 2081 0050 83F02003 		eor	r3, r3, #32
ARM GAS  C:\Users\Nathan\AppData\Local\Temp\ccyJNqjv.s 			page 54


 2082              	.LVL245:
 692:Drivers/STM32G4xx_HAL_Driver/Src/stm32g4xx_ll_usb.c ****       }
 2083              		.loc 1 692 9 discriminator 6 view .LVU735
 2084 0054 43F40043 		orr	r3, r3, #32768
 2085              	.LVL246:
 692:Drivers/STM32G4xx_HAL_Driver/Src/stm32g4xx_ll_usb.c ****       }
 2086              		.loc 1 692 9 is_stmt 0 discriminator 6 view .LVU736
 2087 0058 43F08003 		orr	r3, r3, #128
 2088 005c 20F82230 		strh	r3, [r0, r2, lsl #2]	@ movhi
 2089              	.LBE75:
 692:Drivers/STM32G4xx_HAL_Driver/Src/stm32g4xx_ll_usb.c ****       }
 2090              		.loc 1 692 9 is_stmt 1 view .LVU737
 2091 0060 E6E7     		b	.L76
 2092              	.LVL247:
 2093              	.L77:
 697:Drivers/STM32G4xx_HAL_Driver/Src/stm32g4xx_ll_usb.c ****       }
 2094              		.loc 1 697 9 view .LVU738
 2095              	.LBB76:
 697:Drivers/STM32G4xx_HAL_Driver/Src/stm32g4xx_ll_usb.c ****       }
 2096              		.loc 1 697 9 view .LVU739
 697:Drivers/STM32G4xx_HAL_Driver/Src/stm32g4xx_ll_usb.c ****       }
 2097              		.loc 1 697 9 view .LVU740
 2098 0062 0A78     		ldrb	r2, [r1]	@ zero_extendqisi2
 2099 0064 30F82230 		ldrh	r3, [r0, r2, lsl #2]
 2100 0068 9BB2     		uxth	r3, r3
 2101 006a 23F4E043 		bic	r3, r3, #28672
 2102 006e 23F04003 		bic	r3, r3, #64
 2103              	.LVL248:
 697:Drivers/STM32G4xx_HAL_Driver/Src/stm32g4xx_ll_usb.c ****       }
 2104              		.loc 1 697 9 view .LVU741
 697:Drivers/STM32G4xx_HAL_Driver/Src/stm32g4xx_ll_usb.c ****       }
 2105              		.loc 1 697 9 discriminator 3 view .LVU742
 697:Drivers/STM32G4xx_HAL_Driver/Src/stm32g4xx_ll_usb.c ****       }
 2106              		.loc 1 697 9 discriminator 6 view .LVU743
 2107 0072 43F40043 		orr	r3, r3, #32768
 2108              	.LVL249:
 697:Drivers/STM32G4xx_HAL_Driver/Src/stm32g4xx_ll_usb.c ****       }
 2109              		.loc 1 697 9 is_stmt 0 discriminator 6 view .LVU744
 2110 0076 43F08003 		orr	r3, r3, #128
 2111 007a 20F82230 		strh	r3, [r0, r2, lsl #2]	@ movhi
 2112 007e D7E7     		b	.L76
 2113              	.LVL250:
 2114              	.L78:
 697:Drivers/STM32G4xx_HAL_Driver/Src/stm32g4xx_ll_usb.c ****       }
 2115              		.loc 1 697 9 discriminator 6 view .LVU745
 2116              	.LBE76:
 713:Drivers/STM32G4xx_HAL_Driver/Src/stm32g4xx_ll_usb.c ****       }
 2117              		.loc 1 713 9 is_stmt 1 view .LVU746
 2118              	.LBB77:
 713:Drivers/STM32G4xx_HAL_Driver/Src/stm32g4xx_ll_usb.c ****       }
 2119              		.loc 1 713 9 view .LVU747
 713:Drivers/STM32G4xx_HAL_Driver/Src/stm32g4xx_ll_usb.c ****       }
 2120              		.loc 1 713 9 view .LVU748
 2121 0080 0A78     		ldrb	r2, [r1]	@ zero_extendqisi2
 2122 0082 30F82230 		ldrh	r3, [r0, r2, lsl #2]
 2123 0086 9BB2     		uxth	r3, r3
 2124 0088 23F48043 		bic	r3, r3, #16384
ARM GAS  C:\Users\Nathan\AppData\Local\Temp\ccyJNqjv.s 			page 55


 2125 008c 23F07003 		bic	r3, r3, #112
 2126              	.LVL251:
 713:Drivers/STM32G4xx_HAL_Driver/Src/stm32g4xx_ll_usb.c ****       }
 2127              		.loc 1 713 9 view .LVU749
 713:Drivers/STM32G4xx_HAL_Driver/Src/stm32g4xx_ll_usb.c ****       }
 2128              		.loc 1 713 9 discriminator 3 view .LVU750
 713:Drivers/STM32G4xx_HAL_Driver/Src/stm32g4xx_ll_usb.c ****       }
 2129              		.loc 1 713 9 discriminator 6 view .LVU751
 2130 0090 43F40043 		orr	r3, r3, #32768
 2131              	.LVL252:
 713:Drivers/STM32G4xx_HAL_Driver/Src/stm32g4xx_ll_usb.c ****       }
 2132              		.loc 1 713 9 is_stmt 0 discriminator 6 view .LVU752
 2133 0094 43F08003 		orr	r3, r3, #128
 2134 0098 20F82230 		strh	r3, [r0, r2, lsl #2]	@ movhi
 2135 009c C8E7     		b	.L76
 2136              	.LBE77:
 2137              		.cfi_endproc
 2138              	.LFE144:
 2140              		.section	.text.USB_StopDevice,"ax",%progbits
 2141              		.align	1
 2142              		.global	USB_StopDevice
 2143              		.syntax unified
 2144              		.thumb
 2145              		.thumb_func
 2147              	USB_StopDevice:
 2148              	.LVL253:
 2149              	.LFB145:
 720:Drivers/STM32G4xx_HAL_Driver/Src/stm32g4xx_ll_usb.c **** #endif /* defined (HAL_PCD_MODULE_ENABLED) */
 721:Drivers/STM32G4xx_HAL_Driver/Src/stm32g4xx_ll_usb.c **** 
 722:Drivers/STM32G4xx_HAL_Driver/Src/stm32g4xx_ll_usb.c **** /**
 723:Drivers/STM32G4xx_HAL_Driver/Src/stm32g4xx_ll_usb.c ****   * @brief  USB_StopDevice Stop the usb device mode
 724:Drivers/STM32G4xx_HAL_Driver/Src/stm32g4xx_ll_usb.c ****   * @param  USBx Selected device
 725:Drivers/STM32G4xx_HAL_Driver/Src/stm32g4xx_ll_usb.c ****   * @retval HAL status
 726:Drivers/STM32G4xx_HAL_Driver/Src/stm32g4xx_ll_usb.c ****   */
 727:Drivers/STM32G4xx_HAL_Driver/Src/stm32g4xx_ll_usb.c **** HAL_StatusTypeDef USB_StopDevice(USB_TypeDef *USBx)
 728:Drivers/STM32G4xx_HAL_Driver/Src/stm32g4xx_ll_usb.c **** {
 2150              		.loc 1 728 1 is_stmt 1 view -0
 2151              		.cfi_startproc
 2152              		@ args = 0, pretend = 0, frame = 0
 2153              		@ frame_needed = 0, uses_anonymous_args = 0
 2154              		@ link register save eliminated.
 2155              		.loc 1 728 1 is_stmt 0 view .LVU754
 2156 0000 0346     		mov	r3, r0
 729:Drivers/STM32G4xx_HAL_Driver/Src/stm32g4xx_ll_usb.c ****   /* disable all interrupts and force USB reset */
 730:Drivers/STM32G4xx_HAL_Driver/Src/stm32g4xx_ll_usb.c ****   USBx->CNTR = (uint16_t)USB_CNTR_FRES;
 2157              		.loc 1 730 3 is_stmt 1 view .LVU755
 2158              		.loc 1 730 14 is_stmt 0 view .LVU756
 2159 0002 0122     		movs	r2, #1
 2160 0004 A0F84020 		strh	r2, [r0, #64]	@ movhi
 731:Drivers/STM32G4xx_HAL_Driver/Src/stm32g4xx_ll_usb.c **** 
 732:Drivers/STM32G4xx_HAL_Driver/Src/stm32g4xx_ll_usb.c ****   /* clear interrupt status register */
 733:Drivers/STM32G4xx_HAL_Driver/Src/stm32g4xx_ll_usb.c ****   USBx->ISTR = 0U;
 2161              		.loc 1 733 3 is_stmt 1 view .LVU757
 2162              		.loc 1 733 14 is_stmt 0 view .LVU758
 2163 0008 0020     		movs	r0, #0
 2164              	.LVL254:
 2165              		.loc 1 733 14 view .LVU759
ARM GAS  C:\Users\Nathan\AppData\Local\Temp\ccyJNqjv.s 			page 56


 2166 000a A3F84400 		strh	r0, [r3, #68]	@ movhi
 734:Drivers/STM32G4xx_HAL_Driver/Src/stm32g4xx_ll_usb.c **** 
 735:Drivers/STM32G4xx_HAL_Driver/Src/stm32g4xx_ll_usb.c ****   /* switch-off device */
 736:Drivers/STM32G4xx_HAL_Driver/Src/stm32g4xx_ll_usb.c ****   USBx->CNTR = (uint16_t)(USB_CNTR_FRES | USB_CNTR_PDWN);
 2167              		.loc 1 736 3 is_stmt 1 view .LVU760
 2168              		.loc 1 736 14 is_stmt 0 view .LVU761
 2169 000e 0322     		movs	r2, #3
 2170 0010 A3F84020 		strh	r2, [r3, #64]	@ movhi
 737:Drivers/STM32G4xx_HAL_Driver/Src/stm32g4xx_ll_usb.c **** 
 738:Drivers/STM32G4xx_HAL_Driver/Src/stm32g4xx_ll_usb.c ****   return HAL_OK;
 2171              		.loc 1 738 3 is_stmt 1 view .LVU762
 739:Drivers/STM32G4xx_HAL_Driver/Src/stm32g4xx_ll_usb.c **** }
 2172              		.loc 1 739 1 is_stmt 0 view .LVU763
 2173 0014 7047     		bx	lr
 2174              		.cfi_endproc
 2175              	.LFE145:
 2177              		.section	.text.USB_SetDevAddress,"ax",%progbits
 2178              		.align	1
 2179              		.global	USB_SetDevAddress
 2180              		.syntax unified
 2181              		.thumb
 2182              		.thumb_func
 2184              	USB_SetDevAddress:
 2185              	.LVL255:
 2186              	.LFB146:
 740:Drivers/STM32G4xx_HAL_Driver/Src/stm32g4xx_ll_usb.c **** 
 741:Drivers/STM32G4xx_HAL_Driver/Src/stm32g4xx_ll_usb.c **** /**
 742:Drivers/STM32G4xx_HAL_Driver/Src/stm32g4xx_ll_usb.c ****   * @brief  USB_SetDevAddress Stop the usb device mode
 743:Drivers/STM32G4xx_HAL_Driver/Src/stm32g4xx_ll_usb.c ****   * @param  USBx Selected device
 744:Drivers/STM32G4xx_HAL_Driver/Src/stm32g4xx_ll_usb.c ****   * @param  address new device address to be assigned
 745:Drivers/STM32G4xx_HAL_Driver/Src/stm32g4xx_ll_usb.c ****   *          This parameter can be a value from 0 to 255
 746:Drivers/STM32G4xx_HAL_Driver/Src/stm32g4xx_ll_usb.c ****   * @retval HAL status
 747:Drivers/STM32G4xx_HAL_Driver/Src/stm32g4xx_ll_usb.c ****   */
 748:Drivers/STM32G4xx_HAL_Driver/Src/stm32g4xx_ll_usb.c **** HAL_StatusTypeDef  USB_SetDevAddress(USB_TypeDef *USBx, uint8_t address)
 749:Drivers/STM32G4xx_HAL_Driver/Src/stm32g4xx_ll_usb.c **** {
 2187              		.loc 1 749 1 is_stmt 1 view -0
 2188              		.cfi_startproc
 2189              		@ args = 0, pretend = 0, frame = 0
 2190              		@ frame_needed = 0, uses_anonymous_args = 0
 2191              		@ link register save eliminated.
 750:Drivers/STM32G4xx_HAL_Driver/Src/stm32g4xx_ll_usb.c ****   if (address == 0U)
 2192              		.loc 1 750 3 view .LVU765
 2193              		.loc 1 750 6 is_stmt 0 view .LVU766
 2194 0000 11B9     		cbnz	r1, .L82
 751:Drivers/STM32G4xx_HAL_Driver/Src/stm32g4xx_ll_usb.c ****   {
 752:Drivers/STM32G4xx_HAL_Driver/Src/stm32g4xx_ll_usb.c ****     /* set device address and enable function */
 753:Drivers/STM32G4xx_HAL_Driver/Src/stm32g4xx_ll_usb.c ****     USBx->DADDR = (uint16_t)USB_DADDR_EF;
 2195              		.loc 1 753 5 is_stmt 1 view .LVU767
 2196              		.loc 1 753 17 is_stmt 0 view .LVU768
 2197 0002 8023     		movs	r3, #128
 2198 0004 A0F84C30 		strh	r3, [r0, #76]	@ movhi
 2199              	.L82:
 754:Drivers/STM32G4xx_HAL_Driver/Src/stm32g4xx_ll_usb.c ****   }
 755:Drivers/STM32G4xx_HAL_Driver/Src/stm32g4xx_ll_usb.c **** 
 756:Drivers/STM32G4xx_HAL_Driver/Src/stm32g4xx_ll_usb.c ****   return HAL_OK;
 2200              		.loc 1 756 3 is_stmt 1 view .LVU769
 757:Drivers/STM32G4xx_HAL_Driver/Src/stm32g4xx_ll_usb.c **** }
ARM GAS  C:\Users\Nathan\AppData\Local\Temp\ccyJNqjv.s 			page 57


 2201              		.loc 1 757 1 is_stmt 0 view .LVU770
 2202 0008 0020     		movs	r0, #0
 2203              	.LVL256:
 2204              		.loc 1 757 1 view .LVU771
 2205 000a 7047     		bx	lr
 2206              		.cfi_endproc
 2207              	.LFE146:
 2209              		.section	.text.USB_DevConnect,"ax",%progbits
 2210              		.align	1
 2211              		.global	USB_DevConnect
 2212              		.syntax unified
 2213              		.thumb
 2214              		.thumb_func
 2216              	USB_DevConnect:
 2217              	.LVL257:
 2218              	.LFB147:
 758:Drivers/STM32G4xx_HAL_Driver/Src/stm32g4xx_ll_usb.c **** 
 759:Drivers/STM32G4xx_HAL_Driver/Src/stm32g4xx_ll_usb.c **** /**
 760:Drivers/STM32G4xx_HAL_Driver/Src/stm32g4xx_ll_usb.c ****   * @brief  USB_DevConnect Connect the USB device by enabling the pull-up/pull-down
 761:Drivers/STM32G4xx_HAL_Driver/Src/stm32g4xx_ll_usb.c ****   * @param  USBx Selected device
 762:Drivers/STM32G4xx_HAL_Driver/Src/stm32g4xx_ll_usb.c ****   * @retval HAL status
 763:Drivers/STM32G4xx_HAL_Driver/Src/stm32g4xx_ll_usb.c ****   */
 764:Drivers/STM32G4xx_HAL_Driver/Src/stm32g4xx_ll_usb.c **** HAL_StatusTypeDef  USB_DevConnect(USB_TypeDef *USBx)
 765:Drivers/STM32G4xx_HAL_Driver/Src/stm32g4xx_ll_usb.c **** {
 2219              		.loc 1 765 1 is_stmt 1 view -0
 2220              		.cfi_startproc
 2221              		@ args = 0, pretend = 0, frame = 0
 2222              		@ frame_needed = 0, uses_anonymous_args = 0
 2223              		@ link register save eliminated.
 766:Drivers/STM32G4xx_HAL_Driver/Src/stm32g4xx_ll_usb.c ****   /* Enabling DP Pull-UP bit to Connect internal PU resistor on USB DP line */
 767:Drivers/STM32G4xx_HAL_Driver/Src/stm32g4xx_ll_usb.c ****   USBx->BCDR |= (uint16_t)USB_BCDR_DPPU;
 2224              		.loc 1 767 3 view .LVU773
 2225              		.loc 1 767 7 is_stmt 0 view .LVU774
 2226 0000 B0F85830 		ldrh	r3, [r0, #88]
 2227              		.loc 1 767 14 view .LVU775
 2228 0004 6FEA4343 		mvn	r3, r3, lsl #17
 2229 0008 6FEA5343 		mvn	r3, r3, lsr #17
 2230 000c 9BB2     		uxth	r3, r3
 2231 000e A0F85830 		strh	r3, [r0, #88]	@ movhi
 768:Drivers/STM32G4xx_HAL_Driver/Src/stm32g4xx_ll_usb.c **** 
 769:Drivers/STM32G4xx_HAL_Driver/Src/stm32g4xx_ll_usb.c ****   return HAL_OK;
 2232              		.loc 1 769 3 is_stmt 1 view .LVU776
 770:Drivers/STM32G4xx_HAL_Driver/Src/stm32g4xx_ll_usb.c **** }
 2233              		.loc 1 770 1 is_stmt 0 view .LVU777
 2234 0012 0020     		movs	r0, #0
 2235              	.LVL258:
 2236              		.loc 1 770 1 view .LVU778
 2237 0014 7047     		bx	lr
 2238              		.cfi_endproc
 2239              	.LFE147:
 2241              		.section	.text.USB_DevDisconnect,"ax",%progbits
 2242              		.align	1
 2243              		.global	USB_DevDisconnect
 2244              		.syntax unified
 2245              		.thumb
 2246              		.thumb_func
 2248              	USB_DevDisconnect:
ARM GAS  C:\Users\Nathan\AppData\Local\Temp\ccyJNqjv.s 			page 58


 2249              	.LVL259:
 2250              	.LFB148:
 771:Drivers/STM32G4xx_HAL_Driver/Src/stm32g4xx_ll_usb.c **** 
 772:Drivers/STM32G4xx_HAL_Driver/Src/stm32g4xx_ll_usb.c **** /**
 773:Drivers/STM32G4xx_HAL_Driver/Src/stm32g4xx_ll_usb.c ****   * @brief  USB_DevDisconnect Disconnect the USB device by disabling the pull-up/pull-down
 774:Drivers/STM32G4xx_HAL_Driver/Src/stm32g4xx_ll_usb.c ****   * @param  USBx Selected device
 775:Drivers/STM32G4xx_HAL_Driver/Src/stm32g4xx_ll_usb.c ****   * @retval HAL status
 776:Drivers/STM32G4xx_HAL_Driver/Src/stm32g4xx_ll_usb.c ****   */
 777:Drivers/STM32G4xx_HAL_Driver/Src/stm32g4xx_ll_usb.c **** HAL_StatusTypeDef  USB_DevDisconnect(USB_TypeDef *USBx)
 778:Drivers/STM32G4xx_HAL_Driver/Src/stm32g4xx_ll_usb.c **** {
 2251              		.loc 1 778 1 is_stmt 1 view -0
 2252              		.cfi_startproc
 2253              		@ args = 0, pretend = 0, frame = 0
 2254              		@ frame_needed = 0, uses_anonymous_args = 0
 2255              		@ link register save eliminated.
 779:Drivers/STM32G4xx_HAL_Driver/Src/stm32g4xx_ll_usb.c ****   /* Disable DP Pull-Up bit to disconnect the Internal PU resistor on USB DP line */
 780:Drivers/STM32G4xx_HAL_Driver/Src/stm32g4xx_ll_usb.c ****   USBx->BCDR &= (uint16_t)(~(USB_BCDR_DPPU));
 2256              		.loc 1 780 3 view .LVU780
 2257              		.loc 1 780 7 is_stmt 0 view .LVU781
 2258 0000 B0F85830 		ldrh	r3, [r0, #88]
 2259              		.loc 1 780 14 view .LVU782
 2260 0004 C3F30E03 		ubfx	r3, r3, #0, #15
 2261 0008 A0F85830 		strh	r3, [r0, #88]	@ movhi
 781:Drivers/STM32G4xx_HAL_Driver/Src/stm32g4xx_ll_usb.c **** 
 782:Drivers/STM32G4xx_HAL_Driver/Src/stm32g4xx_ll_usb.c ****   return HAL_OK;
 2262              		.loc 1 782 3 is_stmt 1 view .LVU783
 783:Drivers/STM32G4xx_HAL_Driver/Src/stm32g4xx_ll_usb.c **** }
 2263              		.loc 1 783 1 is_stmt 0 view .LVU784
 2264 000c 0020     		movs	r0, #0
 2265              	.LVL260:
 2266              		.loc 1 783 1 view .LVU785
 2267 000e 7047     		bx	lr
 2268              		.cfi_endproc
 2269              	.LFE148:
 2271              		.section	.text.USB_ReadInterrupts,"ax",%progbits
 2272              		.align	1
 2273              		.global	USB_ReadInterrupts
 2274              		.syntax unified
 2275              		.thumb
 2276              		.thumb_func
 2278              	USB_ReadInterrupts:
 2279              	.LVL261:
 2280              	.LFB149:
 784:Drivers/STM32G4xx_HAL_Driver/Src/stm32g4xx_ll_usb.c **** 
 785:Drivers/STM32G4xx_HAL_Driver/Src/stm32g4xx_ll_usb.c **** /**
 786:Drivers/STM32G4xx_HAL_Driver/Src/stm32g4xx_ll_usb.c ****   * @brief  USB_ReadInterrupts return the global USB interrupt status
 787:Drivers/STM32G4xx_HAL_Driver/Src/stm32g4xx_ll_usb.c ****   * @param  USBx Selected device
 788:Drivers/STM32G4xx_HAL_Driver/Src/stm32g4xx_ll_usb.c ****   * @retval USB Global Interrupt status
 789:Drivers/STM32G4xx_HAL_Driver/Src/stm32g4xx_ll_usb.c ****   */
 790:Drivers/STM32G4xx_HAL_Driver/Src/stm32g4xx_ll_usb.c **** uint32_t USB_ReadInterrupts(USB_TypeDef const *USBx)
 791:Drivers/STM32G4xx_HAL_Driver/Src/stm32g4xx_ll_usb.c **** {
 2281              		.loc 1 791 1 is_stmt 1 view -0
 2282              		.cfi_startproc
 2283              		@ args = 0, pretend = 0, frame = 0
 2284              		@ frame_needed = 0, uses_anonymous_args = 0
 2285              		@ link register save eliminated.
 792:Drivers/STM32G4xx_HAL_Driver/Src/stm32g4xx_ll_usb.c ****   uint32_t tmpreg;
ARM GAS  C:\Users\Nathan\AppData\Local\Temp\ccyJNqjv.s 			page 59


 2286              		.loc 1 792 3 view .LVU787
 793:Drivers/STM32G4xx_HAL_Driver/Src/stm32g4xx_ll_usb.c **** 
 794:Drivers/STM32G4xx_HAL_Driver/Src/stm32g4xx_ll_usb.c ****   tmpreg = USBx->ISTR;
 2287              		.loc 1 794 3 view .LVU788
 2288              		.loc 1 794 16 is_stmt 0 view .LVU789
 2289 0000 B0F84400 		ldrh	r0, [r0, #68]
 2290              	.LVL262:
 795:Drivers/STM32G4xx_HAL_Driver/Src/stm32g4xx_ll_usb.c ****   return tmpreg;
 2291              		.loc 1 795 3 is_stmt 1 view .LVU790
 796:Drivers/STM32G4xx_HAL_Driver/Src/stm32g4xx_ll_usb.c **** }
 2292              		.loc 1 796 1 is_stmt 0 view .LVU791
 2293 0004 80B2     		uxth	r0, r0
 2294              	.LVL263:
 2295              		.loc 1 796 1 view .LVU792
 2296 0006 7047     		bx	lr
 2297              		.cfi_endproc
 2298              	.LFE149:
 2300              		.section	.text.USB_ActivateRemoteWakeup,"ax",%progbits
 2301              		.align	1
 2302              		.global	USB_ActivateRemoteWakeup
 2303              		.syntax unified
 2304              		.thumb
 2305              		.thumb_func
 2307              	USB_ActivateRemoteWakeup:
 2308              	.LVL264:
 2309              	.LFB150:
 797:Drivers/STM32G4xx_HAL_Driver/Src/stm32g4xx_ll_usb.c **** 
 798:Drivers/STM32G4xx_HAL_Driver/Src/stm32g4xx_ll_usb.c **** /**
 799:Drivers/STM32G4xx_HAL_Driver/Src/stm32g4xx_ll_usb.c ****   * @brief  USB_ActivateRemoteWakeup : active remote wakeup signalling
 800:Drivers/STM32G4xx_HAL_Driver/Src/stm32g4xx_ll_usb.c ****   * @param  USBx Selected device
 801:Drivers/STM32G4xx_HAL_Driver/Src/stm32g4xx_ll_usb.c ****   * @retval HAL status
 802:Drivers/STM32G4xx_HAL_Driver/Src/stm32g4xx_ll_usb.c ****   */
 803:Drivers/STM32G4xx_HAL_Driver/Src/stm32g4xx_ll_usb.c **** HAL_StatusTypeDef USB_ActivateRemoteWakeup(USB_TypeDef *USBx)
 804:Drivers/STM32G4xx_HAL_Driver/Src/stm32g4xx_ll_usb.c **** {
 2310              		.loc 1 804 1 is_stmt 1 view -0
 2311              		.cfi_startproc
 2312              		@ args = 0, pretend = 0, frame = 0
 2313              		@ frame_needed = 0, uses_anonymous_args = 0
 2314              		@ link register save eliminated.
 805:Drivers/STM32G4xx_HAL_Driver/Src/stm32g4xx_ll_usb.c ****   USBx->CNTR |= (uint16_t)USB_CNTR_RESUME;
 2315              		.loc 1 805 3 view .LVU794
 2316              		.loc 1 805 7 is_stmt 0 view .LVU795
 2317 0000 B0F84030 		ldrh	r3, [r0, #64]
 2318 0004 9BB2     		uxth	r3, r3
 2319              		.loc 1 805 14 view .LVU796
 2320 0006 43F01003 		orr	r3, r3, #16
 2321 000a A0F84030 		strh	r3, [r0, #64]	@ movhi
 806:Drivers/STM32G4xx_HAL_Driver/Src/stm32g4xx_ll_usb.c **** 
 807:Drivers/STM32G4xx_HAL_Driver/Src/stm32g4xx_ll_usb.c ****   return HAL_OK;
 2322              		.loc 1 807 3 is_stmt 1 view .LVU797
 808:Drivers/STM32G4xx_HAL_Driver/Src/stm32g4xx_ll_usb.c **** }
 2323              		.loc 1 808 1 is_stmt 0 view .LVU798
 2324 000e 0020     		movs	r0, #0
 2325              	.LVL265:
 2326              		.loc 1 808 1 view .LVU799
 2327 0010 7047     		bx	lr
 2328              		.cfi_endproc
ARM GAS  C:\Users\Nathan\AppData\Local\Temp\ccyJNqjv.s 			page 60


 2329              	.LFE150:
 2331              		.section	.text.USB_DeActivateRemoteWakeup,"ax",%progbits
 2332              		.align	1
 2333              		.global	USB_DeActivateRemoteWakeup
 2334              		.syntax unified
 2335              		.thumb
 2336              		.thumb_func
 2338              	USB_DeActivateRemoteWakeup:
 2339              	.LVL266:
 2340              	.LFB151:
 809:Drivers/STM32G4xx_HAL_Driver/Src/stm32g4xx_ll_usb.c **** 
 810:Drivers/STM32G4xx_HAL_Driver/Src/stm32g4xx_ll_usb.c **** /**
 811:Drivers/STM32G4xx_HAL_Driver/Src/stm32g4xx_ll_usb.c ****   * @brief  USB_DeActivateRemoteWakeup de-active remote wakeup signalling
 812:Drivers/STM32G4xx_HAL_Driver/Src/stm32g4xx_ll_usb.c ****   * @param  USBx Selected device
 813:Drivers/STM32G4xx_HAL_Driver/Src/stm32g4xx_ll_usb.c ****   * @retval HAL status
 814:Drivers/STM32G4xx_HAL_Driver/Src/stm32g4xx_ll_usb.c ****   */
 815:Drivers/STM32G4xx_HAL_Driver/Src/stm32g4xx_ll_usb.c **** HAL_StatusTypeDef USB_DeActivateRemoteWakeup(USB_TypeDef *USBx)
 816:Drivers/STM32G4xx_HAL_Driver/Src/stm32g4xx_ll_usb.c **** {
 2341              		.loc 1 816 1 is_stmt 1 view -0
 2342              		.cfi_startproc
 2343              		@ args = 0, pretend = 0, frame = 0
 2344              		@ frame_needed = 0, uses_anonymous_args = 0
 2345              		@ link register save eliminated.
 817:Drivers/STM32G4xx_HAL_Driver/Src/stm32g4xx_ll_usb.c ****   USBx->CNTR &= (uint16_t)(~USB_CNTR_RESUME);
 2346              		.loc 1 817 3 view .LVU801
 2347              		.loc 1 817 7 is_stmt 0 view .LVU802
 2348 0000 B0F84030 		ldrh	r3, [r0, #64]
 2349 0004 9BB2     		uxth	r3, r3
 2350              		.loc 1 817 14 view .LVU803
 2351 0006 23F01003 		bic	r3, r3, #16
 2352 000a 9BB2     		uxth	r3, r3
 2353 000c A0F84030 		strh	r3, [r0, #64]	@ movhi
 818:Drivers/STM32G4xx_HAL_Driver/Src/stm32g4xx_ll_usb.c **** 
 819:Drivers/STM32G4xx_HAL_Driver/Src/stm32g4xx_ll_usb.c ****   return HAL_OK;
 2354              		.loc 1 819 3 is_stmt 1 view .LVU804
 820:Drivers/STM32G4xx_HAL_Driver/Src/stm32g4xx_ll_usb.c **** }
 2355              		.loc 1 820 1 is_stmt 0 view .LVU805
 2356 0010 0020     		movs	r0, #0
 2357              	.LVL267:
 2358              		.loc 1 820 1 view .LVU806
 2359 0012 7047     		bx	lr
 2360              		.cfi_endproc
 2361              	.LFE151:
 2363              		.section	.text.USB_WritePMA,"ax",%progbits
 2364              		.align	1
 2365              		.global	USB_WritePMA
 2366              		.syntax unified
 2367              		.thumb
 2368              		.thumb_func
 2370              	USB_WritePMA:
 2371              	.LVL268:
 2372              	.LFB152:
 821:Drivers/STM32G4xx_HAL_Driver/Src/stm32g4xx_ll_usb.c **** 
 822:Drivers/STM32G4xx_HAL_Driver/Src/stm32g4xx_ll_usb.c **** /**
 823:Drivers/STM32G4xx_HAL_Driver/Src/stm32g4xx_ll_usb.c ****   * @brief Copy a buffer from user memory area to packet memory area (PMA)
 824:Drivers/STM32G4xx_HAL_Driver/Src/stm32g4xx_ll_usb.c ****   * @param   USBx USB peripheral instance register address.
 825:Drivers/STM32G4xx_HAL_Driver/Src/stm32g4xx_ll_usb.c ****   * @param   pbUsrBuf pointer to user memory area.
ARM GAS  C:\Users\Nathan\AppData\Local\Temp\ccyJNqjv.s 			page 61


 826:Drivers/STM32G4xx_HAL_Driver/Src/stm32g4xx_ll_usb.c ****   * @param   wPMABufAddr address into PMA.
 827:Drivers/STM32G4xx_HAL_Driver/Src/stm32g4xx_ll_usb.c ****   * @param   wNBytes no. of bytes to be copied.
 828:Drivers/STM32G4xx_HAL_Driver/Src/stm32g4xx_ll_usb.c ****   * @retval None
 829:Drivers/STM32G4xx_HAL_Driver/Src/stm32g4xx_ll_usb.c ****   */
 830:Drivers/STM32G4xx_HAL_Driver/Src/stm32g4xx_ll_usb.c **** void USB_WritePMA(USB_TypeDef const *USBx, uint8_t *pbUsrBuf, uint16_t wPMABufAddr, uint16_t wNByte
 831:Drivers/STM32G4xx_HAL_Driver/Src/stm32g4xx_ll_usb.c **** {
 2373              		.loc 1 831 1 is_stmt 1 view -0
 2374              		.cfi_startproc
 2375              		@ args = 0, pretend = 0, frame = 0
 2376              		@ frame_needed = 0, uses_anonymous_args = 0
 2377              		@ link register save eliminated.
 832:Drivers/STM32G4xx_HAL_Driver/Src/stm32g4xx_ll_usb.c ****   uint32_t n = ((uint32_t)wNBytes + 1U) >> 1;
 2378              		.loc 1 832 3 view .LVU808
 2379              		.loc 1 832 35 is_stmt 0 view .LVU809
 2380 0000 0133     		adds	r3, r3, #1
 2381              	.LVL269:
 2382              		.loc 1 832 12 view .LVU810
 2383 0002 5B08     		lsrs	r3, r3, #1
 2384              	.LVL270:
 833:Drivers/STM32G4xx_HAL_Driver/Src/stm32g4xx_ll_usb.c ****   uint32_t BaseAddr = (uint32_t)USBx;
 2385              		.loc 1 833 3 is_stmt 1 view .LVU811
 834:Drivers/STM32G4xx_HAL_Driver/Src/stm32g4xx_ll_usb.c ****   uint32_t count;
 2386              		.loc 1 834 3 view .LVU812
 835:Drivers/STM32G4xx_HAL_Driver/Src/stm32g4xx_ll_usb.c ****   uint16_t WrVal;
 2387              		.loc 1 835 3 view .LVU813
 836:Drivers/STM32G4xx_HAL_Driver/Src/stm32g4xx_ll_usb.c ****   __IO uint16_t *pdwVal;
 2388              		.loc 1 836 3 view .LVU814
 837:Drivers/STM32G4xx_HAL_Driver/Src/stm32g4xx_ll_usb.c ****   uint8_t *pBuf = pbUsrBuf;
 2389              		.loc 1 837 3 view .LVU815
 838:Drivers/STM32G4xx_HAL_Driver/Src/stm32g4xx_ll_usb.c **** 
 839:Drivers/STM32G4xx_HAL_Driver/Src/stm32g4xx_ll_usb.c ****   pdwVal = (__IO uint16_t *)(BaseAddr + 0x400U + ((uint32_t)wPMABufAddr * PMA_ACCESS));
 2390              		.loc 1 839 3 view .LVU816
 2391              		.loc 1 839 48 is_stmt 0 view .LVU817
 2392 0004 0244     		add	r2, r2, r0
 2393              	.LVL271:
 2394              		.loc 1 839 48 view .LVU818
 2395 0006 02F58062 		add	r2, r2, #1024
 2396              	.LVL272:
 840:Drivers/STM32G4xx_HAL_Driver/Src/stm32g4xx_ll_usb.c **** 
 841:Drivers/STM32G4xx_HAL_Driver/Src/stm32g4xx_ll_usb.c ****   for (count = n; count != 0U; count--)
 2397              		.loc 1 841 3 is_stmt 1 view .LVU819
 2398              		.loc 1 841 3 is_stmt 0 view .LVU820
 2399 000a 08E0     		b	.L89
 2400              	.LVL273:
 2401              	.L90:
 842:Drivers/STM32G4xx_HAL_Driver/Src/stm32g4xx_ll_usb.c ****   {
 843:Drivers/STM32G4xx_HAL_Driver/Src/stm32g4xx_ll_usb.c ****     WrVal = pBuf[0];
 2402              		.loc 1 843 5 is_stmt 1 view .LVU821
 2403              		.loc 1 843 17 is_stmt 0 view .LVU822
 2404 000c 0878     		ldrb	r0, [r1]	@ zero_extendqisi2
 2405              	.LVL274:
 844:Drivers/STM32G4xx_HAL_Driver/Src/stm32g4xx_ll_usb.c ****     WrVal |= (uint16_t)pBuf[1] << 8;
 2406              		.loc 1 844 5 is_stmt 1 view .LVU823
 2407              		.loc 1 844 28 is_stmt 0 view .LVU824
 2408 000e 91F801C0 		ldrb	ip, [r1, #1]	@ zero_extendqisi2
 2409              		.loc 1 844 11 view .LVU825
 2410 0012 40EA0C20 		orr	r0, r0, ip, lsl #8
ARM GAS  C:\Users\Nathan\AppData\Local\Temp\ccyJNqjv.s 			page 62


 2411              	.LVL275:
 845:Drivers/STM32G4xx_HAL_Driver/Src/stm32g4xx_ll_usb.c ****     *pdwVal = (WrVal & 0xFFFFU);
 2412              		.loc 1 845 5 is_stmt 1 view .LVU826
 2413              		.loc 1 845 13 is_stmt 0 view .LVU827
 2414 0016 22F8020B 		strh	r0, [r2], #2	@ movhi
 2415              	.LVL276:
 846:Drivers/STM32G4xx_HAL_Driver/Src/stm32g4xx_ll_usb.c ****     pdwVal++;
 2416              		.loc 1 846 5 is_stmt 1 view .LVU828
 847:Drivers/STM32G4xx_HAL_Driver/Src/stm32g4xx_ll_usb.c **** 
 848:Drivers/STM32G4xx_HAL_Driver/Src/stm32g4xx_ll_usb.c **** #if PMA_ACCESS > 1U
 849:Drivers/STM32G4xx_HAL_Driver/Src/stm32g4xx_ll_usb.c ****     pdwVal++;
 850:Drivers/STM32G4xx_HAL_Driver/Src/stm32g4xx_ll_usb.c **** #endif /* PMA_ACCESS */
 851:Drivers/STM32G4xx_HAL_Driver/Src/stm32g4xx_ll_usb.c **** 
 852:Drivers/STM32G4xx_HAL_Driver/Src/stm32g4xx_ll_usb.c ****     pBuf++;
 2417              		.loc 1 852 5 view .LVU829
 853:Drivers/STM32G4xx_HAL_Driver/Src/stm32g4xx_ll_usb.c ****     pBuf++;
 2418              		.loc 1 853 5 view .LVU830
 2419              		.loc 1 853 9 is_stmt 0 view .LVU831
 2420 001a 0231     		adds	r1, r1, #2
 2421              	.LVL277:
 841:Drivers/STM32G4xx_HAL_Driver/Src/stm32g4xx_ll_usb.c ****   {
 2422              		.loc 1 841 37 is_stmt 1 discriminator 3 view .LVU832
 2423 001c 013B     		subs	r3, r3, #1
 2424              	.LVL278:
 2425              	.L89:
 841:Drivers/STM32G4xx_HAL_Driver/Src/stm32g4xx_ll_usb.c ****   {
 2426              		.loc 1 841 25 discriminator 1 view .LVU833
 2427 001e 002B     		cmp	r3, #0
 2428 0020 F4D1     		bne	.L90
 854:Drivers/STM32G4xx_HAL_Driver/Src/stm32g4xx_ll_usb.c ****   }
 855:Drivers/STM32G4xx_HAL_Driver/Src/stm32g4xx_ll_usb.c **** }
 2429              		.loc 1 855 1 is_stmt 0 view .LVU834
 2430 0022 7047     		bx	lr
 2431              		.cfi_endproc
 2432              	.LFE152:
 2434              		.section	.text.USB_EPStartXfer,"ax",%progbits
 2435              		.align	1
 2436              		.global	USB_EPStartXfer
 2437              		.syntax unified
 2438              		.thumb
 2439              		.thumb_func
 2441              	USB_EPStartXfer:
 2442              	.LVL279:
 2443              	.LFB141:
 420:Drivers/STM32G4xx_HAL_Driver/Src/stm32g4xx_ll_usb.c ****   uint32_t len;
 2444              		.loc 1 420 1 is_stmt 1 view -0
 2445              		.cfi_startproc
 2446              		@ args = 0, pretend = 0, frame = 0
 2447              		@ frame_needed = 0, uses_anonymous_args = 0
 420:Drivers/STM32G4xx_HAL_Driver/Src/stm32g4xx_ll_usb.c ****   uint32_t len;
 2448              		.loc 1 420 1 is_stmt 0 view .LVU836
 2449 0000 70B5     		push	{r4, r5, r6, lr}
 2450              		.cfi_def_cfa_offset 16
 2451              		.cfi_offset 4, -16
 2452              		.cfi_offset 5, -12
 2453              		.cfi_offset 6, -8
 2454              		.cfi_offset 14, -4
ARM GAS  C:\Users\Nathan\AppData\Local\Temp\ccyJNqjv.s 			page 63


 2455 0002 0546     		mov	r5, r0
 2456 0004 0C46     		mov	r4, r1
 421:Drivers/STM32G4xx_HAL_Driver/Src/stm32g4xx_ll_usb.c **** #if (USE_USB_DOUBLE_BUFFER == 1U)
 2457              		.loc 1 421 3 is_stmt 1 view .LVU837
 423:Drivers/STM32G4xx_HAL_Driver/Src/stm32g4xx_ll_usb.c ****   uint16_t wEPVal;
 2458              		.loc 1 423 3 view .LVU838
 424:Drivers/STM32G4xx_HAL_Driver/Src/stm32g4xx_ll_usb.c **** #endif /* (USE_USB_DOUBLE_BUFFER == 1U) */
 2459              		.loc 1 424 3 view .LVU839
 428:Drivers/STM32G4xx_HAL_Driver/Src/stm32g4xx_ll_usb.c ****   {
 2460              		.loc 1 428 3 view .LVU840
 428:Drivers/STM32G4xx_HAL_Driver/Src/stm32g4xx_ll_usb.c ****   {
 2461              		.loc 1 428 9 is_stmt 0 view .LVU841
 2462 0006 4B78     		ldrb	r3, [r1, #1]	@ zero_extendqisi2
 428:Drivers/STM32G4xx_HAL_Driver/Src/stm32g4xx_ll_usb.c ****   {
 2463              		.loc 1 428 6 view .LVU842
 2464 0008 012B     		cmp	r3, #1
 2465 000a 1AD0     		beq	.L151
 564:Drivers/STM32G4xx_HAL_Driver/Src/stm32g4xx_ll_usb.c ****     {
 2466              		.loc 1 564 5 is_stmt 1 view .LVU843
 564:Drivers/STM32G4xx_HAL_Driver/Src/stm32g4xx_ll_usb.c ****     {
 2467              		.loc 1 564 11 is_stmt 0 view .LVU844
 2468 000c 0B7B     		ldrb	r3, [r1, #12]	@ zero_extendqisi2
 564:Drivers/STM32G4xx_HAL_Driver/Src/stm32g4xx_ll_usb.c ****     {
 2469              		.loc 1 564 8 view .LVU845
 2470 000e 002B     		cmp	r3, #0
 2471 0010 40F09282 		bne	.L141
 566:Drivers/STM32G4xx_HAL_Driver/Src/stm32g4xx_ll_usb.c ****       {
 2472              		.loc 1 566 7 is_stmt 1 view .LVU846
 566:Drivers/STM32G4xx_HAL_Driver/Src/stm32g4xx_ll_usb.c ****       {
 2473              		.loc 1 566 14 is_stmt 0 view .LVU847
 2474 0014 8B69     		ldr	r3, [r1, #24]
 566:Drivers/STM32G4xx_HAL_Driver/Src/stm32g4xx_ll_usb.c ****       {
 2475              		.loc 1 566 10 view .LVU848
 2476 0016 002B     		cmp	r3, #0
 2477 0018 40F06582 		bne	.L142
 566:Drivers/STM32G4xx_HAL_Driver/Src/stm32g4xx_ll_usb.c ****       {
 2478              		.loc 1 566 38 discriminator 1 view .LVU849
 2479 001c CB78     		ldrb	r3, [r1, #3]	@ zero_extendqisi2
 566:Drivers/STM32G4xx_HAL_Driver/Src/stm32g4xx_ll_usb.c ****       {
 2480              		.loc 1 566 32 discriminator 1 view .LVU850
 2481 001e 002B     		cmp	r3, #0
 2482 0020 40F06182 		bne	.L142
 569:Drivers/STM32G4xx_HAL_Driver/Src/stm32g4xx_ll_usb.c ****       }
 2483              		.loc 1 569 9 is_stmt 1 view .LVU851
 2484              	.LBB78:
 569:Drivers/STM32G4xx_HAL_Driver/Src/stm32g4xx_ll_usb.c ****       }
 2485              		.loc 1 569 9 view .LVU852
 569:Drivers/STM32G4xx_HAL_Driver/Src/stm32g4xx_ll_usb.c ****       }
 2486              		.loc 1 569 9 view .LVU853
 2487 0024 0A78     		ldrb	r2, [r1]	@ zero_extendqisi2
 2488 0026 30F82230 		ldrh	r3, [r0, r2, lsl #2]
 2489 002a 9BB2     		uxth	r3, r3
 2490 002c 23F4E043 		bic	r3, r3, #28672
 2491 0030 23F07003 		bic	r3, r3, #112
 2492              	.LVL280:
 569:Drivers/STM32G4xx_HAL_Driver/Src/stm32g4xx_ll_usb.c ****       }
 2493              		.loc 1 569 9 view .LVU854
ARM GAS  C:\Users\Nathan\AppData\Local\Temp\ccyJNqjv.s 			page 64


 2494 0034 43F40143 		orr	r3, r3, #33024
 2495              	.LVL281:
 569:Drivers/STM32G4xx_HAL_Driver/Src/stm32g4xx_ll_usb.c ****       }
 2496              		.loc 1 569 9 is_stmt 0 view .LVU855
 2497 0038 43F08003 		orr	r3, r3, #128
 2498 003c 20F82230 		strh	r3, [r0, r2, lsl #2]	@ movhi
 2499              	.LBE78:
 569:Drivers/STM32G4xx_HAL_Driver/Src/stm32g4xx_ll_usb.c ****       }
 2500              		.loc 1 569 9 is_stmt 1 view .LVU856
 2501 0040 5FE2     		b	.L143
 2502              	.LVL282:
 2503              	.L151:
 431:Drivers/STM32G4xx_HAL_Driver/Src/stm32g4xx_ll_usb.c ****     {
 2504              		.loc 1 431 5 view .LVU857
 431:Drivers/STM32G4xx_HAL_Driver/Src/stm32g4xx_ll_usb.c ****     {
 2505              		.loc 1 431 11 is_stmt 0 view .LVU858
 2506 0042 8E69     		ldr	r6, [r1, #24]
 431:Drivers/STM32G4xx_HAL_Driver/Src/stm32g4xx_ll_usb.c ****     {
 2507              		.loc 1 431 26 view .LVU859
 2508 0044 0A69     		ldr	r2, [r1, #16]
 431:Drivers/STM32G4xx_HAL_Driver/Src/stm32g4xx_ll_usb.c ****     {
 2509              		.loc 1 431 8 view .LVU860
 2510 0046 9642     		cmp	r6, r2
 2511 0048 00D9     		bls	.L93
 433:Drivers/STM32G4xx_HAL_Driver/Src/stm32g4xx_ll_usb.c ****     }
 2512              		.loc 1 433 11 view .LVU861
 2513 004a 1646     		mov	r6, r2
 2514              	.L93:
 2515              	.LVL283:
 441:Drivers/STM32G4xx_HAL_Driver/Src/stm32g4xx_ll_usb.c ****     {
 2516              		.loc 1 441 5 is_stmt 1 view .LVU862
 441:Drivers/STM32G4xx_HAL_Driver/Src/stm32g4xx_ll_usb.c ****     {
 2517              		.loc 1 441 11 is_stmt 0 view .LVU863
 2518 004c 217B     		ldrb	r1, [r4, #12]	@ zero_extendqisi2
 2519              	.LVL284:
 441:Drivers/STM32G4xx_HAL_Driver/Src/stm32g4xx_ll_usb.c ****     {
 2520              		.loc 1 441 8 view .LVU864
 2521 004e 41B3     		cbz	r1, .L152
 450:Drivers/STM32G4xx_HAL_Driver/Src/stm32g4xx_ll_usb.c ****       {
 2522              		.loc 1 450 7 is_stmt 1 view .LVU865
 450:Drivers/STM32G4xx_HAL_Driver/Src/stm32g4xx_ll_usb.c ****       {
 2523              		.loc 1 450 13 is_stmt 0 view .LVU866
 2524 0050 E178     		ldrb	r1, [r4, #3]	@ zero_extendqisi2
 450:Drivers/STM32G4xx_HAL_Driver/Src/stm32g4xx_ll_usb.c ****       {
 2525              		.loc 1 450 10 view .LVU867
 2526 0052 0229     		cmp	r1, #2
 2527 0054 47D0     		beq	.L153
 535:Drivers/STM32G4xx_HAL_Driver/Src/stm32g4xx_ll_usb.c **** 
 2528              		.loc 1 535 9 is_stmt 1 view .LVU868
 535:Drivers/STM32G4xx_HAL_Driver/Src/stm32g4xx_ll_usb.c **** 
 2529              		.loc 1 535 11 is_stmt 0 view .LVU869
 2530 0056 226A     		ldr	r2, [r4, #32]
 535:Drivers/STM32G4xx_HAL_Driver/Src/stm32g4xx_ll_usb.c **** 
 2531              		.loc 1 535 25 view .LVU870
 2532 0058 921B     		subs	r2, r2, r6
 2533 005a 2262     		str	r2, [r4, #32]
 538:Drivers/STM32G4xx_HAL_Driver/Src/stm32g4xx_ll_usb.c ****         {
ARM GAS  C:\Users\Nathan\AppData\Local\Temp\ccyJNqjv.s 			page 65


 2534              		.loc 1 538 9 is_stmt 1 view .LVU871
 538:Drivers/STM32G4xx_HAL_Driver/Src/stm32g4xx_ll_usb.c ****         {
 2535              		.loc 1 538 14 is_stmt 0 view .LVU872
 2536 005c 2278     		ldrb	r2, [r4]	@ zero_extendqisi2
 2537 005e 35F82210 		ldrh	r1, [r5, r2, lsl #2]
 538:Drivers/STM32G4xx_HAL_Driver/Src/stm32g4xx_ll_usb.c ****         {
 2538              		.loc 1 538 12 view .LVU873
 2539 0062 11F0400F 		tst	r1, #64
 2540 0066 00F0F681 		beq	.L127
 541:Drivers/STM32G4xx_HAL_Driver/Src/stm32g4xx_ll_usb.c ****           pmabuffer = ep->pmaaddr1;
 2541              		.loc 1 541 11 is_stmt 1 view .LVU874
 2542              	.LBB79:
 541:Drivers/STM32G4xx_HAL_Driver/Src/stm32g4xx_ll_usb.c ****           pmabuffer = ep->pmaaddr1;
 2543              		.loc 1 541 11 view .LVU875
 2544              	.LVL285:
 541:Drivers/STM32G4xx_HAL_Driver/Src/stm32g4xx_ll_usb.c ****           pmabuffer = ep->pmaaddr1;
 2545              		.loc 1 541 11 view .LVU876
 541:Drivers/STM32G4xx_HAL_Driver/Src/stm32g4xx_ll_usb.c ****           pmabuffer = ep->pmaaddr1;
 2546              		.loc 1 541 11 view .LVU877
 2547 006a 002B     		cmp	r3, #0
 2548 006c 40F0E381 		bne	.L128
 541:Drivers/STM32G4xx_HAL_Driver/Src/stm32g4xx_ll_usb.c ****           pmabuffer = ep->pmaaddr1;
 2549              		.loc 1 541 11 discriminator 1 view .LVU878
 2550              	.LBB80:
 541:Drivers/STM32G4xx_HAL_Driver/Src/stm32g4xx_ll_usb.c ****           pmabuffer = ep->pmaaddr1;
 2551              		.loc 1 541 11 discriminator 1 view .LVU879
 2552              	.LVL286:
 541:Drivers/STM32G4xx_HAL_Driver/Src/stm32g4xx_ll_usb.c ****           pmabuffer = ep->pmaaddr1;
 2553              		.loc 1 541 11 view .LVU880
 541:Drivers/STM32G4xx_HAL_Driver/Src/stm32g4xx_ll_usb.c ****           pmabuffer = ep->pmaaddr1;
 2554              		.loc 1 541 11 view .LVU881
 541:Drivers/STM32G4xx_HAL_Driver/Src/stm32g4xx_ll_usb.c ****           pmabuffer = ep->pmaaddr1;
 2555              		.loc 1 541 11 is_stmt 0 discriminator 1 view .LVU882
 2556 0070 B5F85030 		ldrh	r3, [r5, #80]
 2557 0074 15FA83F3 		uxtah	r3, r5, r3
 2558              	.LVL287:
 541:Drivers/STM32G4xx_HAL_Driver/Src/stm32g4xx_ll_usb.c ****           pmabuffer = ep->pmaaddr1;
 2559              		.loc 1 541 11 is_stmt 1 view .LVU883
 541:Drivers/STM32G4xx_HAL_Driver/Src/stm32g4xx_ll_usb.c ****           pmabuffer = ep->pmaaddr1;
 2560              		.loc 1 541 11 is_stmt 0 discriminator 1 view .LVU884
 2561 0078 03EBC202 		add	r2, r3, r2, lsl #3
 2562              	.LVL288:
 541:Drivers/STM32G4xx_HAL_Driver/Src/stm32g4xx_ll_usb.c ****           pmabuffer = ep->pmaaddr1;
 2563              		.loc 1 541 11 is_stmt 1 view .LVU885
 2564              	.LBB81:
 541:Drivers/STM32G4xx_HAL_Driver/Src/stm32g4xx_ll_usb.c ****           pmabuffer = ep->pmaaddr1;
 2565              		.loc 1 541 11 view .LVU886
 541:Drivers/STM32G4xx_HAL_Driver/Src/stm32g4xx_ll_usb.c ****           pmabuffer = ep->pmaaddr1;
 2566              		.loc 1 541 11 view .LVU887
 541:Drivers/STM32G4xx_HAL_Driver/Src/stm32g4xx_ll_usb.c ****           pmabuffer = ep->pmaaddr1;
 2567              		.loc 1 541 11 is_stmt 0 discriminator 1 view .LVU888
 2568 007c B2F80634 		ldrh	r3, [r2, #1030]
 2569              	.LVL289:
 541:Drivers/STM32G4xx_HAL_Driver/Src/stm32g4xx_ll_usb.c ****           pmabuffer = ep->pmaaddr1;
 2570              		.loc 1 541 11 discriminator 1 view .LVU889
 2571 0080 C3F30903 		ubfx	r3, r3, #0, #10
 2572 0084 A2F80634 		strh	r3, [r2, #1030]	@ movhi
ARM GAS  C:\Users\Nathan\AppData\Local\Temp\ccyJNqjv.s 			page 66


 541:Drivers/STM32G4xx_HAL_Driver/Src/stm32g4xx_ll_usb.c ****           pmabuffer = ep->pmaaddr1;
 2573              		.loc 1 541 11 is_stmt 1 view .LVU890
 541:Drivers/STM32G4xx_HAL_Driver/Src/stm32g4xx_ll_usb.c ****           pmabuffer = ep->pmaaddr1;
 2574              		.loc 1 541 11 is_stmt 0 discriminator 1 view .LVU891
 2575 0088 002E     		cmp	r6, #0
 2576 008a 40F0B481 		bne	.L129
 541:Drivers/STM32G4xx_HAL_Driver/Src/stm32g4xx_ll_usb.c ****           pmabuffer = ep->pmaaddr1;
 2577              		.loc 1 541 11 is_stmt 1 discriminator 3 view .LVU892
 2578 008e B2F80634 		ldrh	r3, [r2, #1030]
 2579 0092 6FEA4343 		mvn	r3, r3, lsl #17
 2580 0096 6FEA5343 		mvn	r3, r3, lsr #17
 2581 009a 9BB2     		uxth	r3, r3
 2582 009c A2F80634 		strh	r3, [r2, #1030]	@ movhi
 2583 00a0 D2E1     		b	.L130
 2584              	.LVL290:
 2585              	.L152:
 541:Drivers/STM32G4xx_HAL_Driver/Src/stm32g4xx_ll_usb.c ****           pmabuffer = ep->pmaaddr1;
 2586              		.loc 1 541 11 is_stmt 0 discriminator 3 view .LVU893
 2587              	.LBE81:
 2588              	.LBE80:
 2589              	.LBE79:
 443:Drivers/STM32G4xx_HAL_Driver/Src/stm32g4xx_ll_usb.c ****       PCD_SET_EP_TX_CNT(USBx, ep->num, len);
 2590              		.loc 1 443 7 is_stmt 1 view .LVU894
 2591 00a2 B6B2     		uxth	r6, r6
 2592              	.LVL291:
 443:Drivers/STM32G4xx_HAL_Driver/Src/stm32g4xx_ll_usb.c ****       PCD_SET_EP_TX_CNT(USBx, ep->num, len);
 2593              		.loc 1 443 7 is_stmt 0 view .LVU895
 2594 00a4 3346     		mov	r3, r6
 2595 00a6 E288     		ldrh	r2, [r4, #6]
 2596 00a8 6169     		ldr	r1, [r4, #20]
 2597 00aa 2846     		mov	r0, r5
 2598              	.LVL292:
 443:Drivers/STM32G4xx_HAL_Driver/Src/stm32g4xx_ll_usb.c ****       PCD_SET_EP_TX_CNT(USBx, ep->num, len);
 2599              		.loc 1 443 7 view .LVU896
 2600 00ac FFF7FEFF 		bl	USB_WritePMA
 2601              	.LVL293:
 444:Drivers/STM32G4xx_HAL_Driver/Src/stm32g4xx_ll_usb.c ****     }
 2602              		.loc 1 444 7 is_stmt 1 view .LVU897
 2603              	.LBB84:
 444:Drivers/STM32G4xx_HAL_Driver/Src/stm32g4xx_ll_usb.c ****     }
 2604              		.loc 1 444 7 view .LVU898
 444:Drivers/STM32G4xx_HAL_Driver/Src/stm32g4xx_ll_usb.c ****     }
 2605              		.loc 1 444 7 view .LVU899
 444:Drivers/STM32G4xx_HAL_Driver/Src/stm32g4xx_ll_usb.c ****     }
 2606              		.loc 1 444 7 view .LVU900
 2607 00b0 B5F85030 		ldrh	r3, [r5, #80]
 2608 00b4 15FA83F3 		uxtah	r3, r5, r3
 2609              	.LVL294:
 444:Drivers/STM32G4xx_HAL_Driver/Src/stm32g4xx_ll_usb.c ****     }
 2610              		.loc 1 444 7 view .LVU901
 2611 00b8 2278     		ldrb	r2, [r4]	@ zero_extendqisi2
 2612 00ba 03EBC203 		add	r3, r3, r2, lsl #3
 2613              	.LVL295:
 444:Drivers/STM32G4xx_HAL_Driver/Src/stm32g4xx_ll_usb.c ****     }
 2614              		.loc 1 444 7 view .LVU902
 2615 00be A3F80264 		strh	r6, [r3, #1026]	@ movhi
 2616              	.LBE84:
ARM GAS  C:\Users\Nathan\AppData\Local\Temp\ccyJNqjv.s 			page 67


 444:Drivers/STM32G4xx_HAL_Driver/Src/stm32g4xx_ll_usb.c ****     }
 2617              		.loc 1 444 7 view .LVU903
 2618              	.LVL296:
 2619              	.L95:
 560:Drivers/STM32G4xx_HAL_Driver/Src/stm32g4xx_ll_usb.c ****   }
 2620              		.loc 1 560 5 view .LVU904
 2621              	.LBB85:
 560:Drivers/STM32G4xx_HAL_Driver/Src/stm32g4xx_ll_usb.c ****   }
 2622              		.loc 1 560 5 view .LVU905
 560:Drivers/STM32G4xx_HAL_Driver/Src/stm32g4xx_ll_usb.c ****   }
 2623              		.loc 1 560 5 view .LVU906
 2624 00c2 2278     		ldrb	r2, [r4]	@ zero_extendqisi2
 2625 00c4 35F82230 		ldrh	r3, [r5, r2, lsl #2]
 2626 00c8 9BB2     		uxth	r3, r3
 2627 00ca 23F4E043 		bic	r3, r3, #28672
 2628 00ce 23F04003 		bic	r3, r3, #64
 2629              	.LVL297:
 560:Drivers/STM32G4xx_HAL_Driver/Src/stm32g4xx_ll_usb.c ****   }
 2630              		.loc 1 560 5 view .LVU907
 560:Drivers/STM32G4xx_HAL_Driver/Src/stm32g4xx_ll_usb.c ****   }
 2631              		.loc 1 560 5 discriminator 1 view .LVU908
 560:Drivers/STM32G4xx_HAL_Driver/Src/stm32g4xx_ll_usb.c ****   }
 2632              		.loc 1 560 5 discriminator 3 view .LVU909
 560:Drivers/STM32G4xx_HAL_Driver/Src/stm32g4xx_ll_usb.c ****   }
 2633              		.loc 1 560 5 discriminator 4 view .LVU910
 2634 00d2 83F03003 		eor	r3, r3, #48
 2635              	.LVL298:
 560:Drivers/STM32G4xx_HAL_Driver/Src/stm32g4xx_ll_usb.c ****   }
 2636              		.loc 1 560 5 discriminator 6 view .LVU911
 2637 00d6 43F40043 		orr	r3, r3, #32768
 2638              	.LVL299:
 560:Drivers/STM32G4xx_HAL_Driver/Src/stm32g4xx_ll_usb.c ****   }
 2639              		.loc 1 560 5 is_stmt 0 discriminator 6 view .LVU912
 2640 00da 43F08003 		orr	r3, r3, #128
 2641 00de 25F82230 		strh	r3, [r5, r2, lsl #2]	@ movhi
 2642              	.LBE85:
 560:Drivers/STM32G4xx_HAL_Driver/Src/stm32g4xx_ll_usb.c ****   }
 2643              		.loc 1 560 5 is_stmt 1 view .LVU913
 623:Drivers/STM32G4xx_HAL_Driver/Src/stm32g4xx_ll_usb.c **** }
 2644              		.loc 1 623 10 is_stmt 0 view .LVU914
 2645 00e2 0020     		movs	r0, #0
 2646 00e4 24E2     		b	.L140
 2647              	.LVL300:
 2648              	.L153:
 452:Drivers/STM32G4xx_HAL_Driver/Src/stm32g4xx_ll_usb.c ****         {
 2649              		.loc 1 452 9 is_stmt 1 view .LVU915
 452:Drivers/STM32G4xx_HAL_Driver/Src/stm32g4xx_ll_usb.c ****         {
 2650              		.loc 1 452 15 is_stmt 0 view .LVU916
 2651 00e6 236A     		ldr	r3, [r4, #32]
 452:Drivers/STM32G4xx_HAL_Driver/Src/stm32g4xx_ll_usb.c ****         {
 2652              		.loc 1 452 12 view .LVU917
 2653 00e8 9A42     		cmp	r2, r3
 2654 00ea 80F06681 		bcs	.L97
 455:Drivers/STM32G4xx_HAL_Driver/Src/stm32g4xx_ll_usb.c **** 
 2655              		.loc 1 455 11 is_stmt 1 view .LVU918
 2656              	.LBB86:
 455:Drivers/STM32G4xx_HAL_Driver/Src/stm32g4xx_ll_usb.c **** 
ARM GAS  C:\Users\Nathan\AppData\Local\Temp\ccyJNqjv.s 			page 68


 2657              		.loc 1 455 11 view .LVU919
 455:Drivers/STM32G4xx_HAL_Driver/Src/stm32g4xx_ll_usb.c **** 
 2658              		.loc 1 455 11 view .LVU920
 2659 00ee 2278     		ldrb	r2, [r4]	@ zero_extendqisi2
 2660 00f0 35F82230 		ldrh	r3, [r5, r2, lsl #2]
 2661 00f4 9BB2     		uxth	r3, r3
 2662 00f6 23F4E043 		bic	r3, r3, #28672
 2663 00fa 23F07003 		bic	r3, r3, #112
 2664              	.LVL301:
 455:Drivers/STM32G4xx_HAL_Driver/Src/stm32g4xx_ll_usb.c **** 
 2665              		.loc 1 455 11 view .LVU921
 2666 00fe 43F40143 		orr	r3, r3, #33024
 2667              	.LVL302:
 455:Drivers/STM32G4xx_HAL_Driver/Src/stm32g4xx_ll_usb.c **** 
 2668              		.loc 1 455 11 is_stmt 0 view .LVU922
 2669 0102 43F08003 		orr	r3, r3, #128
 2670 0106 25F82230 		strh	r3, [r5, r2, lsl #2]	@ movhi
 2671              	.LBE86:
 455:Drivers/STM32G4xx_HAL_Driver/Src/stm32g4xx_ll_usb.c **** 
 2672              		.loc 1 455 11 is_stmt 1 view .LVU923
 458:Drivers/STM32G4xx_HAL_Driver/Src/stm32g4xx_ll_usb.c **** 
 2673              		.loc 1 458 11 view .LVU924
 458:Drivers/STM32G4xx_HAL_Driver/Src/stm32g4xx_ll_usb.c **** 
 2674              		.loc 1 458 13 is_stmt 0 view .LVU925
 2675 010a 236A     		ldr	r3, [r4, #32]
 458:Drivers/STM32G4xx_HAL_Driver/Src/stm32g4xx_ll_usb.c **** 
 2676              		.loc 1 458 27 view .LVU926
 2677 010c 9B1B     		subs	r3, r3, r6
 2678 010e 2362     		str	r3, [r4, #32]
 461:Drivers/STM32G4xx_HAL_Driver/Src/stm32g4xx_ll_usb.c ****           {
 2679              		.loc 1 461 11 is_stmt 1 view .LVU927
 461:Drivers/STM32G4xx_HAL_Driver/Src/stm32g4xx_ll_usb.c ****           {
 2680              		.loc 1 461 16 is_stmt 0 view .LVU928
 2681 0110 2378     		ldrb	r3, [r4]	@ zero_extendqisi2
 2682 0112 35F82320 		ldrh	r2, [r5, r3, lsl #2]
 461:Drivers/STM32G4xx_HAL_Driver/Src/stm32g4xx_ll_usb.c ****           {
 2683              		.loc 1 461 14 view .LVU929
 2684 0116 12F0400F 		tst	r2, #64
 2685 011a 00F0A780 		beq	.L98
 464:Drivers/STM32G4xx_HAL_Driver/Src/stm32g4xx_ll_usb.c ****             pmabuffer = ep->pmaaddr1;
 2686              		.loc 1 464 13 is_stmt 1 view .LVU930
 2687              	.LBB87:
 464:Drivers/STM32G4xx_HAL_Driver/Src/stm32g4xx_ll_usb.c ****             pmabuffer = ep->pmaaddr1;
 2688              		.loc 1 464 13 view .LVU931
 2689              	.LVL303:
 464:Drivers/STM32G4xx_HAL_Driver/Src/stm32g4xx_ll_usb.c ****             pmabuffer = ep->pmaaddr1;
 2690              		.loc 1 464 13 view .LVU932
 464:Drivers/STM32G4xx_HAL_Driver/Src/stm32g4xx_ll_usb.c ****             pmabuffer = ep->pmaaddr1;
 2691              		.loc 1 464 13 view .LVU933
 2692 011e 6278     		ldrb	r2, [r4, #1]	@ zero_extendqisi2
 2693 0120 B2BB     		cbnz	r2, .L99
 464:Drivers/STM32G4xx_HAL_Driver/Src/stm32g4xx_ll_usb.c ****             pmabuffer = ep->pmaaddr1;
 2694              		.loc 1 464 13 discriminator 1 view .LVU934
 2695              	.LBB88:
 464:Drivers/STM32G4xx_HAL_Driver/Src/stm32g4xx_ll_usb.c ****             pmabuffer = ep->pmaaddr1;
 2696              		.loc 1 464 13 discriminator 1 view .LVU935
 2697              	.LVL304:
ARM GAS  C:\Users\Nathan\AppData\Local\Temp\ccyJNqjv.s 			page 69


 464:Drivers/STM32G4xx_HAL_Driver/Src/stm32g4xx_ll_usb.c ****             pmabuffer = ep->pmaaddr1;
 2698              		.loc 1 464 13 view .LVU936
 464:Drivers/STM32G4xx_HAL_Driver/Src/stm32g4xx_ll_usb.c ****             pmabuffer = ep->pmaaddr1;
 2699              		.loc 1 464 13 view .LVU937
 464:Drivers/STM32G4xx_HAL_Driver/Src/stm32g4xx_ll_usb.c ****             pmabuffer = ep->pmaaddr1;
 2700              		.loc 1 464 13 is_stmt 0 discriminator 1 view .LVU938
 2701 0122 B5F85020 		ldrh	r2, [r5, #80]
 2702 0126 15FA82F2 		uxtah	r2, r5, r2
 2703              	.LVL305:
 464:Drivers/STM32G4xx_HAL_Driver/Src/stm32g4xx_ll_usb.c ****             pmabuffer = ep->pmaaddr1;
 2704              		.loc 1 464 13 is_stmt 1 view .LVU939
 464:Drivers/STM32G4xx_HAL_Driver/Src/stm32g4xx_ll_usb.c ****             pmabuffer = ep->pmaaddr1;
 2705              		.loc 1 464 13 is_stmt 0 discriminator 1 view .LVU940
 2706 012a 02EBC303 		add	r3, r2, r3, lsl #3
 2707              	.LVL306:
 464:Drivers/STM32G4xx_HAL_Driver/Src/stm32g4xx_ll_usb.c ****             pmabuffer = ep->pmaaddr1;
 2708              		.loc 1 464 13 is_stmt 1 view .LVU941
 2709              	.LBB89:
 464:Drivers/STM32G4xx_HAL_Driver/Src/stm32g4xx_ll_usb.c ****             pmabuffer = ep->pmaaddr1;
 2710              		.loc 1 464 13 view .LVU942
 464:Drivers/STM32G4xx_HAL_Driver/Src/stm32g4xx_ll_usb.c ****             pmabuffer = ep->pmaaddr1;
 2711              		.loc 1 464 13 view .LVU943
 464:Drivers/STM32G4xx_HAL_Driver/Src/stm32g4xx_ll_usb.c ****             pmabuffer = ep->pmaaddr1;
 2712              		.loc 1 464 13 is_stmt 0 discriminator 1 view .LVU944
 2713 012e B3F80624 		ldrh	r2, [r3, #1030]
 2714              	.LVL307:
 464:Drivers/STM32G4xx_HAL_Driver/Src/stm32g4xx_ll_usb.c ****             pmabuffer = ep->pmaaddr1;
 2715              		.loc 1 464 13 discriminator 1 view .LVU945
 2716 0132 C2F30902 		ubfx	r2, r2, #0, #10
 2717 0136 A3F80624 		strh	r2, [r3, #1030]	@ movhi
 464:Drivers/STM32G4xx_HAL_Driver/Src/stm32g4xx_ll_usb.c ****             pmabuffer = ep->pmaaddr1;
 2718              		.loc 1 464 13 is_stmt 1 view .LVU946
 464:Drivers/STM32G4xx_HAL_Driver/Src/stm32g4xx_ll_usb.c ****             pmabuffer = ep->pmaaddr1;
 2719              		.loc 1 464 13 is_stmt 0 discriminator 1 view .LVU947
 2720 013a 4EB9     		cbnz	r6, .L100
 464:Drivers/STM32G4xx_HAL_Driver/Src/stm32g4xx_ll_usb.c ****             pmabuffer = ep->pmaaddr1;
 2721              		.loc 1 464 13 is_stmt 1 discriminator 3 view .LVU948
 2722 013c B3F80624 		ldrh	r2, [r3, #1030]
 2723 0140 6FEA4242 		mvn	r2, r2, lsl #17
 2724 0144 6FEA5242 		mvn	r2, r2, lsr #17
 2725 0148 92B2     		uxth	r2, r2
 2726 014a A3F80624 		strh	r2, [r3, #1030]	@ movhi
 2727 014e 21E0     		b	.L101
 2728              	.L100:
 464:Drivers/STM32G4xx_HAL_Driver/Src/stm32g4xx_ll_usb.c ****             pmabuffer = ep->pmaaddr1;
 2729              		.loc 1 464 13 discriminator 4 view .LVU949
 2730 0150 3E2E     		cmp	r6, #62
 2731 0152 0DD8     		bhi	.L102
 464:Drivers/STM32G4xx_HAL_Driver/Src/stm32g4xx_ll_usb.c ****             pmabuffer = ep->pmaaddr1;
 2732              		.loc 1 464 13 discriminator 6 view .LVU950
 464:Drivers/STM32G4xx_HAL_Driver/Src/stm32g4xx_ll_usb.c ****             pmabuffer = ep->pmaaddr1;
 2733              		.loc 1 464 13 discriminator 6 view .LVU951
 2734 0154 7208     		lsrs	r2, r6, #1
 2735              	.LVL308:
 464:Drivers/STM32G4xx_HAL_Driver/Src/stm32g4xx_ll_usb.c ****             pmabuffer = ep->pmaaddr1;
 2736              		.loc 1 464 13 view .LVU952
 464:Drivers/STM32G4xx_HAL_Driver/Src/stm32g4xx_ll_usb.c ****             pmabuffer = ep->pmaaddr1;
ARM GAS  C:\Users\Nathan\AppData\Local\Temp\ccyJNqjv.s 			page 70


 2737              		.loc 1 464 13 is_stmt 0 discriminator 6 view .LVU953
 2738 0156 16F0010F 		tst	r6, #1
 2739 015a 00D0     		beq	.L103
 464:Drivers/STM32G4xx_HAL_Driver/Src/stm32g4xx_ll_usb.c ****             pmabuffer = ep->pmaaddr1;
 2740              		.loc 1 464 13 is_stmt 1 discriminator 8 view .LVU954
 2741 015c 0132     		adds	r2, r2, #1
 2742              	.LVL309:
 2743              	.L103:
 464:Drivers/STM32G4xx_HAL_Driver/Src/stm32g4xx_ll_usb.c ****             pmabuffer = ep->pmaaddr1;
 2744              		.loc 1 464 13 discriminator 10 view .LVU955
 2745 015e B3F80614 		ldrh	r1, [r3, #1030]
 2746 0162 89B2     		uxth	r1, r1
 2747 0164 9202     		lsls	r2, r2, #10
 2748              	.LVL310:
 464:Drivers/STM32G4xx_HAL_Driver/Src/stm32g4xx_ll_usb.c ****             pmabuffer = ep->pmaaddr1;
 2749              		.loc 1 464 13 is_stmt 0 discriminator 10 view .LVU956
 2750 0166 92B2     		uxth	r2, r2
 2751 0168 0A43     		orrs	r2, r2, r1
 2752 016a A3F80624 		strh	r2, [r3, #1030]	@ movhi
 464:Drivers/STM32G4xx_HAL_Driver/Src/stm32g4xx_ll_usb.c ****             pmabuffer = ep->pmaaddr1;
 2753              		.loc 1 464 13 is_stmt 1 view .LVU957
 2754 016e 11E0     		b	.L101
 2755              	.LVL311:
 2756              	.L102:
 464:Drivers/STM32G4xx_HAL_Driver/Src/stm32g4xx_ll_usb.c ****             pmabuffer = ep->pmaaddr1;
 2757              		.loc 1 464 13 discriminator 7 view .LVU958
 464:Drivers/STM32G4xx_HAL_Driver/Src/stm32g4xx_ll_usb.c ****             pmabuffer = ep->pmaaddr1;
 2758              		.loc 1 464 13 discriminator 7 view .LVU959
 2759 0170 7109     		lsrs	r1, r6, #5
 2760              	.LVL312:
 464:Drivers/STM32G4xx_HAL_Driver/Src/stm32g4xx_ll_usb.c ****             pmabuffer = ep->pmaaddr1;
 2761              		.loc 1 464 13 view .LVU960
 464:Drivers/STM32G4xx_HAL_Driver/Src/stm32g4xx_ll_usb.c ****             pmabuffer = ep->pmaaddr1;
 2762              		.loc 1 464 13 is_stmt 0 discriminator 7 view .LVU961
 2763 0172 16F01F0F 		tst	r6, #31
 2764 0176 00D1     		bne	.L104
 464:Drivers/STM32G4xx_HAL_Driver/Src/stm32g4xx_ll_usb.c ****             pmabuffer = ep->pmaaddr1;
 2765              		.loc 1 464 13 is_stmt 1 discriminator 12 view .LVU962
 2766 0178 0139     		subs	r1, r1, #1
 2767              	.LVL313:
 2768              	.L104:
 464:Drivers/STM32G4xx_HAL_Driver/Src/stm32g4xx_ll_usb.c ****             pmabuffer = ep->pmaaddr1;
 2769              		.loc 1 464 13 discriminator 14 view .LVU963
 2770 017a B3F80624 		ldrh	r2, [r3, #1030]
 2771 017e 92B2     		uxth	r2, r2
 2772 0180 8902     		lsls	r1, r1, #10
 2773              	.LVL314:
 464:Drivers/STM32G4xx_HAL_Driver/Src/stm32g4xx_ll_usb.c ****             pmabuffer = ep->pmaaddr1;
 2774              		.loc 1 464 13 is_stmt 0 discriminator 14 view .LVU964
 2775 0182 89B2     		uxth	r1, r1
 2776 0184 0A43     		orrs	r2, r2, r1
 2777 0186 42F40042 		orr	r2, r2, #32768
 2778 018a A3F80624 		strh	r2, [r3, #1030]	@ movhi
 2779 018e 01E0     		b	.L101
 2780              	.LVL315:
 2781              	.L99:
 464:Drivers/STM32G4xx_HAL_Driver/Src/stm32g4xx_ll_usb.c ****             pmabuffer = ep->pmaaddr1;
ARM GAS  C:\Users\Nathan\AppData\Local\Temp\ccyJNqjv.s 			page 71


 2782              		.loc 1 464 13 discriminator 14 view .LVU965
 2783              	.LBE89:
 2784              	.LBE88:
 464:Drivers/STM32G4xx_HAL_Driver/Src/stm32g4xx_ll_usb.c ****             pmabuffer = ep->pmaaddr1;
 2785              		.loc 1 464 13 is_stmt 1 discriminator 2 view .LVU966
 2786 0190 012A     		cmp	r2, #1
 2787 0192 29D0     		beq	.L154
 2788              	.LVL316:
 2789              	.L101:
 464:Drivers/STM32G4xx_HAL_Driver/Src/stm32g4xx_ll_usb.c ****             pmabuffer = ep->pmaaddr1;
 2790              		.loc 1 464 13 is_stmt 0 discriminator 2 view .LVU967
 2791              	.LBE87:
 464:Drivers/STM32G4xx_HAL_Driver/Src/stm32g4xx_ll_usb.c ****             pmabuffer = ep->pmaaddr1;
 2792              		.loc 1 464 13 is_stmt 1 discriminator 18 view .LVU968
 465:Drivers/STM32G4xx_HAL_Driver/Src/stm32g4xx_ll_usb.c **** 
 2793              		.loc 1 465 13 view .LVU969
 468:Drivers/STM32G4xx_HAL_Driver/Src/stm32g4xx_ll_usb.c ****             ep->xfer_buff += len;
 2794              		.loc 1 468 13 view .LVU970
 2795 0194 B3B2     		uxth	r3, r6
 2796 0196 6289     		ldrh	r2, [r4, #10]
 2797 0198 6169     		ldr	r1, [r4, #20]
 2798 019a 2846     		mov	r0, r5
 2799              	.LVL317:
 468:Drivers/STM32G4xx_HAL_Driver/Src/stm32g4xx_ll_usb.c ****             ep->xfer_buff += len;
 2800              		.loc 1 468 13 is_stmt 0 view .LVU971
 2801 019c FFF7FEFF 		bl	USB_WritePMA
 2802              	.LVL318:
 469:Drivers/STM32G4xx_HAL_Driver/Src/stm32g4xx_ll_usb.c **** 
 2803              		.loc 1 469 13 is_stmt 1 view .LVU972
 469:Drivers/STM32G4xx_HAL_Driver/Src/stm32g4xx_ll_usb.c **** 
 2804              		.loc 1 469 15 is_stmt 0 view .LVU973
 2805 01a0 6369     		ldr	r3, [r4, #20]
 469:Drivers/STM32G4xx_HAL_Driver/Src/stm32g4xx_ll_usb.c **** 
 2806              		.loc 1 469 27 view .LVU974
 2807 01a2 3344     		add	r3, r3, r6
 2808 01a4 6361     		str	r3, [r4, #20]
 471:Drivers/STM32G4xx_HAL_Driver/Src/stm32g4xx_ll_usb.c ****             {
 2809              		.loc 1 471 13 is_stmt 1 view .LVU975
 471:Drivers/STM32G4xx_HAL_Driver/Src/stm32g4xx_ll_usb.c ****             {
 2810              		.loc 1 471 19 is_stmt 0 view .LVU976
 2811 01a6 236A     		ldr	r3, [r4, #32]
 471:Drivers/STM32G4xx_HAL_Driver/Src/stm32g4xx_ll_usb.c ****             {
 2812              		.loc 1 471 37 view .LVU977
 2813 01a8 2269     		ldr	r2, [r4, #16]
 471:Drivers/STM32G4xx_HAL_Driver/Src/stm32g4xx_ll_usb.c ****             {
 2814              		.loc 1 471 16 view .LVU978
 2815 01aa 9342     		cmp	r3, r2
 2816 01ac 26D9     		bls	.L105
 473:Drivers/STM32G4xx_HAL_Driver/Src/stm32g4xx_ll_usb.c ****             }
 2817              		.loc 1 473 15 is_stmt 1 view .LVU979
 473:Drivers/STM32G4xx_HAL_Driver/Src/stm32g4xx_ll_usb.c ****             }
 2818              		.loc 1 473 31 is_stmt 0 view .LVU980
 2819 01ae 9B1B     		subs	r3, r3, r6
 2820 01b0 2362     		str	r3, [r4, #32]
 2821              	.L106:
 482:Drivers/STM32G4xx_HAL_Driver/Src/stm32g4xx_ll_usb.c ****             pmabuffer = ep->pmaaddr0;
 2822              		.loc 1 482 13 is_stmt 1 view .LVU981
ARM GAS  C:\Users\Nathan\AppData\Local\Temp\ccyJNqjv.s 			page 72


 482:Drivers/STM32G4xx_HAL_Driver/Src/stm32g4xx_ll_usb.c ****             pmabuffer = ep->pmaaddr0;
 2823              		.loc 1 482 13 view .LVU982
 2824 01b2 6378     		ldrb	r3, [r4, #1]	@ zero_extendqisi2
 2825 01b4 002B     		cmp	r3, #0
 2826 01b6 45D1     		bne	.L107
 482:Drivers/STM32G4xx_HAL_Driver/Src/stm32g4xx_ll_usb.c ****             pmabuffer = ep->pmaaddr0;
 2827              		.loc 1 482 13 discriminator 1 view .LVU983
 2828              	.LBB90:
 482:Drivers/STM32G4xx_HAL_Driver/Src/stm32g4xx_ll_usb.c ****             pmabuffer = ep->pmaaddr0;
 2829              		.loc 1 482 13 discriminator 1 view .LVU984
 2830              	.LVL319:
 482:Drivers/STM32G4xx_HAL_Driver/Src/stm32g4xx_ll_usb.c ****             pmabuffer = ep->pmaaddr0;
 2831              		.loc 1 482 13 view .LVU985
 482:Drivers/STM32G4xx_HAL_Driver/Src/stm32g4xx_ll_usb.c ****             pmabuffer = ep->pmaaddr0;
 2832              		.loc 1 482 13 view .LVU986
 482:Drivers/STM32G4xx_HAL_Driver/Src/stm32g4xx_ll_usb.c ****             pmabuffer = ep->pmaaddr0;
 2833              		.loc 1 482 13 is_stmt 0 discriminator 1 view .LVU987
 2834 01b8 B5F85030 		ldrh	r3, [r5, #80]
 2835 01bc 15FA83F3 		uxtah	r3, r5, r3
 2836              	.LVL320:
 482:Drivers/STM32G4xx_HAL_Driver/Src/stm32g4xx_ll_usb.c ****             pmabuffer = ep->pmaaddr0;
 2837              		.loc 1 482 13 is_stmt 1 view .LVU988
 482:Drivers/STM32G4xx_HAL_Driver/Src/stm32g4xx_ll_usb.c ****             pmabuffer = ep->pmaaddr0;
 2838              		.loc 1 482 13 is_stmt 0 discriminator 1 view .LVU989
 2839 01c0 2278     		ldrb	r2, [r4]	@ zero_extendqisi2
 2840 01c2 03EBC203 		add	r3, r3, r2, lsl #3
 2841              	.LVL321:
 482:Drivers/STM32G4xx_HAL_Driver/Src/stm32g4xx_ll_usb.c ****             pmabuffer = ep->pmaaddr0;
 2842              		.loc 1 482 13 is_stmt 1 view .LVU990
 2843              	.LBB91:
 482:Drivers/STM32G4xx_HAL_Driver/Src/stm32g4xx_ll_usb.c ****             pmabuffer = ep->pmaaddr0;
 2844              		.loc 1 482 13 view .LVU991
 482:Drivers/STM32G4xx_HAL_Driver/Src/stm32g4xx_ll_usb.c ****             pmabuffer = ep->pmaaddr0;
 2845              		.loc 1 482 13 view .LVU992
 482:Drivers/STM32G4xx_HAL_Driver/Src/stm32g4xx_ll_usb.c ****             pmabuffer = ep->pmaaddr0;
 2846              		.loc 1 482 13 is_stmt 0 discriminator 1 view .LVU993
 2847 01c6 B3F80224 		ldrh	r2, [r3, #1026]
 2848 01ca C2F30902 		ubfx	r2, r2, #0, #10
 2849 01ce A3F80224 		strh	r2, [r3, #1026]	@ movhi
 482:Drivers/STM32G4xx_HAL_Driver/Src/stm32g4xx_ll_usb.c ****             pmabuffer = ep->pmaaddr0;
 2850              		.loc 1 482 13 is_stmt 1 view .LVU994
 482:Drivers/STM32G4xx_HAL_Driver/Src/stm32g4xx_ll_usb.c ****             pmabuffer = ep->pmaaddr0;
 2851              		.loc 1 482 13 is_stmt 0 discriminator 1 view .LVU995
 2852 01d2 BEB9     		cbnz	r6, .L108
 482:Drivers/STM32G4xx_HAL_Driver/Src/stm32g4xx_ll_usb.c ****             pmabuffer = ep->pmaaddr0;
 2853              		.loc 1 482 13 is_stmt 1 discriminator 3 view .LVU996
 2854 01d4 B3F80224 		ldrh	r2, [r3, #1026]
 2855 01d8 6FEA4242 		mvn	r2, r2, lsl #17
 2856 01dc 6FEA5242 		mvn	r2, r2, lsr #17
 2857 01e0 92B2     		uxth	r2, r2
 2858 01e2 A3F80224 		strh	r2, [r3, #1026]	@ movhi
 2859 01e6 2FE0     		b	.L109
 2860              	.LVL322:
 2861              	.L154:
 482:Drivers/STM32G4xx_HAL_Driver/Src/stm32g4xx_ll_usb.c ****             pmabuffer = ep->pmaaddr0;
 2862              		.loc 1 482 13 is_stmt 0 discriminator 3 view .LVU997
 2863              	.LBE91:
ARM GAS  C:\Users\Nathan\AppData\Local\Temp\ccyJNqjv.s 			page 73


 2864              	.LBE90:
 2865              	.LBB93:
 464:Drivers/STM32G4xx_HAL_Driver/Src/stm32g4xx_ll_usb.c ****             pmabuffer = ep->pmaaddr1;
 2866              		.loc 1 464 13 is_stmt 1 discriminator 16 view .LVU998
 2867 01e8 B5F85020 		ldrh	r2, [r5, #80]
 2868 01ec 15FA82F2 		uxtah	r2, r5, r2
 2869              	.LVL323:
 464:Drivers/STM32G4xx_HAL_Driver/Src/stm32g4xx_ll_usb.c ****             pmabuffer = ep->pmaaddr1;
 2870              		.loc 1 464 13 view .LVU999
 464:Drivers/STM32G4xx_HAL_Driver/Src/stm32g4xx_ll_usb.c ****             pmabuffer = ep->pmaaddr1;
 2871              		.loc 1 464 13 is_stmt 0 discriminator 16 view .LVU1000
 2872 01f0 02EBC303 		add	r3, r2, r3, lsl #3
 2873              	.LVL324:
 464:Drivers/STM32G4xx_HAL_Driver/Src/stm32g4xx_ll_usb.c ****             pmabuffer = ep->pmaaddr1;
 2874              		.loc 1 464 13 is_stmt 1 view .LVU1001
 464:Drivers/STM32G4xx_HAL_Driver/Src/stm32g4xx_ll_usb.c ****             pmabuffer = ep->pmaaddr1;
 2875              		.loc 1 464 13 is_stmt 0 discriminator 16 view .LVU1002
 2876 01f4 B2B2     		uxth	r2, r6
 2877              	.LVL325:
 464:Drivers/STM32G4xx_HAL_Driver/Src/stm32g4xx_ll_usb.c ****             pmabuffer = ep->pmaaddr1;
 2878              		.loc 1 464 13 discriminator 16 view .LVU1003
 2879 01f6 A3F80624 		strh	r2, [r3, #1030]	@ movhi
 2880 01fa CBE7     		b	.L101
 2881              	.LVL326:
 2882              	.L105:
 464:Drivers/STM32G4xx_HAL_Driver/Src/stm32g4xx_ll_usb.c ****             pmabuffer = ep->pmaaddr1;
 2883              		.loc 1 464 13 discriminator 16 view .LVU1004
 2884              	.LBE93:
 477:Drivers/STM32G4xx_HAL_Driver/Src/stm32g4xx_ll_usb.c ****               ep->xfer_len_db = 0U;
 2885              		.loc 1 477 15 is_stmt 1 view .LVU1005
 478:Drivers/STM32G4xx_HAL_Driver/Src/stm32g4xx_ll_usb.c ****             }
 2886              		.loc 1 478 15 view .LVU1006
 478:Drivers/STM32G4xx_HAL_Driver/Src/stm32g4xx_ll_usb.c ****             }
 2887              		.loc 1 478 31 is_stmt 0 view .LVU1007
 2888 01fc 0022     		movs	r2, #0
 2889 01fe 2262     		str	r2, [r4, #32]
 477:Drivers/STM32G4xx_HAL_Driver/Src/stm32g4xx_ll_usb.c ****               ep->xfer_len_db = 0U;
 2890              		.loc 1 477 19 view .LVU1008
 2891 0200 1E46     		mov	r6, r3
 2892 0202 D6E7     		b	.L106
 2893              	.LVL327:
 2894              	.L108:
 2895              	.LBB94:
 2896              	.LBB92:
 482:Drivers/STM32G4xx_HAL_Driver/Src/stm32g4xx_ll_usb.c ****             pmabuffer = ep->pmaaddr0;
 2897              		.loc 1 482 13 is_stmt 1 discriminator 4 view .LVU1009
 2898 0204 3E2E     		cmp	r6, #62
 2899 0206 0DD8     		bhi	.L110
 482:Drivers/STM32G4xx_HAL_Driver/Src/stm32g4xx_ll_usb.c ****             pmabuffer = ep->pmaaddr0;
 2900              		.loc 1 482 13 discriminator 6 view .LVU1010
 482:Drivers/STM32G4xx_HAL_Driver/Src/stm32g4xx_ll_usb.c ****             pmabuffer = ep->pmaaddr0;
 2901              		.loc 1 482 13 discriminator 6 view .LVU1011
 2902 0208 7208     		lsrs	r2, r6, #1
 2903              	.LVL328:
 482:Drivers/STM32G4xx_HAL_Driver/Src/stm32g4xx_ll_usb.c ****             pmabuffer = ep->pmaaddr0;
 2904              		.loc 1 482 13 view .LVU1012
 482:Drivers/STM32G4xx_HAL_Driver/Src/stm32g4xx_ll_usb.c ****             pmabuffer = ep->pmaaddr0;
ARM GAS  C:\Users\Nathan\AppData\Local\Temp\ccyJNqjv.s 			page 74


 2905              		.loc 1 482 13 is_stmt 0 discriminator 6 view .LVU1013
 2906 020a 16F0010F 		tst	r6, #1
 2907 020e 00D0     		beq	.L111
 482:Drivers/STM32G4xx_HAL_Driver/Src/stm32g4xx_ll_usb.c ****             pmabuffer = ep->pmaaddr0;
 2908              		.loc 1 482 13 is_stmt 1 discriminator 8 view .LVU1014
 2909 0210 0132     		adds	r2, r2, #1
 2910              	.LVL329:
 2911              	.L111:
 482:Drivers/STM32G4xx_HAL_Driver/Src/stm32g4xx_ll_usb.c ****             pmabuffer = ep->pmaaddr0;
 2912              		.loc 1 482 13 discriminator 10 view .LVU1015
 2913 0212 B3F80214 		ldrh	r1, [r3, #1026]
 2914 0216 89B2     		uxth	r1, r1
 2915 0218 9202     		lsls	r2, r2, #10
 2916              	.LVL330:
 482:Drivers/STM32G4xx_HAL_Driver/Src/stm32g4xx_ll_usb.c ****             pmabuffer = ep->pmaaddr0;
 2917              		.loc 1 482 13 is_stmt 0 discriminator 10 view .LVU1016
 2918 021a 92B2     		uxth	r2, r2
 2919 021c 0A43     		orrs	r2, r2, r1
 2920 021e A3F80224 		strh	r2, [r3, #1026]	@ movhi
 482:Drivers/STM32G4xx_HAL_Driver/Src/stm32g4xx_ll_usb.c ****             pmabuffer = ep->pmaaddr0;
 2921              		.loc 1 482 13 is_stmt 1 view .LVU1017
 2922 0222 11E0     		b	.L109
 2923              	.LVL331:
 2924              	.L110:
 482:Drivers/STM32G4xx_HAL_Driver/Src/stm32g4xx_ll_usb.c ****             pmabuffer = ep->pmaaddr0;
 2925              		.loc 1 482 13 discriminator 7 view .LVU1018
 482:Drivers/STM32G4xx_HAL_Driver/Src/stm32g4xx_ll_usb.c ****             pmabuffer = ep->pmaaddr0;
 2926              		.loc 1 482 13 discriminator 7 view .LVU1019
 2927 0224 7109     		lsrs	r1, r6, #5
 2928              	.LVL332:
 482:Drivers/STM32G4xx_HAL_Driver/Src/stm32g4xx_ll_usb.c ****             pmabuffer = ep->pmaaddr0;
 2929              		.loc 1 482 13 view .LVU1020
 482:Drivers/STM32G4xx_HAL_Driver/Src/stm32g4xx_ll_usb.c ****             pmabuffer = ep->pmaaddr0;
 2930              		.loc 1 482 13 is_stmt 0 discriminator 7 view .LVU1021
 2931 0226 16F01F0F 		tst	r6, #31
 2932 022a 00D1     		bne	.L112
 482:Drivers/STM32G4xx_HAL_Driver/Src/stm32g4xx_ll_usb.c ****             pmabuffer = ep->pmaaddr0;
 2933              		.loc 1 482 13 is_stmt 1 discriminator 12 view .LVU1022
 2934 022c 0139     		subs	r1, r1, #1
 2935              	.LVL333:
 2936              	.L112:
 482:Drivers/STM32G4xx_HAL_Driver/Src/stm32g4xx_ll_usb.c ****             pmabuffer = ep->pmaaddr0;
 2937              		.loc 1 482 13 discriminator 14 view .LVU1023
 2938 022e B3F80224 		ldrh	r2, [r3, #1026]
 2939 0232 92B2     		uxth	r2, r2
 2940 0234 8902     		lsls	r1, r1, #10
 2941              	.LVL334:
 482:Drivers/STM32G4xx_HAL_Driver/Src/stm32g4xx_ll_usb.c ****             pmabuffer = ep->pmaaddr0;
 2942              		.loc 1 482 13 is_stmt 0 discriminator 14 view .LVU1024
 2943 0236 89B2     		uxth	r1, r1
 2944 0238 0A43     		orrs	r2, r2, r1
 2945 023a 42F40042 		orr	r2, r2, #32768
 2946 023e A3F80224 		strh	r2, [r3, #1026]	@ movhi
 2947 0242 01E0     		b	.L109
 2948              	.LVL335:
 2949              	.L107:
 482:Drivers/STM32G4xx_HAL_Driver/Src/stm32g4xx_ll_usb.c ****             pmabuffer = ep->pmaaddr0;
ARM GAS  C:\Users\Nathan\AppData\Local\Temp\ccyJNqjv.s 			page 75


 2950              		.loc 1 482 13 discriminator 14 view .LVU1025
 2951              	.LBE92:
 2952              	.LBE94:
 482:Drivers/STM32G4xx_HAL_Driver/Src/stm32g4xx_ll_usb.c ****             pmabuffer = ep->pmaaddr0;
 2953              		.loc 1 482 13 is_stmt 1 discriminator 2 view .LVU1026
 2954 0244 012B     		cmp	r3, #1
 2955 0246 06D0     		beq	.L155
 2956              	.L109:
 482:Drivers/STM32G4xx_HAL_Driver/Src/stm32g4xx_ll_usb.c ****             pmabuffer = ep->pmaaddr0;
 2957              		.loc 1 482 13 discriminator 18 view .LVU1027
 482:Drivers/STM32G4xx_HAL_Driver/Src/stm32g4xx_ll_usb.c ****             pmabuffer = ep->pmaaddr0;
 2958              		.loc 1 482 13 discriminator 18 view .LVU1028
 483:Drivers/STM32G4xx_HAL_Driver/Src/stm32g4xx_ll_usb.c **** 
 2959              		.loc 1 483 13 view .LVU1029
 2960              	.LVL336:
 486:Drivers/STM32G4xx_HAL_Driver/Src/stm32g4xx_ll_usb.c ****           }
 2961              		.loc 1 486 13 view .LVU1030
 2962 0248 B3B2     		uxth	r3, r6
 2963 024a 2289     		ldrh	r2, [r4, #8]
 2964 024c 6169     		ldr	r1, [r4, #20]
 2965 024e 2846     		mov	r0, r5
 2966 0250 FFF7FEFF 		bl	USB_WritePMA
 2967              	.LVL337:
 486:Drivers/STM32G4xx_HAL_Driver/Src/stm32g4xx_ll_usb.c ****           }
 2968              		.loc 1 486 13 is_stmt 0 view .LVU1031
 2969 0254 35E7     		b	.L95
 2970              	.L155:
 482:Drivers/STM32G4xx_HAL_Driver/Src/stm32g4xx_ll_usb.c ****             pmabuffer = ep->pmaaddr0;
 2971              		.loc 1 482 13 is_stmt 1 discriminator 16 view .LVU1032
 2972              	.LBB95:
 482:Drivers/STM32G4xx_HAL_Driver/Src/stm32g4xx_ll_usb.c ****             pmabuffer = ep->pmaaddr0;
 2973              		.loc 1 482 13 discriminator 16 view .LVU1033
 2974              	.LVL338:
 482:Drivers/STM32G4xx_HAL_Driver/Src/stm32g4xx_ll_usb.c ****             pmabuffer = ep->pmaaddr0;
 2975              		.loc 1 482 13 view .LVU1034
 482:Drivers/STM32G4xx_HAL_Driver/Src/stm32g4xx_ll_usb.c ****             pmabuffer = ep->pmaaddr0;
 2976              		.loc 1 482 13 view .LVU1035
 482:Drivers/STM32G4xx_HAL_Driver/Src/stm32g4xx_ll_usb.c ****             pmabuffer = ep->pmaaddr0;
 2977              		.loc 1 482 13 is_stmt 0 discriminator 16 view .LVU1036
 2978 0256 B5F85030 		ldrh	r3, [r5, #80]
 2979 025a 15FA83F3 		uxtah	r3, r5, r3
 2980              	.LVL339:
 482:Drivers/STM32G4xx_HAL_Driver/Src/stm32g4xx_ll_usb.c ****             pmabuffer = ep->pmaaddr0;
 2981              		.loc 1 482 13 is_stmt 1 view .LVU1037
 482:Drivers/STM32G4xx_HAL_Driver/Src/stm32g4xx_ll_usb.c ****             pmabuffer = ep->pmaaddr0;
 2982              		.loc 1 482 13 is_stmt 0 discriminator 16 view .LVU1038
 2983 025e 2278     		ldrb	r2, [r4]	@ zero_extendqisi2
 2984 0260 03EBC203 		add	r3, r3, r2, lsl #3
 2985              	.LVL340:
 482:Drivers/STM32G4xx_HAL_Driver/Src/stm32g4xx_ll_usb.c ****             pmabuffer = ep->pmaaddr0;
 2986              		.loc 1 482 13 is_stmt 1 view .LVU1039
 482:Drivers/STM32G4xx_HAL_Driver/Src/stm32g4xx_ll_usb.c ****             pmabuffer = ep->pmaaddr0;
 2987              		.loc 1 482 13 is_stmt 0 discriminator 16 view .LVU1040
 2988 0264 B2B2     		uxth	r2, r6
 2989 0266 A3F80224 		strh	r2, [r3, #1026]	@ movhi
 2990 026a EDE7     		b	.L109
 2991              	.LVL341:
ARM GAS  C:\Users\Nathan\AppData\Local\Temp\ccyJNqjv.s 			page 76


 2992              	.L98:
 482:Drivers/STM32G4xx_HAL_Driver/Src/stm32g4xx_ll_usb.c ****             pmabuffer = ep->pmaaddr0;
 2993              		.loc 1 482 13 discriminator 16 view .LVU1041
 2994              	.LBE95:
 491:Drivers/STM32G4xx_HAL_Driver/Src/stm32g4xx_ll_usb.c ****             pmabuffer = ep->pmaaddr0;
 2995              		.loc 1 491 13 is_stmt 1 view .LVU1042
